ARM GAS  C:\Users\USUARIO\AppData\Local\Temp\ccto5ktg.s 			page 1


   1              		.syntax unified
   2              		.cpu cortex-m3
   3              		.fpu softvfp
   4              		.eabi_attribute 20, 1
   5              		.eabi_attribute 21, 1
   6              		.eabi_attribute 23, 3
   7              		.eabi_attribute 24, 1
   8              		.eabi_attribute 25, 1
   9              		.eabi_attribute 26, 1
  10              		.eabi_attribute 30, 1
  11              		.eabi_attribute 34, 1
  12              		.eabi_attribute 18, 4
  13              		.thumb
  14              		.syntax unified
  15              		.file	"24512.c"
  16              		.text
  17              	.Ltext0:
  18              		.cfi_sections	.debug_frame
  19              		.section	.text.write_ext_eeprom,"ax",%progbits
  20              		.align	2
  21              		.global	write_ext_eeprom
  22              		.thumb
  23              		.thumb_func
  24              		.type	write_ext_eeprom, %function
  25              	write_ext_eeprom:
  26              	.LFB63:
  27              		.file 1 "24512.c"
   1:24512.c       **** /* ========================================
   2:24512.c       ****  *
   3:24512.c       ****  * Copyright YOUR COMPANY, THE YEAR
   4:24512.c       ****  * All Rights Reserved
   5:24512.c       ****  * UNPUBLISHED, LICENSED SOFTWARE.
   6:24512.c       ****  *
   7:24512.c       ****  * CONFIDENTIAL AND PROPRIETARY INFORMATION
   8:24512.c       ****  * WHICH IS THE PROPERTY OF your company.
   9:24512.c       ****  *
  10:24512.c       ****  * ========================================
  11:24512.c       **** */
  12:24512.c       **** #include "24512.h"
  13:24512.c       **** 
  14:24512.c       **** uint8 I2CWriteBuffer[2]; //Location from which the calibration data is to be read
  15:24512.c       **** uint8 status=0;
  16:24512.c       **** 
  17:24512.c       **** void write_ext_eeprom(int32 address, uint8 data)
  18:24512.c       **** {
  28              		.loc 1 18 0
  29              		.cfi_startproc
  30              		@ args = 0, pretend = 0, frame = 0
  31              		@ frame_needed = 0, uses_anonymous_args = 0
  32              	.LVL0:
  33 0000 38B5     		push	{r3, r4, r5, lr}
  34              		.cfi_def_cfa_offset 16
  35              		.cfi_offset 3, -16
  36              		.cfi_offset 4, -12
  37              		.cfi_offset 5, -8
  38              		.cfi_offset 14, -4
  39 0002 0546     		mov	r5, r0
ARM GAS  C:\Users\USUARIO\AppData\Local\Temp\ccto5ktg.s 			page 2


  40 0004 0C46     		mov	r4, r1
  19:24512.c       ****     I2C_MasterSendStart(EXTERNAL_EEPROM_ADDRESS,0);
  41              		.loc 1 19 0
  42 0006 0021     		movs	r1, #0
  43              	.LVL1:
  44 0008 A020     		movs	r0, #160
  45              	.LVL2:
  46 000a FFF7FEFF 		bl	I2C_MasterSendStart
  47              	.LVL3:
  20:24512.c       ****     I2C_MasterWriteByte((uint8)address>>8);
  48              		.loc 1 20 0
  49 000e 0020     		movs	r0, #0
  50 0010 FFF7FEFF 		bl	I2C_MasterWriteByte
  51              	.LVL4:
  21:24512.c       ****     I2C_MasterWriteByte((uint8)address);
  52              		.loc 1 21 0
  53 0014 E8B2     		uxtb	r0, r5
  54 0016 FFF7FEFF 		bl	I2C_MasterWriteByte
  55              	.LVL5:
  22:24512.c       ****     I2C_MasterWriteByte(data);
  56              		.loc 1 22 0
  57 001a 2046     		mov	r0, r4
  58 001c FFF7FEFF 		bl	I2C_MasterWriteByte
  59              	.LVL6:
  23:24512.c       ****     I2C_MasterSendStop();    
  60              		.loc 1 23 0
  61 0020 FFF7FEFF 		bl	I2C_MasterSendStop
  62              	.LVL7:
  63 0024 38BD     		pop	{r3, r4, r5, pc}
  64              		.cfi_endproc
  65              	.LFE63:
  66              		.size	write_ext_eeprom, .-write_ext_eeprom
  67 0026 00BF     		.section	.text.read_ext_eeprom,"ax",%progbits
  68              		.align	2
  69              		.global	read_ext_eeprom
  70              		.thumb
  71              		.thumb_func
  72              		.type	read_ext_eeprom, %function
  73              	read_ext_eeprom:
  74              	.LFB64:
  24:24512.c       **** }
  25:24512.c       **** 
  26:24512.c       **** int8 read_ext_eeprom(int32 address) {
  75              		.loc 1 26 0
  76              		.cfi_startproc
  77              		@ args = 0, pretend = 0, frame = 0
  78              		@ frame_needed = 0, uses_anonymous_args = 0
  79              	.LVL8:
  80 0000 10B5     		push	{r4, lr}
  81              		.cfi_def_cfa_offset 8
  82              		.cfi_offset 4, -8
  83              		.cfi_offset 14, -4
  84 0002 0446     		mov	r4, r0
  27:24512.c       ****    int8 data;
  28:24512.c       ****     I2C_MasterSendStart(EXTERNAL_EEPROM_ADDRESS,0);
  85              		.loc 1 28 0
  86 0004 0021     		movs	r1, #0
ARM GAS  C:\Users\USUARIO\AppData\Local\Temp\ccto5ktg.s 			page 3


  87 0006 A020     		movs	r0, #160
  88              	.LVL9:
  89 0008 FFF7FEFF 		bl	I2C_MasterSendStart
  90              	.LVL10:
  29:24512.c       ****     I2C_MasterWriteByte((uint8)address>>8);
  91              		.loc 1 29 0
  92 000c 0020     		movs	r0, #0
  93 000e FFF7FEFF 		bl	I2C_MasterWriteByte
  94              	.LVL11:
  30:24512.c       ****     I2C_MasterWriteByte((uint8)address);
  95              		.loc 1 30 0
  96 0012 E0B2     		uxtb	r0, r4
  97 0014 FFF7FEFF 		bl	I2C_MasterWriteByte
  98              	.LVL12:
  31:24512.c       ****     I2C_MasterSendStart(EXTERNAL_EEPROM_ADDRESS,1);
  99              		.loc 1 31 0
 100 0018 0121     		movs	r1, #1
 101 001a A020     		movs	r0, #160
 102 001c FFF7FEFF 		bl	I2C_MasterSendStart
 103              	.LVL13:
  32:24512.c       ****     data=I2C_MasterReadByte(0);
 104              		.loc 1 32 0
 105 0020 0020     		movs	r0, #0
 106 0022 FFF7FEFF 		bl	I2C_MasterReadByte
 107              	.LVL14:
 108 0026 44B2     		sxtb	r4, r0
 109              	.LVL15:
  33:24512.c       ****     I2C_MasterSendStop();
 110              		.loc 1 33 0
 111 0028 FFF7FEFF 		bl	I2C_MasterSendStop
 112              	.LVL16:
  34:24512.c       ****     return(data);
  35:24512.c       **** }
 113              		.loc 1 35 0
 114 002c 2046     		mov	r0, r4
 115 002e 10BD     		pop	{r4, pc}
 116              		.cfi_endproc
 117              	.LFE64:
 118              		.size	read_ext_eeprom, .-read_ext_eeprom
 119              		.global	status
 120              		.comm	I2CWriteBuffer,2,4
 121              		.comm	calib,144,4
 122              		.comm	graph,9600,4
 123              		.comm	rampas,240,4
 124              		.bss
 125              		.type	status, %object
 126              		.size	status, 1
 127              	status:
 128 0000 00       		.space	1
 129              		.text
 130              	.Letext0:
 131              		.file 2 "c:\\program files (x86)\\cypress\\psoc creator\\4.4\\psoc creator\\import\\gnu\\arm\\5.4.
 132              		.file 3 "c:\\program files (x86)\\cypress\\psoc creator\\4.4\\psoc creator\\import\\gnu\\arm\\5.4.
 133              		.file 4 "Generated_Source\\PSoC5/cytypes.h"
 134              		.file 5 "funciones.h"
 135              		.file 6 "Generated_Source\\PSoC5/core_cm3.h"
 136              		.file 7 "Generated_Source\\PSoC5/I2C.h"
ARM GAS  C:\Users\USUARIO\AppData\Local\Temp\ccto5ktg.s 			page 4

