ARM GAS  C:\Users\USUARIO\AppData\Local\Temp\cchqzDaB.s 			page 1


   1              		.syntax unified
   2              		.cpu cortex-m3
   3              		.fpu softvfp
   4              		.eabi_attribute 20, 1
   5              		.eabi_attribute 21, 1
   6              		.eabi_attribute 23, 3
   7              		.eabi_attribute 24, 1
   8              		.eabi_attribute 25, 1
   9              		.eabi_attribute 26, 1
  10              		.eabi_attribute 30, 1
  11              		.eabi_attribute 34, 1
  12              		.eabi_attribute 18, 4
  13              		.thumb
  14              		.syntax unified
  15              		.file	"ETH0.c"
  16              		.text
  17              	.Ltext0:
  18              		.cfi_sections	.debug_frame
  19              		.section	.text.ETH0_W51_Write,"ax",%progbits
  20              		.align	2
  21              		.global	ETH0_W51_Write
  22              		.thumb
  23              		.thumb_func
  24              		.type	ETH0_W51_Write, %function
  25              	ETH0_W51_Write:
  26              	.LFB1:
  27              		.file 1 "Generated_Source\\PSoC5\\ETH0.c"
   1:Generated_Source\PSoC5/ETH0.c **** /**
   2:Generated_Source\PSoC5/ETH0.c ****  * \addtogroup w5100
   3:Generated_Source\PSoC5/ETH0.c ****  * @{
   4:Generated_Source\PSoC5/ETH0.c ****  */
   5:Generated_Source\PSoC5/ETH0.c **** 
   6:Generated_Source\PSoC5/ETH0.c **** /**
   7:Generated_Source\PSoC5/ETH0.c ****  * \file Driver implementation for interfacing with the W5100 device
   8:Generated_Source\PSoC5/ETH0.c ****  * \author Chuck Erhardt (chuck@e2forlife.com)
   9:Generated_Source\PSoC5/ETH0.c ****  *
  10:Generated_Source\PSoC5/ETH0.c ****  * This file contains the main driver implementation for control
  11:Generated_Source\PSoC5/ETH0.c ****  * of the W5100 device.
  12:Generated_Source\PSoC5/ETH0.c **** */
  13:Generated_Source\PSoC5/ETH0.c **** 
  14:Generated_Source\PSoC5/ETH0.c **** /*
  15:Generated_Source\PSoC5/ETH0.c ****  * Change Log:
  16:Generated_Source\PSoC5/ETH0.c ****  * 
  17:Generated_Source\PSoC5/ETH0.c ****  * V1.1
  18:Generated_Source\PSoC5/ETH0.c ****  * - Modified the SPI access function to remove hard wait for READ_WRITE_DELAY  <CE>
  19:Generated_Source\PSoC5/ETH0.c ****  * - Removed READ_WRITE_DELAY Parameter <CE>
  20:Generated_Source\PSoC5/ETH0.c ****  * - Added validator to SS_NUM parameter to ensure that the value is the range 0-3 <CE>
  21:Generated_Source\PSoC5/ETH0.c ****  * - Removed "inline" keywords from interal register access function to promote
  22:Generated_Source\PSoC5/ETH0.c ****  *   compatibility with Keil PSoC3 compilers that don't support them. <CE>
  23:Generated_Source\PSoC5/ETH0.c ****  * - Fixed bug in _ProcessRxData() that caused the read pointer not to be updated without
  24:Generated_Source\PSoC5/ETH0.c ****  *   the lookahead flag being set. <CE>
  25:Generated_Source\PSoC5/ETH0.c ****  * V1.2
  26:Generated_Source\PSoC5/ETH0.c ****  * - Added _STS_SPI_IDLE flag to _SpiDone conditions to prevent deadlocking that
  27:Generated_Source\PSoC5/ETH0.c ****  *   was occuring during the first read or write using the SPI device (SPIM moded) <CE>
  28:Generated_Source\PSoC5/ETH0.c ****  * - Removed the check for SOCKET_ESTABLISHED at the start of the TcpReceive
  29:Generated_Source\PSoC5/ETH0.c ****  *   function to allow for reading received socket data after the socket was dropped
  30:Generated_Source\PSoC5/ETH0.c ****  *   by the remote server.  It was brought to my attention that this occurs when
ARM GAS  C:\Users\USUARIO\AppData\Local\Temp\cchqzDaB.s 			page 2


  31:Generated_Source\PSoC5/ETH0.c ****  *   operating with client connection to HTTP servers. <CE>
  32:Generated_Source\PSoC5/ETH0.c ****  * - Added a MAC address parser and MAC to String Converter. <CE>
  33:Generated_Source\PSoC5/ETH0.c ****  */
  34:Generated_Source\PSoC5/ETH0.c **** 
  35:Generated_Source\PSoC5/ETH0.c **** /* Cypress library includes */
  36:Generated_Source\PSoC5/ETH0.c **** #include <cytypes.h>
  37:Generated_Source\PSoC5/ETH0.c **** #include <cylib.h>
  38:Generated_Source\PSoC5/ETH0.c **** 
  39:Generated_Source\PSoC5/ETH0.c **** /*  include functions and types for the driver */
  40:Generated_Source\PSoC5/ETH0.c **** #include "ETH0.h"
  41:Generated_Source\PSoC5/ETH0.c **** /* include the serial interface functions */
  42:Generated_Source\PSoC5/ETH0.c **** #include <SPI0.h>
  43:Generated_Source\PSoC5/ETH0.c **** 
  44:Generated_Source\PSoC5/ETH0.c **** extern uint8 SPI0_initVar;
  45:Generated_Source\PSoC5/ETH0.c **** 
  46:Generated_Source\PSoC5/ETH0.c **** typedef struct
  47:Generated_Source\PSoC5/ETH0.c **** {
  48:Generated_Source\PSoC5/ETH0.c **** 	uint8  Protocol;
  49:Generated_Source\PSoC5/ETH0.c **** 	uint8  SocketFlags;
  50:Generated_Source\PSoC5/ETH0.c **** 	uint16 SourcePort;
  51:Generated_Source\PSoC5/ETH0.c **** 	uint8  ServerFlag;
  52:Generated_Source\PSoC5/ETH0.c **** } ETH0_SOCKET;
  53:Generated_Source\PSoC5/ETH0.c **** 
  54:Generated_Source\PSoC5/ETH0.c **** const uint16 ETH0_SOCKET_TX_BASE[4] = { 0x4000, 0x4800, 0x5000, 0x5800 };
  55:Generated_Source\PSoC5/ETH0.c **** const uint16 ETH0_SOCKET_RX_BASE[4] = { 0x6000, 0x6800, 0x7000, 0x7800 };
  56:Generated_Source\PSoC5/ETH0.c **** 
  57:Generated_Source\PSoC5/ETH0.c **** static ETH0_SOCKET ETH0_SocketConfig[4];
  58:Generated_Source\PSoC5/ETH0.c **** static uint32 ETH0_SubnetMask;
  59:Generated_Source\PSoC5/ETH0.c **** 
  60:Generated_Source\PSoC5/ETH0.c **** static uint8 ETH0_MAC[6]; /* V1.2: removed = {0x00, 0xDE, 0xAD, 0xBE, 0xEF, 0x00}; */
  61:Generated_Source\PSoC5/ETH0.c **** 
  62:Generated_Source\PSoC5/ETH0.c **** /* ------------------------------------------------------------------------ */
  63:Generated_Source\PSoC5/ETH0.c **** /* V1.2 HEX digit conversion tools for MAC Address parsing */
  64:Generated_Source\PSoC5/ETH0.c **** #define ETH0_ISXDIGIT(x) \
  65:Generated_Source\PSoC5/ETH0.c **** ( ((x>='0')&&(x<='9'))||((x>='a')&&(x<='f'))||((x>='A')&&(x<='F')) )
  66:Generated_Source\PSoC5/ETH0.c **** /* ------------------------------------------------------------------------ */
  67:Generated_Source\PSoC5/ETH0.c **** #define ETH0_HEX2BIN(x) \
  68:Generated_Source\PSoC5/ETH0.c **** ( ((x>='0')&&(x<='9'))? (x-'0') : \
  69:Generated_Source\PSoC5/ETH0.c ****   ((x>='a')&&(x<='f'))? ((x-'a')+10) : \
  70:Generated_Source\PSoC5/ETH0.c ****   ((x>='A')&&(x<='F'))? ((x-'A')+10) : 0 )
  71:Generated_Source\PSoC5/ETH0.c **** /* ------------------------------------------------------------------------ */
  72:Generated_Source\PSoC5/ETH0.c **** #define ETH0_BIN2HEX(x) \
  73:Generated_Source\PSoC5/ETH0.c **** ( (x>9)? ((x-10)+'A') : (x + '0'))
  74:Generated_Source\PSoC5/ETH0.c **** /* END V1.2 defines */
  75:Generated_Source\PSoC5/ETH0.c **** /* ------------------------------------------------------------------------ */
  76:Generated_Source\PSoC5/ETH0.c **** 
  77:Generated_Source\PSoC5/ETH0.c **** /* ======================================================================== */
  78:Generated_Source\PSoC5/ETH0.c **** /* Generic SPI Functions */
  79:Generated_Source\PSoC5/ETH0.c **** /*
  80:Generated_Source\PSoC5/ETH0.c ****  * NOTE: when using the SPIM, there must be a buffer length of at least 4
  81:Generated_Source\PSoC5/ETH0.c ****  * bytes to allow the transfer/receive cycle for each read/write operation
  82:Generated_Source\PSoC5/ETH0.c ****  * to be contained within the FIFO buffer.
  83:Generated_Source\PSoC5/ETH0.c ****  */
  84:Generated_Source\PSoC5/ETH0.c **** #if !defined(CY_SCB_SPI0_H)
  85:Generated_Source\PSoC5/ETH0.c **** /* ------------------------------------------------------------------------ */	
  86:Generated_Source\PSoC5/ETH0.c **** /* V1.1 : Macro definition for the SpiDone flag. */
  87:Generated_Source\PSoC5/ETH0.c **** /*  
ARM GAS  C:\Users\USUARIO\AppData\Local\Temp\cchqzDaB.s 			page 3


  88:Generated_Source\PSoC5/ETH0.c **** 	V1.2 : Added SPI_IDLE flag to the condition for done to eliminate
  89:Generated_Source\PSoC5/ETH0.c **** 	deadlocking when IDLE but not done.  This seems to occur during the
  90:Generated_Source\PSoC5/ETH0.c **** 	initial write/read to/from the SPI port.
  91:Generated_Source\PSoC5/ETH0.c **** */
  92:Generated_Source\PSoC5/ETH0.c **** /**
  93:Generated_Source\PSoC5/ETH0.c ****  * \brief Macro to determine the state of the spi done
  94:Generated_Source\PSoC5/ETH0.c ****  * This macro reads the status register of the transmitter and masks off the doen bit.
  95:Generated_Source\PSoC5/ETH0.c ****  */
  96:Generated_Source\PSoC5/ETH0.c **** #define ETH0_SpiDone     (SPI0_ReadTxStatus() & (SPI0_STS_SPI_DONE | SPI0_STS_SPI_IDLE))
  97:Generated_Source\PSoC5/ETH0.c **** /* ------------------------------------------------------------------------ */
  98:Generated_Source\PSoC5/ETH0.c **** /**
  99:Generated_Source\PSoC5/ETH0.c ****  * \brief Select the active SCB chip select connected to the W51
 100:Generated_Source\PSoC5/ETH0.c ****  *
 101:Generated_Source\PSoC5/ETH0.c ****  * this fucntion will set the active SS line within the SCB to select and
 102:Generated_Source\PSoC5/ETH0.c ****  * communicate with the W5100 device.
 103:Generated_Source\PSoC5/ETH0.c ****  * \note this functions requires that the device chip select is originating
 104:Generated_Source\PSoC5/ETH0.c ****  *  from the SPI device.
 105:Generated_Source\PSoC5/ETH0.c ****  */
 106:Generated_Source\PSoC5/ETH0.c **** static void ETH0_W51_Select( void )
 107:Generated_Source\PSoC5/ETH0.c **** {
 108:Generated_Source\PSoC5/ETH0.c **** 	/*
 109:Generated_Source\PSoC5/ETH0.c **** 	 * User code for setting the chip select enable.  This is called once
 110:Generated_Source\PSoC5/ETH0.c **** 	 * at the beginning of each tranfer to/from the W5100, so we recommend
 111:Generated_Source\PSoC5/ETH0.c **** 	 * either doing nothing (SPIM SS straight out), or to switch the demux
 112:Generated_Source\PSoC5/ETH0.c **** 	 * component to select the correct output for the SS routing.  This
 113:Generated_Source\PSoC5/ETH0.c **** 	 * should probably not drive a pin directly since there is no return
 114:Generated_Source\PSoC5/ETH0.c **** 	 * call from the driver that would allow an enable/disable type of
 115:Generated_Source\PSoC5/ETH0.c **** 	 * implementation for CSN control.
 116:Generated_Source\PSoC5/ETH0.c **** 	 */
 117:Generated_Source\PSoC5/ETH0.c **** 	/* `#START CHIP_SELECT_GENERATION` */
 118:Generated_Source\PSoC5/ETH0.c **** 
 119:Generated_Source\PSoC5/ETH0.c **** 	/* `#END` */
 120:Generated_Source\PSoC5/ETH0.c **** }
 121:Generated_Source\PSoC5/ETH0.c **** /* ------------------------------------------------------------------------ */
 122:Generated_Source\PSoC5/ETH0.c **** /**
 123:Generated_Source\PSoC5/ETH0.c ****  * \brief write Data to the W5100 at the specified address
 124:Generated_Source\PSoC5/ETH0.c ****  * \param addr Address of register or memory buffer
 125:Generated_Source\PSoC5/ETH0.c ****  * \param dat Data to write to the device
 126:Generated_Source\PSoC5/ETH0.c ****  *
 127:Generated_Source\PSoC5/ETH0.c ****  * This function will send the WRITE opcode, address and data to the W5100
 128:Generated_Source\PSoC5/ETH0.c ****  * in order to write the data to the specified register.
 129:Generated_Source\PSoC5/ETH0.c ****  */
 130:Generated_Source\PSoC5/ETH0.c **** void ETH0_W51_Write(uint16 addr, uint8 dat)
 131:Generated_Source\PSoC5/ETH0.c **** {
  28              		.loc 1 131 0
  29              		.cfi_startproc
  30              		@ args = 0, pretend = 0, frame = 0
  31              		@ frame_needed = 0, uses_anonymous_args = 0
  32              	.LVL0:
  33 0000 38B5     		push	{r3, r4, r5, lr}
  34              		.cfi_def_cfa_offset 16
  35              		.cfi_offset 3, -16
  36              		.cfi_offset 4, -12
  37              		.cfi_offset 5, -8
  38              		.cfi_offset 14, -4
  39 0002 0446     		mov	r4, r0
  40 0004 0D46     		mov	r5, r1
ARM GAS  C:\Users\USUARIO\AppData\Local\Temp\cchqzDaB.s 			page 4


 132:Generated_Source\PSoC5/ETH0.c **** 	/* V1.1: Wait for SPI operation to complete */
 133:Generated_Source\PSoC5/ETH0.c **** 	while( ETH0_SpiDone == 0) {
  41              		.loc 1 133 0
  42 0006 02E0     		b	.L2
  43              	.LVL1:
  44              	.L3:
 134:Generated_Source\PSoC5/ETH0.c **** 		CyDelayUs(1);
  45              		.loc 1 134 0
  46 0008 0120     		movs	r0, #1
  47 000a FFF7FEFF 		bl	CyDelayUs
  48              	.LVL2:
  49              	.L2:
 133:Generated_Source\PSoC5/ETH0.c **** 		CyDelayUs(1);
  50              		.loc 1 133 0
  51 000e FFF7FEFF 		bl	SPI0_ReadTxStatus
  52              	.LVL3:
  53 0012 10F0110F 		tst	r0, #17
  54 0016 F7D0     		beq	.L3
 135:Generated_Source\PSoC5/ETH0.c **** 	}
 136:Generated_Source\PSoC5/ETH0.c **** 	/* V1.1: End change */
 137:Generated_Source\PSoC5/ETH0.c **** 	
 138:Generated_Source\PSoC5/ETH0.c **** 	/* Using internal device SS generation */
 139:Generated_Source\PSoC5/ETH0.c **** 	ETH0_W51_Select();
 140:Generated_Source\PSoC5/ETH0.c **** 	/*
 141:Generated_Source\PSoC5/ETH0.c **** 	 * The first thing to do is to clear the Rx Buffer of any lingering
 142:Generated_Source\PSoC5/ETH0.c **** 	 * data left from other transfers.  Then send the data per the W5100
 143:Generated_Source\PSoC5/ETH0.c **** 	 * datasheet p.62
 144:Generated_Source\PSoC5/ETH0.c **** 	 */
 145:Generated_Source\PSoC5/ETH0.c **** 	SPI0_ClearRxBuffer();
  55              		.loc 1 145 0
  56 0018 FFF7FEFF 		bl	SPI0_ClearRxBuffer
  57              	.LVL4:
 146:Generated_Source\PSoC5/ETH0.c **** 	/* Begin transfer of data to device */
 147:Generated_Source\PSoC5/ETH0.c **** 	SPI0_WriteTxData(ETH0_WRITE_OP);
  58              		.loc 1 147 0
  59 001c F020     		movs	r0, #240
  60 001e FFF7FEFF 		bl	SPI0_WriteTxData
  61              	.LVL5:
 148:Generated_Source\PSoC5/ETH0.c **** 	SPI0_WriteTxData((addr>>8)&0x00FF);
  62              		.loc 1 148 0
  63 0022 200A     		lsrs	r0, r4, #8
  64 0024 FFF7FEFF 		bl	SPI0_WriteTxData
  65              	.LVL6:
 149:Generated_Source\PSoC5/ETH0.c **** 	SPI0_WriteTxData(addr&0x00FF);
  66              		.loc 1 149 0
  67 0028 E0B2     		uxtb	r0, r4
  68 002a FFF7FEFF 		bl	SPI0_WriteTxData
  69              	.LVL7:
 150:Generated_Source\PSoC5/ETH0.c **** 	SPI0_WriteTxData(dat);
  70              		.loc 1 150 0
  71 002e 2846     		mov	r0, r5
  72 0030 FFF7FEFF 		bl	SPI0_WriteTxData
  73              	.LVL8:
  74 0034 38BD     		pop	{r3, r4, r5, pc}
  75              		.cfi_endproc
  76              	.LFE1:
  77              		.size	ETH0_W51_Write, .-ETH0_W51_Write
ARM GAS  C:\Users\USUARIO\AppData\Local\Temp\cchqzDaB.s 			page 5


  78 0036 00BF     		.section	.text.ETH0_SetMode,"ax",%progbits
  79              		.align	2
  80              		.thumb
  81              		.thumb_func
  82              		.type	ETH0_SetMode, %function
  83              	ETH0_SetMode:
  84              	.LFB19:
 151:Generated_Source\PSoC5/ETH0.c **** 
 152:Generated_Source\PSoC5/ETH0.c **** }
 153:Generated_Source\PSoC5/ETH0.c **** 
 154:Generated_Source\PSoC5/ETH0.c **** /* ------------------------------------------------------------------------ */
 155:Generated_Source\PSoC5/ETH0.c **** /**
 156:Generated_Source\PSoC5/ETH0.c ****  * \brief Read data from the W5100 at the spsecified address
 157:Generated_Source\PSoC5/ETH0.c ****  * \param addr Address from which to read
 158:Generated_Source\PSoC5/ETH0.c ****  * \returns the data read from the address
 159:Generated_Source\PSoC5/ETH0.c ****  *
 160:Generated_Source\PSoC5/ETH0.c ****  * this fucntion will access a W5100 memory location and read the contents
 161:Generated_Source\PSoC5/ETH0.c ****  * using the serial protocol specified on P.61 of the datasheet.
 162:Generated_Source\PSoC5/ETH0.c ****  */
 163:Generated_Source\PSoC5/ETH0.c **** uint8 ETH0_W51_Read(uint16 addr)
 164:Generated_Source\PSoC5/ETH0.c **** {
 165:Generated_Source\PSoC5/ETH0.c **** 	uint32 dat;
 166:Generated_Source\PSoC5/ETH0.c **** 	uint32 count;
 167:Generated_Source\PSoC5/ETH0.c **** 	
 168:Generated_Source\PSoC5/ETH0.c **** 	/* V1.1: Wait for SPI operation to complete */
 169:Generated_Source\PSoC5/ETH0.c **** 	while( ETH0_SpiDone == 0) {
 170:Generated_Source\PSoC5/ETH0.c **** 		CyDelayUs(1);
 171:Generated_Source\PSoC5/ETH0.c **** 	}
 172:Generated_Source\PSoC5/ETH0.c **** 	/* V1.1: End change */
 173:Generated_Source\PSoC5/ETH0.c **** 
 174:Generated_Source\PSoC5/ETH0.c **** 	/* Using internal device SS generation */
 175:Generated_Source\PSoC5/ETH0.c **** 	ETH0_W51_Select();
 176:Generated_Source\PSoC5/ETH0.c **** 	/*
 177:Generated_Source\PSoC5/ETH0.c **** 	 * First, clear the Rx Buffer of any waiting data.  Then begin the
 178:Generated_Source\PSoC5/ETH0.c **** 	 * read operation by sending the op code, followed byte the address
 179:Generated_Source\PSoC5/ETH0.c **** 	 * from which the read will be executed, then send a dummy byte
 180:Generated_Source\PSoC5/ETH0.c **** 	 * of zeros to read the data from the device.
 181:Generated_Source\PSoC5/ETH0.c **** 	 */
 182:Generated_Source\PSoC5/ETH0.c **** 	SPI0_ClearRxBuffer();
 183:Generated_Source\PSoC5/ETH0.c **** 	/* Begin data read */
 184:Generated_Source\PSoC5/ETH0.c **** 	SPI0_WriteTxData(ETH0_READ_OP);
 185:Generated_Source\PSoC5/ETH0.c **** 	SPI0_WriteTxData(addr>>8);
 186:Generated_Source\PSoC5/ETH0.c **** 	SPI0_WriteTxData(addr&0x00FF);
 187:Generated_Source\PSoC5/ETH0.c **** 	SPI0_WriteTxData( 0 );
 188:Generated_Source\PSoC5/ETH0.c **** 	
 189:Generated_Source\PSoC5/ETH0.c **** 	/* Wait for operations to complete. */
 190:Generated_Source\PSoC5/ETH0.c **** 	/* V1.1: Wait for SPI operation to complete */
 191:Generated_Source\PSoC5/ETH0.c **** 	while( ETH0_SpiDone == 0) {
 192:Generated_Source\PSoC5/ETH0.c **** 		CyDelayUs(1);
 193:Generated_Source\PSoC5/ETH0.c **** 	}
 194:Generated_Source\PSoC5/ETH0.c **** 	/* V1.1: End change */
 195:Generated_Source\PSoC5/ETH0.c **** 
 196:Generated_Source\PSoC5/ETH0.c **** 	count = SPI0_GetRxBufferSize();
 197:Generated_Source\PSoC5/ETH0.c **** 	while( count > 0 )
 198:Generated_Source\PSoC5/ETH0.c **** 	{
 199:Generated_Source\PSoC5/ETH0.c **** 		dat = SPI0_ReadRxData(); 
 200:Generated_Source\PSoC5/ETH0.c **** 		count = SPI0_GetRxBufferSize();
ARM GAS  C:\Users\USUARIO\AppData\Local\Temp\cchqzDaB.s 			page 6


 201:Generated_Source\PSoC5/ETH0.c **** 	}
 202:Generated_Source\PSoC5/ETH0.c **** 	
 203:Generated_Source\PSoC5/ETH0.c **** 	return( dat&0xFF );
 204:Generated_Source\PSoC5/ETH0.c **** }
 205:Generated_Source\PSoC5/ETH0.c **** /* ======================================================================== */
 206:Generated_Source\PSoC5/ETH0.c **** /* SCB Specific Functions */
 207:Generated_Source\PSoC5/ETH0.c **** #else
 208:Generated_Source\PSoC5/ETH0.c **** /* include SPI function header for the SCB */
 209:Generated_Source\PSoC5/ETH0.c **** #include <SPI0_SPI_UART.h>
 210:Generated_Source\PSoC5/ETH0.c **** 
 211:Generated_Source\PSoC5/ETH0.c **** /* V1.1 : Include the header for the select pin used. */
 212:Generated_Source\PSoC5/ETH0.c **** #define ETH0_SpiDone    ((SPI0_SpiUartGetTxBufferSize()==0)?1:0)
 213:Generated_Source\PSoC5/ETH0.c **** /*
 214:Generated_Source\PSoC5/ETH0.c **** #if (0 == 0)
 215:Generated_Source\PSoC5/ETH0.c **** #include <SPI0_ss0_m.h>
 216:Generated_Source\PSoC5/ETH0.c **** #define ETH0_SpiDone    ((SPI0_ss0_m_Read())
 217:Generated_Source\PSoC5/ETH0.c **** #elif (0 == 1)
 218:Generated_Source\PSoC5/ETH0.c **** #include <SPI0_ss1_m.h>
 219:Generated_Source\PSoC5/ETH0.c **** #define ETH0_SpiDone    (SPI0_ss1_m_Read())
 220:Generated_Source\PSoC5/ETH0.c **** #elif (0 == 2)
 221:Generated_Source\PSoC5/ETH0.c **** #include <SPI0_ss2_m.h>
 222:Generated_Source\PSoC5/ETH0.c **** #define ETH0_SpiDone    (SPI0_ss2_m_Read())
 223:Generated_Source\PSoC5/ETH0.c **** #elif (0 == 3)
 224:Generated_Source\PSoC5/ETH0.c **** #include <SPI0_ss3_m.h>
 225:Generated_Source\PSoC5/ETH0.c **** #define ETH0_SpiDone    (SPI0_ss3_m_Read())
 226:Generated_Source\PSoC5/ETH0.c **** #else
 227:Generated_Source\PSoC5/ETH0.c **** #include <SPI0_ss0_m.h>
 228:Generated_Source\PSoC5/ETH0.c **** #define ETH0_SpiDone    (SPI0_ss0_m_Read())
 229:Generated_Source\PSoC5/ETH0.c **** #endif
 230:Generated_Source\PSoC5/ETH0.c **** */
 231:Generated_Source\PSoC5/ETH0.c **** /* ------------------------------------------------------------------------ */
 232:Generated_Source\PSoC5/ETH0.c **** /**
 233:Generated_Source\PSoC5/ETH0.c ****  * \brief Select the active SCB chip select connected to the W51
 234:Generated_Source\PSoC5/ETH0.c ****  *
 235:Generated_Source\PSoC5/ETH0.c ****  * this fucntion will set the active SS line within the SCB to select and
 236:Generated_Source\PSoC5/ETH0.c ****  * communicate with the W5100 device.
 237:Generated_Source\PSoC5/ETH0.c ****  */
 238:Generated_Source\PSoC5/ETH0.c **** static void ETH0_W51_Select( void )
 239:Generated_Source\PSoC5/ETH0.c **** {
 240:Generated_Source\PSoC5/ETH0.c **** #if (0 == 0)
 241:Generated_Source\PSoC5/ETH0.c **** 	SPI0_SpiSetActiveSlaveSelect( SPI0_SPIM_ACTIVE_SS0 );
 242:Generated_Source\PSoC5/ETH0.c **** #elif (0 == 1)
 243:Generated_Source\PSoC5/ETH0.c **** 	SPI0_SpiSetActiveSlaveSelect( SPI0_SPIM_ACTIVE_SS1 );
 244:Generated_Source\PSoC5/ETH0.c **** #elif (0 == 2)
 245:Generated_Source\PSoC5/ETH0.c **** 	SPI0_SpiSetActiveSlaveSelect( SPI0_SPIM_ACTIVE_SS2 );
 246:Generated_Source\PSoC5/ETH0.c **** #elif (0 == 3)
 247:Generated_Source\PSoC5/ETH0.c **** 	SPI0_SpiSetActiveSlaveSelect( SPI0_SPIM_ACTIVE_SS3 );
 248:Generated_Source\PSoC5/ETH0.c **** #else
 249:Generated_Source\PSoC5/ETH0.c **** 		SPI0_SpiSetActiveSlaveSelect(0);
 250:Generated_Source\PSoC5/ETH0.c **** #endif
 251:Generated_Source\PSoC5/ETH0.c **** }
 252:Generated_Source\PSoC5/ETH0.c **** /* ------------------------------------------------------------------------ */
 253:Generated_Source\PSoC5/ETH0.c **** /**
 254:Generated_Source\PSoC5/ETH0.c ****  * \brief write Data to the W5100 at the specified address
 255:Generated_Source\PSoC5/ETH0.c ****  * \param addr Address of register or memory buffer
 256:Generated_Source\PSoC5/ETH0.c ****  * \param dat Data to write to the device
 257:Generated_Source\PSoC5/ETH0.c ****  *
ARM GAS  C:\Users\USUARIO\AppData\Local\Temp\cchqzDaB.s 			page 7


 258:Generated_Source\PSoC5/ETH0.c ****  * This function will send the WRITE opcode, address and data to the W5100
 259:Generated_Source\PSoC5/ETH0.c ****  * in order to write the data to the specified register.
 260:Generated_Source\PSoC5/ETH0.c ****  */
 261:Generated_Source\PSoC5/ETH0.c **** void ETH0_W51_Write(uint16 addr, uint8 dat)
 262:Generated_Source\PSoC5/ETH0.c **** {
 263:Generated_Source\PSoC5/ETH0.c **** 	/* V1.1: Wait for SPI operation to complete */
 264:Generated_Source\PSoC5/ETH0.c **** 	while( ETH0_SpiDone == 0) {
 265:Generated_Source\PSoC5/ETH0.c **** 		CyDelayUs(1);
 266:Generated_Source\PSoC5/ETH0.c **** 	}
 267:Generated_Source\PSoC5/ETH0.c **** 	CyDelay(1);
 268:Generated_Source\PSoC5/ETH0.c **** 	/* V1.1: End change */
 269:Generated_Source\PSoC5/ETH0.c **** 
 270:Generated_Source\PSoC5/ETH0.c **** 	/* Using internal device SS generation */
 271:Generated_Source\PSoC5/ETH0.c **** 	ETH0_W51_Select();
 272:Generated_Source\PSoC5/ETH0.c **** 	/*
 273:Generated_Source\PSoC5/ETH0.c **** 	 * The first thing to do is to clear the Rx Buffer of any lingering
 274:Generated_Source\PSoC5/ETH0.c **** 	 * data left from other transfers.  Then send the data per the W5100
 275:Generated_Source\PSoC5/ETH0.c **** 	 * datasheet p.62
 276:Generated_Source\PSoC5/ETH0.c **** 	 */
 277:Generated_Source\PSoC5/ETH0.c **** 	SPI0_SpiUartClearRxBuffer();
 278:Generated_Source\PSoC5/ETH0.c **** 	/* Begin transfer of data to device */
 279:Generated_Source\PSoC5/ETH0.c **** 	SPI0_SpiUartWriteTxData(ETH0_WRITE_OP);
 280:Generated_Source\PSoC5/ETH0.c **** 	SPI0_SpiUartWriteTxData((addr>>8)&0x00FF);
 281:Generated_Source\PSoC5/ETH0.c **** 	SPI0_SpiUartWriteTxData(addr&0x00FF);
 282:Generated_Source\PSoC5/ETH0.c **** 	SPI0_SpiUartWriteTxData(dat);
 283:Generated_Source\PSoC5/ETH0.c **** }
 284:Generated_Source\PSoC5/ETH0.c **** /* ------------------------------------------------------------------------ */
 285:Generated_Source\PSoC5/ETH0.c **** /**
 286:Generated_Source\PSoC5/ETH0.c ****  * \brief Read data from the W5100 at the spsecified address
 287:Generated_Source\PSoC5/ETH0.c ****  * \param addr Address from which to read
 288:Generated_Source\PSoC5/ETH0.c ****  * \returns the data read from the address
 289:Generated_Source\PSoC5/ETH0.c ****  *
 290:Generated_Source\PSoC5/ETH0.c ****  * this fucntion will access a W5100 memory location and read the contents
 291:Generated_Source\PSoC5/ETH0.c ****  * using the serial protocol specified on P.61 of the datasheet.
 292:Generated_Source\PSoC5/ETH0.c ****  */
 293:Generated_Source\PSoC5/ETH0.c **** uint8 ETH0_W51_Read(uint16 addr)
 294:Generated_Source\PSoC5/ETH0.c **** {
 295:Generated_Source\PSoC5/ETH0.c **** 	uint32 dat;
 296:Generated_Source\PSoC5/ETH0.c **** 	uint32 count;
 297:Generated_Source\PSoC5/ETH0.c **** 	
 298:Generated_Source\PSoC5/ETH0.c **** 	/* V1.1: Wait for SPI operation to complete */
 299:Generated_Source\PSoC5/ETH0.c **** 	while( ETH0_SpiDone == 0) {
 300:Generated_Source\PSoC5/ETH0.c **** 		CyDelayUs(1);
 301:Generated_Source\PSoC5/ETH0.c **** 	}
 302:Generated_Source\PSoC5/ETH0.c **** 	/* V1.1: End change */
 303:Generated_Source\PSoC5/ETH0.c **** 
 304:Generated_Source\PSoC5/ETH0.c **** 	/* Using internal device SS generation */
 305:Generated_Source\PSoC5/ETH0.c **** 	ETH0_W51_Select();
 306:Generated_Source\PSoC5/ETH0.c **** 	/*
 307:Generated_Source\PSoC5/ETH0.c **** 	 * First, clear the Rx Buffer of any waiting data.  Then begin the
 308:Generated_Source\PSoC5/ETH0.c **** 	 * read operation by sending the op code, followed byte the address
 309:Generated_Source\PSoC5/ETH0.c **** 	 * from which the read will be executed, then send a dummy byte
 310:Generated_Source\PSoC5/ETH0.c **** 	 * of zeros to read the data from the device.
 311:Generated_Source\PSoC5/ETH0.c **** 	 */
 312:Generated_Source\PSoC5/ETH0.c **** 	SPI0_SpiUartClearRxBuffer();
 313:Generated_Source\PSoC5/ETH0.c **** 	/* Begin data read */
 314:Generated_Source\PSoC5/ETH0.c **** 	SPI0_SpiUartWriteTxData(ETH0_READ_OP);
ARM GAS  C:\Users\USUARIO\AppData\Local\Temp\cchqzDaB.s 			page 8


 315:Generated_Source\PSoC5/ETH0.c **** 	SPI0_SpiUartWriteTxData(addr>>8);
 316:Generated_Source\PSoC5/ETH0.c **** 	SPI0_SpiUartWriteTxData(addr&0x00FF);
 317:Generated_Source\PSoC5/ETH0.c **** 	SPI0_SpiUartWriteTxData( 0 );
 318:Generated_Source\PSoC5/ETH0.c **** 	/* Wait for operations to complete. */
 319:Generated_Source\PSoC5/ETH0.c **** 	/* V1.1: Wait for SPI operation to complete */
 320:Generated_Source\PSoC5/ETH0.c **** 	while( ETH0_SpiDone == 0) {
 321:Generated_Source\PSoC5/ETH0.c **** 		CyDelayUs(1);
 322:Generated_Source\PSoC5/ETH0.c **** 	}
 323:Generated_Source\PSoC5/ETH0.c **** 	/* V1.1: End change */
 324:Generated_Source\PSoC5/ETH0.c **** 
 325:Generated_Source\PSoC5/ETH0.c **** 	count = SPI0_SpiUartGetRxBufferSize();
 326:Generated_Source\PSoC5/ETH0.c **** 	while( count > 0 )
 327:Generated_Source\PSoC5/ETH0.c **** 	{
 328:Generated_Source\PSoC5/ETH0.c **** 		dat = SPI0_SpiUartReadRxData(); 
 329:Generated_Source\PSoC5/ETH0.c **** 		count = SPI0_SpiUartGetRxBufferSize();
 330:Generated_Source\PSoC5/ETH0.c **** 	}
 331:Generated_Source\PSoC5/ETH0.c **** 	
 332:Generated_Source\PSoC5/ETH0.c **** 	return( dat&0xFF );
 333:Generated_Source\PSoC5/ETH0.c **** }
 334:Generated_Source\PSoC5/ETH0.c **** 
 335:Generated_Source\PSoC5/ETH0.c **** #endif
 336:Generated_Source\PSoC5/ETH0.c **** 
 337:Generated_Source\PSoC5/ETH0.c **** /* ======================================================================== */
 338:Generated_Source\PSoC5/ETH0.c **** /* W5100 Register Access Primitaves */
 339:Generated_Source\PSoC5/ETH0.c **** #if (1)
 340:Generated_Source\PSoC5/ETH0.c **** /* ------------------------------------------------------------------------ */
 341:Generated_Source\PSoC5/ETH0.c **** /**
 342:Generated_Source\PSoC5/ETH0.c ****  * \brief Write a MAC (hardware) address to a group of registers
 343:Generated_Source\PSoC5/ETH0.c ****  * \param addr The starting address of the registers/memory for the MAC address
 344:Generated_Source\PSoC5/ETH0.c ****  * \param *mac pointer to the array of bytes holding the MAC address.
 345:Generated_Source\PSoC5/ETH0.c ****  */
 346:Generated_Source\PSoC5/ETH0.c **** static void ETH0_W51_SetMAC(uint16 addr, uint8 *mac)
 347:Generated_Source\PSoC5/ETH0.c **** {
 348:Generated_Source\PSoC5/ETH0.c **** 	uint32 index;
 349:Generated_Source\PSoC5/ETH0.c **** 	
 350:Generated_Source\PSoC5/ETH0.c **** 	for(index = 0;index<6;++index)
 351:Generated_Source\PSoC5/ETH0.c **** 	{
 352:Generated_Source\PSoC5/ETH0.c **** 		ETH0_W51_Write(addr+index,mac[index]);
 353:Generated_Source\PSoC5/ETH0.c **** 	}
 354:Generated_Source\PSoC5/ETH0.c **** }
 355:Generated_Source\PSoC5/ETH0.c **** /* ------------------------------------------------------------------------ */
 356:Generated_Source\PSoC5/ETH0.c **** /**
 357:Generated_Source\PSoC5/ETH0.c ****  * \brief Read a MAC (hardware) address from a set of registers.
 358:Generated_Source\PSoC5/ETH0.c ****  * \param addr the address from which the data will be read
 359:Generated_Source\PSoC5/ETH0.c ****  * \param *mac pointer to the array of bytes to hold the output mac address.
 360:Generated_Source\PSoC5/ETH0.c ****  */
 361:Generated_Source\PSoC5/ETH0.c **** static void ETH0_W51_GetMAC( uint16 addr, uint8* mac )
 362:Generated_Source\PSoC5/ETH0.c **** {
 363:Generated_Source\PSoC5/ETH0.c **** 	uint32 index;
 364:Generated_Source\PSoC5/ETH0.c **** 	for(index=0;index<6;++index) {
 365:Generated_Source\PSoC5/ETH0.c **** 		mac[index] = ETH0_W51_Read(addr+index);
 366:Generated_Source\PSoC5/ETH0.c **** 	}
 367:Generated_Source\PSoC5/ETH0.c **** }
 368:Generated_Source\PSoC5/ETH0.c **** /* ------------------------------------------------------------------------ */
 369:Generated_Source\PSoC5/ETH0.c **** /**
 370:Generated_Source\PSoC5/ETH0.c ****  * \brief Write an IPv4 address to the device.
 371:Generated_Source\PSoC5/ETH0.c ****  * \param addr the address of the memory/registers to write the IPv4 Address
ARM GAS  C:\Users\USUARIO\AppData\Local\Temp\cchqzDaB.s 			page 9


 372:Generated_Source\PSoC5/ETH0.c ****  * \param ip the IP address to write
 373:Generated_Source\PSoC5/ETH0.c ****  */
 374:Generated_Source\PSoC5/ETH0.c **** static void ETH0_W51_SetIP( uint16 addr, uint32 ip )
 375:Generated_Source\PSoC5/ETH0.c **** {
 376:Generated_Source\PSoC5/ETH0.c **** 	uint32 index;
 377:Generated_Source\PSoC5/ETH0.c **** 	uint8* buffer;
 378:Generated_Source\PSoC5/ETH0.c **** 
 379:Generated_Source\PSoC5/ETH0.c **** 	buffer = (uint8*)&ip;
 380:Generated_Source\PSoC5/ETH0.c **** 	for(index = 0;index<4;++index) {
 381:Generated_Source\PSoC5/ETH0.c **** 		ETH0_W51_Write(addr+index,buffer[index]);
 382:Generated_Source\PSoC5/ETH0.c **** 	}
 383:Generated_Source\PSoC5/ETH0.c **** }
 384:Generated_Source\PSoC5/ETH0.c **** /* ------------------------------------------------------------------------ */
 385:Generated_Source\PSoC5/ETH0.c **** /**
 386:Generated_Source\PSoC5/ETH0.c ****  * \brief Read an IPv4 address from a set of registers
 387:Generated_Source\PSoC5/ETH0.c ****  * \param addr the address from which the IP address will be retrieved.
 388:Generated_Source\PSoC5/ETH0.c ****  * \returns the IP address read from the device.
 389:Generated_Source\PSoC5/ETH0.c ****  */
 390:Generated_Source\PSoC5/ETH0.c **** static uint32 ETH0_W51_GetIP( uint16 addr )
 391:Generated_Source\PSoC5/ETH0.c **** {
 392:Generated_Source\PSoC5/ETH0.c **** 	uint8 buffer[4];
 393:Generated_Source\PSoC5/ETH0.c **** 	int index;
 394:Generated_Source\PSoC5/ETH0.c **** 	uint32* ip;
 395:Generated_Source\PSoC5/ETH0.c **** 	
 396:Generated_Source\PSoC5/ETH0.c **** 	ip = (uint32*) &buffer[0];
 397:Generated_Source\PSoC5/ETH0.c **** 	*ip = 0;
 398:Generated_Source\PSoC5/ETH0.c **** 	for(index=0;index<4;++index) {
 399:Generated_Source\PSoC5/ETH0.c **** 		buffer[index] = ETH0_W51_Read(addr+index);
 400:Generated_Source\PSoC5/ETH0.c **** 	}
 401:Generated_Source\PSoC5/ETH0.c **** 	return( *ip );
 402:Generated_Source\PSoC5/ETH0.c **** }
 403:Generated_Source\PSoC5/ETH0.c **** /* ------------------------------------------------------------------------ */
 404:Generated_Source\PSoC5/ETH0.c **** /**
 405:Generated_Source\PSoC5/ETH0.c ****  * \brief Write a 16-bit word to the device
 406:Generated_Source\PSoC5/ETH0.c ****  * \param addr the starting address to which the data will be written
 407:Generated_Source\PSoC5/ETH0.c ****  * \param val the 16-bit value to write
 408:Generated_Source\PSoC5/ETH0.c ****  */
 409:Generated_Source\PSoC5/ETH0.c **** static void ETH0_W51_Write16( uint16 addr, uint16 val )
 410:Generated_Source\PSoC5/ETH0.c **** {
 411:Generated_Source\PSoC5/ETH0.c **** 	ETH0_W51_Write( addr, val>>8);
 412:Generated_Source\PSoC5/ETH0.c **** 	ETH0_W51_Write( addr + 1, val&0x00FF);
 413:Generated_Source\PSoC5/ETH0.c **** }
 414:Generated_Source\PSoC5/ETH0.c **** /* ------------------------------------------------------------------------ */
 415:Generated_Source\PSoC5/ETH0.c **** /**
 416:Generated_Source\PSoC5/ETH0.c ****  * \brief Read a 16-bit value from the device
 417:Generated_Source\PSoC5/ETH0.c ****  * \param addr The starting address from which data will be read
 418:Generated_Source\PSoC5/ETH0.c ****  * \returns the 16-bit value read from the memory.
 419:Generated_Source\PSoC5/ETH0.c ****  */
 420:Generated_Source\PSoC5/ETH0.c **** static uint16 ETH0_W51_Read16( uint16 addr )
 421:Generated_Source\PSoC5/ETH0.c **** {
 422:Generated_Source\PSoC5/ETH0.c **** 	uint16 val;
 423:Generated_Source\PSoC5/ETH0.c **** 	
 424:Generated_Source\PSoC5/ETH0.c **** 	val = ETH0_W51_Read( addr );
 425:Generated_Source\PSoC5/ETH0.c **** 	val <<= 8;
 426:Generated_Source\PSoC5/ETH0.c **** 	val += ETH0_W51_Read( addr + 1);
 427:Generated_Source\PSoC5/ETH0.c **** 	
 428:Generated_Source\PSoC5/ETH0.c **** 	return( val );
ARM GAS  C:\Users\USUARIO\AppData\Local\Temp\cchqzDaB.s 			page 10


 429:Generated_Source\PSoC5/ETH0.c **** }
 430:Generated_Source\PSoC5/ETH0.c **** /* ------------------------------------------------------------------------ */
 431:Generated_Source\PSoC5/ETH0.c **** /**
 432:Generated_Source\PSoC5/ETH0.c ****  * \brief Write a block of data to consecutive memory addresses
 433:Generated_Source\PSoC5/ETH0.c ****  * \param addr the starting address of the write
 434:Generated_Source\PSoC5/ETH0.c ****  * \param *buffer pointer to the data buffer holding the data to write
 435:Generated_Source\PSoC5/ETH0.c ****  * \param length the length of data to be written
 436:Generated_Source\PSoC5/ETH0.c ****  */
 437:Generated_Source\PSoC5/ETH0.c **** static void ETH0_W51_WriteBlock(uint16 addr, uint8* buffer, uint16 length)
 438:Generated_Source\PSoC5/ETH0.c **** {
 439:Generated_Source\PSoC5/ETH0.c **** 	int index;
 440:Generated_Source\PSoC5/ETH0.c **** 	for(index=0;index<length;++index) {
 441:Generated_Source\PSoC5/ETH0.c **** 		ETH0_W51_Write(addr+index,buffer[index]);
 442:Generated_Source\PSoC5/ETH0.c **** 	}
 443:Generated_Source\PSoC5/ETH0.c **** }
 444:Generated_Source\PSoC5/ETH0.c **** /* ------------------------------------------------------------------------ */
 445:Generated_Source\PSoC5/ETH0.c **** /**
 446:Generated_Source\PSoC5/ETH0.c ****  * \brief read a block of data from consecutive memory addresses
 447:Generated_Source\PSoC5/ETH0.c ****  * \param addr the address from which the read will begin
 448:Generated_Source\PSoC5/ETH0.c ****  * \param *buffer pointer to the memory buffer which will hold the read data
 449:Generated_Source\PSoC5/ETH0.c ****  * \param length the length of data to read from the buffer.
 450:Generated_Source\PSoC5/ETH0.c ****  */
 451:Generated_Source\PSoC5/ETH0.c **** static void ETH0_W51_ReadBlock(uint16 addr, uint8* buffer, uint16 length)
 452:Generated_Source\PSoC5/ETH0.c **** {
 453:Generated_Source\PSoC5/ETH0.c **** 	int index;
 454:Generated_Source\PSoC5/ETH0.c **** 	
 455:Generated_Source\PSoC5/ETH0.c **** 	for(index=0;index<length;++index) {
 456:Generated_Source\PSoC5/ETH0.c **** 		buffer[index] = ETH0_W51_Read(addr+index);
 457:Generated_Source\PSoC5/ETH0.c **** 	}
 458:Generated_Source\PSoC5/ETH0.c **** }
 459:Generated_Source\PSoC5/ETH0.c **** /* ======================================================================== */
 460:Generated_Source\PSoC5/ETH0.c **** /* END SECTION */
 461:Generated_Source\PSoC5/ETH0.c **** #endif
 462:Generated_Source\PSoC5/ETH0.c **** /* ======================================================================== */
 463:Generated_Source\PSoC5/ETH0.c **** /* Chip Register access */
 464:Generated_Source\PSoC5/ETH0.c **** #if (1)
 465:Generated_Source\PSoC5/ETH0.c **** // Common Registers
 466:Generated_Source\PSoC5/ETH0.c **** /* ------------------------------------------------------------------------ */
 467:Generated_Source\PSoC5/ETH0.c **** /**
 468:Generated_Source\PSoC5/ETH0.c ****  * \brief Set teh chip mac address to teh specified address
 469:Generated_Source\PSoC5/ETH0.c ****  * \param *mac pointer to the array holding the MAC address
 470:Generated_Source\PSoC5/ETH0.c ****  */
 471:Generated_Source\PSoC5/ETH0.c **** static void ETH0_SetSourceMAC( uint8* mac ) { ETH0_W51_SetMAC(9,mac); }
 472:Generated_Source\PSoC5/ETH0.c **** /* ------------------------------------------------------------------------ */
 473:Generated_Source\PSoC5/ETH0.c **** /**
 474:Generated_Source\PSoC5/ETH0.c ****  * \brief Read the chip source MAC address from the MAC registers
 475:Generated_Source\PSoC5/ETH0.c ****  * \param *mac pointer to the address of the buffer to hold the read MAC address
 476:Generated_Source\PSoC5/ETH0.c ****  */
 477:Generated_Source\PSoC5/ETH0.c **** static void ETH0_GetSourceMAC( uint8* mac ) { ETH0_W51_GetMAC(9,mac); }
 478:Generated_Source\PSoC5/ETH0.c **** /* ------------------------------------------------------------------------ */
 479:Generated_Source\PSoC5/ETH0.c **** /**
 480:Generated_Source\PSoC5/ETH0.c ****  * \brief Set the IPv4 address of the network gateway
 481:Generated_Source\PSoC5/ETH0.c ****  * \param ip IP address of the gateway
 482:Generated_Source\PSoC5/ETH0.c ****  */
 483:Generated_Source\PSoC5/ETH0.c **** static void ETH0_SetGatewayAddress(uint32 ip) { ETH0_W51_SetIP(1,ip); }
 484:Generated_Source\PSoC5/ETH0.c **** /* ------------------------------------------------------------------------ */
 485:Generated_Source\PSoC5/ETH0.c **** /**
ARM GAS  C:\Users\USUARIO\AppData\Local\Temp\cchqzDaB.s 			page 11


 486:Generated_Source\PSoC5/ETH0.c ****  * \brief Read the gateway address from the device
 487:Generated_Source\PSoC5/ETH0.c ****  * \returns the IP address of the gateway
 488:Generated_Source\PSoC5/ETH0.c ****  */
 489:Generated_Source\PSoC5/ETH0.c **** static uint32 ETH0_GetGatewayAddress( void ) { return ETH0_W51_GetIP(1); }
 490:Generated_Source\PSoC5/ETH0.c **** /* ------------------------------------------------------------------------ */
 491:Generated_Source\PSoC5/ETH0.c **** /**
 492:Generated_Source\PSoC5/ETH0.c ****  * \brief set the subnet mask of the ethernet device
 493:Generated_Source\PSoC5/ETH0.c ****  * \param the subnet mask (IPv4)
 494:Generated_Source\PSoC5/ETH0.c ****  */
 495:Generated_Source\PSoC5/ETH0.c **** static void ETH0_SetSubnetMask( uint32 ip ) { ETH0_W51_SetIP(5, ip); }
 496:Generated_Source\PSoC5/ETH0.c **** /* ------------------------------------------------------------------------ */
 497:Generated_Source\PSoC5/ETH0.c **** /**
 498:Generated_Source\PSoC5/ETH0.c ****  * \brief Read the subnet mask from the device
 499:Generated_Source\PSoC5/ETH0.c ****  * \returns the subnet mask that was read from the device.
 500:Generated_Source\PSoC5/ETH0.c ****  */
 501:Generated_Source\PSoC5/ETH0.c **** static uint32 ETH0_GetSubnetMask( void ) { return ETH0_W51_GetIP(5); }
 502:Generated_Source\PSoC5/ETH0.c **** /* ------------------------------------------------------------------------ */
 503:Generated_Source\PSoC5/ETH0.c **** /**
 504:Generated_Source\PSoC5/ETH0.c ****  * \brief Write the device source IPv4 address
 505:Generated_Source\PSoC5/ETH0.c ****  * \param ip the ip address to set as the chip IP address
 506:Generated_Source\PSoC5/ETH0.c ****  */
 507:Generated_Source\PSoC5/ETH0.c **** static void ETH0_SetSourceIP( uint32 ip ) { ETH0_W51_SetIP( 0x0F, ip ); }
 508:Generated_Source\PSoC5/ETH0.c **** /* ------------------------------------------------------------------------ */
 509:Generated_Source\PSoC5/ETH0.c **** /**
 510:Generated_Source\PSoC5/ETH0.c ****  * \brief Read the device's programmed IP address
 511:Generated_Source\PSoC5/ETH0.c ****  * \returns The IPv4 address to which the device is set.
 512:Generated_Source\PSoC5/ETH0.c ****  */
 513:Generated_Source\PSoC5/ETH0.c **** static uint32 ETH0_GetSourceIP( void ) { return ETH0_W51_GetIP( 0x0F ); }
 514:Generated_Source\PSoC5/ETH0.c **** /* ------------------------------------------------------------------------ */
 515:Generated_Source\PSoC5/ETH0.c **** /**
 516:Generated_Source\PSoC5/ETH0.c ****  * \brief Write a value to the device internal MODE register
 517:Generated_Source\PSoC5/ETH0.c ****  * \param mode the value to be written to the mode register.
 518:Generated_Source\PSoC5/ETH0.c ****  */
 519:Generated_Source\PSoC5/ETH0.c **** static void ETH0_SetMode( uint8 mode ) { ETH0_W51_Write(0,mode); }
  85              		.loc 1 519 0
  86              		.cfi_startproc
  87              		@ args = 0, pretend = 0, frame = 0
  88              		@ frame_needed = 0, uses_anonymous_args = 0
  89              	.LVL9:
  90 0000 08B5     		push	{r3, lr}
  91              		.cfi_def_cfa_offset 8
  92              		.cfi_offset 3, -8
  93              		.cfi_offset 14, -4
  94              		.loc 1 519 0
  95 0002 0146     		mov	r1, r0
  96 0004 0020     		movs	r0, #0
  97              	.LVL10:
  98 0006 FFF7FEFF 		bl	ETH0_W51_Write
  99              	.LVL11:
 100 000a 08BD     		pop	{r3, pc}
 101              		.cfi_endproc
 102              	.LFE19:
 103              		.size	ETH0_SetMode, .-ETH0_SetMode
 104              		.section	.text.ETH0_SetTxMemSize,"ax",%progbits
 105              		.align	2
 106              		.thumb
 107              		.thumb_func
ARM GAS  C:\Users\USUARIO\AppData\Local\Temp\cchqzDaB.s 			page 12


 108              		.type	ETH0_SetTxMemSize, %function
 109              	ETH0_SetTxMemSize:
 110              	.LFB31:
 520:Generated_Source\PSoC5/ETH0.c **** /* ------------------------------------------------------------------------ */
 521:Generated_Source\PSoC5/ETH0.c **** /**
 522:Generated_Source\PSoC5/ETH0.c ****  * \brief Read the present contents of the device internal mode register
 523:Generated_Source\PSoC5/ETH0.c ****  * \returns the value of the mode register
 524:Generated_Source\PSoC5/ETH0.c ****  */
 525:Generated_Source\PSoC5/ETH0.c **** static uint8 ETH0_GetMode( void ) { return ETH0_W51_Read(0); }
 526:Generated_Source\PSoC5/ETH0.c **** /* ------------------------------------------------------------------------ */
 527:Generated_Source\PSoC5/ETH0.c **** /**
 528:Generated_Source\PSoC5/ETH0.c ****  * \brief Write the value of the interrupt register
 529:Generated_Source\PSoC5/ETH0.c ****  * \param ir the value to be written to the interrupt register
 530:Generated_Source\PSoC5/ETH0.c ****  */
 531:Generated_Source\PSoC5/ETH0.c **** static void ETH0_SetIR( uint8 ir ) { ETH0_W51_Write(0x0015,ir); }
 532:Generated_Source\PSoC5/ETH0.c **** /* ------------------------------------------------------------------------ */
 533:Generated_Source\PSoC5/ETH0.c **** /**
 534:Generated_Source\PSoC5/ETH0.c ****  * \brief Read the contents of the interrupt register
 535:Generated_Source\PSoC5/ETH0.c ****  * \returns the contents read from the interrupt register
 536:Generated_Source\PSoC5/ETH0.c ****  */
 537:Generated_Source\PSoC5/ETH0.c **** static uint8 ETH0_GetIR( void ) { return ETH0_W51_Read(0x0015); }
 538:Generated_Source\PSoC5/ETH0.c **** /* ------------------------------------------------------------------------ */
 539:Generated_Source\PSoC5/ETH0.c **** /**
 540:Generated_Source\PSoC5/ETH0.c ****  * \brief Set the value of the interrupt mask register
 541:Generated_Source\PSoC5/ETH0.c ****  * \param imr the value to be written to the interrupt mask register
 542:Generated_Source\PSoC5/ETH0.c ****  */
 543:Generated_Source\PSoC5/ETH0.c **** static void ETH0_SetIMR( uint8 imr) { ETH0_W51_Write( 0x0016, imr ); }
 544:Generated_Source\PSoC5/ETH0.c **** /* ------------------------------------------------------------------------ */
 545:Generated_Source\PSoC5/ETH0.c **** /**
 546:Generated_Source\PSoC5/ETH0.c ****  * \brief Read the interrupt mask register
 547:Generated_Source\PSoC5/ETH0.c ****  * \returns the contents of the interrupt mask register
 548:Generated_Source\PSoC5/ETH0.c ****  */
 549:Generated_Source\PSoC5/ETH0.c **** static uint8 ETH0_GetIMR( void ) { return ETH0_W51_Read( 0x0016 ); }
 550:Generated_Source\PSoC5/ETH0.c **** /* ------------------------------------------------------------------------ */
 551:Generated_Source\PSoC5/ETH0.c **** /**
 552:Generated_Source\PSoC5/ETH0.c ****  * \brief Write the retry time register
 553:Generated_Source\PSoC5/ETH0.c ****  * \param time the value to be written to the regster
 554:Generated_Source\PSoC5/ETH0.c ****  */
 555:Generated_Source\PSoC5/ETH0.c **** static void ETH0_SetRetryTime( uint16 time) { ETH0_W51_Write16( 0x0017, time ); }
 556:Generated_Source\PSoC5/ETH0.c **** /* ------------------------------------------------------------------------ */
 557:Generated_Source\PSoC5/ETH0.c **** /**
 558:Generated_Source\PSoC5/ETH0.c ****  * \brief Read the retry tie register
 559:Generated_Source\PSoC5/ETH0.c ****  * \returns the value read from the register
 560:Generated_Source\PSoC5/ETH0.c ****  */
 561:Generated_Source\PSoC5/ETH0.c **** static uint16 ETH0_GetRetryTime( void ) { return ETH0_W51_Read16( 0x0017 ); }
 562:Generated_Source\PSoC5/ETH0.c **** /* ------------------------------------------------------------------------ */
 563:Generated_Source\PSoC5/ETH0.c **** /**
 564:Generated_Source\PSoC5/ETH0.c ****  * \breif write a value to the retry count register
 565:Generated_Source\PSoC5/ETH0.c ****  * \param count the value to be written to the register
 566:Generated_Source\PSoC5/ETH0.c ****  */
 567:Generated_Source\PSoC5/ETH0.c **** static void ETH0_SetRetryCount( uint8 count ) { ETH0_W51_Write( 0x0019, count); }
 568:Generated_Source\PSoC5/ETH0.c **** /* ------------------------------------------------------------------------ */
 569:Generated_Source\PSoC5/ETH0.c **** /**
 570:Generated_Source\PSoC5/ETH0.c ****  * \brief Read the contents of the retry count register
 571:Generated_Source\PSoC5/ETH0.c ****  * \returns the value read from teh register
 572:Generated_Source\PSoC5/ETH0.c ****  */
 573:Generated_Source\PSoC5/ETH0.c **** static uint8 ETH0_GetRetryCount( void ) { return ETH0_W51_Read( 0x0019 ); }
ARM GAS  C:\Users\USUARIO\AppData\Local\Temp\cchqzDaB.s 			page 13


 574:Generated_Source\PSoC5/ETH0.c **** /* ------------------------------------------------------------------------ */
 575:Generated_Source\PSoC5/ETH0.c **** /**
 576:Generated_Source\PSoC5/ETH0.c ****  * \brief write a value to the Rx mem size register
 577:Generated_Source\PSoC5/ETH0.c ****  * \param size the value to be written to the register
 578:Generated_Source\PSoC5/ETH0.c ****  */
 579:Generated_Source\PSoC5/ETH0.c **** static void ETH0_SetRxMemSize( uint8 size ) { ETH0_W51_Write( 0x1A, size ); }
 580:Generated_Source\PSoC5/ETH0.c **** /* ------------------------------------------------------------------------ */
 581:Generated_Source\PSoC5/ETH0.c **** /**
 582:Generated_Source\PSoC5/ETH0.c ****  * \brief Read the contents of hte rx mem size register
 583:Generated_Source\PSoC5/ETH0.c ****  * \returns the value read from teh register
 584:Generated_Source\PSoC5/ETH0.c ****  */
 585:Generated_Source\PSoC5/ETH0.c **** static uint8 ETH0_GetRxMemSize( void ) { return ETH0_W51_Read(0x1A); }
 586:Generated_Source\PSoC5/ETH0.c **** /* ------------------------------------------------------------------------ */
 587:Generated_Source\PSoC5/ETH0.c **** /**
 588:Generated_Source\PSoC5/ETH0.c ****  * \brief write a value to the tx mem size register
 589:Generated_Source\PSoC5/ETH0.c ****  * \param size The value to be written to the register
 590:Generated_Source\PSoC5/ETH0.c ****  */
 591:Generated_Source\PSoC5/ETH0.c **** static void ETH0_SetTxMemSize( uint8 size ) { ETH0_W51_Write( 0x1B, size); }
 111              		.loc 1 591 0
 112              		.cfi_startproc
 113              		@ args = 0, pretend = 0, frame = 0
 114              		@ frame_needed = 0, uses_anonymous_args = 0
 115              	.LVL12:
 116 0000 08B5     		push	{r3, lr}
 117              		.cfi_def_cfa_offset 8
 118              		.cfi_offset 3, -8
 119              		.cfi_offset 14, -4
 120              		.loc 1 591 0
 121 0002 0146     		mov	r1, r0
 122 0004 1B20     		movs	r0, #27
 123              	.LVL13:
 124 0006 FFF7FEFF 		bl	ETH0_W51_Write
 125              	.LVL14:
 126 000a 08BD     		pop	{r3, pc}
 127              		.cfi_endproc
 128              	.LFE31:
 129              		.size	ETH0_SetTxMemSize, .-ETH0_SetTxMemSize
 130              		.section	.text.ETH0_SetRxMemSize,"ax",%progbits
 131              		.align	2
 132              		.thumb
 133              		.thumb_func
 134              		.type	ETH0_SetRxMemSize, %function
 135              	ETH0_SetRxMemSize:
 136              	.LFB29:
 579:Generated_Source\PSoC5/ETH0.c **** /* ------------------------------------------------------------------------ */
 137              		.loc 1 579 0
 138              		.cfi_startproc
 139              		@ args = 0, pretend = 0, frame = 0
 140              		@ frame_needed = 0, uses_anonymous_args = 0
 141              	.LVL15:
 142 0000 08B5     		push	{r3, lr}
 143              		.cfi_def_cfa_offset 8
 144              		.cfi_offset 3, -8
 145              		.cfi_offset 14, -4
 579:Generated_Source\PSoC5/ETH0.c **** /* ------------------------------------------------------------------------ */
 146              		.loc 1 579 0
 147 0002 0146     		mov	r1, r0
ARM GAS  C:\Users\USUARIO\AppData\Local\Temp\cchqzDaB.s 			page 14


 148 0004 1A20     		movs	r0, #26
 149              	.LVL16:
 150 0006 FFF7FEFF 		bl	ETH0_W51_Write
 151              	.LVL17:
 152 000a 08BD     		pop	{r3, pc}
 153              		.cfi_endproc
 154              	.LFE29:
 155              		.size	ETH0_SetRxMemSize, .-ETH0_SetRxMemSize
 156              		.section	.text.ETH0_W51_SetIP,"ax",%progbits
 157              		.align	2
 158              		.thumb
 159              		.thumb_func
 160              		.type	ETH0_W51_SetIP, %function
 161              	ETH0_W51_SetIP:
 162              	.LFB5:
 375:Generated_Source\PSoC5/ETH0.c **** 	uint32 index;
 163              		.loc 1 375 0
 164              		.cfi_startproc
 165              		@ args = 0, pretend = 0, frame = 8
 166              		@ frame_needed = 0, uses_anonymous_args = 0
 167              	.LVL18:
 168 0000 30B5     		push	{r4, r5, lr}
 169              		.cfi_def_cfa_offset 12
 170              		.cfi_offset 4, -12
 171              		.cfi_offset 5, -8
 172              		.cfi_offset 14, -4
 173 0002 83B0     		sub	sp, sp, #12
 174              		.cfi_def_cfa_offset 24
 175 0004 0546     		mov	r5, r0
 176 0006 0191     		str	r1, [sp, #4]
 177              	.LVL19:
 380:Generated_Source\PSoC5/ETH0.c **** 		ETH0_W51_Write(addr+index,buffer[index]);
 178              		.loc 1 380 0
 179 0008 0024     		movs	r4, #0
 180 000a 06E0     		b	.L12
 181              	.LVL20:
 182              	.L13:
 381:Generated_Source\PSoC5/ETH0.c **** 	}
 183              		.loc 1 381 0 discriminator 3
 184 000c 2819     		adds	r0, r5, r4
 185 000e 01AB     		add	r3, sp, #4
 186              	.LVL21:
 187 0010 195D     		ldrb	r1, [r3, r4]	@ zero_extendqisi2
 188 0012 80B2     		uxth	r0, r0
 189 0014 FFF7FEFF 		bl	ETH0_W51_Write
 190              	.LVL22:
 380:Generated_Source\PSoC5/ETH0.c **** 		ETH0_W51_Write(addr+index,buffer[index]);
 191              		.loc 1 380 0 discriminator 3
 192 0018 0134     		adds	r4, r4, #1
 193              	.LVL23:
 194              	.L12:
 380:Generated_Source\PSoC5/ETH0.c **** 		ETH0_W51_Write(addr+index,buffer[index]);
 195              		.loc 1 380 0 is_stmt 0 discriminator 1
 196 001a 032C     		cmp	r4, #3
 197 001c F6D9     		bls	.L13
 383:Generated_Source\PSoC5/ETH0.c **** /* ------------------------------------------------------------------------ */
 198              		.loc 1 383 0 is_stmt 1
ARM GAS  C:\Users\USUARIO\AppData\Local\Temp\cchqzDaB.s 			page 15


 199 001e 03B0     		add	sp, sp, #12
 200              		.cfi_def_cfa_offset 12
 201              		@ sp needed
 202 0020 30BD     		pop	{r4, r5, pc}
 203              		.cfi_endproc
 204              	.LFE5:
 205              		.size	ETH0_W51_SetIP, .-ETH0_W51_SetIP
 206 0022 00BF     		.section	.text.ETH0_SetGatewayAddress,"ax",%progbits
 207              		.align	2
 208              		.thumb
 209              		.thumb_func
 210              		.type	ETH0_SetGatewayAddress, %function
 211              	ETH0_SetGatewayAddress:
 212              	.LFB13:
 483:Generated_Source\PSoC5/ETH0.c **** /* ------------------------------------------------------------------------ */
 213              		.loc 1 483 0
 214              		.cfi_startproc
 215              		@ args = 0, pretend = 0, frame = 0
 216              		@ frame_needed = 0, uses_anonymous_args = 0
 217              	.LVL24:
 218 0000 08B5     		push	{r3, lr}
 219              		.cfi_def_cfa_offset 8
 220              		.cfi_offset 3, -8
 221              		.cfi_offset 14, -4
 483:Generated_Source\PSoC5/ETH0.c **** /* ------------------------------------------------------------------------ */
 222              		.loc 1 483 0
 223 0002 0146     		mov	r1, r0
 224 0004 0120     		movs	r0, #1
 225              	.LVL25:
 226 0006 FFF7FEFF 		bl	ETH0_W51_SetIP
 227              	.LVL26:
 228 000a 08BD     		pop	{r3, pc}
 229              		.cfi_endproc
 230              	.LFE13:
 231              		.size	ETH0_SetGatewayAddress, .-ETH0_SetGatewayAddress
 232              		.section	.text.ETH0_SetSourceIP,"ax",%progbits
 233              		.align	2
 234              		.thumb
 235              		.thumb_func
 236              		.type	ETH0_SetSourceIP, %function
 237              	ETH0_SetSourceIP:
 238              	.LFB17:
 507:Generated_Source\PSoC5/ETH0.c **** /* ------------------------------------------------------------------------ */
 239              		.loc 1 507 0
 240              		.cfi_startproc
 241              		@ args = 0, pretend = 0, frame = 0
 242              		@ frame_needed = 0, uses_anonymous_args = 0
 243              	.LVL27:
 244 0000 08B5     		push	{r3, lr}
 245              		.cfi_def_cfa_offset 8
 246              		.cfi_offset 3, -8
 247              		.cfi_offset 14, -4
 507:Generated_Source\PSoC5/ETH0.c **** /* ------------------------------------------------------------------------ */
 248              		.loc 1 507 0
 249 0002 0146     		mov	r1, r0
 250 0004 0F20     		movs	r0, #15
 251              	.LVL28:
ARM GAS  C:\Users\USUARIO\AppData\Local\Temp\cchqzDaB.s 			page 16


 252 0006 FFF7FEFF 		bl	ETH0_W51_SetIP
 253              	.LVL29:
 254 000a 08BD     		pop	{r3, pc}
 255              		.cfi_endproc
 256              	.LFE17:
 257              		.size	ETH0_SetSourceIP, .-ETH0_SetSourceIP
 258              		.section	.text.ETH0_SetSubnetMask,"ax",%progbits
 259              		.align	2
 260              		.thumb
 261              		.thumb_func
 262              		.type	ETH0_SetSubnetMask, %function
 263              	ETH0_SetSubnetMask:
 264              	.LFB15:
 495:Generated_Source\PSoC5/ETH0.c **** /* ------------------------------------------------------------------------ */
 265              		.loc 1 495 0
 266              		.cfi_startproc
 267              		@ args = 0, pretend = 0, frame = 0
 268              		@ frame_needed = 0, uses_anonymous_args = 0
 269              	.LVL30:
 270 0000 08B5     		push	{r3, lr}
 271              		.cfi_def_cfa_offset 8
 272              		.cfi_offset 3, -8
 273              		.cfi_offset 14, -4
 495:Generated_Source\PSoC5/ETH0.c **** /* ------------------------------------------------------------------------ */
 274              		.loc 1 495 0
 275 0002 0146     		mov	r1, r0
 276 0004 0520     		movs	r0, #5
 277              	.LVL31:
 278 0006 FFF7FEFF 		bl	ETH0_W51_SetIP
 279              	.LVL32:
 280 000a 08BD     		pop	{r3, pc}
 281              		.cfi_endproc
 282              	.LFE15:
 283              		.size	ETH0_SetSubnetMask, .-ETH0_SetSubnetMask
 284              		.section	.text.ETH0_SetSocketDestIP,"ax",%progbits
 285              		.align	2
 286              		.thumb
 287              		.thumb_func
 288              		.type	ETH0_SetSocketDestIP, %function
 289              	ETH0_SetSocketDestIP:
 290              	.LFB49:
 592:Generated_Source\PSoC5/ETH0.c **** /* ------------------------------------------------------------------------ */
 593:Generated_Source\PSoC5/ETH0.c **** /**
 594:Generated_Source\PSoC5/ETH0.c ****  * \brief read the contents of the tx mem size register
 595:Generated_Source\PSoC5/ETH0.c ****  * \returns the value read from the register
 596:Generated_Source\PSoC5/ETH0.c ****  */
 597:Generated_Source\PSoC5/ETH0.c **** static uint8 ETH0_GetTxMemSize( void ) { return ETH0_W51_Read( 0x1B);}
 598:Generated_Source\PSoC5/ETH0.c **** /* ------------------------------------------------------------------------ */
 599:Generated_Source\PSoC5/ETH0.c **** /**
 600:Generated_Source\PSoC5/ETH0.c ****  * \brief write a value to the unreachable IP register
 601:Generated_Source\PSoC5/ETH0.c ****  * \param ip the value to be written to the register
 602:Generated_Source\PSoC5/ETH0.c ****  */
 603:Generated_Source\PSoC5/ETH0.c **** static void ETH0_SetUnreachableIP( uint32 ip) { ETH0_W51_SetIP( 0x2A, ip); }
 604:Generated_Source\PSoC5/ETH0.c **** /* ------------------------------------------------------------------------ */
 605:Generated_Source\PSoC5/ETH0.c **** /**
 606:Generated_Source\PSoC5/ETH0.c ****  * \brief read the contents of the unreachable IP register
 607:Generated_Source\PSoC5/ETH0.c ****  * \returns the value read from teh register
ARM GAS  C:\Users\USUARIO\AppData\Local\Temp\cchqzDaB.s 			page 17


 608:Generated_Source\PSoC5/ETH0.c ****  */
 609:Generated_Source\PSoC5/ETH0.c **** static uint32 ETH0_GetUnreachableIP( void ) { return ETH0_W51_GetIP( 0x2A ); }
 610:Generated_Source\PSoC5/ETH0.c **** /* ------------------------------------------------------------------------ */
 611:Generated_Source\PSoC5/ETH0.c **** /**
 612:Generated_Source\PSoC5/ETH0.c ****  * \brief write a value to the unreachable port register
 613:Generated_Source\PSoC5/ETH0.c ****  * \param port the value to be written to the register
 614:Generated_Source\PSoC5/ETH0.c ****  */
 615:Generated_Source\PSoC5/ETH0.c **** static void ETH0_SetUnreachablePort( uint16 port) { ETH0_W51_Write16(0x2E, port); }
 616:Generated_Source\PSoC5/ETH0.c **** /* ------------------------------------------------------------------------ */
 617:Generated_Source\PSoC5/ETH0.c **** /**
 618:Generated_Source\PSoC5/ETH0.c ****  * \brief read the contents of the unreachable port register
 619:Generated_Source\PSoC5/ETH0.c ****  * \returns the value read from the register
 620:Generated_Source\PSoC5/ETH0.c ****  */
 621:Generated_Source\PSoC5/ETH0.c **** static uint16 ETH0_GetUnreachablePort( void ) { return ETH0_W51_Read16(0x2E); }
 622:Generated_Source\PSoC5/ETH0.c **** /* ======================================================================== */
 623:Generated_Source\PSoC5/ETH0.c **** /* End Section */
 624:Generated_Source\PSoC5/ETH0.c **** #endif
 625:Generated_Source\PSoC5/ETH0.c **** /* ======================================================================== */
 626:Generated_Source\PSoC5/ETH0.c **** /* Socket Registers */
 627:Generated_Source\PSoC5/ETH0.c **** #if (1)
 628:Generated_Source\PSoC5/ETH0.c **** /**
 629:Generated_Source\PSoC5/ETH0.c ****  * \def ETH0_SOCKET BASE(s)
 630:Generated_Source\PSoC5/ETH0.c ****  * \brief Convert the socket number to a base address within the W5100
 631:Generated_Source\PSoC5/ETH0.c ****  */
 632:Generated_Source\PSoC5/ETH0.c **** #define ETH0_SOCKET_BASE(s)           ((s<<8)+0x0400)
 633:Generated_Source\PSoC5/ETH0.c **** /* ------------------------------------------------------------------------ */
 634:Generated_Source\PSoC5/ETH0.c **** /**
 635:Generated_Source\PSoC5/ETH0.c ****  * \brief Write a value to the socket mode register
 636:Generated_Source\PSoC5/ETH0.c ****  * \param socket the socket number for the addressed register
 637:Generated_Source\PSoC5/ETH0.c ****  * \param mode the value to be written to the register
 638:Generated_Source\PSoC5/ETH0.c ****  */
 639:Generated_Source\PSoC5/ETH0.c **** static void ETH0_SetSocketMode(uint8 socket, uint8 mode)
 640:Generated_Source\PSoC5/ETH0.c **** { ETH0_W51_Write(ETH0_SOCKET_BASE(socket), mode); }
 641:Generated_Source\PSoC5/ETH0.c **** /* ------------------------------------------------------------------------ */
 642:Generated_Source\PSoC5/ETH0.c **** /**
 643:Generated_Source\PSoC5/ETH0.c ****  * \brief Read a value from the socket mode register
 644:Generated_Source\PSoC5/ETH0.c ****  * \param socket the socket number for the addressed register
 645:Generated_Source\PSoC5/ETH0.c ****  * \returns the value read from the register
 646:Generated_Source\PSoC5/ETH0.c ****  */
 647:Generated_Source\PSoC5/ETH0.c **** static uint8 ETH0_GetSocketMode(uint8 socket)
 648:Generated_Source\PSoC5/ETH0.c **** { return ETH0_W51_Read(ETH0_SOCKET_BASE(socket)); }
 649:Generated_Source\PSoC5/ETH0.c **** /* ------------------------------------------------------------------------ */
 650:Generated_Source\PSoC5/ETH0.c **** /**
 651:Generated_Source\PSoC5/ETH0.c ****  * \brief Write a value to the socket command register
 652:Generated_Source\PSoC5/ETH0.c ****  * \param socket the socket number for the addressed register
 653:Generated_Source\PSoC5/ETH0.c ****  * \param cmd the value to be written to the register
 654:Generated_Source\PSoC5/ETH0.c ****  */
 655:Generated_Source\PSoC5/ETH0.c **** static void ETH0_SetSocketCommand(uint8 socket, uint8 cmd)
 656:Generated_Source\PSoC5/ETH0.c **** { ETH0_W51_Write(ETH0_SOCKET_BASE(socket)+1, cmd); }
 657:Generated_Source\PSoC5/ETH0.c **** /* ------------------------------------------------------------------------ */
 658:Generated_Source\PSoC5/ETH0.c **** /**
 659:Generated_Source\PSoC5/ETH0.c ****  * \brief Read a value from the socket command register
 660:Generated_Source\PSoC5/ETH0.c ****  * \param socket the socket number for the addressed register
 661:Generated_Source\PSoC5/ETH0.c ****  * \returns the value read from the register
 662:Generated_Source\PSoC5/ETH0.c ****  */
 663:Generated_Source\PSoC5/ETH0.c **** static uint8 ETH0_GetSocketCommand(uint8 socket)
 664:Generated_Source\PSoC5/ETH0.c **** { return ETH0_W51_Read(ETH0_SOCKET_BASE(socket)+1); }
ARM GAS  C:\Users\USUARIO\AppData\Local\Temp\cchqzDaB.s 			page 18


 665:Generated_Source\PSoC5/ETH0.c **** /* ------------------------------------------------------------------------ */
 666:Generated_Source\PSoC5/ETH0.c **** /**
 667:Generated_Source\PSoC5/ETH0.c ****  * \brief Write a value to the socket interrupt register
 668:Generated_Source\PSoC5/ETH0.c ****  * \param socket the socket number for the addressed register
 669:Generated_Source\PSoC5/ETH0.c ****  * \param ir the value to be written to the register
 670:Generated_Source\PSoC5/ETH0.c ****  */
 671:Generated_Source\PSoC5/ETH0.c **** static void ETH0_SetSocketIR(uint8 socket, uint8 ir)
 672:Generated_Source\PSoC5/ETH0.c **** { ETH0_W51_Write(ETH0_SOCKET_BASE(socket)+2,ir); }
 673:Generated_Source\PSoC5/ETH0.c **** /* ------------------------------------------------------------------------ */
 674:Generated_Source\PSoC5/ETH0.c **** /**
 675:Generated_Source\PSoC5/ETH0.c ****  * \brief Read a value from the socket interrupt register
 676:Generated_Source\PSoC5/ETH0.c ****  * \param socket the socket number for the addressed register
 677:Generated_Source\PSoC5/ETH0.c ****  * \returns the value read from the register
 678:Generated_Source\PSoC5/ETH0.c ****  */
 679:Generated_Source\PSoC5/ETH0.c **** static uint8 ETH0_GetSocketIR(uint8 socket)
 680:Generated_Source\PSoC5/ETH0.c **** { return ETH0_W51_Read(ETH0_SOCKET_BASE(socket)+2); }
 681:Generated_Source\PSoC5/ETH0.c **** /* ------------------------------------------------------------------------ */
 682:Generated_Source\PSoC5/ETH0.c **** /**
 683:Generated_Source\PSoC5/ETH0.c ****  * \brief Write a value to the socket status register
 684:Generated_Source\PSoC5/ETH0.c ****  * \param socket the socket number for the addressed register
 685:Generated_Source\PSoC5/ETH0.c ****  * \param status the value to be written to the register
 686:Generated_Source\PSoC5/ETH0.c ****  */
 687:Generated_Source\PSoC5/ETH0.c **** static void ETH0_SetSocketStatus(uint8 socket, uint8 status)
 688:Generated_Source\PSoC5/ETH0.c **** { ETH0_W51_Write(ETH0_SOCKET_BASE(socket)+3,status); }
 689:Generated_Source\PSoC5/ETH0.c **** /* ------------------------------------------------------------------------ */
 690:Generated_Source\PSoC5/ETH0.c **** /**
 691:Generated_Source\PSoC5/ETH0.c ****  * \brief Read a value from the socket status register
 692:Generated_Source\PSoC5/ETH0.c ****  * \param socket the socket number for the addressed register
 693:Generated_Source\PSoC5/ETH0.c ****  * \returns the value read from the register
 694:Generated_Source\PSoC5/ETH0.c ****  */
 695:Generated_Source\PSoC5/ETH0.c **** static uint8 ETH0_GetSocketStatus(uint8 socket)
 696:Generated_Source\PSoC5/ETH0.c **** { return ETH0_W51_Read(ETH0_SOCKET_BASE(socket)+3); }
 697:Generated_Source\PSoC5/ETH0.c **** /* ------------------------------------------------------------------------ */
 698:Generated_Source\PSoC5/ETH0.c **** /**
 699:Generated_Source\PSoC5/ETH0.c ****  * \brief Write a value to the socket source port register
 700:Generated_Source\PSoC5/ETH0.c ****  * \param socket the socket number for the addressed register
 701:Generated_Source\PSoC5/ETH0.c ****  * \param port the value to be written to the register
 702:Generated_Source\PSoC5/ETH0.c ****  */
 703:Generated_Source\PSoC5/ETH0.c **** static void ETH0_SetSocketSourcePort(uint8 socket, uint16 port)
 704:Generated_Source\PSoC5/ETH0.c **** { ETH0_W51_Write16(ETH0_SOCKET_BASE(socket)+4,port); }
 705:Generated_Source\PSoC5/ETH0.c **** /* ------------------------------------------------------------------------ */
 706:Generated_Source\PSoC5/ETH0.c **** /**
 707:Generated_Source\PSoC5/ETH0.c ****  * \brief Read a value from the socket source port register
 708:Generated_Source\PSoC5/ETH0.c ****  * \param socket the socket number for the addressed register
 709:Generated_Source\PSoC5/ETH0.c ****  * \returns the value read from the register
 710:Generated_Source\PSoC5/ETH0.c ****  */
 711:Generated_Source\PSoC5/ETH0.c **** static uint16 ETH0_GetSocketSourcePort(uint8 socket)
 712:Generated_Source\PSoC5/ETH0.c **** { return ETH0_W51_Read16(ETH0_SOCKET_BASE(socket)+4); }
 713:Generated_Source\PSoC5/ETH0.c **** /* ------------------------------------------------------------------------ */
 714:Generated_Source\PSoC5/ETH0.c **** /**
 715:Generated_Source\PSoC5/ETH0.c ****  * \brief Write a value to the socket Destination hardware address register
 716:Generated_Source\PSoC5/ETH0.c ****  * \param socket the socket number for the addressed register
 717:Generated_Source\PSoC5/ETH0.c ****  * \param *mac poitner to the array holding the values to be written to the register
 718:Generated_Source\PSoC5/ETH0.c ****  */
 719:Generated_Source\PSoC5/ETH0.c **** static void ETH0_SetSocketDestMAC(uint8 socket, uint8* mac)
 720:Generated_Source\PSoC5/ETH0.c **** { ETH0_W51_SetMAC( ETH0_SOCKET_BASE(socket)+6, mac); }
 721:Generated_Source\PSoC5/ETH0.c **** /* ------------------------------------------------------------------------ */
ARM GAS  C:\Users\USUARIO\AppData\Local\Temp\cchqzDaB.s 			page 19


 722:Generated_Source\PSoC5/ETH0.c **** /**
 723:Generated_Source\PSoC5/ETH0.c ****  * \brief Read a value from the socket destination hardware address (MAC) register
 724:Generated_Source\PSoC5/ETH0.c ****  * \param socket the socket number for the addressed register
 725:Generated_Source\PSoC5/ETH0.c ****  * \returns the value read from the register
 726:Generated_Source\PSoC5/ETH0.c ****  */
 727:Generated_Source\PSoC5/ETH0.c **** static void ETH0_GetSocketDestMAC(uint8 socket, uint8* mac)
 728:Generated_Source\PSoC5/ETH0.c **** { ETH0_W51_GetMAC( ETH0_SOCKET_BASE(socket)+6,mac); }
 729:Generated_Source\PSoC5/ETH0.c **** /* ------------------------------------------------------------------------ */
 730:Generated_Source\PSoC5/ETH0.c **** /**
 731:Generated_Source\PSoC5/ETH0.c ****  * \brief Write a value to the socket Destination IP address register
 732:Generated_Source\PSoC5/ETH0.c ****  * \param socket the socket number for the addressed register
 733:Generated_Source\PSoC5/ETH0.c ****  * \param ip the value to be written to the register
 734:Generated_Source\PSoC5/ETH0.c ****  */
 735:Generated_Source\PSoC5/ETH0.c **** static void ETH0_SetSocketDestIP(uint8 socket, uint32 ip)
 736:Generated_Source\PSoC5/ETH0.c **** { ETH0_W51_SetIP(ETH0_SOCKET_BASE(socket)+12,ip); }
 291              		.loc 1 736 0
 292              		.cfi_startproc
 293              		@ args = 0, pretend = 0, frame = 0
 294              		@ frame_needed = 0, uses_anonymous_args = 0
 295              	.LVL33:
 296 0000 08B5     		push	{r3, lr}
 297              		.cfi_def_cfa_offset 8
 298              		.cfi_offset 3, -8
 299              		.cfi_offset 14, -4
 300              		.loc 1 736 0
 301 0002 0002     		lsls	r0, r0, #8
 302              	.LVL34:
 303 0004 00F20C40 		addw	r0, r0, #1036
 304 0008 80B2     		uxth	r0, r0
 305 000a FFF7FEFF 		bl	ETH0_W51_SetIP
 306              	.LVL35:
 307 000e 08BD     		pop	{r3, pc}
 308              		.cfi_endproc
 309              	.LFE49:
 310              		.size	ETH0_SetSocketDestIP, .-ETH0_SetSocketDestIP
 311              		.section	.text.ETH0_W51_SetMAC,"ax",%progbits
 312              		.align	2
 313              		.thumb
 314              		.thumb_func
 315              		.type	ETH0_W51_SetMAC, %function
 316              	ETH0_W51_SetMAC:
 317              	.LFB3:
 347:Generated_Source\PSoC5/ETH0.c **** 	uint32 index;
 318              		.loc 1 347 0
 319              		.cfi_startproc
 320              		@ args = 0, pretend = 0, frame = 0
 321              		@ frame_needed = 0, uses_anonymous_args = 0
 322              	.LVL36:
 323 0000 70B5     		push	{r4, r5, r6, lr}
 324              		.cfi_def_cfa_offset 16
 325              		.cfi_offset 4, -16
 326              		.cfi_offset 5, -12
 327              		.cfi_offset 6, -8
 328              		.cfi_offset 14, -4
 329 0002 0646     		mov	r6, r0
 330 0004 0D46     		mov	r5, r1
 331              	.LVL37:
ARM GAS  C:\Users\USUARIO\AppData\Local\Temp\cchqzDaB.s 			page 20


 350:Generated_Source\PSoC5/ETH0.c **** 	{
 332              		.loc 1 350 0
 333 0006 0024     		movs	r4, #0
 334 0008 05E0     		b	.L24
 335              	.LVL38:
 336              	.L25:
 352:Generated_Source\PSoC5/ETH0.c **** 	}
 337              		.loc 1 352 0 discriminator 3
 338 000a 3019     		adds	r0, r6, r4
 339 000c 295D     		ldrb	r1, [r5, r4]	@ zero_extendqisi2
 340 000e 80B2     		uxth	r0, r0
 341 0010 FFF7FEFF 		bl	ETH0_W51_Write
 342              	.LVL39:
 350:Generated_Source\PSoC5/ETH0.c **** 	{
 343              		.loc 1 350 0 discriminator 3
 344 0014 0134     		adds	r4, r4, #1
 345              	.LVL40:
 346              	.L24:
 350:Generated_Source\PSoC5/ETH0.c **** 	{
 347              		.loc 1 350 0 is_stmt 0 discriminator 1
 348 0016 052C     		cmp	r4, #5
 349 0018 F7D9     		bls	.L25
 354:Generated_Source\PSoC5/ETH0.c **** /* ------------------------------------------------------------------------ */
 350              		.loc 1 354 0 is_stmt 1
 351 001a 70BD     		pop	{r4, r5, r6, pc}
 352              		.cfi_endproc
 353              	.LFE3:
 354              		.size	ETH0_W51_SetMAC, .-ETH0_W51_SetMAC
 355              		.section	.text.ETH0_SetSourceMAC,"ax",%progbits
 356              		.align	2
 357              		.thumb
 358              		.thumb_func
 359              		.type	ETH0_SetSourceMAC, %function
 360              	ETH0_SetSourceMAC:
 361              	.LFB11:
 471:Generated_Source\PSoC5/ETH0.c **** /* ------------------------------------------------------------------------ */
 362              		.loc 1 471 0
 363              		.cfi_startproc
 364              		@ args = 0, pretend = 0, frame = 0
 365              		@ frame_needed = 0, uses_anonymous_args = 0
 366              	.LVL41:
 367 0000 08B5     		push	{r3, lr}
 368              		.cfi_def_cfa_offset 8
 369              		.cfi_offset 3, -8
 370              		.cfi_offset 14, -4
 471:Generated_Source\PSoC5/ETH0.c **** /* ------------------------------------------------------------------------ */
 371              		.loc 1 471 0
 372 0002 0146     		mov	r1, r0
 373 0004 0920     		movs	r0, #9
 374              	.LVL42:
 375 0006 FFF7FEFF 		bl	ETH0_W51_SetMAC
 376              	.LVL43:
 377 000a 08BD     		pop	{r3, pc}
 378              		.cfi_endproc
 379              	.LFE11:
 380              		.size	ETH0_SetSourceMAC, .-ETH0_SetSourceMAC
 381              		.section	.text.ETH0_SetIR,"ax",%progbits
ARM GAS  C:\Users\USUARIO\AppData\Local\Temp\cchqzDaB.s 			page 21


 382              		.align	2
 383              		.thumb
 384              		.thumb_func
 385              		.type	ETH0_SetIR, %function
 386              	ETH0_SetIR:
 387              	.LFB21:
 531:Generated_Source\PSoC5/ETH0.c **** /* ------------------------------------------------------------------------ */
 388              		.loc 1 531 0
 389              		.cfi_startproc
 390              		@ args = 0, pretend = 0, frame = 0
 391              		@ frame_needed = 0, uses_anonymous_args = 0
 392              	.LVL44:
 393 0000 08B5     		push	{r3, lr}
 394              		.cfi_def_cfa_offset 8
 395              		.cfi_offset 3, -8
 396              		.cfi_offset 14, -4
 531:Generated_Source\PSoC5/ETH0.c **** /* ------------------------------------------------------------------------ */
 397              		.loc 1 531 0
 398 0002 0146     		mov	r1, r0
 399 0004 1520     		movs	r0, #21
 400              	.LVL45:
 401 0006 FFF7FEFF 		bl	ETH0_W51_Write
 402              	.LVL46:
 403 000a 08BD     		pop	{r3, pc}
 404              		.cfi_endproc
 405              	.LFE21:
 406              		.size	ETH0_SetIR, .-ETH0_SetIR
 407              		.section	.text.ETH0_W51_Write16,"ax",%progbits
 408              		.align	2
 409              		.thumb
 410              		.thumb_func
 411              		.type	ETH0_W51_Write16, %function
 412              	ETH0_W51_Write16:
 413              	.LFB7:
 410:Generated_Source\PSoC5/ETH0.c **** 	ETH0_W51_Write( addr, val>>8);
 414              		.loc 1 410 0
 415              		.cfi_startproc
 416              		@ args = 0, pretend = 0, frame = 0
 417              		@ frame_needed = 0, uses_anonymous_args = 0
 418              	.LVL47:
 419 0000 38B5     		push	{r3, r4, r5, lr}
 420              		.cfi_def_cfa_offset 16
 421              		.cfi_offset 3, -16
 422              		.cfi_offset 4, -12
 423              		.cfi_offset 5, -8
 424              		.cfi_offset 14, -4
 425 0002 0446     		mov	r4, r0
 426 0004 0D46     		mov	r5, r1
 411:Generated_Source\PSoC5/ETH0.c **** 	ETH0_W51_Write( addr + 1, val&0x00FF);
 427              		.loc 1 411 0
 428 0006 090A     		lsrs	r1, r1, #8
 429              	.LVL48:
 430 0008 FFF7FEFF 		bl	ETH0_W51_Write
 431              	.LVL49:
 412:Generated_Source\PSoC5/ETH0.c **** }
 432              		.loc 1 412 0
 433 000c 601C     		adds	r0, r4, #1
ARM GAS  C:\Users\USUARIO\AppData\Local\Temp\cchqzDaB.s 			page 22


 434 000e E9B2     		uxtb	r1, r5
 435 0010 80B2     		uxth	r0, r0
 436 0012 FFF7FEFF 		bl	ETH0_W51_Write
 437              	.LVL50:
 438 0016 38BD     		pop	{r3, r4, r5, pc}
 439              		.cfi_endproc
 440              	.LFE7:
 441              		.size	ETH0_W51_Write16, .-ETH0_W51_Write16
 442              		.section	.text.ETH0_SetSocketSourcePort,"ax",%progbits
 443              		.align	2
 444              		.thumb
 445              		.thumb_func
 446              		.type	ETH0_SetSocketSourcePort, %function
 447              	ETH0_SetSocketSourcePort:
 448              	.LFB45:
 704:Generated_Source\PSoC5/ETH0.c **** /* ------------------------------------------------------------------------ */
 449              		.loc 1 704 0
 450              		.cfi_startproc
 451              		@ args = 0, pretend = 0, frame = 0
 452              		@ frame_needed = 0, uses_anonymous_args = 0
 453              	.LVL51:
 454 0000 08B5     		push	{r3, lr}
 455              		.cfi_def_cfa_offset 8
 456              		.cfi_offset 3, -8
 457              		.cfi_offset 14, -4
 704:Generated_Source\PSoC5/ETH0.c **** /* ------------------------------------------------------------------------ */
 458              		.loc 1 704 0
 459 0002 0002     		lsls	r0, r0, #8
 460              	.LVL52:
 461 0004 00F20440 		addw	r0, r0, #1028
 462 0008 80B2     		uxth	r0, r0
 463 000a FFF7FEFF 		bl	ETH0_W51_Write16
 464              	.LVL53:
 465 000e 08BD     		pop	{r3, pc}
 466              		.cfi_endproc
 467              	.LFE45:
 468              		.size	ETH0_SetSocketSourcePort, .-ETH0_SetSocketSourcePort
 469              		.section	.text.ETH0_SetSocketDestPort,"ax",%progbits
 470              		.align	2
 471              		.thumb
 472              		.thumb_func
 473              		.type	ETH0_SetSocketDestPort, %function
 474              	ETH0_SetSocketDestPort:
 475              	.LFB51:
 737:Generated_Source\PSoC5/ETH0.c **** /* ------------------------------------------------------------------------ */
 738:Generated_Source\PSoC5/ETH0.c **** /**
 739:Generated_Source\PSoC5/ETH0.c ****  * \brief Read a value from the socket destination IP register
 740:Generated_Source\PSoC5/ETH0.c ****  * \param socket the socket number for the addressed register
 741:Generated_Source\PSoC5/ETH0.c ****  * \returns the value read from the register
 742:Generated_Source\PSoC5/ETH0.c ****  */
 743:Generated_Source\PSoC5/ETH0.c **** static uint32 ETH0_GetSocketDestIP(uint8 socket )
 744:Generated_Source\PSoC5/ETH0.c **** { return ETH0_W51_GetIP(ETH0_SOCKET_BASE(socket)+12); }
 745:Generated_Source\PSoC5/ETH0.c **** /* ------------------------------------------------------------------------ */
 746:Generated_Source\PSoC5/ETH0.c **** /**
 747:Generated_Source\PSoC5/ETH0.c ****  * \brief Write a value to the socket destination port register
 748:Generated_Source\PSoC5/ETH0.c ****  * \param socket the socket number for the addressed register
 749:Generated_Source\PSoC5/ETH0.c ****  * \param port the value to be written to the register
ARM GAS  C:\Users\USUARIO\AppData\Local\Temp\cchqzDaB.s 			page 23


 750:Generated_Source\PSoC5/ETH0.c ****  */
 751:Generated_Source\PSoC5/ETH0.c **** static void ETH0_SetSocketDestPort(uint8 socket, uint16 port)
 752:Generated_Source\PSoC5/ETH0.c **** { ETH0_W51_Write16( ETH0_SOCKET_BASE(socket)+16, port); }
 476              		.loc 1 752 0
 477              		.cfi_startproc
 478              		@ args = 0, pretend = 0, frame = 0
 479              		@ frame_needed = 0, uses_anonymous_args = 0
 480              	.LVL54:
 481 0000 08B5     		push	{r3, lr}
 482              		.cfi_def_cfa_offset 8
 483              		.cfi_offset 3, -8
 484              		.cfi_offset 14, -4
 485              		.loc 1 752 0
 486 0002 0002     		lsls	r0, r0, #8
 487              	.LVL55:
 488 0004 00F58260 		add	r0, r0, #1040
 489 0008 80B2     		uxth	r0, r0
 490 000a FFF7FEFF 		bl	ETH0_W51_Write16
 491              	.LVL56:
 492 000e 08BD     		pop	{r3, pc}
 493              		.cfi_endproc
 494              	.LFE51:
 495              		.size	ETH0_SetSocketDestPort, .-ETH0_SetSocketDestPort
 496              		.section	.text.ETH0_SetSocketTxWritePtr,"ax",%progbits
 497              		.align	2
 498              		.thumb
 499              		.thumb_func
 500              		.type	ETH0_SetSocketTxWritePtr, %function
 501              	ETH0_SetSocketTxWritePtr:
 502              	.LFB64:
 753:Generated_Source\PSoC5/ETH0.c **** /* ------------------------------------------------------------------------ */
 754:Generated_Source\PSoC5/ETH0.c **** /**
 755:Generated_Source\PSoC5/ETH0.c ****  * \brief Read a value from the socket destination port register
 756:Generated_Source\PSoC5/ETH0.c ****  * \param socket the socket number for the addressed register
 757:Generated_Source\PSoC5/ETH0.c ****  * \returns the value read from the register
 758:Generated_Source\PSoC5/ETH0.c ****  */
 759:Generated_Source\PSoC5/ETH0.c **** static uint16 ETH0_GetSocketDestPort(uint8 socket)
 760:Generated_Source\PSoC5/ETH0.c **** { return ETH0_W51_Read16( ETH0_SOCKET_BASE(socket)+16 ); }
 761:Generated_Source\PSoC5/ETH0.c **** /* ------------------------------------------------------------------------ */
 762:Generated_Source\PSoC5/ETH0.c **** /**
 763:Generated_Source\PSoC5/ETH0.c ****  * \brief Write a value to the socket max segment size register
 764:Generated_Source\PSoC5/ETH0.c ****  * \param socket the socket number for the addressed register
 765:Generated_Source\PSoC5/ETH0.c ****  * \param size the value to be written to the register
 766:Generated_Source\PSoC5/ETH0.c ****  */
 767:Generated_Source\PSoC5/ETH0.c **** static void ETH0_SetSocketMaxSegSize(uint8 socket, uint16 size)
 768:Generated_Source\PSoC5/ETH0.c **** { ETH0_W51_Write16(ETH0_SOCKET_BASE(socket)+18,size); }
 769:Generated_Source\PSoC5/ETH0.c **** /* ------------------------------------------------------------------------ */
 770:Generated_Source\PSoC5/ETH0.c **** /**
 771:Generated_Source\PSoC5/ETH0.c ****  * \brief Read a value from the socket maximum segment size register
 772:Generated_Source\PSoC5/ETH0.c ****  * \param socket the socket number for the addressed register
 773:Generated_Source\PSoC5/ETH0.c ****  * \returns the value read from the register
 774:Generated_Source\PSoC5/ETH0.c ****  */
 775:Generated_Source\PSoC5/ETH0.c **** static uint16 ETH0_GetSocketMaxSegSize(uint8 socket)
 776:Generated_Source\PSoC5/ETH0.c **** { return ETH0_W51_Read16(ETH0_SOCKET_BASE(socket)+18); }
 777:Generated_Source\PSoC5/ETH0.c **** /* ------------------------------------------------------------------------ */
 778:Generated_Source\PSoC5/ETH0.c **** /**
 779:Generated_Source\PSoC5/ETH0.c ****  * \brief Read a value from the socket protocol register (IP RAW/MAC RAW mode)
ARM GAS  C:\Users\USUARIO\AppData\Local\Temp\cchqzDaB.s 			page 24


 780:Generated_Source\PSoC5/ETH0.c ****  * \param socket the socket number for the addressed register
 781:Generated_Source\PSoC5/ETH0.c ****  * \returns the value read from the register
 782:Generated_Source\PSoC5/ETH0.c ****  */
 783:Generated_Source\PSoC5/ETH0.c **** static uint16  ETH0_GetSocketProto(uint8 socket)
 784:Generated_Source\PSoC5/ETH0.c **** { return ETH0_W51_Read(ETH0_SOCKET_BASE(socket)+20); }
 785:Generated_Source\PSoC5/ETH0.c **** /* ------------------------------------------------------------------------ */
 786:Generated_Source\PSoC5/ETH0.c **** /**
 787:Generated_Source\PSoC5/ETH0.c ****  * \brief Write a value to the socket TOS register
 788:Generated_Source\PSoC5/ETH0.c ****  * \param socket the socket number for the addressed register
 789:Generated_Source\PSoC5/ETH0.c ****  * \param tos the value to be written to the register
 790:Generated_Source\PSoC5/ETH0.c ****  */
 791:Generated_Source\PSoC5/ETH0.c **** static void ETH0_SetSocketTOS(uint8 socket, uint8 tos)
 792:Generated_Source\PSoC5/ETH0.c **** { ETH0_W51_Write(ETH0_SOCKET_BASE(socket)+21, tos); }
 793:Generated_Source\PSoC5/ETH0.c **** /* ------------------------------------------------------------------------ */
 794:Generated_Source\PSoC5/ETH0.c **** /**
 795:Generated_Source\PSoC5/ETH0.c ****  * \brief Read a value from the socket TOS register
 796:Generated_Source\PSoC5/ETH0.c ****  * \param socket the socket number for the addressed register
 797:Generated_Source\PSoC5/ETH0.c ****  * \returns the value read from the register
 798:Generated_Source\PSoC5/ETH0.c ****  */
 799:Generated_Source\PSoC5/ETH0.c **** static uint8 ETH0_GetSocketTOS(uint8 socket)
 800:Generated_Source\PSoC5/ETH0.c **** { return ETH0_W51_Read(ETH0_SOCKET_BASE(socket)+21); }
 801:Generated_Source\PSoC5/ETH0.c **** /* ------------------------------------------------------------------------ */
 802:Generated_Source\PSoC5/ETH0.c **** /**
 803:Generated_Source\PSoC5/ETH0.c ****  * \brief Write a value to the socket Time-To_Live (TTL) register
 804:Generated_Source\PSoC5/ETH0.c ****  * \param socket the socket number for the addressed register
 805:Generated_Source\PSoC5/ETH0.c ****  * \param ttl the value to be written to the register
 806:Generated_Source\PSoC5/ETH0.c ****  */
 807:Generated_Source\PSoC5/ETH0.c **** static void ETH0_SetSocketTTL(uint8 socket, uint8 ttl)
 808:Generated_Source\PSoC5/ETH0.c **** { ETH0_W51_Write(ETH0_SOCKET_BASE(socket)+22,ttl); }
 809:Generated_Source\PSoC5/ETH0.c **** /* ------------------------------------------------------------------------ */
 810:Generated_Source\PSoC5/ETH0.c **** /**
 811:Generated_Source\PSoC5/ETH0.c ****  * \brief Read a value from the socket time-to-live (TTL) register
 812:Generated_Source\PSoC5/ETH0.c ****  * \param socket the socket number for the addressed register
 813:Generated_Source\PSoC5/ETH0.c ****  * \returns the value read from the register
 814:Generated_Source\PSoC5/ETH0.c ****  */
 815:Generated_Source\PSoC5/ETH0.c **** static uint8 ETH0_GetSocketTTL(uint8 socket)
 816:Generated_Source\PSoC5/ETH0.c **** { return ETH0_W51_Read(ETH0_SOCKET_BASE(socket)+22); }
 817:Generated_Source\PSoC5/ETH0.c **** /* ------------------------------------------------------------------------ */
 818:Generated_Source\PSoC5/ETH0.c **** /**
 819:Generated_Source\PSoC5/ETH0.c ****  * \brief Write a value to the socket tx free size register
 820:Generated_Source\PSoC5/ETH0.c ****  * \param socket the socket number for the addressed register
 821:Generated_Source\PSoC5/ETH0.c ****  * \param size the value to be written to the register
 822:Generated_Source\PSoC5/ETH0.c ****  */
 823:Generated_Source\PSoC5/ETH0.c **** static void ETH0_SetSocketTxFree( uint8 socket, uint16 size)
 824:Generated_Source\PSoC5/ETH0.c **** { ETH0_W51_Write16(ETH0_SOCKET_BASE(socket)+0x20,size); }
 825:Generated_Source\PSoC5/ETH0.c **** /* ------------------------------------------------------------------------ */
 826:Generated_Source\PSoC5/ETH0.c **** /**
 827:Generated_Source\PSoC5/ETH0.c ****  * \brief Read a value from the socket Tx free size register
 828:Generated_Source\PSoC5/ETH0.c ****  * \param socket the socket number for the addressed register
 829:Generated_Source\PSoC5/ETH0.c ****  * \returns the value read from the register
 830:Generated_Source\PSoC5/ETH0.c ****  */
 831:Generated_Source\PSoC5/ETH0.c **** static uint16 ETH0_GetSocketTxFree(uint8 socket)
 832:Generated_Source\PSoC5/ETH0.c **** { return ETH0_W51_Read16(ETH0_SOCKET_BASE(socket)+0x20); }
 833:Generated_Source\PSoC5/ETH0.c **** /* ------------------------------------------------------------------------ */
 834:Generated_Source\PSoC5/ETH0.c **** /**
 835:Generated_Source\PSoC5/ETH0.c ****  * \brief Write a value to the socket tx read pointer register
 836:Generated_Source\PSoC5/ETH0.c ****  * \param socket the socket number for the addressed register
ARM GAS  C:\Users\USUARIO\AppData\Local\Temp\cchqzDaB.s 			page 25


 837:Generated_Source\PSoC5/ETH0.c ****  * \param ptr the value to be written to the register
 838:Generated_Source\PSoC5/ETH0.c ****  */
 839:Generated_Source\PSoC5/ETH0.c **** static void ETH0_SetSocketTxReadPtr(uint8 socket, uint16 ptr)
 840:Generated_Source\PSoC5/ETH0.c **** { ETH0_W51_Write16(ETH0_SOCKET_BASE(socket)+0x22,ptr); }
 841:Generated_Source\PSoC5/ETH0.c **** /* ------------------------------------------------------------------------ */
 842:Generated_Source\PSoC5/ETH0.c **** /**
 843:Generated_Source\PSoC5/ETH0.c ****  * \brief Read a value from the socket Tx buffer read pointer register
 844:Generated_Source\PSoC5/ETH0.c ****  * \param socket the socket number for the addressed register
 845:Generated_Source\PSoC5/ETH0.c ****  * \returns the value read from the register
 846:Generated_Source\PSoC5/ETH0.c ****  */
 847:Generated_Source\PSoC5/ETH0.c **** static uint16 ETH0_GetSocketTxReadPtr(uint8 socket)
 848:Generated_Source\PSoC5/ETH0.c **** { return ETH0_W51_Read16(ETH0_SOCKET_BASE(socket)+0x22); }
 849:Generated_Source\PSoC5/ETH0.c **** /* ------------------------------------------------------------------------ */
 850:Generated_Source\PSoC5/ETH0.c **** /**
 851:Generated_Source\PSoC5/ETH0.c ****  * \brief Write a value to the socket tx write pointer register
 852:Generated_Source\PSoC5/ETH0.c ****  * \param socket the socket number for the addressed register
 853:Generated_Source\PSoC5/ETH0.c ****  * \param ptr the value to be written to the register
 854:Generated_Source\PSoC5/ETH0.c ****  */
 855:Generated_Source\PSoC5/ETH0.c **** static void ETH0_SetSocketTxWritePtr(uint8 socket, uint16 ptr)
 856:Generated_Source\PSoC5/ETH0.c **** { ETH0_W51_Write16(ETH0_SOCKET_BASE(socket)+0x24,ptr); }
 503              		.loc 1 856 0
 504              		.cfi_startproc
 505              		@ args = 0, pretend = 0, frame = 0
 506              		@ frame_needed = 0, uses_anonymous_args = 0
 507              	.LVL57:
 508 0000 08B5     		push	{r3, lr}
 509              		.cfi_def_cfa_offset 8
 510              		.cfi_offset 3, -8
 511              		.cfi_offset 14, -4
 512              		.loc 1 856 0
 513 0002 0002     		lsls	r0, r0, #8
 514              	.LVL58:
 515 0004 00F22440 		addw	r0, r0, #1060
 516 0008 80B2     		uxth	r0, r0
 517 000a FFF7FEFF 		bl	ETH0_W51_Write16
 518              	.LVL59:
 519 000e 08BD     		pop	{r3, pc}
 520              		.cfi_endproc
 521              	.LFE64:
 522              		.size	ETH0_SetSocketTxWritePtr, .-ETH0_SetSocketTxWritePtr
 523              		.section	.text.ETH0_SetSocketRxReadPtr,"ax",%progbits
 524              		.align	2
 525              		.thumb
 526              		.thumb_func
 527              		.type	ETH0_SetSocketRxReadPtr, %function
 528              	ETH0_SetSocketRxReadPtr:
 529              	.LFB67:
 857:Generated_Source\PSoC5/ETH0.c **** /* ------------------------------------------------------------------------ */
 858:Generated_Source\PSoC5/ETH0.c **** /**
 859:Generated_Source\PSoC5/ETH0.c ****  * \brief Read a value from the socket tx buffer write pointer register
 860:Generated_Source\PSoC5/ETH0.c ****  * \param socket the socket number for the addressed register
 861:Generated_Source\PSoC5/ETH0.c ****  * \returns the value read from the register
 862:Generated_Source\PSoC5/ETH0.c ****  */
 863:Generated_Source\PSoC5/ETH0.c **** static uint16 ETH0_GetSocketTxWritePtr(uint8 socket)
 864:Generated_Source\PSoC5/ETH0.c **** { return ETH0_W51_Read16(ETH0_SOCKET_BASE(socket)+0x24); }
 865:Generated_Source\PSoC5/ETH0.c **** /* ------------------------------------------------------------------------ */
 866:Generated_Source\PSoC5/ETH0.c **** /**
ARM GAS  C:\Users\USUARIO\AppData\Local\Temp\cchqzDaB.s 			page 26


 867:Generated_Source\PSoC5/ETH0.c ****  * \brief Read a value from the socket rx received data size register
 868:Generated_Source\PSoC5/ETH0.c ****  * \param socket the socket number for the addressed register
 869:Generated_Source\PSoC5/ETH0.c ****  * \returns the value read from the register
 870:Generated_Source\PSoC5/ETH0.c ****  */
 871:Generated_Source\PSoC5/ETH0.c **** static uint16 ETH0_GetSocketRxSize(uint8 socket)
 872:Generated_Source\PSoC5/ETH0.c **** { return ETH0_W51_Read16(ETH0_SOCKET_BASE(socket)+0x26); }
 873:Generated_Source\PSoC5/ETH0.c **** /* ------------------------------------------------------------------------ */
 874:Generated_Source\PSoC5/ETH0.c **** /**
 875:Generated_Source\PSoC5/ETH0.c ****  * \brief Write a value to the socket rx read pointer register
 876:Generated_Source\PSoC5/ETH0.c ****  * \param socket the socket number for the addressed register
 877:Generated_Source\PSoC5/ETH0.c ****  * \param ptr the value to be written to the register
 878:Generated_Source\PSoC5/ETH0.c ****  */
 879:Generated_Source\PSoC5/ETH0.c **** static void ETH0_SetSocketRxReadPtr(uint8 socket, uint16 ptr)
 880:Generated_Source\PSoC5/ETH0.c **** { ETH0_W51_Write16(ETH0_SOCKET_BASE(socket)+0x28,ptr); }
 530              		.loc 1 880 0
 531              		.cfi_startproc
 532              		@ args = 0, pretend = 0, frame = 0
 533              		@ frame_needed = 0, uses_anonymous_args = 0
 534              	.LVL60:
 535 0000 08B5     		push	{r3, lr}
 536              		.cfi_def_cfa_offset 8
 537              		.cfi_offset 3, -8
 538              		.cfi_offset 14, -4
 539              		.loc 1 880 0
 540 0002 0002     		lsls	r0, r0, #8
 541              	.LVL61:
 542 0004 00F58560 		add	r0, r0, #1064
 543 0008 80B2     		uxth	r0, r0
 544 000a FFF7FEFF 		bl	ETH0_W51_Write16
 545              	.LVL62:
 546 000e 08BD     		pop	{r3, pc}
 547              		.cfi_endproc
 548              	.LFE67:
 549              		.size	ETH0_SetSocketRxReadPtr, .-ETH0_SetSocketRxReadPtr
 550              		.section	.text.ETH0_SetSocketMode,"ax",%progbits
 551              		.align	2
 552              		.thumb
 553              		.thumb_func
 554              		.type	ETH0_SetSocketMode, %function
 555              	ETH0_SetSocketMode:
 556              	.LFB37:
 640:Generated_Source\PSoC5/ETH0.c **** /* ------------------------------------------------------------------------ */
 557              		.loc 1 640 0
 558              		.cfi_startproc
 559              		@ args = 0, pretend = 0, frame = 0
 560              		@ frame_needed = 0, uses_anonymous_args = 0
 561              	.LVL63:
 562 0000 08B5     		push	{r3, lr}
 563              		.cfi_def_cfa_offset 8
 564              		.cfi_offset 3, -8
 565              		.cfi_offset 14, -4
 640:Generated_Source\PSoC5/ETH0.c **** /* ------------------------------------------------------------------------ */
 566              		.loc 1 640 0
 567 0002 0002     		lsls	r0, r0, #8
 568              	.LVL64:
 569 0004 00F58060 		add	r0, r0, #1024
 570 0008 00F47F40 		and	r0, r0, #65280
ARM GAS  C:\Users\USUARIO\AppData\Local\Temp\cchqzDaB.s 			page 27


 571 000c FFF7FEFF 		bl	ETH0_W51_Write
 572              	.LVL65:
 573 0010 08BD     		pop	{r3, pc}
 574              		.cfi_endproc
 575              	.LFE37:
 576              		.size	ETH0_SetSocketMode, .-ETH0_SetSocketMode
 577 0012 00BF     		.section	.text.ETH0_SetSocketCommand,"ax",%progbits
 578              		.align	2
 579              		.thumb
 580              		.thumb_func
 581              		.type	ETH0_SetSocketCommand, %function
 582              	ETH0_SetSocketCommand:
 583              	.LFB39:
 656:Generated_Source\PSoC5/ETH0.c **** /* ------------------------------------------------------------------------ */
 584              		.loc 1 656 0
 585              		.cfi_startproc
 586              		@ args = 0, pretend = 0, frame = 0
 587              		@ frame_needed = 0, uses_anonymous_args = 0
 588              	.LVL66:
 589 0000 08B5     		push	{r3, lr}
 590              		.cfi_def_cfa_offset 8
 591              		.cfi_offset 3, -8
 592              		.cfi_offset 14, -4
 656:Generated_Source\PSoC5/ETH0.c **** /* ------------------------------------------------------------------------ */
 593              		.loc 1 656 0
 594 0002 0002     		lsls	r0, r0, #8
 595              	.LVL67:
 596 0004 00F20140 		addw	r0, r0, #1025
 597 0008 80B2     		uxth	r0, r0
 598 000a FFF7FEFF 		bl	ETH0_W51_Write
 599              	.LVL68:
 600 000e 08BD     		pop	{r3, pc}
 601              		.cfi_endproc
 602              	.LFE39:
 603              		.size	ETH0_SetSocketCommand, .-ETH0_SetSocketCommand
 604              		.section	.text.ETH0_SetSocketIR,"ax",%progbits
 605              		.align	2
 606              		.thumb
 607              		.thumb_func
 608              		.type	ETH0_SetSocketIR, %function
 609              	ETH0_SetSocketIR:
 610              	.LFB41:
 672:Generated_Source\PSoC5/ETH0.c **** /* ------------------------------------------------------------------------ */
 611              		.loc 1 672 0
 612              		.cfi_startproc
 613              		@ args = 0, pretend = 0, frame = 0
 614              		@ frame_needed = 0, uses_anonymous_args = 0
 615              	.LVL69:
 616 0000 08B5     		push	{r3, lr}
 617              		.cfi_def_cfa_offset 8
 618              		.cfi_offset 3, -8
 619              		.cfi_offset 14, -4
 672:Generated_Source\PSoC5/ETH0.c **** /* ------------------------------------------------------------------------ */
 620              		.loc 1 672 0
 621 0002 0002     		lsls	r0, r0, #8
 622              	.LVL70:
 623 0004 00F20240 		addw	r0, r0, #1026
ARM GAS  C:\Users\USUARIO\AppData\Local\Temp\cchqzDaB.s 			page 28


 624 0008 80B2     		uxth	r0, r0
 625 000a FFF7FEFF 		bl	ETH0_W51_Write
 626              	.LVL71:
 627 000e 08BD     		pop	{r3, pc}
 628              		.cfi_endproc
 629              	.LFE41:
 630              		.size	ETH0_SetSocketIR, .-ETH0_SetSocketIR
 631              		.section	.text.ETH0_W51_WriteBlock,"ax",%progbits
 632              		.align	2
 633              		.thumb
 634              		.thumb_func
 635              		.type	ETH0_W51_WriteBlock, %function
 636              	ETH0_W51_WriteBlock:
 637              	.LFB9:
 438:Generated_Source\PSoC5/ETH0.c **** 	int index;
 638              		.loc 1 438 0
 639              		.cfi_startproc
 640              		@ args = 0, pretend = 0, frame = 0
 641              		@ frame_needed = 0, uses_anonymous_args = 0
 642              	.LVL72:
 643 0000 F8B5     		push	{r3, r4, r5, r6, r7, lr}
 644              		.cfi_def_cfa_offset 24
 645              		.cfi_offset 3, -24
 646              		.cfi_offset 4, -20
 647              		.cfi_offset 5, -16
 648              		.cfi_offset 6, -12
 649              		.cfi_offset 7, -8
 650              		.cfi_offset 14, -4
 651 0002 0746     		mov	r7, r0
 652 0004 0E46     		mov	r6, r1
 653 0006 1546     		mov	r5, r2
 654              	.LVL73:
 440:Generated_Source\PSoC5/ETH0.c **** 		ETH0_W51_Write(addr+index,buffer[index]);
 655              		.loc 1 440 0
 656 0008 0024     		movs	r4, #0
 657 000a 05E0     		b	.L48
 658              	.LVL74:
 659              	.L49:
 441:Generated_Source\PSoC5/ETH0.c **** 	}
 660              		.loc 1 441 0 discriminator 3
 661 000c 3819     		adds	r0, r7, r4
 662 000e 315D     		ldrb	r1, [r6, r4]	@ zero_extendqisi2
 663 0010 80B2     		uxth	r0, r0
 664 0012 FFF7FEFF 		bl	ETH0_W51_Write
 665              	.LVL75:
 440:Generated_Source\PSoC5/ETH0.c **** 		ETH0_W51_Write(addr+index,buffer[index]);
 666              		.loc 1 440 0 discriminator 3
 667 0016 0134     		adds	r4, r4, #1
 668              	.LVL76:
 669              	.L48:
 440:Generated_Source\PSoC5/ETH0.c **** 		ETH0_W51_Write(addr+index,buffer[index]);
 670              		.loc 1 440 0 is_stmt 0 discriminator 1
 671 0018 AC42     		cmp	r4, r5
 672 001a F7DB     		blt	.L49
 443:Generated_Source\PSoC5/ETH0.c **** /* ------------------------------------------------------------------------ */
 673              		.loc 1 443 0 is_stmt 1
 674 001c F8BD     		pop	{r3, r4, r5, r6, r7, pc}
ARM GAS  C:\Users\USUARIO\AppData\Local\Temp\cchqzDaB.s 			page 29


 675              		.cfi_endproc
 676              	.LFE9:
 677              		.size	ETH0_W51_WriteBlock, .-ETH0_W51_WriteBlock
 678 001e 00BF     		.section	.text.ETH0_W51_Read,"ax",%progbits
 679              		.align	2
 680              		.global	ETH0_W51_Read
 681              		.thumb
 682              		.thumb_func
 683              		.type	ETH0_W51_Read, %function
 684              	ETH0_W51_Read:
 685              	.LFB2:
 164:Generated_Source\PSoC5/ETH0.c **** 	uint32 dat;
 686              		.loc 1 164 0
 687              		.cfi_startproc
 688              		@ args = 0, pretend = 0, frame = 0
 689              		@ frame_needed = 0, uses_anonymous_args = 0
 690              	.LVL77:
 691 0000 38B5     		push	{r3, r4, r5, lr}
 692              		.cfi_def_cfa_offset 16
 693              		.cfi_offset 3, -16
 694              		.cfi_offset 4, -12
 695              		.cfi_offset 5, -8
 696              		.cfi_offset 14, -4
 697 0002 0546     		mov	r5, r0
 169:Generated_Source\PSoC5/ETH0.c **** 		CyDelayUs(1);
 698              		.loc 1 169 0
 699 0004 02E0     		b	.L52
 700              	.LVL78:
 701              	.L53:
 170:Generated_Source\PSoC5/ETH0.c **** 	}
 702              		.loc 1 170 0
 703 0006 0120     		movs	r0, #1
 704 0008 FFF7FEFF 		bl	CyDelayUs
 705              	.LVL79:
 706              	.L52:
 169:Generated_Source\PSoC5/ETH0.c **** 		CyDelayUs(1);
 707              		.loc 1 169 0
 708 000c FFF7FEFF 		bl	SPI0_ReadTxStatus
 709              	.LVL80:
 710 0010 10F0110F 		tst	r0, #17
 711 0014 F7D0     		beq	.L53
 182:Generated_Source\PSoC5/ETH0.c **** 	/* Begin data read */
 712              		.loc 1 182 0
 713 0016 FFF7FEFF 		bl	SPI0_ClearRxBuffer
 714              	.LVL81:
 184:Generated_Source\PSoC5/ETH0.c **** 	SPI0_WriteTxData(addr>>8);
 715              		.loc 1 184 0
 716 001a 0F20     		movs	r0, #15
 717 001c FFF7FEFF 		bl	SPI0_WriteTxData
 718              	.LVL82:
 185:Generated_Source\PSoC5/ETH0.c **** 	SPI0_WriteTxData(addr&0x00FF);
 719              		.loc 1 185 0
 720 0020 280A     		lsrs	r0, r5, #8
 721 0022 FFF7FEFF 		bl	SPI0_WriteTxData
 722              	.LVL83:
 186:Generated_Source\PSoC5/ETH0.c **** 	SPI0_WriteTxData( 0 );
 723              		.loc 1 186 0
ARM GAS  C:\Users\USUARIO\AppData\Local\Temp\cchqzDaB.s 			page 30


 724 0026 E8B2     		uxtb	r0, r5
 725 0028 FFF7FEFF 		bl	SPI0_WriteTxData
 726              	.LVL84:
 187:Generated_Source\PSoC5/ETH0.c **** 	
 727              		.loc 1 187 0
 728 002c 0020     		movs	r0, #0
 729 002e FFF7FEFF 		bl	SPI0_WriteTxData
 730              	.LVL85:
 191:Generated_Source\PSoC5/ETH0.c **** 		CyDelayUs(1);
 731              		.loc 1 191 0
 732 0032 02E0     		b	.L54
 733              	.L55:
 192:Generated_Source\PSoC5/ETH0.c **** 	}
 734              		.loc 1 192 0
 735 0034 0120     		movs	r0, #1
 736 0036 FFF7FEFF 		bl	CyDelayUs
 737              	.LVL86:
 738              	.L54:
 191:Generated_Source\PSoC5/ETH0.c **** 		CyDelayUs(1);
 739              		.loc 1 191 0
 740 003a FFF7FEFF 		bl	SPI0_ReadTxStatus
 741              	.LVL87:
 742 003e 10F0110F 		tst	r0, #17
 743 0042 F7D0     		beq	.L55
 196:Generated_Source\PSoC5/ETH0.c **** 	while( count > 0 )
 744              		.loc 1 196 0
 745 0044 FFF7FEFF 		bl	SPI0_GetRxBufferSize
 746              	.LVL88:
 197:Generated_Source\PSoC5/ETH0.c **** 	{
 747              		.loc 1 197 0
 748 0048 04E0     		b	.L56
 749              	.LVL89:
 750              	.L57:
 199:Generated_Source\PSoC5/ETH0.c **** 		count = SPI0_GetRxBufferSize();
 751              		.loc 1 199 0
 752 004a FFF7FEFF 		bl	SPI0_ReadRxData
 753              	.LVL90:
 754 004e 0446     		mov	r4, r0
 755              	.LVL91:
 200:Generated_Source\PSoC5/ETH0.c **** 	}
 756              		.loc 1 200 0
 757 0050 FFF7FEFF 		bl	SPI0_GetRxBufferSize
 758              	.LVL92:
 759              	.L56:
 197:Generated_Source\PSoC5/ETH0.c **** 	{
 760              		.loc 1 197 0
 761 0054 0028     		cmp	r0, #0
 762 0056 F8D1     		bne	.L57
 204:Generated_Source\PSoC5/ETH0.c **** /* ======================================================================== */
 763              		.loc 1 204 0
 764 0058 E0B2     		uxtb	r0, r4
 765              	.LVL93:
 766 005a 38BD     		pop	{r3, r4, r5, pc}
 767              		.cfi_endproc
 768              	.LFE2:
 769              		.size	ETH0_W51_Read, .-ETH0_W51_Read
 770              		.section	.text.ETH0_W51_GetMAC,"ax",%progbits
ARM GAS  C:\Users\USUARIO\AppData\Local\Temp\cchqzDaB.s 			page 31


 771              		.align	2
 772              		.thumb
 773              		.thumb_func
 774              		.type	ETH0_W51_GetMAC, %function
 775              	ETH0_W51_GetMAC:
 776              	.LFB4:
 362:Generated_Source\PSoC5/ETH0.c **** 	uint32 index;
 777              		.loc 1 362 0
 778              		.cfi_startproc
 779              		@ args = 0, pretend = 0, frame = 0
 780              		@ frame_needed = 0, uses_anonymous_args = 0
 781              	.LVL94:
 782 0000 70B5     		push	{r4, r5, r6, lr}
 783              		.cfi_def_cfa_offset 16
 784              		.cfi_offset 4, -16
 785              		.cfi_offset 5, -12
 786              		.cfi_offset 6, -8
 787              		.cfi_offset 14, -4
 788 0002 0646     		mov	r6, r0
 789 0004 0D46     		mov	r5, r1
 790              	.LVL95:
 364:Generated_Source\PSoC5/ETH0.c **** 		mac[index] = ETH0_W51_Read(addr+index);
 791              		.loc 1 364 0
 792 0006 0024     		movs	r4, #0
 793 0008 05E0     		b	.L60
 794              	.LVL96:
 795              	.L61:
 365:Generated_Source\PSoC5/ETH0.c **** 	}
 796              		.loc 1 365 0 discriminator 3
 797 000a 3019     		adds	r0, r6, r4
 798 000c 80B2     		uxth	r0, r0
 799 000e FFF7FEFF 		bl	ETH0_W51_Read
 800              	.LVL97:
 801 0012 2855     		strb	r0, [r5, r4]
 364:Generated_Source\PSoC5/ETH0.c **** 		mac[index] = ETH0_W51_Read(addr+index);
 802              		.loc 1 364 0 discriminator 3
 803 0014 0134     		adds	r4, r4, #1
 804              	.LVL98:
 805              	.L60:
 364:Generated_Source\PSoC5/ETH0.c **** 		mac[index] = ETH0_W51_Read(addr+index);
 806              		.loc 1 364 0 is_stmt 0 discriminator 1
 807 0016 052C     		cmp	r4, #5
 808 0018 F7D9     		bls	.L61
 367:Generated_Source\PSoC5/ETH0.c **** /* ------------------------------------------------------------------------ */
 809              		.loc 1 367 0 is_stmt 1
 810 001a 70BD     		pop	{r4, r5, r6, pc}
 811              		.cfi_endproc
 812              	.LFE4:
 813              		.size	ETH0_W51_GetMAC, .-ETH0_W51_GetMAC
 814              		.section	.text.ETH0_GetSourceMAC,"ax",%progbits
 815              		.align	2
 816              		.thumb
 817              		.thumb_func
 818              		.type	ETH0_GetSourceMAC, %function
 819              	ETH0_GetSourceMAC:
 820              	.LFB12:
 477:Generated_Source\PSoC5/ETH0.c **** /* ------------------------------------------------------------------------ */
ARM GAS  C:\Users\USUARIO\AppData\Local\Temp\cchqzDaB.s 			page 32


 821              		.loc 1 477 0
 822              		.cfi_startproc
 823              		@ args = 0, pretend = 0, frame = 0
 824              		@ frame_needed = 0, uses_anonymous_args = 0
 825              	.LVL99:
 826 0000 08B5     		push	{r3, lr}
 827              		.cfi_def_cfa_offset 8
 828              		.cfi_offset 3, -8
 829              		.cfi_offset 14, -4
 477:Generated_Source\PSoC5/ETH0.c **** /* ------------------------------------------------------------------------ */
 830              		.loc 1 477 0
 831 0002 0146     		mov	r1, r0
 832 0004 0920     		movs	r0, #9
 833              	.LVL100:
 834 0006 FFF7FEFF 		bl	ETH0_W51_GetMAC
 835              	.LVL101:
 836 000a 08BD     		pop	{r3, pc}
 837              		.cfi_endproc
 838              	.LFE12:
 839              		.size	ETH0_GetSourceMAC, .-ETH0_GetSourceMAC
 840              		.section	.text.ETH0_W51_GetIP,"ax",%progbits
 841              		.align	2
 842              		.thumb
 843              		.thumb_func
 844              		.type	ETH0_W51_GetIP, %function
 845              	ETH0_W51_GetIP:
 846              	.LFB6:
 391:Generated_Source\PSoC5/ETH0.c **** 	uint8 buffer[4];
 847              		.loc 1 391 0
 848              		.cfi_startproc
 849              		@ args = 0, pretend = 0, frame = 8
 850              		@ frame_needed = 0, uses_anonymous_args = 0
 851              	.LVL102:
 852 0000 30B5     		push	{r4, r5, lr}
 853              		.cfi_def_cfa_offset 12
 854              		.cfi_offset 4, -12
 855              		.cfi_offset 5, -8
 856              		.cfi_offset 14, -4
 857 0002 83B0     		sub	sp, sp, #12
 858              		.cfi_def_cfa_offset 24
 859 0004 0546     		mov	r5, r0
 860              	.LVL103:
 397:Generated_Source\PSoC5/ETH0.c **** 	for(index=0;index<4;++index) {
 861              		.loc 1 397 0
 862 0006 0024     		movs	r4, #0
 863 0008 0194     		str	r4, [sp, #4]
 864              	.LVL104:
 398:Generated_Source\PSoC5/ETH0.c **** 		buffer[index] = ETH0_W51_Read(addr+index);
 865              		.loc 1 398 0
 866 000a 08E0     		b	.L66
 867              	.LVL105:
 868              	.L67:
 399:Generated_Source\PSoC5/ETH0.c **** 	}
 869              		.loc 1 399 0 discriminator 3
 870 000c 2819     		adds	r0, r5, r4
 871 000e 80B2     		uxth	r0, r0
 872 0010 FFF7FEFF 		bl	ETH0_W51_Read
ARM GAS  C:\Users\USUARIO\AppData\Local\Temp\cchqzDaB.s 			page 33


 873              	.LVL106:
 874 0014 02AB     		add	r3, sp, #8
 875 0016 2344     		add	r3, r3, r4
 876 0018 03F8040C 		strb	r0, [r3, #-4]
 398:Generated_Source\PSoC5/ETH0.c **** 		buffer[index] = ETH0_W51_Read(addr+index);
 877              		.loc 1 398 0 discriminator 3
 878 001c 0134     		adds	r4, r4, #1
 879              	.LVL107:
 880              	.L66:
 398:Generated_Source\PSoC5/ETH0.c **** 		buffer[index] = ETH0_W51_Read(addr+index);
 881              		.loc 1 398 0 is_stmt 0 discriminator 1
 882 001e 032C     		cmp	r4, #3
 883 0020 F4DD     		ble	.L67
 402:Generated_Source\PSoC5/ETH0.c **** /* ------------------------------------------------------------------------ */
 884              		.loc 1 402 0 is_stmt 1
 885 0022 0198     		ldr	r0, [sp, #4]
 886 0024 03B0     		add	sp, sp, #12
 887              		.cfi_def_cfa_offset 12
 888              		@ sp needed
 889 0026 30BD     		pop	{r4, r5, pc}
 890              		.cfi_endproc
 891              	.LFE6:
 892              		.size	ETH0_W51_GetIP, .-ETH0_W51_GetIP
 893              		.section	.text.ETH0_GetSourceIP,"ax",%progbits
 894              		.align	2
 895              		.thumb
 896              		.thumb_func
 897              		.type	ETH0_GetSourceIP, %function
 898              	ETH0_GetSourceIP:
 899              	.LFB18:
 513:Generated_Source\PSoC5/ETH0.c **** /* ------------------------------------------------------------------------ */
 900              		.loc 1 513 0
 901              		.cfi_startproc
 902              		@ args = 0, pretend = 0, frame = 0
 903              		@ frame_needed = 0, uses_anonymous_args = 0
 904 0000 08B5     		push	{r3, lr}
 905              		.cfi_def_cfa_offset 8
 906              		.cfi_offset 3, -8
 907              		.cfi_offset 14, -4
 513:Generated_Source\PSoC5/ETH0.c **** /* ------------------------------------------------------------------------ */
 908              		.loc 1 513 0
 909 0002 0F20     		movs	r0, #15
 910 0004 FFF7FEFF 		bl	ETH0_W51_GetIP
 911              	.LVL108:
 912 0008 08BD     		pop	{r3, pc}
 913              		.cfi_endproc
 914              	.LFE18:
 915              		.size	ETH0_GetSourceIP, .-ETH0_GetSourceIP
 916 000a 00BF     		.section	.text.ETH0_GetSocketCommand,"ax",%progbits
 917              		.align	2
 918              		.thumb
 919              		.thumb_func
 920              		.type	ETH0_GetSocketCommand, %function
 921              	ETH0_GetSocketCommand:
 922              	.LFB40:
 664:Generated_Source\PSoC5/ETH0.c **** /* ------------------------------------------------------------------------ */
 923              		.loc 1 664 0
ARM GAS  C:\Users\USUARIO\AppData\Local\Temp\cchqzDaB.s 			page 34


 924              		.cfi_startproc
 925              		@ args = 0, pretend = 0, frame = 0
 926              		@ frame_needed = 0, uses_anonymous_args = 0
 927              	.LVL109:
 928 0000 08B5     		push	{r3, lr}
 929              		.cfi_def_cfa_offset 8
 930              		.cfi_offset 3, -8
 931              		.cfi_offset 14, -4
 664:Generated_Source\PSoC5/ETH0.c **** /* ------------------------------------------------------------------------ */
 932              		.loc 1 664 0
 933 0002 0002     		lsls	r0, r0, #8
 934              	.LVL110:
 935 0004 00F20140 		addw	r0, r0, #1025
 936 0008 80B2     		uxth	r0, r0
 937 000a FFF7FEFF 		bl	ETH0_W51_Read
 938              	.LVL111:
 939 000e 08BD     		pop	{r3, pc}
 940              		.cfi_endproc
 941              	.LFE40:
 942              		.size	ETH0_GetSocketCommand, .-ETH0_GetSocketCommand
 943              		.section	.text.ETH0_ExecuteSocketCommand,"ax",%progbits
 944              		.align	2
 945              		.thumb
 946              		.thumb_func
 947              		.type	ETH0_ExecuteSocketCommand, %function
 948              	ETH0_ExecuteSocketCommand:
 949              	.LFB69:
 881:Generated_Source\PSoC5/ETH0.c **** /* ------------------------------------------------------------------------ */
 882:Generated_Source\PSoC5/ETH0.c **** /**
 883:Generated_Source\PSoC5/ETH0.c ****  * \brief Read a value from the socket rx buffer read pointer register
 884:Generated_Source\PSoC5/ETH0.c ****  * \param socket the socket number for the addressed register
 885:Generated_Source\PSoC5/ETH0.c ****  * \returns the value read from the register
 886:Generated_Source\PSoC5/ETH0.c ****  */
 887:Generated_Source\PSoC5/ETH0.c **** static uint16 ETH0_GetSocketRxReadPtr(uint8 socket)
 888:Generated_Source\PSoC5/ETH0.c **** { return ETH0_W51_Read16(ETH0_SOCKET_BASE(socket)+0x28); }
 889:Generated_Source\PSoC5/ETH0.c **** /* ------------------------------------------------------------------------ */
 890:Generated_Source\PSoC5/ETH0.c **** /**
 891:Generated_Source\PSoC5/ETH0.c ****  * \brief Write a command to the socket command register and wait for completion
 892:Generated_Source\PSoC5/ETH0.c ****  * \param socket the addressed socket for the command
 893:Generated_Source\PSoC5/ETH0.c ****  * \param cmd the command to execute
 894:Generated_Source\PSoC5/ETH0.c ****  */
 895:Generated_Source\PSoC5/ETH0.c **** static uint32 ETH0_ExecuteSocketCommand( uint8 socket, int cmd)
 896:Generated_Source\PSoC5/ETH0.c **** {
 950              		.loc 1 896 0
 951              		.cfi_startproc
 952              		@ args = 0, pretend = 0, frame = 0
 953              		@ frame_needed = 0, uses_anonymous_args = 0
 954              	.LVL112:
 955 0000 38B5     		push	{r3, r4, r5, lr}
 956              		.cfi_def_cfa_offset 16
 957              		.cfi_offset 3, -16
 958              		.cfi_offset 4, -12
 959              		.cfi_offset 5, -8
 960              		.cfi_offset 14, -4
 961 0002 0546     		mov	r5, r0
 962              	.LVL113:
 897:Generated_Source\PSoC5/ETH0.c **** 	uint32 timeout;
ARM GAS  C:\Users\USUARIO\AppData\Local\Temp\cchqzDaB.s 			page 35


 898:Generated_Source\PSoC5/ETH0.c **** 	timeout = 0;
 899:Generated_Source\PSoC5/ETH0.c **** 	
 900:Generated_Source\PSoC5/ETH0.c **** 	ETH0_SetSocketCommand(socket,cmd);
 963              		.loc 1 900 0
 964 0004 C9B2     		uxtb	r1, r1
 965              	.LVL114:
 966 0006 FFF7FEFF 		bl	ETH0_SetSocketCommand
 967              	.LVL115:
 898:Generated_Source\PSoC5/ETH0.c **** 	
 968              		.loc 1 898 0
 969 000a 0024     		movs	r4, #0
 901:Generated_Source\PSoC5/ETH0.c **** 	while ( ( ETH0_GetSocketCommand(socket) ) && (timeout < 125))
 970              		.loc 1 901 0
 971 000c 03E0     		b	.L74
 972              	.LVL116:
 973              	.L76:
 902:Generated_Source\PSoC5/ETH0.c **** 	{
 903:Generated_Source\PSoC5/ETH0.c **** 		++timeout;
 974              		.loc 1 903 0
 975 000e 0134     		adds	r4, r4, #1
 976              	.LVL117:
 904:Generated_Source\PSoC5/ETH0.c **** 		CyDelay(1);
 977              		.loc 1 904 0
 978 0010 0120     		movs	r0, #1
 979 0012 FFF7FEFF 		bl	CyDelay
 980              	.LVL118:
 981              	.L74:
 901:Generated_Source\PSoC5/ETH0.c **** 	while ( ( ETH0_GetSocketCommand(socket) ) && (timeout < 125))
 982              		.loc 1 901 0
 983 0016 2846     		mov	r0, r5
 984 0018 FFF7FEFF 		bl	ETH0_GetSocketCommand
 985              	.LVL119:
 986 001c 08B1     		cbz	r0, .L75
 901:Generated_Source\PSoC5/ETH0.c **** 	while ( ( ETH0_GetSocketCommand(socket) ) && (timeout < 125))
 987              		.loc 1 901 0 is_stmt 0 discriminator 1
 988 001e 7C2C     		cmp	r4, #124
 989 0020 F5D9     		bls	.L76
 990              	.L75:
 905:Generated_Source\PSoC5/ETH0.c **** 	}
 906:Generated_Source\PSoC5/ETH0.c **** 	return( timeout );
 907:Generated_Source\PSoC5/ETH0.c **** }
 991              		.loc 1 907 0 is_stmt 1
 992 0022 2046     		mov	r0, r4
 993 0024 38BD     		pop	{r3, r4, r5, pc}
 994              		.cfi_endproc
 995              	.LFE69:
 996              		.size	ETH0_ExecuteSocketCommand, .-ETH0_ExecuteSocketCommand
 997 0026 00BF     		.section	.text.ETH0_GetSocketStatus,"ax",%progbits
 998              		.align	2
 999              		.thumb
 1000              		.thumb_func
 1001              		.type	ETH0_GetSocketStatus, %function
 1002              	ETH0_GetSocketStatus:
 1003              	.LFB44:
 696:Generated_Source\PSoC5/ETH0.c **** /* ------------------------------------------------------------------------ */
 1004              		.loc 1 696 0
 1005              		.cfi_startproc
ARM GAS  C:\Users\USUARIO\AppData\Local\Temp\cchqzDaB.s 			page 36


 1006              		@ args = 0, pretend = 0, frame = 0
 1007              		@ frame_needed = 0, uses_anonymous_args = 0
 1008              	.LVL120:
 1009 0000 08B5     		push	{r3, lr}
 1010              		.cfi_def_cfa_offset 8
 1011              		.cfi_offset 3, -8
 1012              		.cfi_offset 14, -4
 696:Generated_Source\PSoC5/ETH0.c **** /* ------------------------------------------------------------------------ */
 1013              		.loc 1 696 0
 1014 0002 0002     		lsls	r0, r0, #8
 1015              	.LVL121:
 1016 0004 00F20340 		addw	r0, r0, #1027
 1017 0008 80B2     		uxth	r0, r0
 1018 000a FFF7FEFF 		bl	ETH0_W51_Read
 1019              	.LVL122:
 1020 000e 08BD     		pop	{r3, pc}
 1021              		.cfi_endproc
 1022              	.LFE44:
 1023              		.size	ETH0_GetSocketStatus, .-ETH0_GetSocketStatus
 1024              		.section	.text.ETH0_W51_Read16,"ax",%progbits
 1025              		.align	2
 1026              		.thumb
 1027              		.thumb_func
 1028              		.type	ETH0_W51_Read16, %function
 1029              	ETH0_W51_Read16:
 1030              	.LFB8:
 421:Generated_Source\PSoC5/ETH0.c **** 	uint16 val;
 1031              		.loc 1 421 0
 1032              		.cfi_startproc
 1033              		@ args = 0, pretend = 0, frame = 0
 1034              		@ frame_needed = 0, uses_anonymous_args = 0
 1035              	.LVL123:
 1036 0000 38B5     		push	{r3, r4, r5, lr}
 1037              		.cfi_def_cfa_offset 16
 1038              		.cfi_offset 3, -16
 1039              		.cfi_offset 4, -12
 1040              		.cfi_offset 5, -8
 1041              		.cfi_offset 14, -4
 1042 0002 0546     		mov	r5, r0
 424:Generated_Source\PSoC5/ETH0.c **** 	val <<= 8;
 1043              		.loc 1 424 0
 1044 0004 FFF7FEFF 		bl	ETH0_W51_Read
 1045              	.LVL124:
 1046 0008 80B2     		uxth	r0, r0
 1047              	.LVL125:
 425:Generated_Source\PSoC5/ETH0.c **** 	val += ETH0_W51_Read( addr + 1);
 1048              		.loc 1 425 0
 1049 000a 0402     		lsls	r4, r0, #8
 1050 000c A4B2     		uxth	r4, r4
 1051              	.LVL126:
 426:Generated_Source\PSoC5/ETH0.c **** 	
 1052              		.loc 1 426 0
 1053 000e 681C     		adds	r0, r5, #1
 1054 0010 80B2     		uxth	r0, r0
 1055 0012 FFF7FEFF 		bl	ETH0_W51_Read
 1056              	.LVL127:
 1057 0016 2044     		add	r0, r0, r4
ARM GAS  C:\Users\USUARIO\AppData\Local\Temp\cchqzDaB.s 			page 37


 1058              	.LVL128:
 429:Generated_Source\PSoC5/ETH0.c **** /* ------------------------------------------------------------------------ */
 1059              		.loc 1 429 0
 1060 0018 80B2     		uxth	r0, r0
 1061 001a 38BD     		pop	{r3, r4, r5, pc}
 1062              		.cfi_endproc
 1063              	.LFE8:
 1064              		.size	ETH0_W51_Read16, .-ETH0_W51_Read16
 1065              		.section	.text.ETH0_GetSocketRxSize,"ax",%progbits
 1066              		.align	2
 1067              		.thumb
 1068              		.thumb_func
 1069              		.type	ETH0_GetSocketRxSize, %function
 1070              	ETH0_GetSocketRxSize:
 1071              	.LFB66:
 872:Generated_Source\PSoC5/ETH0.c **** /* ------------------------------------------------------------------------ */
 1072              		.loc 1 872 0
 1073              		.cfi_startproc
 1074              		@ args = 0, pretend = 0, frame = 0
 1075              		@ frame_needed = 0, uses_anonymous_args = 0
 1076              	.LVL129:
 1077 0000 08B5     		push	{r3, lr}
 1078              		.cfi_def_cfa_offset 8
 1079              		.cfi_offset 3, -8
 1080              		.cfi_offset 14, -4
 872:Generated_Source\PSoC5/ETH0.c **** /* ------------------------------------------------------------------------ */
 1081              		.loc 1 872 0
 1082 0002 0002     		lsls	r0, r0, #8
 1083              	.LVL130:
 1084 0004 00F22640 		addw	r0, r0, #1062
 1085 0008 80B2     		uxth	r0, r0
 1086 000a FFF7FEFF 		bl	ETH0_W51_Read16
 1087              	.LVL131:
 1088 000e 08BD     		pop	{r3, pc}
 1089              		.cfi_endproc
 1090              	.LFE66:
 1091              		.size	ETH0_GetSocketRxSize, .-ETH0_GetSocketRxSize
 1092              		.section	.text.ETH0_GetRxSize,"ax",%progbits
 1093              		.align	2
 1094              		.thumb
 1095              		.thumb_func
 1096              		.type	ETH0_GetRxSize, %function
 1097              	ETH0_GetRxSize:
 1098              	.LFB71:
 908:Generated_Source\PSoC5/ETH0.c **** /* ------------------------------------------------------------------------ */
 909:Generated_Source\PSoC5/ETH0.c **** /**
 910:Generated_Source\PSoC5/ETH0.c ****  * \brief Execute a safe read fo the Tx buffer free size register
 911:Generated_Source\PSoC5/ETH0.c ****  * \param socket the addressed socket to read the available tx buffer
 912:Generated_Source\PSoC5/ETH0.c ****  * \returns the number of bytes available in the transmit buffer for the socket
 913:Generated_Source\PSoC5/ETH0.c ****  */
 914:Generated_Source\PSoC5/ETH0.c **** static uint16 ETH0_GetTxFreeSize( uint8 socket )
 915:Generated_Source\PSoC5/ETH0.c **** {
 916:Generated_Source\PSoC5/ETH0.c **** 	uint16 first, second;
 917:Generated_Source\PSoC5/ETH0.c **** 	
 918:Generated_Source\PSoC5/ETH0.c **** 	first = 0;
 919:Generated_Source\PSoC5/ETH0.c **** 	second = 0;
 920:Generated_Source\PSoC5/ETH0.c **** 	do {
ARM GAS  C:\Users\USUARIO\AppData\Local\Temp\cchqzDaB.s 			page 38


 921:Generated_Source\PSoC5/ETH0.c **** 		first = ETH0_GetSocketTxFree( socket );
 922:Generated_Source\PSoC5/ETH0.c **** 		if (first != 0) {
 923:Generated_Source\PSoC5/ETH0.c **** 			second = ETH0_GetSocketTxFree( socket );
 924:Generated_Source\PSoC5/ETH0.c **** 		}
 925:Generated_Source\PSoC5/ETH0.c **** 	}
 926:Generated_Source\PSoC5/ETH0.c **** 	while (first != second );
 927:Generated_Source\PSoC5/ETH0.c **** 	
 928:Generated_Source\PSoC5/ETH0.c **** 	return( second );
 929:Generated_Source\PSoC5/ETH0.c **** }
 930:Generated_Source\PSoC5/ETH0.c **** /* ------------------------------------------------------------------------ */
 931:Generated_Source\PSoC5/ETH0.c **** /**
 932:Generated_Source\PSoC5/ETH0.c ****  * \brief Execute a safe read of the received data size
 933:Generated_Source\PSoC5/ETH0.c ****  * \param socket the addressed socketfrom which the data will be read
 934:Generated_Source\PSoC5/ETH0.c ****  * \returns the number of bytes waiting in the recieve buffer of the socket
 935:Generated_Source\PSoC5/ETH0.c ****  */
 936:Generated_Source\PSoC5/ETH0.c **** static uint16 ETH0_GetRxSize( uint8 socket )
 937:Generated_Source\PSoC5/ETH0.c **** {
 1099              		.loc 1 937 0
 1100              		.cfi_startproc
 1101              		@ args = 0, pretend = 0, frame = 0
 1102              		@ frame_needed = 0, uses_anonymous_args = 0
 1103              	.LVL132:
 1104 0000 70B5     		push	{r4, r5, r6, lr}
 1105              		.cfi_def_cfa_offset 16
 1106              		.cfi_offset 4, -16
 1107              		.cfi_offset 5, -12
 1108              		.cfi_offset 6, -8
 1109              		.cfi_offset 14, -4
 1110 0002 0646     		mov	r6, r0
 1111              	.LVL133:
 938:Generated_Source\PSoC5/ETH0.c **** 	uint16 first, second;
 939:Generated_Source\PSoC5/ETH0.c **** 	
 940:Generated_Source\PSoC5/ETH0.c **** 	first = 0;
 941:Generated_Source\PSoC5/ETH0.c **** 	second = 0;
 1112              		.loc 1 941 0
 1113 0004 0025     		movs	r5, #0
 1114              	.LVL134:
 1115              	.L86:
 942:Generated_Source\PSoC5/ETH0.c **** 	do {
 943:Generated_Source\PSoC5/ETH0.c **** 		first = ETH0_GetSocketRxSize( socket );
 1116              		.loc 1 943 0
 1117 0006 3046     		mov	r0, r6
 1118 0008 FFF7FEFF 		bl	ETH0_GetSocketRxSize
 1119              	.LVL135:
 944:Generated_Source\PSoC5/ETH0.c **** 		if (first != 0) {
 1120              		.loc 1 944 0
 1121 000c 0446     		mov	r4, r0
 1122 000e 18B1     		cbz	r0, .L85
 945:Generated_Source\PSoC5/ETH0.c **** 			second = ETH0_GetSocketRxSize( socket );
 1123              		.loc 1 945 0
 1124 0010 3046     		mov	r0, r6
 1125              	.LVL136:
 1126 0012 FFF7FEFF 		bl	ETH0_GetSocketRxSize
 1127              	.LVL137:
 1128 0016 0546     		mov	r5, r0
 1129              	.LVL138:
 1130              	.L85:
ARM GAS  C:\Users\USUARIO\AppData\Local\Temp\cchqzDaB.s 			page 39


 946:Generated_Source\PSoC5/ETH0.c **** 		}
 947:Generated_Source\PSoC5/ETH0.c **** 	}
 948:Generated_Source\PSoC5/ETH0.c **** 	while (first != second );
 1131              		.loc 1 948 0
 1132 0018 A542     		cmp	r5, r4
 1133 001a F4D1     		bne	.L86
 949:Generated_Source\PSoC5/ETH0.c **** 	
 950:Generated_Source\PSoC5/ETH0.c **** 	return second;
 951:Generated_Source\PSoC5/ETH0.c **** }
 1134              		.loc 1 951 0
 1135 001c 2846     		mov	r0, r5
 1136 001e 70BD     		pop	{r4, r5, r6, pc}
 1137              		.cfi_endproc
 1138              	.LFE71:
 1139              		.size	ETH0_GetRxSize, .-ETH0_GetRxSize
 1140              		.section	.text.ETH0_GetSocketTxFree,"ax",%progbits
 1141              		.align	2
 1142              		.thumb
 1143              		.thumb_func
 1144              		.type	ETH0_GetSocketTxFree, %function
 1145              	ETH0_GetSocketTxFree:
 1146              	.LFB61:
 832:Generated_Source\PSoC5/ETH0.c **** /* ------------------------------------------------------------------------ */
 1147              		.loc 1 832 0
 1148              		.cfi_startproc
 1149              		@ args = 0, pretend = 0, frame = 0
 1150              		@ frame_needed = 0, uses_anonymous_args = 0
 1151              	.LVL139:
 1152 0000 08B5     		push	{r3, lr}
 1153              		.cfi_def_cfa_offset 8
 1154              		.cfi_offset 3, -8
 1155              		.cfi_offset 14, -4
 832:Generated_Source\PSoC5/ETH0.c **** /* ------------------------------------------------------------------------ */
 1156              		.loc 1 832 0
 1157 0002 0002     		lsls	r0, r0, #8
 1158              	.LVL140:
 1159 0004 00F58460 		add	r0, r0, #1056
 1160 0008 80B2     		uxth	r0, r0
 1161 000a FFF7FEFF 		bl	ETH0_W51_Read16
 1162              	.LVL141:
 1163 000e 08BD     		pop	{r3, pc}
 1164              		.cfi_endproc
 1165              	.LFE61:
 1166              		.size	ETH0_GetSocketTxFree, .-ETH0_GetSocketTxFree
 1167              		.section	.text.ETH0_GetTxFreeSize,"ax",%progbits
 1168              		.align	2
 1169              		.thumb
 1170              		.thumb_func
 1171              		.type	ETH0_GetTxFreeSize, %function
 1172              	ETH0_GetTxFreeSize:
 1173              	.LFB70:
 915:Generated_Source\PSoC5/ETH0.c **** 	uint16 first, second;
 1174              		.loc 1 915 0
 1175              		.cfi_startproc
 1176              		@ args = 0, pretend = 0, frame = 0
 1177              		@ frame_needed = 0, uses_anonymous_args = 0
 1178              	.LVL142:
ARM GAS  C:\Users\USUARIO\AppData\Local\Temp\cchqzDaB.s 			page 40


 1179 0000 70B5     		push	{r4, r5, r6, lr}
 1180              		.cfi_def_cfa_offset 16
 1181              		.cfi_offset 4, -16
 1182              		.cfi_offset 5, -12
 1183              		.cfi_offset 6, -8
 1184              		.cfi_offset 14, -4
 1185 0002 0646     		mov	r6, r0
 1186              	.LVL143:
 919:Generated_Source\PSoC5/ETH0.c **** 	do {
 1187              		.loc 1 919 0
 1188 0004 0025     		movs	r5, #0
 1189              	.LVL144:
 1190              	.L92:
 921:Generated_Source\PSoC5/ETH0.c **** 		if (first != 0) {
 1191              		.loc 1 921 0
 1192 0006 3046     		mov	r0, r6
 1193 0008 FFF7FEFF 		bl	ETH0_GetSocketTxFree
 1194              	.LVL145:
 922:Generated_Source\PSoC5/ETH0.c **** 			second = ETH0_GetSocketTxFree( socket );
 1195              		.loc 1 922 0
 1196 000c 0446     		mov	r4, r0
 1197 000e 18B1     		cbz	r0, .L91
 923:Generated_Source\PSoC5/ETH0.c **** 		}
 1198              		.loc 1 923 0
 1199 0010 3046     		mov	r0, r6
 1200              	.LVL146:
 1201 0012 FFF7FEFF 		bl	ETH0_GetSocketTxFree
 1202              	.LVL147:
 1203 0016 0546     		mov	r5, r0
 1204              	.LVL148:
 1205              	.L91:
 926:Generated_Source\PSoC5/ETH0.c **** 	
 1206              		.loc 1 926 0
 1207 0018 A542     		cmp	r5, r4
 1208 001a F4D1     		bne	.L92
 929:Generated_Source\PSoC5/ETH0.c **** /* ------------------------------------------------------------------------ */
 1209              		.loc 1 929 0
 1210 001c 2846     		mov	r0, r5
 1211 001e 70BD     		pop	{r4, r5, r6, pc}
 1212              		.cfi_endproc
 1213              	.LFE70:
 1214              		.size	ETH0_GetTxFreeSize, .-ETH0_GetTxFreeSize
 1215              		.section	.text.ETH0_GetSocketTxWritePtr,"ax",%progbits
 1216              		.align	2
 1217              		.thumb
 1218              		.thumb_func
 1219              		.type	ETH0_GetSocketTxWritePtr, %function
 1220              	ETH0_GetSocketTxWritePtr:
 1221              	.LFB65:
 864:Generated_Source\PSoC5/ETH0.c **** /* ------------------------------------------------------------------------ */
 1222              		.loc 1 864 0
 1223              		.cfi_startproc
 1224              		@ args = 0, pretend = 0, frame = 0
 1225              		@ frame_needed = 0, uses_anonymous_args = 0
 1226              	.LVL149:
 1227 0000 08B5     		push	{r3, lr}
 1228              		.cfi_def_cfa_offset 8
ARM GAS  C:\Users\USUARIO\AppData\Local\Temp\cchqzDaB.s 			page 41


 1229              		.cfi_offset 3, -8
 1230              		.cfi_offset 14, -4
 864:Generated_Source\PSoC5/ETH0.c **** /* ------------------------------------------------------------------------ */
 1231              		.loc 1 864 0
 1232 0002 0002     		lsls	r0, r0, #8
 1233              	.LVL150:
 1234 0004 00F22440 		addw	r0, r0, #1060
 1235 0008 80B2     		uxth	r0, r0
 1236 000a FFF7FEFF 		bl	ETH0_W51_Read16
 1237              	.LVL151:
 1238 000e 08BD     		pop	{r3, pc}
 1239              		.cfi_endproc
 1240              	.LFE65:
 1241              		.size	ETH0_GetSocketTxWritePtr, .-ETH0_GetSocketTxWritePtr
 1242              		.section	.text.ETH0_ProcessTxData,"ax",%progbits
 1243              		.align	2
 1244              		.thumb
 1245              		.thumb_func
 1246              		.type	ETH0_ProcessTxData, %function
 1247              	ETH0_ProcessTxData:
 1248              	.LFB72:
 952:Generated_Source\PSoC5/ETH0.c **** /* ------------------------------------------------------------------------ */
 953:Generated_Source\PSoC5/ETH0.c **** 
 954:Generated_Source\PSoC5/ETH0.c **** // END Socket Register access section
 955:Generated_Source\PSoC5/ETH0.c **** #endif
 956:Generated_Source\PSoC5/ETH0.c **** /* ======================================================================== */
 957:Generated_Source\PSoC5/ETH0.c **** /* W5100 Data Buffer Memory access primitives */
 958:Generated_Source\PSoC5/ETH0.c **** #if (1)
 959:Generated_Source\PSoC5/ETH0.c **** /* ------------------------------------------------------------------------ */
 960:Generated_Source\PSoC5/ETH0.c **** /**
 961:Generated_Source\PSoC5/ETH0.c ****  * \brief Transfer data from a local data buffer to the chip Tx fifo
 962:Generated_Source\PSoC5/ETH0.c ****  * \param socket the socket buffer to which the data will be written
 963:Generated_Source\PSoC5/ETH0.c ****  * \param offset The offest in to the socket buffer
 964:Generated_Source\PSoC5/ETH0.c ****  * \param *buffer pointer to the local buffer to copy to the transmit fifo
 965:Generated_Source\PSoC5/ETH0.c ****  * \param length the number of bytes to be copied to the transmit fifo
 966:Generated_Source\PSoC5/ETH0.c ****  */
 967:Generated_Source\PSoC5/ETH0.c **** static void ETH0_ProcessTxData(uint8 socket, uint16 offset, uint8* buffer, uint16 length)
 968:Generated_Source\PSoC5/ETH0.c **** {
 1249              		.loc 1 968 0
 1250              		.cfi_startproc
 1251              		@ args = 0, pretend = 0, frame = 0
 1252              		@ frame_needed = 0, uses_anonymous_args = 0
 1253              	.LVL152:
 1254 0000 2DE9F843 		push	{r3, r4, r5, r6, r7, r8, r9, lr}
 1255              		.cfi_def_cfa_offset 32
 1256              		.cfi_offset 3, -32
 1257              		.cfi_offset 4, -28
 1258              		.cfi_offset 5, -24
 1259              		.cfi_offset 6, -20
 1260              		.cfi_offset 7, -16
 1261              		.cfi_offset 8, -12
 1262              		.cfi_offset 9, -8
 1263              		.cfi_offset 14, -4
 1264 0004 0746     		mov	r7, r0
 1265 0006 0D46     		mov	r5, r1
 1266 0008 9046     		mov	r8, r2
 1267 000a 1E46     		mov	r6, r3
ARM GAS  C:\Users\USUARIO\AppData\Local\Temp\cchqzDaB.s 			page 42


 969:Generated_Source\PSoC5/ETH0.c **** 	uint16 addr;
 970:Generated_Source\PSoC5/ETH0.c **** 	uint16 base;
 971:Generated_Source\PSoC5/ETH0.c **** 	uint16 PointerOffset;
 972:Generated_Source\PSoC5/ETH0.c **** 	uint16 size;
 973:Generated_Source\PSoC5/ETH0.c **** 	
 974:Generated_Source\PSoC5/ETH0.c **** 	/*
 975:Generated_Source\PSoC5/ETH0.c **** 	 * Read the offset pointer, and calculate the base address for the start of write
 976:Generated_Source\PSoC5/ETH0.c **** 	 * in to the chip buffers.  Written data will be offset by the offset byte count
 977:Generated_Source\PSoC5/ETH0.c **** 	 * specified in the parameters.
 978:Generated_Source\PSoC5/ETH0.c **** 	 */
 979:Generated_Source\PSoC5/ETH0.c **** 	base = ETH0_GetSocketTxWritePtr(socket) + offset;
 1268              		.loc 1 979 0
 1269 000c FFF7FEFF 		bl	ETH0_GetSocketTxWritePtr
 1270              	.LVL153:
 1271 0010 2844     		add	r0, r0, r5
 1272 0012 85B2     		uxth	r5, r0
 1273              	.LVL154:
 980:Generated_Source\PSoC5/ETH0.c **** 	PointerOffset = (base & 0x07FF);
 1274              		.loc 1 980 0
 1275 0014 C5F30A04 		ubfx	r4, r5, #0, #11
 1276              	.LVL155:
 981:Generated_Source\PSoC5/ETH0.c **** 	addr = PointerOffset + ETH0_SOCKET_TX_BASE[socket];
 1277              		.loc 1 981 0
 1278 0018 104B     		ldr	r3, .L100
 1279 001a 33F81790 		ldrh	r9, [r3, r7, lsl #1]
 1280 001e 04EB0900 		add	r0, r4, r9
 1281 0022 80B2     		uxth	r0, r0
 1282              	.LVL156:
 982:Generated_Source\PSoC5/ETH0.c **** 	/* calculate the number of bytes from the pointer to the end of the buffer */
 983:Generated_Source\PSoC5/ETH0.c **** 	size = 0x0800 - PointerOffset;
 1283              		.loc 1 983 0
 1284 0024 C4F50064 		rsb	r4, r4, #2048
 1285              	.LVL157:
 1286 0028 A4B2     		uxth	r4, r4
 1287              	.LVL158:
 984:Generated_Source\PSoC5/ETH0.c **** 	
 985:Generated_Source\PSoC5/ETH0.c **** 	/*
 986:Generated_Source\PSoC5/ETH0.c **** 	 * is there enough space to write the complete packet
 987:Generated_Source\PSoC5/ETH0.c **** 	 * or, shoudl the data be split in to two writes.
 988:Generated_Source\PSoC5/ETH0.c **** 	 */
 989:Generated_Source\PSoC5/ETH0.c **** 	if ( length > size) {
 1288              		.loc 1 989 0
 1289 002a B442     		cmp	r4, r6
 1290 002c 0BD2     		bcs	.L97
 990:Generated_Source\PSoC5/ETH0.c **** 		/*
 991:Generated_Source\PSoC5/ETH0.c **** 		 * There is more data to send than will fit from the pointer to the end
 992:Generated_Source\PSoC5/ETH0.c **** 		 * of the memory, so we will write the data in two chunks.  First, write the
 993:Generated_Source\PSoC5/ETH0.c **** 		 * data from the pointer to the end of the buffer, then write the portion
 994:Generated_Source\PSoC5/ETH0.c **** 		 * remaining to the start (base ptr) of the socket buffer
 995:Generated_Source\PSoC5/ETH0.c **** 		 */
 996:Generated_Source\PSoC5/ETH0.c **** 		ETH0_W51_WriteBlock(addr, buffer, size);
 1291              		.loc 1 996 0
 1292 002e 2246     		mov	r2, r4
 1293 0030 4146     		mov	r1, r8
 1294 0032 FFF7FEFF 		bl	ETH0_W51_WriteBlock
 1295              	.LVL159:
 997:Generated_Source\PSoC5/ETH0.c **** 		ETH0_W51_WriteBlock(ETH0_SOCKET_TX_BASE[socket], &buffer[size], length - size);
ARM GAS  C:\Users\USUARIO\AppData\Local\Temp\cchqzDaB.s 			page 43


 1296              		.loc 1 997 0
 1297 0036 321B     		subs	r2, r6, r4
 1298 0038 92B2     		uxth	r2, r2
 1299 003a 08EB0401 		add	r1, r8, r4
 1300 003e 4846     		mov	r0, r9
 1301 0040 FFF7FEFF 		bl	ETH0_W51_WriteBlock
 1302              	.LVL160:
 1303 0044 03E0     		b	.L98
 1304              	.LVL161:
 1305              	.L97:
 998:Generated_Source\PSoC5/ETH0.c **** 	}
 999:Generated_Source\PSoC5/ETH0.c **** 	else {
1000:Generated_Source\PSoC5/ETH0.c **** 		/* 
1001:Generated_Source\PSoC5/ETH0.c **** 		 * there is enough available space from the write point to the end of buffer
1002:Generated_Source\PSoC5/ETH0.c **** 		 * to hold the whole packe of information, so just write it to the memory
1003:Generated_Source\PSoC5/ETH0.c **** 		 */
1004:Generated_Source\PSoC5/ETH0.c **** 		ETH0_W51_WriteBlock(addr,buffer,length);
 1306              		.loc 1 1004 0
 1307 0046 3246     		mov	r2, r6
 1308 0048 4146     		mov	r1, r8
 1309 004a FFF7FEFF 		bl	ETH0_W51_WriteBlock
 1310              	.LVL162:
 1311              	.L98:
1005:Generated_Source\PSoC5/ETH0.c **** 	}
1006:Generated_Source\PSoC5/ETH0.c **** 	/* move the write pointer */
1007:Generated_Source\PSoC5/ETH0.c **** 	base += length;
 1312              		.loc 1 1007 0
 1313 004e A919     		adds	r1, r5, r6
 1314              	.LVL163:
1008:Generated_Source\PSoC5/ETH0.c **** 	/* 
1009:Generated_Source\PSoC5/ETH0.c **** 	 * Store the new write pointer so that the device knows that there is data waiting
1010:Generated_Source\PSoC5/ETH0.c **** 	 * to be transmitted over the link.
1011:Generated_Source\PSoC5/ETH0.c **** 	 */
1012:Generated_Source\PSoC5/ETH0.c **** 	ETH0_SetSocketTxWritePtr(socket, base);
 1315              		.loc 1 1012 0
 1316 0050 89B2     		uxth	r1, r1
 1317 0052 3846     		mov	r0, r7
 1318 0054 FFF7FEFF 		bl	ETH0_SetSocketTxWritePtr
 1319              	.LVL164:
 1320 0058 BDE8F883 		pop	{r3, r4, r5, r6, r7, r8, r9, pc}
 1321              	.LVL165:
 1322              	.L101:
 1323              		.align	2
 1324              	.L100:
 1325 005c 00000000 		.word	.LANCHOR0
 1326              		.cfi_endproc
 1327              	.LFE72:
 1328              		.size	ETH0_ProcessTxData, .-ETH0_ProcessTxData
 1329              		.section	.text.ETH0_GetSocketRxReadPtr,"ax",%progbits
 1330              		.align	2
 1331              		.thumb
 1332              		.thumb_func
 1333              		.type	ETH0_GetSocketRxReadPtr, %function
 1334              	ETH0_GetSocketRxReadPtr:
 1335              	.LFB68:
 888:Generated_Source\PSoC5/ETH0.c **** /* ------------------------------------------------------------------------ */
 1336              		.loc 1 888 0
ARM GAS  C:\Users\USUARIO\AppData\Local\Temp\cchqzDaB.s 			page 44


 1337              		.cfi_startproc
 1338              		@ args = 0, pretend = 0, frame = 0
 1339              		@ frame_needed = 0, uses_anonymous_args = 0
 1340              	.LVL166:
 1341 0000 08B5     		push	{r3, lr}
 1342              		.cfi_def_cfa_offset 8
 1343              		.cfi_offset 3, -8
 1344              		.cfi_offset 14, -4
 888:Generated_Source\PSoC5/ETH0.c **** /* ------------------------------------------------------------------------ */
 1345              		.loc 1 888 0
 1346 0002 0002     		lsls	r0, r0, #8
 1347              	.LVL167:
 1348 0004 00F58560 		add	r0, r0, #1064
 1349 0008 80B2     		uxth	r0, r0
 1350 000a FFF7FEFF 		bl	ETH0_W51_Read16
 1351              	.LVL168:
 1352 000e 08BD     		pop	{r3, pc}
 1353              		.cfi_endproc
 1354              	.LFE68:
 1355              		.size	ETH0_GetSocketRxReadPtr, .-ETH0_GetSocketRxReadPtr
 1356              		.section	.text.ETH0_GetSocketIR,"ax",%progbits
 1357              		.align	2
 1358              		.thumb
 1359              		.thumb_func
 1360              		.type	ETH0_GetSocketIR, %function
 1361              	ETH0_GetSocketIR:
 1362              	.LFB42:
 680:Generated_Source\PSoC5/ETH0.c **** /* ------------------------------------------------------------------------ */
 1363              		.loc 1 680 0
 1364              		.cfi_startproc
 1365              		@ args = 0, pretend = 0, frame = 0
 1366              		@ frame_needed = 0, uses_anonymous_args = 0
 1367              	.LVL169:
 1368 0000 08B5     		push	{r3, lr}
 1369              		.cfi_def_cfa_offset 8
 1370              		.cfi_offset 3, -8
 1371              		.cfi_offset 14, -4
 680:Generated_Source\PSoC5/ETH0.c **** /* ------------------------------------------------------------------------ */
 1372              		.loc 1 680 0
 1373 0002 0002     		lsls	r0, r0, #8
 1374              	.LVL170:
 1375 0004 00F20240 		addw	r0, r0, #1026
 1376 0008 80B2     		uxth	r0, r0
 1377 000a FFF7FEFF 		bl	ETH0_W51_Read
 1378              	.LVL171:
 1379 000e 08BD     		pop	{r3, pc}
 1380              		.cfi_endproc
 1381              	.LFE42:
 1382              		.size	ETH0_GetSocketIR, .-ETH0_GetSocketIR
 1383              		.section	.text.ETH0_SocketSend,"ax",%progbits
 1384              		.align	2
 1385              		.thumb
 1386              		.thumb_func
 1387              		.type	ETH0_SocketSend, %function
 1388              	ETH0_SocketSend:
 1389              	.LFB88:
1013:Generated_Source\PSoC5/ETH0.c **** }
ARM GAS  C:\Users\USUARIO\AppData\Local\Temp\cchqzDaB.s 			page 45


1014:Generated_Source\PSoC5/ETH0.c **** /* ------------------------------------------------------------------------ */
1015:Generated_Source\PSoC5/ETH0.c **** /**
1016:Generated_Source\PSoC5/ETH0.c ****  * \brief Transfer data from the chip receive buffer to a local buffer
1017:Generated_Source\PSoC5/ETH0.c ****  * \param socket the socket buffer from which the data will be read
1018:Generated_Source\PSoC5/ETH0.c ****  * \param offset The offest in to the socket buffer
1019:Generated_Source\PSoC5/ETH0.c ****  * \param *buffer pointer to the local buffer to hold the receive fifo data
1020:Generated_Source\PSoC5/ETH0.c ****  * \param length the max number of bytes to be copied to the local buffer
1021:Generated_Source\PSoC5/ETH0.c ****  * \param flags Flag settings to control read fifo options (lookahead)
1022:Generated_Source\PSoC5/ETH0.c ****  */
1023:Generated_Source\PSoC5/ETH0.c **** static void ETH0_ProcessRxData(uint8 socket, uint16 offset, uint8* buffer, uint16 length, uint8 fla
1024:Generated_Source\PSoC5/ETH0.c **** {
1025:Generated_Source\PSoC5/ETH0.c **** 	uint16 addr;
1026:Generated_Source\PSoC5/ETH0.c **** 	uint16 base;
1027:Generated_Source\PSoC5/ETH0.c **** 	uint16 PointerOffset;
1028:Generated_Source\PSoC5/ETH0.c **** 	uint16 size;
1029:Generated_Source\PSoC5/ETH0.c **** 	
1030:Generated_Source\PSoC5/ETH0.c **** 	/*
1031:Generated_Source\PSoC5/ETH0.c **** 	 * Read the offset pointer, and calculate the base address for the start of read
1032:Generated_Source\PSoC5/ETH0.c **** 	 * in to the chip buffers.  The data read will be offset by the offset byte count
1033:Generated_Source\PSoC5/ETH0.c **** 	 * specified in the parameters.
1034:Generated_Source\PSoC5/ETH0.c **** 	 */
1035:Generated_Source\PSoC5/ETH0.c **** 	base = ETH0_GetSocketRxReadPtr(socket) + offset;
1036:Generated_Source\PSoC5/ETH0.c **** 	PointerOffset = (base & 0x07FF);
1037:Generated_Source\PSoC5/ETH0.c **** 	addr = PointerOffset + ETH0_SOCKET_RX_BASE[socket];
1038:Generated_Source\PSoC5/ETH0.c **** 	/* calculate the number of bytes from the pointer to the end of the buffer */
1039:Generated_Source\PSoC5/ETH0.c **** 	size = 0x0800 - PointerOffset;
1040:Generated_Source\PSoC5/ETH0.c **** 	/*
1041:Generated_Source\PSoC5/ETH0.c **** 	 * is there enough space to read the complete packet
1042:Generated_Source\PSoC5/ETH0.c **** 	 * or, should the data be split in to two reads.
1043:Generated_Source\PSoC5/ETH0.c **** 	 */
1044:Generated_Source\PSoC5/ETH0.c **** 	if ( length > size) {
1045:Generated_Source\PSoC5/ETH0.c **** 		/*
1046:Generated_Source\PSoC5/ETH0.c **** 		 * There is more data to send than will fit from the pointer to the end
1047:Generated_Source\PSoC5/ETH0.c **** 		 * of the memory, so we will write the data in two chunks.  First, write the
1048:Generated_Source\PSoC5/ETH0.c **** 		 * data from the pointer to the end of the buffer, then write the portion
1049:Generated_Source\PSoC5/ETH0.c **** 		 * remaining to the start (base ptr) of the socket buffer
1050:Generated_Source\PSoC5/ETH0.c **** 		 */
1051:Generated_Source\PSoC5/ETH0.c **** 		ETH0_W51_ReadBlock(addr, buffer, size);
1052:Generated_Source\PSoC5/ETH0.c **** 		ETH0_W51_ReadBlock(ETH0_SOCKET_RX_BASE[socket], &buffer[size], length - size);
1053:Generated_Source\PSoC5/ETH0.c **** 	}
1054:Generated_Source\PSoC5/ETH0.c **** 	else {
1055:Generated_Source\PSoC5/ETH0.c **** 		/* 
1056:Generated_Source\PSoC5/ETH0.c **** 		 * there is enough available space from the write point to the end of buffer
1057:Generated_Source\PSoC5/ETH0.c **** 		 * to hold the whole packe of information, so just write it to the memory
1058:Generated_Source\PSoC5/ETH0.c **** 		 */
1059:Generated_Source\PSoC5/ETH0.c **** 		ETH0_W51_ReadBlock(addr,buffer,length);
1060:Generated_Source\PSoC5/ETH0.c **** 	}
1061:Generated_Source\PSoC5/ETH0.c **** 	if ( (flags & 0x01) == 0 ) { /* V1.1: Added ==0 condition to lookahead flag check */
1062:Generated_Source\PSoC5/ETH0.c **** 		/* move the write pointer */
1063:Generated_Source\PSoC5/ETH0.c **** 		base += length;
1064:Generated_Source\PSoC5/ETH0.c **** 		/* 
1065:Generated_Source\PSoC5/ETH0.c **** 		 * Store the new write pointer so that the device knows that there is data waiting
1066:Generated_Source\PSoC5/ETH0.c **** 		 * to be transmitted over the link.
1067:Generated_Source\PSoC5/ETH0.c **** 		 */
1068:Generated_Source\PSoC5/ETH0.c **** 		ETH0_SetSocketRxReadPtr(socket, base);
1069:Generated_Source\PSoC5/ETH0.c **** 	}
1070:Generated_Source\PSoC5/ETH0.c **** }
ARM GAS  C:\Users\USUARIO\AppData\Local\Temp\cchqzDaB.s 			page 46


1071:Generated_Source\PSoC5/ETH0.c **** #endif
1072:Generated_Source\PSoC5/ETH0.c **** /* ======================================================================== */
1073:Generated_Source\PSoC5/ETH0.c **** /* Driver Initialization */
1074:Generated_Source\PSoC5/ETH0.c **** #if (1)
1075:Generated_Source\PSoC5/ETH0.c **** /* ------------------------------------------------------------------------ */
1076:Generated_Source\PSoC5/ETH0.c **** void
1077:Generated_Source\PSoC5/ETH0.c **** ETH0_Init(uint8* mac, uint32 ip, uint32 subnet, uint32 gateway)
1078:Generated_Source\PSoC5/ETH0.c **** {
1079:Generated_Source\PSoC5/ETH0.c **** 	/*
1080:Generated_Source\PSoC5/ETH0.c **** 	 * Initialize the device and the address configuration, then
1081:Generated_Source\PSoC5/ETH0.c **** 	 * execute socket memory initialization for the local allocation
1082:Generated_Source\PSoC5/ETH0.c **** 	 * table.
1083:Generated_Source\PSoC5/ETH0.c **** 	 */
1084:Generated_Source\PSoC5/ETH0.c **** 	int index;
1085:Generated_Source\PSoC5/ETH0.c **** 	
1086:Generated_Source\PSoC5/ETH0.c **** 	CyDelay( 250 ); /* Fixed Boot Delay or chip inintialization will fail */
1087:Generated_Source\PSoC5/ETH0.c **** 	
1088:Generated_Source\PSoC5/ETH0.c **** 	/* Reset the device */
1089:Generated_Source\PSoC5/ETH0.c **** 	ETH0_SetMode(0x80); /* Send Reset Command */
1090:Generated_Source\PSoC5/ETH0.c **** 	/* Wait for the chip initialization delay */
1091:Generated_Source\PSoC5/ETH0.c **** 	CyDelay( 10 );
1092:Generated_Source\PSoC5/ETH0.c **** 	
1093:Generated_Source\PSoC5/ETH0.c **** 	/* Close all of the socket, and clear the memory to make them available. */
1094:Generated_Source\PSoC5/ETH0.c **** 	for(index=0;index<4;++index) {
1095:Generated_Source\PSoC5/ETH0.c **** 		ETH0_SocketClose( index );
1096:Generated_Source\PSoC5/ETH0.c **** 	}
1097:Generated_Source\PSoC5/ETH0.c **** 	/* Write the default configruation for memory size to the device */
1098:Generated_Source\PSoC5/ETH0.c **** 	ETH0_SetTxMemSize(0x55); /* 2K each */
1099:Generated_Source\PSoC5/ETH0.c **** 	ETH0_SetRxMemSize(0x55); /* 2K Each */
1100:Generated_Source\PSoC5/ETH0.c **** 	/* Set device gateway address */
1101:Generated_Source\PSoC5/ETH0.c **** 	ETH0_SetGatewayAddress(gateway);
1102:Generated_Source\PSoC5/ETH0.c **** 	ETH0_SetSubnetMask( subnet );
1103:Generated_Source\PSoC5/ETH0.c **** 	/* Store the subnet mask for later use, for ERRATA fix */
1104:Generated_Source\PSoC5/ETH0.c **** 	ETH0_SubnetMask = subnet;
1105:Generated_Source\PSoC5/ETH0.c **** 	/* store the device mac */
1106:Generated_Source\PSoC5/ETH0.c **** 	ETH0_SetSourceMAC( mac );
1107:Generated_Source\PSoC5/ETH0.c **** 	/* store the IP address */
1108:Generated_Source\PSoC5/ETH0.c **** 	ETH0_SetSourceIP( ip );
1109:Generated_Source\PSoC5/ETH0.c **** 	/* clear pending interrupts */
1110:Generated_Source\PSoC5/ETH0.c **** 	ETH0_SetIR(0xFF);
1111:Generated_Source\PSoC5/ETH0.c **** 	/* clear the subnet mask register (W5100 Errata Fix) */
1112:Generated_Source\PSoC5/ETH0.c **** 	ETH0_SetSubnetMask( 0 );
1113:Generated_Source\PSoC5/ETH0.c **** }
1114:Generated_Source\PSoC5/ETH0.c **** /* ------------------------------------------------------------------------ */
1115:Generated_Source\PSoC5/ETH0.c **** void
1116:Generated_Source\PSoC5/ETH0.c **** ETH0_Start( void )
1117:Generated_Source\PSoC5/ETH0.c **** {
1118:Generated_Source\PSoC5/ETH0.c **** 	uint32 ip;
1119:Generated_Source\PSoC5/ETH0.c **** 	uint32 gateway;
1120:Generated_Source\PSoC5/ETH0.c **** 	uint32 sub;
1121:Generated_Source\PSoC5/ETH0.c **** 	
1122:Generated_Source\PSoC5/ETH0.c **** 	/* Check for SPI initialization */
1123:Generated_Source\PSoC5/ETH0.c **** 	if (SPI0_initVar == 0) {
1124:Generated_Source\PSoC5/ETH0.c **** 		/*
1125:Generated_Source\PSoC5/ETH0.c **** 		 * the hardware has not yet been initialized.  Before anything can be
1126:Generated_Source\PSoC5/ETH0.c **** 		 * initialized within the driver, the external hardware must be started
1127:Generated_Source\PSoC5/ETH0.c **** 		 */
ARM GAS  C:\Users\USUARIO\AppData\Local\Temp\cchqzDaB.s 			page 47


1128:Generated_Source\PSoC5/ETH0.c **** 		SPI0_Start();
1129:Generated_Source\PSoC5/ETH0.c **** 	}
1130:Generated_Source\PSoC5/ETH0.c **** 		
1131:Generated_Source\PSoC5/ETH0.c **** 	/* wait for power on PLL Lock */
1132:Generated_Source\PSoC5/ETH0.c **** 	CyDelay( 10 );
1133:Generated_Source\PSoC5/ETH0.c **** 	/* V1.2 new -- Parse MAC Address string */
1134:Generated_Source\PSoC5/ETH0.c **** 	if ( ETH0_ParseMAC("0x00, 0xDE, 0xAD, 0xBE, 0xEF, 0x00", &ETH0_MAC[0]) == CYRET_BAD_DATA) {
1135:Generated_Source\PSoC5/ETH0.c **** 		ETH0_MAC[0] = 0;
1136:Generated_Source\PSoC5/ETH0.c **** 		ETH0_MAC[1] = 0xDE;
1137:Generated_Source\PSoC5/ETH0.c **** 		ETH0_MAC[2] = 0xAD;
1138:Generated_Source\PSoC5/ETH0.c **** 		ETH0_MAC[3] = 0xC0;
1139:Generated_Source\PSoC5/ETH0.c **** 		ETH0_MAC[4] = 0xDE;
1140:Generated_Source\PSoC5/ETH0.c **** 		ETH0_MAC[5] = 0;
1141:Generated_Source\PSoC5/ETH0.c **** 	}
1142:Generated_Source\PSoC5/ETH0.c **** 	/* END of V1.2 Update ------ */
1143:Generated_Source\PSoC5/ETH0.c **** 	ip = ETH0_ParseIP("192.168.0.80");
1144:Generated_Source\PSoC5/ETH0.c **** 	sub = ETH0_ParseIP("255.255.255.0");
1145:Generated_Source\PSoC5/ETH0.c **** 	gateway = ETH0_ParseIP("192.168.0.1");
1146:Generated_Source\PSoC5/ETH0.c **** 	/* Initialize the device with the default data */
1147:Generated_Source\PSoC5/ETH0.c **** 	ETH0_Init( &ETH0_MAC[0], ip, sub, gateway  );
1148:Generated_Source\PSoC5/ETH0.c **** }
1149:Generated_Source\PSoC5/ETH0.c **** /* ------------------------------------------------------------------------ */
1150:Generated_Source\PSoC5/ETH0.c **** uint32
1151:Generated_Source\PSoC5/ETH0.c **** ETH0_ParseIP( const char* ipString )
1152:Generated_Source\PSoC5/ETH0.c **** {
1153:Generated_Source\PSoC5/ETH0.c **** 	/*
1154:Generated_Source\PSoC5/ETH0.c **** 	 * Parse a human readable string in to a IP address usable by the hardare
1155:Generated_Source\PSoC5/ETH0.c **** 	 */
1156:Generated_Source\PSoC5/ETH0.c **** 	int index;
1157:Generated_Source\PSoC5/ETH0.c **** 	char digit[5];
1158:Generated_Source\PSoC5/ETH0.c **** 	uint8 ip[4];
1159:Generated_Source\PSoC5/ETH0.c **** 	int counter;
1160:Generated_Source\PSoC5/ETH0.c **** 	int dindex;
1161:Generated_Source\PSoC5/ETH0.c **** 	
1162:Generated_Source\PSoC5/ETH0.c **** 	index = 0;
1163:Generated_Source\PSoC5/ETH0.c **** 	dindex = 0;
1164:Generated_Source\PSoC5/ETH0.c **** 	counter = 0;
1165:Generated_Source\PSoC5/ETH0.c **** 	
1166:Generated_Source\PSoC5/ETH0.c **** 	while ( (counter < 4) && ((unsigned int)index < strlen(ipString) ) ) {
1167:Generated_Source\PSoC5/ETH0.c **** 		if ( (ipString[index] >= '0' ) && (ipString[index] <= '9') ) {
1168:Generated_Source\PSoC5/ETH0.c **** 			if (dindex > 3) return( 0xFFFFFFFF );
1169:Generated_Source\PSoC5/ETH0.c **** 			digit[dindex++] = ipString[index];
1170:Generated_Source\PSoC5/ETH0.c **** 			
1171:Generated_Source\PSoC5/ETH0.c **** 		}
1172:Generated_Source\PSoC5/ETH0.c **** 		
1173:Generated_Source\PSoC5/ETH0.c **** 		if ( (ipString[index] == '.') || (ipString[index+1] == 0) ) {
1174:Generated_Source\PSoC5/ETH0.c **** 			digit[dindex] = 0;
1175:Generated_Source\PSoC5/ETH0.c **** 			dindex = 0;
1176:Generated_Source\PSoC5/ETH0.c **** 			/* convert the value and store in the buffer */
1177:Generated_Source\PSoC5/ETH0.c **** 			ip[counter] = 0;
1178:Generated_Source\PSoC5/ETH0.c **** 			while (digit[dindex] != 0) {
1179:Generated_Source\PSoC5/ETH0.c **** 				ip[counter] = (ip[counter]*10) + (digit[dindex]-'0');
1180:Generated_Source\PSoC5/ETH0.c **** 				++dindex;
1181:Generated_Source\PSoC5/ETH0.c **** 				// ip[counter] = ...
1182:Generated_Source\PSoC5/ETH0.c **** 			}
1183:Generated_Source\PSoC5/ETH0.c **** 			/* reset the digit index to start accumulating digits again*/
1184:Generated_Source\PSoC5/ETH0.c **** 			dindex = 0;
ARM GAS  C:\Users\USUARIO\AppData\Local\Temp\cchqzDaB.s 			page 48


1185:Generated_Source\PSoC5/ETH0.c **** 			/* move to the next address byte */
1186:Generated_Source\PSoC5/ETH0.c **** 			++counter;
1187:Generated_Source\PSoC5/ETH0.c **** 		}
1188:Generated_Source\PSoC5/ETH0.c **** 		++index;
1189:Generated_Source\PSoC5/ETH0.c **** 	}
1190:Generated_Source\PSoC5/ETH0.c **** 	
1191:Generated_Source\PSoC5/ETH0.c **** 	if (counter != 4) {
1192:Generated_Source\PSoC5/ETH0.c **** 		return( 0xFFFFFFFF );
1193:Generated_Source\PSoC5/ETH0.c **** 	}
1194:Generated_Source\PSoC5/ETH0.c **** 	else {
1195:Generated_Source\PSoC5/ETH0.c **** 		return( ETH0_IPADDRESS(ip[0], ip[1], ip[2], ip[3]) );
1196:Generated_Source\PSoC5/ETH0.c **** 	}
1197:Generated_Source\PSoC5/ETH0.c **** }
1198:Generated_Source\PSoC5/ETH0.c **** /* ------------------------------------------------------------------------ */
1199:Generated_Source\PSoC5/ETH0.c **** /**
1200:Generated_Source\PSoC5/ETH0.c ****  * /brief Parse a MAC Address string in to a 6-byte mac address
1201:Generated_Source\PSoC5/ETH0.c ****  * /param *macString Pointer to the ASCII-Z String containing the MAC address
1202:Generated_Source\PSoC5/ETH0.c ****  * /param *mac Pointer to the 6-byte array to hold the output mac addres
1203:Generated_Source\PSoC5/ETH0.c ****  */
1204:Generated_Source\PSoC5/ETH0.c **** cystatus ETH0_ParseMAC(const char *macString, uint8 *mac)
1205:Generated_Source\PSoC5/ETH0.c **** {
1206:Generated_Source\PSoC5/ETH0.c **** 	/* 
1207:Generated_Source\PSoC5/ETH0.c **** 	 * a mac address is specified as a string of 6 hex bytes with
1208:Generated_Source\PSoC5/ETH0.c **** 	 * dashes ('-') seperating the bytes.  An invalidly formed
1209:Generated_Source\PSoC5/ETH0.c **** 	 * address will only process the values up the error and return BAD_DATA
1210:Generated_Source\PSoC5/ETH0.c **** 	 * otherwise, SUCESS is returned.
1211:Generated_Source\PSoC5/ETH0.c **** 	 */
1212:Generated_Source\PSoC5/ETH0.c **** 	int digit;
1213:Generated_Source\PSoC5/ETH0.c **** 	int index;
1214:Generated_Source\PSoC5/ETH0.c **** 	cystatus result;
1215:Generated_Source\PSoC5/ETH0.c **** 	
1216:Generated_Source\PSoC5/ETH0.c **** 	result = CYRET_SUCCESS;
1217:Generated_Source\PSoC5/ETH0.c **** 	index = 0;
1218:Generated_Source\PSoC5/ETH0.c **** 	for(digit = 0;(digit<6) && (result == CYRET_SUCCESS)&&(macString[index] != 0);++digit) {
1219:Generated_Source\PSoC5/ETH0.c **** 		// process the first nibble
1220:Generated_Source\PSoC5/ETH0.c **** 		if (ETH0_ISXDIGIT(macString[index]) ) {
1221:Generated_Source\PSoC5/ETH0.c **** 			mac[digit] = ETH0_HEX2BIN(macString[index]);
1222:Generated_Source\PSoC5/ETH0.c **** 			++index;
1223:Generated_Source\PSoC5/ETH0.c **** 			mac[digit] <<= 4;
1224:Generated_Source\PSoC5/ETH0.c **** 			if (ETH0_ISXDIGIT(macString[index])) {
1225:Generated_Source\PSoC5/ETH0.c **** 				mac[digit] += ETH0_HEX2BIN(macString[index]);
1226:Generated_Source\PSoC5/ETH0.c **** 				++index;
1227:Generated_Source\PSoC5/ETH0.c **** 				/*
1228:Generated_Source\PSoC5/ETH0.c **** 				 * now for digits other than digit 5 (the last one) look for
1229:Generated_Source\PSoC5/ETH0.c **** 				 * the dash seperator.  If there is no dash, return bad data
1230:Generated_Source\PSoC5/ETH0.c **** 				 */
1231:Generated_Source\PSoC5/ETH0.c **** 				if (digit<5) {
1232:Generated_Source\PSoC5/ETH0.c **** 					if( (macString[index]!='-') && (macString[index]!= ':') ){
1233:Generated_Source\PSoC5/ETH0.c **** 						result = CYRET_BAD_DATA;
1234:Generated_Source\PSoC5/ETH0.c **** 					}
1235:Generated_Source\PSoC5/ETH0.c **** 					++index; // move conversion pointer to the next value
1236:Generated_Source\PSoC5/ETH0.c **** 				}
1237:Generated_Source\PSoC5/ETH0.c **** 			}
1238:Generated_Source\PSoC5/ETH0.c **** 			else {
1239:Generated_Source\PSoC5/ETH0.c **** 				result = CYRET_BAD_DATA;
1240:Generated_Source\PSoC5/ETH0.c **** 			}
1241:Generated_Source\PSoC5/ETH0.c **** 		}
ARM GAS  C:\Users\USUARIO\AppData\Local\Temp\cchqzDaB.s 			page 49


1242:Generated_Source\PSoC5/ETH0.c **** 		else {
1243:Generated_Source\PSoC5/ETH0.c **** 			result = CYRET_BAD_DATA;
1244:Generated_Source\PSoC5/ETH0.c **** 		}
1245:Generated_Source\PSoC5/ETH0.c **** 	}
1246:Generated_Source\PSoC5/ETH0.c **** 	return( result );
1247:Generated_Source\PSoC5/ETH0.c **** }
1248:Generated_Source\PSoC5/ETH0.c **** /* ------------------------------------------------------------------------ */
1249:Generated_Source\PSoC5/ETH0.c **** void ETH0_StringMAC(char *macString)
1250:Generated_Source\PSoC5/ETH0.c **** {
1251:Generated_Source\PSoC5/ETH0.c **** 	uint8 mac[6];
1252:Generated_Source\PSoC5/ETH0.c **** 	int digit;
1253:Generated_Source\PSoC5/ETH0.c **** 	int index;
1254:Generated_Source\PSoC5/ETH0.c **** 	
1255:Generated_Source\PSoC5/ETH0.c **** 	/*
1256:Generated_Source\PSoC5/ETH0.c **** 	 * first read the MAC address from the chip
1257:Generated_Source\PSoC5/ETH0.c **** 	 * and inintialize some locals so that the
1258:Generated_Source\PSoC5/ETH0.c **** 	 * string formater will function properly
1259:Generated_Source\PSoC5/ETH0.c **** 	 */
1260:Generated_Source\PSoC5/ETH0.c **** 	ETH0_GetSourceMAC( &mac[0] );
1261:Generated_Source\PSoC5/ETH0.c **** 	index = 0;
1262:Generated_Source\PSoC5/ETH0.c **** 	for(digit=0;digit<6;++digit) {
1263:Generated_Source\PSoC5/ETH0.c **** 		// convert the first nibble
1264:Generated_Source\PSoC5/ETH0.c **** 		macString[index++] = ETH0_BIN2HEX(((mac[digit]>>4)&0x0F));
1265:Generated_Source\PSoC5/ETH0.c **** 		macString[index++] = ETH0_BIN2HEX((mac[digit]&0x0F));
1266:Generated_Source\PSoC5/ETH0.c **** 		if (digit<5) {
1267:Generated_Source\PSoC5/ETH0.c **** 			macString[index++] = '-';
1268:Generated_Source\PSoC5/ETH0.c **** 		}
1269:Generated_Source\PSoC5/ETH0.c **** 		else {
1270:Generated_Source\PSoC5/ETH0.c **** 			macString[index] = 0;
1271:Generated_Source\PSoC5/ETH0.c **** 		}
1272:Generated_Source\PSoC5/ETH0.c **** 	}
1273:Generated_Source\PSoC5/ETH0.c **** }
1274:Generated_Source\PSoC5/ETH0.c **** /* ------------------------------------------------------------------------ */
1275:Generated_Source\PSoC5/ETH0.c **** void ETH0_StringIP( char *ipString )
1276:Generated_Source\PSoC5/ETH0.c **** {
1277:Generated_Source\PSoC5/ETH0.c **** 	uint32 ip;
1278:Generated_Source\PSoC5/ETH0.c **** 	uint8 *ipBytes;
1279:Generated_Source\PSoC5/ETH0.c **** 	int index;
1280:Generated_Source\PSoC5/ETH0.c **** 	int digit;
1281:Generated_Source\PSoC5/ETH0.c **** 	int work, temp;
1282:Generated_Source\PSoC5/ETH0.c **** 	
1283:Generated_Source\PSoC5/ETH0.c **** 	ip = ETH0_GetSourceIP();
1284:Generated_Source\PSoC5/ETH0.c **** 	ipBytes = (uint8*)&ip;
1285:Generated_Source\PSoC5/ETH0.c **** 	index = 0;
1286:Generated_Source\PSoC5/ETH0.c **** 	for(digit=0;digit<4;++digit) {
1287:Generated_Source\PSoC5/ETH0.c **** 		work = ipBytes[digit];
1288:Generated_Source\PSoC5/ETH0.c **** 		if (work >= 100) {
1289:Generated_Source\PSoC5/ETH0.c **** 			temp = work/100;
1290:Generated_Source\PSoC5/ETH0.c **** 			work -= (temp*100);
1291:Generated_Source\PSoC5/ETH0.c **** 			ipString[index++] = '0' + temp;
1292:Generated_Source\PSoC5/ETH0.c **** 		}
1293:Generated_Source\PSoC5/ETH0.c **** 		if (work >= 10) {
1294:Generated_Source\PSoC5/ETH0.c **** 			temp = work /10;
1295:Generated_Source\PSoC5/ETH0.c **** 			work -= (temp*10);
1296:Generated_Source\PSoC5/ETH0.c **** 			ipString[index++] = '0'+temp;
1297:Generated_Source\PSoC5/ETH0.c **** 		}
1298:Generated_Source\PSoC5/ETH0.c **** 		ipString[index++] = '0'+work;
ARM GAS  C:\Users\USUARIO\AppData\Local\Temp\cchqzDaB.s 			page 50


1299:Generated_Source\PSoC5/ETH0.c **** 		if (digit <3) {
1300:Generated_Source\PSoC5/ETH0.c **** 			ipString[index++] = '.';
1301:Generated_Source\PSoC5/ETH0.c **** 		}
1302:Generated_Source\PSoC5/ETH0.c **** 		else {
1303:Generated_Source\PSoC5/ETH0.c **** 			ipString[index] = 0;
1304:Generated_Source\PSoC5/ETH0.c **** 		}
1305:Generated_Source\PSoC5/ETH0.c **** 	}
1306:Generated_Source\PSoC5/ETH0.c **** }
1307:Generated_Source\PSoC5/ETH0.c **** 
1308:Generated_Source\PSoC5/ETH0.c **** /* ------------------------------------------------------------------------ */
1309:Generated_Source\PSoC5/ETH0.c **** uint8
1310:Generated_Source\PSoC5/ETH0.c **** ETH0_SetIP( uint32 ip )
1311:Generated_Source\PSoC5/ETH0.c **** {
1312:Generated_Source\PSoC5/ETH0.c **** 	uint8 ok = 0;
1313:Generated_Source\PSoC5/ETH0.c **** 	
1314:Generated_Source\PSoC5/ETH0.c **** 	if ( ( ip != 0) && (ip != 0xFFFFFFFF) ) {
1315:Generated_Source\PSoC5/ETH0.c **** 		ETH0_SetSourceIP( ip );
1316:Generated_Source\PSoC5/ETH0.c **** 		ok = 0xFF;
1317:Generated_Source\PSoC5/ETH0.c **** 	}
1318:Generated_Source\PSoC5/ETH0.c **** 	
1319:Generated_Source\PSoC5/ETH0.c **** 	return ok;
1320:Generated_Source\PSoC5/ETH0.c **** }
1321:Generated_Source\PSoC5/ETH0.c **** /* ------------------------------------------------------------------------ */
1322:Generated_Source\PSoC5/ETH0.c **** uint32
1323:Generated_Source\PSoC5/ETH0.c **** ETH0_GetIP( void )
1324:Generated_Source\PSoC5/ETH0.c **** {
1325:Generated_Source\PSoC5/ETH0.c **** 	return ETH0_GetSourceIP();
1326:Generated_Source\PSoC5/ETH0.c **** }
1327:Generated_Source\PSoC5/ETH0.c **** /* ------------------------------------------------------------------------ */
1328:Generated_Source\PSoC5/ETH0.c **** void
1329:Generated_Source\PSoC5/ETH0.c **** ETH0_SetMAC( uint8* mac )
1330:Generated_Source\PSoC5/ETH0.c **** {
1331:Generated_Source\PSoC5/ETH0.c **** 	ETH0_SetSourceMAC( mac );
1332:Generated_Source\PSoC5/ETH0.c **** }
1333:Generated_Source\PSoC5/ETH0.c **** /* ------------------------------------------------------------------------ */
1334:Generated_Source\PSoC5/ETH0.c **** void
1335:Generated_Source\PSoC5/ETH0.c **** ETH0_GetMAC( uint8* mac )
1336:Generated_Source\PSoC5/ETH0.c **** {
1337:Generated_Source\PSoC5/ETH0.c **** 	ETH0_GetSourceMAC( mac );
1338:Generated_Source\PSoC5/ETH0.c **** }
1339:Generated_Source\PSoC5/ETH0.c **** #endif
1340:Generated_Source\PSoC5/ETH0.c **** /* ======================================================================== */
1341:Generated_Source\PSoC5/ETH0.c **** /* Socket Controls */
1342:Generated_Source\PSoC5/ETH0.c **** #if (1)
1343:Generated_Source\PSoC5/ETH0.c **** /* ------------------------------------------------------------------------ */
1344:Generated_Source\PSoC5/ETH0.c **** uint8
1345:Generated_Source\PSoC5/ETH0.c **** ETH0_SocketOpen( uint8 Protocol, uint16 port, uint8 flags )
1346:Generated_Source\PSoC5/ETH0.c **** {
1347:Generated_Source\PSoC5/ETH0.c **** 	uint8 socket;
1348:Generated_Source\PSoC5/ETH0.c **** 	int index;
1349:Generated_Source\PSoC5/ETH0.c **** 	
1350:Generated_Source\PSoC5/ETH0.c **** 	/*
1351:Generated_Source\PSoC5/ETH0.c **** 	 * This function will look for the first available socket for allocation
1352:Generated_Source\PSoC5/ETH0.c **** 	 * using the defined protocol.  The socket configuration will then be
1353:Generated_Source\PSoC5/ETH0.c **** 	 * initialized and saved in the allocation table. If the requested socket
1354:Generated_Source\PSoC5/ETH0.c **** 	 * can not be initialized, 0xFF is returned
1355:Generated_Source\PSoC5/ETH0.c **** 	 */
ARM GAS  C:\Users\USUARIO\AppData\Local\Temp\cchqzDaB.s 			page 51


1356:Generated_Source\PSoC5/ETH0.c **** 	socket = 0xFF;
1357:Generated_Source\PSoC5/ETH0.c **** 	/* find the first available socket to open, and how much memory is available */
1358:Generated_Source\PSoC5/ETH0.c **** 	for( index = 0;index<4;++index) {
1359:Generated_Source\PSoC5/ETH0.c **** 		if ( (socket == 0xFF) && (ETH0_SocketConfig[index].Protocol == 0) ) {
1360:Generated_Source\PSoC5/ETH0.c **** 			/*
1361:Generated_Source\PSoC5/ETH0.c **** 			 * Since the W5100 does not support MAC mode commucications, check to see
1362:Generated_Source\PSoC5/ETH0.c **** 			 * if the socket that is free was socket 0.  If the mac protocol was
1363:Generated_Source\PSoC5/ETH0.c **** 			 * selected, ignore socket 0
1364:Generated_Source\PSoC5/ETH0.c **** 			 */
1365:Generated_Source\PSoC5/ETH0.c **** 			if ( (Protocol != ETH0_PROTO_MAC) || (index != 0) ) {
1366:Generated_Source\PSoC5/ETH0.c **** 				/* store this socket number for allocation */
1367:Generated_Source\PSoC5/ETH0.c **** 				socket = index;
1368:Generated_Source\PSoC5/ETH0.c **** 			}
1369:Generated_Source\PSoC5/ETH0.c **** 		}
1370:Generated_Source\PSoC5/ETH0.c **** 	}
1371:Generated_Source\PSoC5/ETH0.c **** 	if (socket != 0xFF ) {
1372:Generated_Source\PSoC5/ETH0.c **** 		/* Store the socket information in the allocation table */
1373:Generated_Source\PSoC5/ETH0.c **** 		ETH0_SocketConfig[socket].Protocol = Protocol;
1374:Generated_Source\PSoC5/ETH0.c **** 		ETH0_SocketConfig[socket].SocketFlags = flags;
1375:Generated_Source\PSoC5/ETH0.c **** 		ETH0_SocketConfig[socket].SourcePort = port;
1376:Generated_Source\PSoC5/ETH0.c **** 		ETH0_SocketConfig[socket].ServerFlag = 0;
1377:Generated_Source\PSoC5/ETH0.c **** 		/* Send the socket open with the correct protocol information */
1378:Generated_Source\PSoC5/ETH0.c **** 		ETH0_SetSocketSourcePort( socket, port );
1379:Generated_Source\PSoC5/ETH0.c **** 		ETH0_SetSocketMode( socket, Protocol | flags );
1380:Generated_Source\PSoC5/ETH0.c **** 		ETH0_ExecuteSocketCommand( socket, 1 );
1381:Generated_Source\PSoC5/ETH0.c **** 	}
1382:Generated_Source\PSoC5/ETH0.c **** 	return socket;
1383:Generated_Source\PSoC5/ETH0.c **** }
1384:Generated_Source\PSoC5/ETH0.c **** /* ------------------------------------------------------------------------ */
1385:Generated_Source\PSoC5/ETH0.c **** void
1386:Generated_Source\PSoC5/ETH0.c **** ETH0_SocketClose( uint8 socket )
1387:Generated_Source\PSoC5/ETH0.c **** {
1388:Generated_Source\PSoC5/ETH0.c **** 	/*
1389:Generated_Source\PSoC5/ETH0.c **** 	 * Set the socket allocation to empty, and issue the close command
1390:Generated_Source\PSoC5/ETH0.c **** 	 * to the socket
1391:Generated_Source\PSoC5/ETH0.c **** 	 */
1392:Generated_Source\PSoC5/ETH0.c **** 	if (socket < 4) {
1393:Generated_Source\PSoC5/ETH0.c **** 		/* clear the socket memory allocations */
1394:Generated_Source\PSoC5/ETH0.c **** 		ETH0_SocketConfig[socket].Protocol = 0;
1395:Generated_Source\PSoC5/ETH0.c **** 		ETH0_SocketConfig[socket].SocketFlags = 0;
1396:Generated_Source\PSoC5/ETH0.c **** 		/* close the socket */
1397:Generated_Source\PSoC5/ETH0.c **** 		ETH0_ExecuteSocketCommand( socket, 0x10 );
1398:Generated_Source\PSoC5/ETH0.c **** 		/* Clear pending Interrupts */
1399:Generated_Source\PSoC5/ETH0.c **** 		ETH0_SetSocketIR( socket, 0xFF);
1400:Generated_Source\PSoC5/ETH0.c **** 	}
1401:Generated_Source\PSoC5/ETH0.c **** }
1402:Generated_Source\PSoC5/ETH0.c **** /* ------------------------------------------------------------------------ */
1403:Generated_Source\PSoC5/ETH0.c **** uint8
1404:Generated_Source\PSoC5/ETH0.c **** ETH0_SocketProcessConnections( uint8 socket )
1405:Generated_Source\PSoC5/ETH0.c **** {
1406:Generated_Source\PSoC5/ETH0.c **** 	uint8 status;
1407:Generated_Source\PSoC5/ETH0.c **** 	
1408:Generated_Source\PSoC5/ETH0.c **** 	status = ETH0_GetSocketStatus(socket);
1409:Generated_Source\PSoC5/ETH0.c **** 	/* has a connection termination been requested by remote system */
1410:Generated_Source\PSoC5/ETH0.c **** 	if (status == 0x1C) {
1411:Generated_Source\PSoC5/ETH0.c **** 		/* Close the socket on this end */
1412:Generated_Source\PSoC5/ETH0.c **** 		ETH0_SocketClose(socket);
ARM GAS  C:\Users\USUARIO\AppData\Local\Temp\cchqzDaB.s 			page 52


1413:Generated_Source\PSoC5/ETH0.c **** 	}
1414:Generated_Source\PSoC5/ETH0.c **** 	return (ETH0_GetSocketStatus(socket) == 0x00);
1415:Generated_Source\PSoC5/ETH0.c **** }
1416:Generated_Source\PSoC5/ETH0.c **** /* ------------------------------------------------------------------------ */
1417:Generated_Source\PSoC5/ETH0.c **** uint8
1418:Generated_Source\PSoC5/ETH0.c **** ETH0_SocketEstablished( uint8 socket )
1419:Generated_Source\PSoC5/ETH0.c **** {
1420:Generated_Source\PSoC5/ETH0.c **** 	return (ETH0_GetSocketStatus( socket ) == 0x17);
1421:Generated_Source\PSoC5/ETH0.c **** }
1422:Generated_Source\PSoC5/ETH0.c **** /* ------------------------------------------------------------------------ */
1423:Generated_Source\PSoC5/ETH0.c **** /**
1424:Generated_Source\PSoC5/ETH0.c ****  * \brief Transmit a SEND operation over a socket
1425:Generated_Source\PSoC5/ETH0.c ****  * \param socket the socket to which the send command will be sent
1426:Generated_Source\PSoC5/ETH0.c ****  */
1427:Generated_Source\PSoC5/ETH0.c **** static void
1428:Generated_Source\PSoC5/ETH0.c **** ETH0_SocketSend(uint8 socket )
1429:Generated_Source\PSoC5/ETH0.c **** {
 1390              		.loc 1 1429 0
 1391              		.cfi_startproc
 1392              		@ args = 0, pretend = 0, frame = 0
 1393              		@ frame_needed = 0, uses_anonymous_args = 0
 1394              	.LVL172:
 1395 0000 10B5     		push	{r4, lr}
 1396              		.cfi_def_cfa_offset 8
 1397              		.cfi_offset 4, -8
 1398              		.cfi_offset 14, -4
 1399 0002 0446     		mov	r4, r0
1430:Generated_Source\PSoC5/ETH0.c **** 	uint8 ir;
1431:Generated_Source\PSoC5/ETH0.c **** 	
1432:Generated_Source\PSoC5/ETH0.c **** 	/* initialize the subnet mask register : ERRATA FIX */
1433:Generated_Source\PSoC5/ETH0.c **** 	ETH0_SetSubnetMask( ETH0_SubnetMask );
 1400              		.loc 1 1433 0
 1401 0004 0E4B     		ldr	r3, .L110
 1402 0006 1868     		ldr	r0, [r3]
 1403              	.LVL173:
 1404 0008 FFF7FEFF 		bl	ETH0_SetSubnetMask
 1405              	.LVL174:
1434:Generated_Source\PSoC5/ETH0.c **** 	/* Issue the SEND command */
1435:Generated_Source\PSoC5/ETH0.c **** 	ETH0_ExecuteSocketCommand( socket, 0x20 );
 1406              		.loc 1 1435 0
 1407 000c 2021     		movs	r1, #32
 1408 000e 2046     		mov	r0, r4
 1409 0010 FFF7FEFF 		bl	ETH0_ExecuteSocketCommand
 1410              	.LVL175:
1436:Generated_Source\PSoC5/ETH0.c **** 	/* wait for the SEND to complete, or for a timeout */
1437:Generated_Source\PSoC5/ETH0.c **** 	ir = ETH0_GetSocketIR( socket );
 1411              		.loc 1 1437 0
 1412 0014 2046     		mov	r0, r4
 1413 0016 FFF7FEFF 		bl	ETH0_GetSocketIR
 1414              	.LVL176:
1438:Generated_Source\PSoC5/ETH0.c **** 	/* while SEND is not done, and the socket hasnot timed out or been dsconnected */
1439:Generated_Source\PSoC5/ETH0.c **** 	while ( ((ir & 0x10) == 0) && (!(ir&0x0A)) ) {
 1415              		.loc 1 1439 0
 1416 001a 05E0     		b	.L107
 1417              	.L108:
1440:Generated_Source\PSoC5/ETH0.c **** 		CyDelay(1);
 1418              		.loc 1 1440 0
ARM GAS  C:\Users\USUARIO\AppData\Local\Temp\cchqzDaB.s 			page 53


 1419 001c 0120     		movs	r0, #1
 1420              	.LVL177:
 1421 001e FFF7FEFF 		bl	CyDelay
 1422              	.LVL178:
1441:Generated_Source\PSoC5/ETH0.c **** 		ir = ETH0_GetSocketIR( socket );
 1423              		.loc 1 1441 0
 1424 0022 2046     		mov	r0, r4
 1425 0024 FFF7FEFF 		bl	ETH0_GetSocketIR
 1426              	.LVL179:
 1427              	.L107:
1439:Generated_Source\PSoC5/ETH0.c **** 		CyDelay(1);
 1428              		.loc 1 1439 0
 1429 0028 10F01A0F 		tst	r0, #26
 1430 002c F6D0     		beq	.L108
1442:Generated_Source\PSoC5/ETH0.c **** 		
1443:Generated_Source\PSoC5/ETH0.c **** 	}
1444:Generated_Source\PSoC5/ETH0.c **** 	/* clear the SEND_OK flag from the register */
1445:Generated_Source\PSoC5/ETH0.c **** 	ETH0_SetSocketIR( socket, 0x10 );
 1431              		.loc 1 1445 0
 1432 002e 1021     		movs	r1, #16
 1433 0030 2046     		mov	r0, r4
 1434              	.LVL180:
 1435 0032 FFF7FEFF 		bl	ETH0_SetSocketIR
 1436              	.LVL181:
1446:Generated_Source\PSoC5/ETH0.c **** 	/* reset the subnet mask : ERRATA FIX */
1447:Generated_Source\PSoC5/ETH0.c **** 	ETH0_SetSubnetMask( 0 );
 1437              		.loc 1 1447 0
 1438 0036 0020     		movs	r0, #0
 1439 0038 FFF7FEFF 		bl	ETH0_SetSubnetMask
 1440              	.LVL182:
 1441 003c 10BD     		pop	{r4, pc}
 1442              	.L111:
 1443 003e 00BF     		.align	2
 1444              	.L110:
 1445 0040 00000000 		.word	.LANCHOR1
 1446              		.cfi_endproc
 1447              	.LFE88:
 1448              		.size	ETH0_SocketSend, .-ETH0_SocketSend
 1449              		.section	.text.ETH0_W51_ReadBlock,"ax",%progbits
 1450              		.align	2
 1451              		.thumb
 1452              		.thumb_func
 1453              		.type	ETH0_W51_ReadBlock, %function
 1454              	ETH0_W51_ReadBlock:
 1455              	.LFB10:
 452:Generated_Source\PSoC5/ETH0.c **** 	int index;
 1456              		.loc 1 452 0
 1457              		.cfi_startproc
 1458              		@ args = 0, pretend = 0, frame = 0
 1459              		@ frame_needed = 0, uses_anonymous_args = 0
 1460              	.LVL183:
 1461 0000 F8B5     		push	{r3, r4, r5, r6, r7, lr}
 1462              		.cfi_def_cfa_offset 24
 1463              		.cfi_offset 3, -24
 1464              		.cfi_offset 4, -20
 1465              		.cfi_offset 5, -16
 1466              		.cfi_offset 6, -12
ARM GAS  C:\Users\USUARIO\AppData\Local\Temp\cchqzDaB.s 			page 54


 1467              		.cfi_offset 7, -8
 1468              		.cfi_offset 14, -4
 1469 0002 0746     		mov	r7, r0
 1470 0004 0E46     		mov	r6, r1
 1471 0006 1546     		mov	r5, r2
 1472              	.LVL184:
 455:Generated_Source\PSoC5/ETH0.c **** 		buffer[index] = ETH0_W51_Read(addr+index);
 1473              		.loc 1 455 0
 1474 0008 0024     		movs	r4, #0
 1475 000a 05E0     		b	.L113
 1476              	.LVL185:
 1477              	.L114:
 456:Generated_Source\PSoC5/ETH0.c **** 	}
 1478              		.loc 1 456 0 discriminator 3
 1479 000c 3819     		adds	r0, r7, r4
 1480 000e 80B2     		uxth	r0, r0
 1481 0010 FFF7FEFF 		bl	ETH0_W51_Read
 1482              	.LVL186:
 1483 0014 3055     		strb	r0, [r6, r4]
 455:Generated_Source\PSoC5/ETH0.c **** 		buffer[index] = ETH0_W51_Read(addr+index);
 1484              		.loc 1 455 0 discriminator 3
 1485 0016 0134     		adds	r4, r4, #1
 1486              	.LVL187:
 1487              	.L113:
 455:Generated_Source\PSoC5/ETH0.c **** 		buffer[index] = ETH0_W51_Read(addr+index);
 1488              		.loc 1 455 0 is_stmt 0 discriminator 1
 1489 0018 AC42     		cmp	r4, r5
 1490 001a F7DB     		blt	.L114
 458:Generated_Source\PSoC5/ETH0.c **** /* ======================================================================== */
 1491              		.loc 1 458 0 is_stmt 1
 1492 001c F8BD     		pop	{r3, r4, r5, r6, r7, pc}
 1493              		.cfi_endproc
 1494              	.LFE10:
 1495              		.size	ETH0_W51_ReadBlock, .-ETH0_W51_ReadBlock
 1496 001e 00BF     		.section	.text.ETH0_ProcessRxData,"ax",%progbits
 1497              		.align	2
 1498              		.thumb
 1499              		.thumb_func
 1500              		.type	ETH0_ProcessRxData, %function
 1501              	ETH0_ProcessRxData:
 1502              	.LFB73:
1024:Generated_Source\PSoC5/ETH0.c **** 	uint16 addr;
 1503              		.loc 1 1024 0
 1504              		.cfi_startproc
 1505              		@ args = 4, pretend = 0, frame = 0
 1506              		@ frame_needed = 0, uses_anonymous_args = 0
 1507              	.LVL188:
 1508 0000 2DE9F843 		push	{r3, r4, r5, r6, r7, r8, r9, lr}
 1509              		.cfi_def_cfa_offset 32
 1510              		.cfi_offset 3, -32
 1511              		.cfi_offset 4, -28
 1512              		.cfi_offset 5, -24
 1513              		.cfi_offset 6, -20
 1514              		.cfi_offset 7, -16
 1515              		.cfi_offset 8, -12
 1516              		.cfi_offset 9, -8
 1517              		.cfi_offset 14, -4
ARM GAS  C:\Users\USUARIO\AppData\Local\Temp\cchqzDaB.s 			page 55


 1518 0004 8046     		mov	r8, r0
 1519 0006 0D46     		mov	r5, r1
 1520 0008 1746     		mov	r7, r2
 1521 000a 1E46     		mov	r6, r3
1035:Generated_Source\PSoC5/ETH0.c **** 	PointerOffset = (base & 0x07FF);
 1522              		.loc 1 1035 0
 1523 000c FFF7FEFF 		bl	ETH0_GetSocketRxReadPtr
 1524              	.LVL189:
 1525 0010 2844     		add	r0, r0, r5
 1526 0012 85B2     		uxth	r5, r0
 1527              	.LVL190:
1036:Generated_Source\PSoC5/ETH0.c **** 	addr = PointerOffset + ETH0_SOCKET_RX_BASE[socket];
 1528              		.loc 1 1036 0
 1529 0014 C5F30A04 		ubfx	r4, r5, #0, #11
 1530              	.LVL191:
1037:Generated_Source\PSoC5/ETH0.c **** 	/* calculate the number of bytes from the pointer to the end of the buffer */
 1531              		.loc 1 1037 0
 1532 0018 134B     		ldr	r3, .L121
 1533 001a 03EB4803 		add	r3, r3, r8, lsl #1
 1534 001e B3F80890 		ldrh	r9, [r3, #8]
 1535 0022 04EB0900 		add	r0, r4, r9
 1536 0026 80B2     		uxth	r0, r0
 1537              	.LVL192:
1039:Generated_Source\PSoC5/ETH0.c **** 	/*
 1538              		.loc 1 1039 0
 1539 0028 C4F50064 		rsb	r4, r4, #2048
 1540              	.LVL193:
 1541 002c A4B2     		uxth	r4, r4
 1542              	.LVL194:
1044:Generated_Source\PSoC5/ETH0.c **** 		/*
 1543              		.loc 1 1044 0
 1544 002e B442     		cmp	r4, r6
 1545 0030 0AD2     		bcs	.L117
1051:Generated_Source\PSoC5/ETH0.c **** 		ETH0_W51_ReadBlock(ETH0_SOCKET_RX_BASE[socket], &buffer[size], length - size);
 1546              		.loc 1 1051 0
 1547 0032 2246     		mov	r2, r4
 1548 0034 3946     		mov	r1, r7
 1549 0036 FFF7FEFF 		bl	ETH0_W51_ReadBlock
 1550              	.LVL195:
1052:Generated_Source\PSoC5/ETH0.c **** 	}
 1551              		.loc 1 1052 0
 1552 003a 321B     		subs	r2, r6, r4
 1553 003c 92B2     		uxth	r2, r2
 1554 003e 3919     		adds	r1, r7, r4
 1555 0040 4846     		mov	r0, r9
 1556 0042 FFF7FEFF 		bl	ETH0_W51_ReadBlock
 1557              	.LVL196:
 1558 0046 03E0     		b	.L118
 1559              	.LVL197:
 1560              	.L117:
1059:Generated_Source\PSoC5/ETH0.c **** 	}
 1561              		.loc 1 1059 0
 1562 0048 3246     		mov	r2, r6
 1563 004a 3946     		mov	r1, r7
 1564 004c FFF7FEFF 		bl	ETH0_W51_ReadBlock
 1565              	.LVL198:
 1566              	.L118:
ARM GAS  C:\Users\USUARIO\AppData\Local\Temp\cchqzDaB.s 			page 56


1061:Generated_Source\PSoC5/ETH0.c **** 		/* move the write pointer */
 1567              		.loc 1 1061 0
 1568 0050 9DF82030 		ldrb	r3, [sp, #32]	@ zero_extendqisi2
 1569 0054 13F0010F 		tst	r3, #1
 1570 0058 04D1     		bne	.L116
1063:Generated_Source\PSoC5/ETH0.c **** 		/* 
 1571              		.loc 1 1063 0
 1572 005a A919     		adds	r1, r5, r6
 1573              	.LVL199:
1068:Generated_Source\PSoC5/ETH0.c **** 	}
 1574              		.loc 1 1068 0
 1575 005c 89B2     		uxth	r1, r1
 1576 005e 4046     		mov	r0, r8
 1577 0060 FFF7FEFF 		bl	ETH0_SetSocketRxReadPtr
 1578              	.LVL200:
 1579              	.L116:
 1580 0064 BDE8F883 		pop	{r3, r4, r5, r6, r7, r8, r9, pc}
 1581              	.LVL201:
 1582              	.L122:
 1583              		.align	2
 1584              	.L121:
 1585 0068 00000000 		.word	.LANCHOR0
 1586              		.cfi_endproc
 1587              	.LFE73:
 1588              		.size	ETH0_ProcessRxData, .-ETH0_ProcessRxData
 1589              		.section	.text.ETH0_ParseIP,"ax",%progbits
 1590              		.align	2
 1591              		.global	ETH0_ParseIP
 1592              		.thumb
 1593              		.thumb_func
 1594              		.type	ETH0_ParseIP, %function
 1595              	ETH0_ParseIP:
 1596              	.LFB76:
1152:Generated_Source\PSoC5/ETH0.c **** 	/*
 1597              		.loc 1 1152 0
 1598              		.cfi_startproc
 1599              		@ args = 0, pretend = 0, frame = 16
 1600              		@ frame_needed = 0, uses_anonymous_args = 0
 1601              	.LVL202:
 1602 0000 F0B5     		push	{r4, r5, r6, r7, lr}
 1603              		.cfi_def_cfa_offset 20
 1604              		.cfi_offset 4, -20
 1605              		.cfi_offset 5, -16
 1606              		.cfi_offset 6, -12
 1607              		.cfi_offset 7, -8
 1608              		.cfi_offset 14, -4
 1609 0002 85B0     		sub	sp, sp, #20
 1610              		.cfi_def_cfa_offset 40
 1611 0004 0646     		mov	r6, r0
 1612              	.LVL203:
1163:Generated_Source\PSoC5/ETH0.c **** 	counter = 0;
 1613              		.loc 1 1163 0
 1614 0006 0027     		movs	r7, #0
1164:Generated_Source\PSoC5/ETH0.c **** 	
 1615              		.loc 1 1164 0
 1616 0008 3C46     		mov	r4, r7
1162:Generated_Source\PSoC5/ETH0.c **** 	dindex = 0;
ARM GAS  C:\Users\USUARIO\AppData\Local\Temp\cchqzDaB.s 			page 57


 1617              		.loc 1 1162 0
 1618 000a 3D46     		mov	r5, r7
1166:Generated_Source\PSoC5/ETH0.c **** 		if ( (ipString[index] >= '0' ) && (ipString[index] <= '9') ) {
 1619              		.loc 1 1166 0
 1620 000c 2FE0     		b	.L124
 1621              	.LVL204:
 1622              	.L132:
1167:Generated_Source\PSoC5/ETH0.c **** 			if (dindex > 3) return( 0xFFFFFFFF );
 1623              		.loc 1 1167 0
 1624 000e 725D     		ldrb	r2, [r6, r5]	@ zero_extendqisi2
 1625 0010 A2F13003 		sub	r3, r2, #48
 1626 0014 DBB2     		uxtb	r3, r3
 1627 0016 092B     		cmp	r3, #9
 1628 0018 06D8     		bhi	.L125
1168:Generated_Source\PSoC5/ETH0.c **** 			digit[dindex++] = ipString[index];
 1629              		.loc 1 1168 0
 1630 001a 032F     		cmp	r7, #3
 1631 001c 40DC     		bgt	.L133
 1632              	.LVL205:
1169:Generated_Source\PSoC5/ETH0.c **** 			
 1633              		.loc 1 1169 0
 1634 001e 04AB     		add	r3, sp, #16
 1635 0020 3B44     		add	r3, r3, r7
 1636 0022 03F8082C 		strb	r2, [r3, #-8]
 1637 0026 0137     		adds	r7, r7, #1
 1638              	.LVL206:
 1639              	.L125:
1173:Generated_Source\PSoC5/ETH0.c **** 			digit[dindex] = 0;
 1640              		.loc 1 1173 0
 1641 0028 2E2A     		cmp	r2, #46
 1642 002a 02D0     		beq	.L127
1173:Generated_Source\PSoC5/ETH0.c **** 			digit[dindex] = 0;
 1643              		.loc 1 1173 0 is_stmt 0 discriminator 1
 1644 002c 0131     		adds	r1, r1, #1
 1645              	.LVL207:
 1646 002e 735C     		ldrb	r3, [r6, r1]	@ zero_extendqisi2
 1647 0030 E3B9     		cbnz	r3, .L128
 1648              	.L127:
1174:Generated_Source\PSoC5/ETH0.c **** 			dindex = 0;
 1649              		.loc 1 1174 0 is_stmt 1
 1650 0032 04AB     		add	r3, sp, #16
 1651 0034 1F44     		add	r7, r7, r3
 1652              	.LVL208:
 1653 0036 0021     		movs	r1, #0
 1654 0038 07F8081C 		strb	r1, [r7, #-8]
 1655              	.LVL209:
1177:Generated_Source\PSoC5/ETH0.c **** 			while (digit[dindex] != 0) {
 1656              		.loc 1 1177 0
 1657 003c 2344     		add	r3, r3, r4
 1658 003e 03F80C1C 		strb	r1, [r3, #-12]
1178:Generated_Source\PSoC5/ETH0.c **** 				ip[counter] = (ip[counter]*10) + (digit[dindex]-'0');
 1659              		.loc 1 1178 0
 1660 0042 0BE0     		b	.L129
 1661              	.LVL210:
 1662              	.L130:
1179:Generated_Source\PSoC5/ETH0.c **** 				++dindex;
 1663              		.loc 1 1179 0
ARM GAS  C:\Users\USUARIO\AppData\Local\Temp\cchqzDaB.s 			page 58


 1664 0044 04AB     		add	r3, sp, #16
 1665 0046 1F19     		adds	r7, r3, r4
 1666 0048 17F80C2C 		ldrb	r2, [r7, #-12]	@ zero_extendqisi2
 1667 004c 02EB8202 		add	r2, r2, r2, lsl #2
 1668 0050 5300     		lsls	r3, r2, #1
 1669 0052 0344     		add	r3, r3, r0
 1670 0054 303B     		subs	r3, r3, #48
 1671 0056 07F80C3C 		strb	r3, [r7, #-12]
1180:Generated_Source\PSoC5/ETH0.c **** 				// ip[counter] = ...
 1672              		.loc 1 1180 0
 1673 005a 0131     		adds	r1, r1, #1
 1674              	.LVL211:
 1675              	.L129:
1178:Generated_Source\PSoC5/ETH0.c **** 				ip[counter] = (ip[counter]*10) + (digit[dindex]-'0');
 1676              		.loc 1 1178 0
 1677 005c 04AB     		add	r3, sp, #16
 1678 005e 0B44     		add	r3, r3, r1
 1679 0060 13F8080C 		ldrb	r0, [r3, #-8]	@ zero_extendqisi2
 1680 0064 0028     		cmp	r0, #0
 1681 0066 EDD1     		bne	.L130
 1682              	.LVL212:
1186:Generated_Source\PSoC5/ETH0.c **** 		}
 1683              		.loc 1 1186 0
 1684 0068 0134     		adds	r4, r4, #1
 1685              	.LVL213:
1184:Generated_Source\PSoC5/ETH0.c **** 			/* move to the next address byte */
 1686              		.loc 1 1184 0
 1687 006a 0027     		movs	r7, #0
 1688              	.LVL214:
 1689              	.L128:
1188:Generated_Source\PSoC5/ETH0.c **** 	}
 1690              		.loc 1 1188 0
 1691 006c 0135     		adds	r5, r5, #1
 1692              	.LVL215:
 1693              	.L124:
1166:Generated_Source\PSoC5/ETH0.c **** 		if ( (ipString[index] >= '0' ) && (ipString[index] <= '9') ) {
 1694              		.loc 1 1166 0
 1695 006e 032C     		cmp	r4, #3
 1696 0070 05DC     		bgt	.L131
1166:Generated_Source\PSoC5/ETH0.c **** 		if ( (ipString[index] >= '0' ) && (ipString[index] <= '9') ) {
 1697              		.loc 1 1166 0 is_stmt 0 discriminator 1
 1698 0072 3046     		mov	r0, r6
 1699 0074 FFF7FEFF 		bl	strlen
 1700              	.LVL216:
 1701 0078 2946     		mov	r1, r5
 1702 007a A842     		cmp	r0, r5
 1703 007c C7D8     		bhi	.L132
 1704              	.L131:
1191:Generated_Source\PSoC5/ETH0.c **** 		return( 0xFFFFFFFF );
 1705              		.loc 1 1191 0 is_stmt 1
 1706 007e 042C     		cmp	r4, #4
 1707 0080 11D1     		bne	.L134
1195:Generated_Source\PSoC5/ETH0.c **** 	}
 1708              		.loc 1 1195 0
 1709 0082 9DF80430 		ldrb	r3, [sp, #4]	@ zero_extendqisi2
 1710 0086 9DF80520 		ldrb	r2, [sp, #5]	@ zero_extendqisi2
 1711 008a 03EB0223 		add	r3, r3, r2, lsl #8
ARM GAS  C:\Users\USUARIO\AppData\Local\Temp\cchqzDaB.s 			page 59


 1712 008e 9DF80600 		ldrb	r0, [sp, #6]	@ zero_extendqisi2
 1713 0092 03EB0043 		add	r3, r3, r0, lsl #16
 1714 0096 9DF80700 		ldrb	r0, [sp, #7]	@ zero_extendqisi2
 1715 009a 03EB0060 		add	r0, r3, r0, lsl #24
 1716 009e 04E0     		b	.L126
 1717              	.LVL217:
 1718              	.L133:
1168:Generated_Source\PSoC5/ETH0.c **** 			digit[dindex++] = ipString[index];
 1719              		.loc 1 1168 0
 1720 00a0 4FF0FF30 		mov	r0, #-1
 1721 00a4 01E0     		b	.L126
 1722              	.LVL218:
 1723              	.L134:
1192:Generated_Source\PSoC5/ETH0.c **** 	}
 1724              		.loc 1 1192 0
 1725 00a6 4FF0FF30 		mov	r0, #-1
 1726              	.L126:
1197:Generated_Source\PSoC5/ETH0.c **** /* ------------------------------------------------------------------------ */
 1727              		.loc 1 1197 0
 1728 00aa 05B0     		add	sp, sp, #20
 1729              		.cfi_def_cfa_offset 20
 1730              		@ sp needed
 1731 00ac F0BD     		pop	{r4, r5, r6, r7, pc}
 1732              		.cfi_endproc
 1733              	.LFE76:
 1734              		.size	ETH0_ParseIP, .-ETH0_ParseIP
 1735 00ae 00BF     		.section	.text.ETH0_ParseMAC,"ax",%progbits
 1736              		.align	2
 1737              		.global	ETH0_ParseMAC
 1738              		.thumb
 1739              		.thumb_func
 1740              		.type	ETH0_ParseMAC, %function
 1741              	ETH0_ParseMAC:
 1742              	.LFB77:
1205:Generated_Source\PSoC5/ETH0.c **** 	/* 
 1743              		.loc 1 1205 0
 1744              		.cfi_startproc
 1745              		@ args = 0, pretend = 0, frame = 0
 1746              		@ frame_needed = 0, uses_anonymous_args = 0
 1747              	.LVL219:
 1748 0000 2DE9F041 		push	{r4, r5, r6, r7, r8, lr}
 1749              		.cfi_def_cfa_offset 24
 1750              		.cfi_offset 4, -24
 1751              		.cfi_offset 5, -20
 1752              		.cfi_offset 6, -16
 1753              		.cfi_offset 7, -12
 1754              		.cfi_offset 8, -8
 1755              		.cfi_offset 14, -4
 1756              	.LVL220:
1216:Generated_Source\PSoC5/ETH0.c **** 	index = 0;
 1757              		.loc 1 1216 0
 1758 0004 0026     		movs	r6, #0
1217:Generated_Source\PSoC5/ETH0.c **** 	for(digit = 0;(digit<6) && (result == CYRET_SUCCESS)&&(macString[index] != 0);++digit) {
 1759              		.loc 1 1217 0
 1760 0006 3546     		mov	r5, r6
1218:Generated_Source\PSoC5/ETH0.c **** 		// process the first nibble
 1761              		.loc 1 1218 0
ARM GAS  C:\Users\USUARIO\AppData\Local\Temp\cchqzDaB.s 			page 60


 1762 0008 3446     		mov	r4, r6
 1763 000a 67E0     		b	.L137
 1764              	.LVL221:
 1765              	.L147:
1220:Generated_Source\PSoC5/ETH0.c **** 			mac[digit] = ETH0_HEX2BIN(macString[index]);
 1766              		.loc 1 1220 0
 1767 000c A2F13003 		sub	r3, r2, #48
 1768 0010 DBB2     		uxtb	r3, r3
 1769 0012 092B     		cmp	r3, #9
 1770 0014 09D9     		bls	.L138
1220:Generated_Source\PSoC5/ETH0.c **** 			mac[digit] = ETH0_HEX2BIN(macString[index]);
 1771              		.loc 1 1220 0 is_stmt 0 discriminator 1
 1772 0016 A2F16107 		sub	r7, r2, #97
 1773 001a FFB2     		uxtb	r7, r7
 1774 001c 052F     		cmp	r7, #5
 1775 001e 04D9     		bls	.L138
1220:Generated_Source\PSoC5/ETH0.c **** 			mac[digit] = ETH0_HEX2BIN(macString[index]);
 1776              		.loc 1 1220 0 discriminator 2
 1777 0020 A2F14107 		sub	r7, r2, #65
 1778 0024 FFB2     		uxtb	r7, r7
 1779 0026 052F     		cmp	r7, #5
 1780 0028 51D8     		bhi	.L148
 1781              	.L138:
1221:Generated_Source\PSoC5/ETH0.c **** 			++index;
 1782              		.loc 1 1221 0 is_stmt 1
 1783 002a 0F19     		adds	r7, r1, r4
 1784 002c 092B     		cmp	r3, #9
 1785 002e 12D9     		bls	.L140
1221:Generated_Source\PSoC5/ETH0.c **** 			++index;
 1786              		.loc 1 1221 0 is_stmt 0 discriminator 2
 1787 0030 A2F16103 		sub	r3, r2, #97
 1788 0034 DBB2     		uxtb	r3, r3
 1789 0036 052B     		cmp	r3, #5
 1790 0038 03D8     		bhi	.L141
1221:Generated_Source\PSoC5/ETH0.c **** 			++index;
 1791              		.loc 1 1221 0 discriminator 4
 1792 003a A2F15703 		sub	r3, r2, #87
 1793 003e DBB2     		uxtb	r3, r3
 1794 0040 09E0     		b	.L140
 1795              	.L141:
1221:Generated_Source\PSoC5/ETH0.c **** 			++index;
 1796              		.loc 1 1221 0 discriminator 5
 1797 0042 A2F14103 		sub	r3, r2, #65
 1798 0046 DBB2     		uxtb	r3, r3
 1799 0048 052B     		cmp	r3, #5
 1800 004a 03D8     		bhi	.L150
1221:Generated_Source\PSoC5/ETH0.c **** 			++index;
 1801              		.loc 1 1221 0 discriminator 7
 1802 004c A2F13703 		sub	r3, r2, #55
 1803 0050 DBB2     		uxtb	r3, r3
 1804 0052 00E0     		b	.L140
 1805              	.L150:
1221:Generated_Source\PSoC5/ETH0.c **** 			++index;
 1806              		.loc 1 1221 0
 1807 0054 0023     		movs	r3, #0
 1808              	.L140:
1222:Generated_Source\PSoC5/ETH0.c **** 			mac[digit] <<= 4;
ARM GAS  C:\Users\USUARIO\AppData\Local\Temp\cchqzDaB.s 			page 61


 1809              		.loc 1 1222 0 is_stmt 1 discriminator 12
 1810 0056 05F1010C 		add	ip, r5, #1
 1811              	.LVL222:
1223:Generated_Source\PSoC5/ETH0.c **** 			if (ETH0_ISXDIGIT(macString[index])) {
 1812              		.loc 1 1223 0 discriminator 12
 1813 005a 1B01     		lsls	r3, r3, #4
 1814 005c DBB2     		uxtb	r3, r3
 1815 005e 3B70     		strb	r3, [r7]
1224:Generated_Source\PSoC5/ETH0.c **** 				mac[digit] += ETH0_HEX2BIN(macString[index]);
 1816              		.loc 1 1224 0 discriminator 12
 1817 0060 10F80CE0 		ldrb	lr, [r0, ip]	@ zero_extendqisi2
 1818 0064 AEF13002 		sub	r2, lr, #48
 1819 0068 D2B2     		uxtb	r2, r2
 1820 006a 092A     		cmp	r2, #9
 1821 006c 0DD9     		bls	.L142
1224:Generated_Source\PSoC5/ETH0.c **** 				mac[digit] += ETH0_HEX2BIN(macString[index]);
 1822              		.loc 1 1224 0 is_stmt 0 discriminator 1
 1823 006e AEF16108 		sub	r8, lr, #97
 1824 0072 5FFA88F8 		uxtb	r8, r8
 1825 0076 B8F1050F 		cmp	r8, #5
 1826 007a 06D9     		bls	.L142
1224:Generated_Source\PSoC5/ETH0.c **** 				mac[digit] += ETH0_HEX2BIN(macString[index]);
 1827              		.loc 1 1224 0 discriminator 2
 1828 007c AEF14108 		sub	r8, lr, #65
 1829 0080 5FFA88F8 		uxtb	r8, r8
 1830 0084 B8F1050F 		cmp	r8, #5
 1831 0088 23D8     		bhi	.L151
 1832              	.L142:
1225:Generated_Source\PSoC5/ETH0.c **** 				++index;
 1833              		.loc 1 1225 0 is_stmt 1
 1834 008a 092A     		cmp	r2, #9
 1835 008c 12D9     		bls	.L143
1225:Generated_Source\PSoC5/ETH0.c **** 				++index;
 1836              		.loc 1 1225 0 is_stmt 0 discriminator 2
 1837 008e AEF16102 		sub	r2, lr, #97
 1838 0092 D2B2     		uxtb	r2, r2
 1839 0094 052A     		cmp	r2, #5
 1840 0096 03D8     		bhi	.L144
1225:Generated_Source\PSoC5/ETH0.c **** 				++index;
 1841              		.loc 1 1225 0 discriminator 4
 1842 0098 AEF15702 		sub	r2, lr, #87
 1843 009c D2B2     		uxtb	r2, r2
 1844 009e 09E0     		b	.L143
 1845              	.L144:
1225:Generated_Source\PSoC5/ETH0.c **** 				++index;
 1846              		.loc 1 1225 0 discriminator 5
 1847 00a0 AEF14102 		sub	r2, lr, #65
 1848 00a4 D2B2     		uxtb	r2, r2
 1849 00a6 052A     		cmp	r2, #5
 1850 00a8 03D8     		bhi	.L153
1225:Generated_Source\PSoC5/ETH0.c **** 				++index;
 1851              		.loc 1 1225 0 discriminator 7
 1852 00aa AEF13702 		sub	r2, lr, #55
 1853 00ae D2B2     		uxtb	r2, r2
 1854 00b0 00E0     		b	.L143
 1855              	.L153:
1225:Generated_Source\PSoC5/ETH0.c **** 				++index;
ARM GAS  C:\Users\USUARIO\AppData\Local\Temp\cchqzDaB.s 			page 62


 1856              		.loc 1 1225 0
 1857 00b2 0022     		movs	r2, #0
 1858              	.L143:
1225:Generated_Source\PSoC5/ETH0.c **** 				++index;
 1859              		.loc 1 1225 0 discriminator 12
 1860 00b4 1A44     		add	r2, r2, r3
 1861 00b6 3A70     		strb	r2, [r7]
1226:Generated_Source\PSoC5/ETH0.c **** 				/*
 1862              		.loc 1 1226 0 is_stmt 1 discriminator 12
 1863 00b8 AB1C     		adds	r3, r5, #2
 1864              	.LVL223:
1231:Generated_Source\PSoC5/ETH0.c **** 					if( (macString[index]!='-') && (macString[index]!= ':') ){
 1865              		.loc 1 1231 0 discriminator 12
 1866 00ba 042C     		cmp	r4, #4
 1867 00bc 0CDC     		bgt	.L154
1232:Generated_Source\PSoC5/ETH0.c **** 						result = CYRET_BAD_DATA;
 1868              		.loc 1 1232 0
 1869 00be C35C     		ldrb	r3, [r0, r3]	@ zero_extendqisi2
 1870              	.LVL224:
 1871 00c0 2D2B     		cmp	r3, #45
 1872 00c2 02D0     		beq	.L145
1232:Generated_Source\PSoC5/ETH0.c **** 						result = CYRET_BAD_DATA;
 1873              		.loc 1 1232 0 is_stmt 0 discriminator 1
 1874 00c4 3A2B     		cmp	r3, #58
 1875 00c6 00D0     		beq	.L145
1233:Generated_Source\PSoC5/ETH0.c **** 					}
 1876              		.loc 1 1233 0 is_stmt 1
 1877 00c8 0626     		movs	r6, #6
 1878              	.LVL225:
 1879              	.L145:
1235:Generated_Source\PSoC5/ETH0.c **** 				}
 1880              		.loc 1 1235 0
 1881 00ca 0335     		adds	r5, r5, #3
 1882              	.LVL226:
 1883 00cc 05E0     		b	.L139
 1884              	.L148:
1243:Generated_Source\PSoC5/ETH0.c **** 		}
 1885              		.loc 1 1243 0
 1886 00ce 0626     		movs	r6, #6
 1887              	.LVL227:
 1888 00d0 03E0     		b	.L139
 1889              	.LVL228:
 1890              	.L151:
1222:Generated_Source\PSoC5/ETH0.c **** 			mac[digit] <<= 4;
 1891              		.loc 1 1222 0
 1892 00d2 6546     		mov	r5, ip
1239:Generated_Source\PSoC5/ETH0.c **** 			}
 1893              		.loc 1 1239 0
 1894 00d4 0626     		movs	r6, #6
 1895              	.LVL229:
 1896 00d6 00E0     		b	.L139
 1897              	.LVL230:
 1898              	.L154:
1226:Generated_Source\PSoC5/ETH0.c **** 				/*
 1899              		.loc 1 1226 0
 1900 00d8 1D46     		mov	r5, r3
 1901              	.LVL231:
ARM GAS  C:\Users\USUARIO\AppData\Local\Temp\cchqzDaB.s 			page 63


 1902              	.L139:
1218:Generated_Source\PSoC5/ETH0.c **** 		// process the first nibble
 1903              		.loc 1 1218 0 discriminator 2
 1904 00da 0134     		adds	r4, r4, #1
 1905              	.LVL232:
 1906              	.L137:
1218:Generated_Source\PSoC5/ETH0.c **** 		// process the first nibble
 1907              		.loc 1 1218 0 is_stmt 0 discriminator 1
 1908 00dc 052C     		cmp	r4, #5
 1909 00de 03DC     		bgt	.L146
1218:Generated_Source\PSoC5/ETH0.c **** 		// process the first nibble
 1910              		.loc 1 1218 0 discriminator 3
 1911 00e0 16B9     		cbnz	r6, .L146
1218:Generated_Source\PSoC5/ETH0.c **** 		// process the first nibble
 1912              		.loc 1 1218 0 discriminator 4
 1913 00e2 425D     		ldrb	r2, [r0, r5]	@ zero_extendqisi2
 1914 00e4 002A     		cmp	r2, #0
 1915 00e6 91D1     		bne	.L147
 1916              	.L146:
1247:Generated_Source\PSoC5/ETH0.c **** /* ------------------------------------------------------------------------ */
 1917              		.loc 1 1247 0 is_stmt 1
 1918 00e8 3046     		mov	r0, r6
 1919              	.LVL233:
 1920 00ea BDE8F081 		pop	{r4, r5, r6, r7, r8, pc}
 1921              		.cfi_endproc
 1922              	.LFE77:
 1923              		.size	ETH0_ParseMAC, .-ETH0_ParseMAC
 1924 00ee 00BF     		.section	.text.ETH0_StringMAC,"ax",%progbits
 1925              		.align	2
 1926              		.global	ETH0_StringMAC
 1927              		.thumb
 1928              		.thumb_func
 1929              		.type	ETH0_StringMAC, %function
 1930              	ETH0_StringMAC:
 1931              	.LFB78:
1250:Generated_Source\PSoC5/ETH0.c **** 	uint8 mac[6];
 1932              		.loc 1 1250 0
 1933              		.cfi_startproc
 1934              		@ args = 0, pretend = 0, frame = 8
 1935              		@ frame_needed = 0, uses_anonymous_args = 0
 1936              	.LVL234:
 1937 0000 30B5     		push	{r4, r5, lr}
 1938              		.cfi_def_cfa_offset 12
 1939              		.cfi_offset 4, -12
 1940              		.cfi_offset 5, -8
 1941              		.cfi_offset 14, -4
 1942 0002 83B0     		sub	sp, sp, #12
 1943              		.cfi_def_cfa_offset 24
 1944 0004 0446     		mov	r4, r0
1260:Generated_Source\PSoC5/ETH0.c **** 	index = 0;
 1945              		.loc 1 1260 0
 1946 0006 6846     		mov	r0, sp
 1947              	.LVL235:
 1948 0008 FFF7FEFF 		bl	ETH0_GetSourceMAC
 1949              	.LVL236:
1261:Generated_Source\PSoC5/ETH0.c **** 	for(digit=0;digit<6;++digit) {
 1950              		.loc 1 1261 0
ARM GAS  C:\Users\USUARIO\AppData\Local\Temp\cchqzDaB.s 			page 64


 1951 000c 0021     		movs	r1, #0
1262:Generated_Source\PSoC5/ETH0.c **** 		// convert the first nibble
 1952              		.loc 1 1262 0
 1953 000e 0A46     		mov	r2, r1
 1954 0010 23E0     		b	.L158
 1955              	.LVL237:
 1956              	.L165:
1264:Generated_Source\PSoC5/ETH0.c **** 		macString[index++] = ETH0_BIN2HEX((mac[digit]&0x0F));
 1957              		.loc 1 1264 0
 1958 0012 4D1C     		adds	r5, r1, #1
 1959              	.LVL238:
 1960 0014 6018     		adds	r0, r4, r1
 1961 0016 02AB     		add	r3, sp, #8
 1962 0018 1344     		add	r3, r3, r2
 1963 001a 13F8083C 		ldrb	r3, [r3, #-8]	@ zero_extendqisi2
 1964 001e 1B09     		lsrs	r3, r3, #4
 1965 0020 092B     		cmp	r3, #9
 1966 0022 01DD     		ble	.L159
1264:Generated_Source\PSoC5/ETH0.c **** 		macString[index++] = ETH0_BIN2HEX((mac[digit]&0x0F));
 1967              		.loc 1 1264 0 is_stmt 0 discriminator 1
 1968 0024 3733     		adds	r3, r3, #55
 1969 0026 00E0     		b	.L160
 1970              	.L159:
1264:Generated_Source\PSoC5/ETH0.c **** 		macString[index++] = ETH0_BIN2HEX((mac[digit]&0x0F));
 1971              		.loc 1 1264 0 discriminator 2
 1972 0028 3033     		adds	r3, r3, #48
 1973              	.L160:
1264:Generated_Source\PSoC5/ETH0.c **** 		macString[index++] = ETH0_BIN2HEX((mac[digit]&0x0F));
 1974              		.loc 1 1264 0 discriminator 4
 1975 002a 0370     		strb	r3, [r0]
1265:Generated_Source\PSoC5/ETH0.c **** 		if (digit<5) {
 1976              		.loc 1 1265 0 is_stmt 1 discriminator 4
 1977 002c 881C     		adds	r0, r1, #2
 1978              	.LVL239:
 1979 002e 02AB     		add	r3, sp, #8
 1980 0030 1344     		add	r3, r3, r2
 1981 0032 13F8083C 		ldrb	r3, [r3, #-8]	@ zero_extendqisi2
 1982 0036 03F00F03 		and	r3, r3, #15
 1983 003a 092B     		cmp	r3, #9
 1984 003c 01DD     		ble	.L161
1265:Generated_Source\PSoC5/ETH0.c **** 		if (digit<5) {
 1985              		.loc 1 1265 0 is_stmt 0 discriminator 1
 1986 003e 3733     		adds	r3, r3, #55
 1987 0040 00E0     		b	.L162
 1988              	.L161:
1265:Generated_Source\PSoC5/ETH0.c **** 		if (digit<5) {
 1989              		.loc 1 1265 0 discriminator 2
 1990 0042 3033     		adds	r3, r3, #48
 1991              	.L162:
1265:Generated_Source\PSoC5/ETH0.c **** 		if (digit<5) {
 1992              		.loc 1 1265 0 discriminator 4
 1993 0044 6355     		strb	r3, [r4, r5]
1266:Generated_Source\PSoC5/ETH0.c **** 			macString[index++] = '-';
 1994              		.loc 1 1266 0 is_stmt 1 discriminator 4
 1995 0046 042A     		cmp	r2, #4
 1996 0048 03DC     		bgt	.L163
1267:Generated_Source\PSoC5/ETH0.c **** 		}
ARM GAS  C:\Users\USUARIO\AppData\Local\Temp\cchqzDaB.s 			page 65


 1997              		.loc 1 1267 0
 1998 004a 0331     		adds	r1, r1, #3
 1999              	.LVL240:
 2000 004c 2D23     		movs	r3, #45
 2001 004e 2354     		strb	r3, [r4, r0]
 2002 0050 02E0     		b	.L164
 2003              	.LVL241:
 2004              	.L163:
1270:Generated_Source\PSoC5/ETH0.c **** 		}
 2005              		.loc 1 1270 0
 2006 0052 0023     		movs	r3, #0
 2007 0054 2354     		strb	r3, [r4, r0]
1265:Generated_Source\PSoC5/ETH0.c **** 		if (digit<5) {
 2008              		.loc 1 1265 0
 2009 0056 0146     		mov	r1, r0
 2010              	.LVL242:
 2011              	.L164:
1262:Generated_Source\PSoC5/ETH0.c **** 		// convert the first nibble
 2012              		.loc 1 1262 0 discriminator 2
 2013 0058 0132     		adds	r2, r2, #1
 2014              	.LVL243:
 2015              	.L158:
1262:Generated_Source\PSoC5/ETH0.c **** 		// convert the first nibble
 2016              		.loc 1 1262 0 is_stmt 0 discriminator 1
 2017 005a 052A     		cmp	r2, #5
 2018 005c D9DD     		ble	.L165
1273:Generated_Source\PSoC5/ETH0.c **** /* ------------------------------------------------------------------------ */
 2019              		.loc 1 1273 0 is_stmt 1
 2020 005e 03B0     		add	sp, sp, #12
 2021              		.cfi_def_cfa_offset 12
 2022              		@ sp needed
 2023 0060 30BD     		pop	{r4, r5, pc}
 2024              		.cfi_endproc
 2025              	.LFE78:
 2026              		.size	ETH0_StringMAC, .-ETH0_StringMAC
 2027 0062 00BF     		.section	.text.ETH0_StringIP,"ax",%progbits
 2028              		.align	2
 2029              		.global	ETH0_StringIP
 2030              		.thumb
 2031              		.thumb_func
 2032              		.type	ETH0_StringIP, %function
 2033              	ETH0_StringIP:
 2034              	.LFB79:
1276:Generated_Source\PSoC5/ETH0.c **** 	uint32 ip;
 2035              		.loc 1 1276 0
 2036              		.cfi_startproc
 2037              		@ args = 0, pretend = 0, frame = 8
 2038              		@ frame_needed = 0, uses_anonymous_args = 0
 2039              	.LVL244:
 2040 0000 30B5     		push	{r4, r5, lr}
 2041              		.cfi_def_cfa_offset 12
 2042              		.cfi_offset 4, -12
 2043              		.cfi_offset 5, -8
 2044              		.cfi_offset 14, -4
 2045 0002 83B0     		sub	sp, sp, #12
 2046              		.cfi_def_cfa_offset 24
 2047 0004 0446     		mov	r4, r0
ARM GAS  C:\Users\USUARIO\AppData\Local\Temp\cchqzDaB.s 			page 66


1283:Generated_Source\PSoC5/ETH0.c **** 	ipBytes = (uint8*)&ip;
 2048              		.loc 1 1283 0
 2049 0006 FFF7FEFF 		bl	ETH0_GetSourceIP
 2050              	.LVL245:
 2051 000a 0190     		str	r0, [sp, #4]
 2052              	.LVL246:
1286:Generated_Source\PSoC5/ETH0.c **** 		work = ipBytes[digit];
 2053              		.loc 1 1286 0
 2054 000c 0021     		movs	r1, #0
1285:Generated_Source\PSoC5/ETH0.c **** 	for(digit=0;digit<4;++digit) {
 2055              		.loc 1 1285 0
 2056 000e 0A46     		mov	r2, r1
1286:Generated_Source\PSoC5/ETH0.c **** 		work = ipBytes[digit];
 2057              		.loc 1 1286 0
 2058 0010 2CE0     		b	.L168
 2059              	.LVL247:
 2060              	.L173:
1287:Generated_Source\PSoC5/ETH0.c **** 		if (work >= 100) {
 2061              		.loc 1 1287 0
 2062 0012 02AB     		add	r3, sp, #8
 2063 0014 0B44     		add	r3, r3, r1
 2064 0016 13F8043C 		ldrb	r3, [r3, #-4]	@ zero_extendqisi2
 2065              	.LVL248:
1288:Generated_Source\PSoC5/ETH0.c **** 			temp = work/100;
 2066              		.loc 1 1288 0
 2067 001a 632B     		cmp	r3, #99
 2068 001c 0ADD     		ble	.L169
1289:Generated_Source\PSoC5/ETH0.c **** 			work -= (temp*100);
 2069              		.loc 1 1289 0
 2070 001e 1548     		ldr	r0, .L175
 2071 0020 80FB0350 		smull	r5, r0, r0, r3
 2072 0024 4011     		asrs	r0, r0, #5
 2073              	.LVL249:
1290:Generated_Source\PSoC5/ETH0.c **** 			ipString[index++] = '0' + temp;
 2074              		.loc 1 1290 0
 2075 0026 6FF06305 		mvn	r5, #99
 2076 002a 05FB0033 		mla	r3, r5, r0, r3
 2077              	.LVL250:
1291:Generated_Source\PSoC5/ETH0.c **** 		}
 2078              		.loc 1 1291 0
 2079 002e 3030     		adds	r0, r0, #48
 2080              	.LVL251:
 2081 0030 A054     		strb	r0, [r4, r2]
 2082 0032 0132     		adds	r2, r2, #1
 2083              	.LVL252:
 2084              	.L169:
1293:Generated_Source\PSoC5/ETH0.c **** 			temp = work /10;
 2085              		.loc 1 1293 0
 2086 0034 092B     		cmp	r3, #9
 2087 0036 0CDD     		ble	.L170
1294:Generated_Source\PSoC5/ETH0.c **** 			work -= (temp*10);
 2088              		.loc 1 1294 0
 2089 0038 0F48     		ldr	r0, .L175+4
 2090 003a 80FB0305 		smull	r0, r5, r0, r3
 2091 003e D817     		asrs	r0, r3, #31
 2092 0040 C0EBA500 		rsb	r0, r0, r5, asr #2
 2093              	.LVL253:
ARM GAS  C:\Users\USUARIO\AppData\Local\Temp\cchqzDaB.s 			page 67


1295:Generated_Source\PSoC5/ETH0.c **** 			ipString[index++] = '0'+temp;
 2094              		.loc 1 1295 0
 2095 0044 6FF00905 		mvn	r5, #9
 2096 0048 05FB0033 		mla	r3, r5, r0, r3
 2097              	.LVL254:
1296:Generated_Source\PSoC5/ETH0.c **** 		}
 2098              		.loc 1 1296 0
 2099 004c 3030     		adds	r0, r0, #48
 2100              	.LVL255:
 2101 004e A054     		strb	r0, [r4, r2]
 2102 0050 0132     		adds	r2, r2, #1
 2103              	.LVL256:
 2104              	.L170:
1298:Generated_Source\PSoC5/ETH0.c **** 		if (digit <3) {
 2105              		.loc 1 1298 0
 2106 0052 501C     		adds	r0, r2, #1
 2107              	.LVL257:
 2108 0054 3033     		adds	r3, r3, #48
 2109              	.LVL258:
 2110 0056 A354     		strb	r3, [r4, r2]
1299:Generated_Source\PSoC5/ETH0.c **** 			ipString[index++] = '.';
 2111              		.loc 1 1299 0
 2112 0058 0229     		cmp	r1, #2
 2113 005a 03DC     		bgt	.L171
1300:Generated_Source\PSoC5/ETH0.c **** 		}
 2114              		.loc 1 1300 0
 2115 005c 0232     		adds	r2, r2, #2
 2116              	.LVL259:
 2117 005e 2E23     		movs	r3, #46
 2118              	.LVL260:
 2119 0060 2354     		strb	r3, [r4, r0]
 2120 0062 02E0     		b	.L172
 2121              	.LVL261:
 2122              	.L171:
1303:Generated_Source\PSoC5/ETH0.c **** 		}
 2123              		.loc 1 1303 0
 2124 0064 0023     		movs	r3, #0
 2125              	.LVL262:
 2126 0066 2354     		strb	r3, [r4, r0]
1298:Generated_Source\PSoC5/ETH0.c **** 		if (digit <3) {
 2127              		.loc 1 1298 0
 2128 0068 0246     		mov	r2, r0
 2129              	.LVL263:
 2130              	.L172:
1286:Generated_Source\PSoC5/ETH0.c **** 		work = ipBytes[digit];
 2131              		.loc 1 1286 0 discriminator 2
 2132 006a 0131     		adds	r1, r1, #1
 2133              	.LVL264:
 2134              	.L168:
1286:Generated_Source\PSoC5/ETH0.c **** 		work = ipBytes[digit];
 2135              		.loc 1 1286 0 is_stmt 0 discriminator 1
 2136 006c 0329     		cmp	r1, #3
 2137 006e D0DD     		ble	.L173
1306:Generated_Source\PSoC5/ETH0.c **** 
 2138              		.loc 1 1306 0 is_stmt 1
 2139 0070 03B0     		add	sp, sp, #12
 2140              		.cfi_def_cfa_offset 12
ARM GAS  C:\Users\USUARIO\AppData\Local\Temp\cchqzDaB.s 			page 68


 2141              		@ sp needed
 2142 0072 30BD     		pop	{r4, r5, pc}
 2143              	.LVL265:
 2144              	.L176:
 2145              		.align	2
 2146              	.L175:
 2147 0074 1F85EB51 		.word	1374389535
 2148 0078 67666666 		.word	1717986919
 2149              		.cfi_endproc
 2150              	.LFE79:
 2151              		.size	ETH0_StringIP, .-ETH0_StringIP
 2152              		.section	.text.ETH0_SetIP,"ax",%progbits
 2153              		.align	2
 2154              		.global	ETH0_SetIP
 2155              		.thumb
 2156              		.thumb_func
 2157              		.type	ETH0_SetIP, %function
 2158              	ETH0_SetIP:
 2159              	.LFB80:
1311:Generated_Source\PSoC5/ETH0.c **** 	uint8 ok = 0;
 2160              		.loc 1 1311 0
 2161              		.cfi_startproc
 2162              		@ args = 0, pretend = 0, frame = 0
 2163              		@ frame_needed = 0, uses_anonymous_args = 0
 2164              	.LVL266:
 2165 0000 08B5     		push	{r3, lr}
 2166              		.cfi_def_cfa_offset 8
 2167              		.cfi_offset 3, -8
 2168              		.cfi_offset 14, -4
 2169              	.LVL267:
1314:Generated_Source\PSoC5/ETH0.c **** 		ETH0_SetSourceIP( ip );
 2170              		.loc 1 1314 0
 2171 0002 431E     		subs	r3, r0, #1
 2172 0004 13F1030F 		cmn	r3, #3
 2173 0008 03D8     		bhi	.L179
1315:Generated_Source\PSoC5/ETH0.c **** 		ok = 0xFF;
 2174              		.loc 1 1315 0
 2175 000a FFF7FEFF 		bl	ETH0_SetSourceIP
 2176              	.LVL268:
1316:Generated_Source\PSoC5/ETH0.c **** 	}
 2177              		.loc 1 1316 0
 2178 000e FF20     		movs	r0, #255
 2179 0010 08BD     		pop	{r3, pc}
 2180              	.LVL269:
 2181              	.L179:
1312:Generated_Source\PSoC5/ETH0.c **** 	
 2182              		.loc 1 1312 0
 2183 0012 0020     		movs	r0, #0
 2184              	.LVL270:
1320:Generated_Source\PSoC5/ETH0.c **** /* ------------------------------------------------------------------------ */
 2185              		.loc 1 1320 0
 2186 0014 08BD     		pop	{r3, pc}
 2187              		.cfi_endproc
 2188              	.LFE80:
 2189              		.size	ETH0_SetIP, .-ETH0_SetIP
 2190 0016 00BF     		.section	.text.ETH0_GetIP,"ax",%progbits
 2191              		.align	2
ARM GAS  C:\Users\USUARIO\AppData\Local\Temp\cchqzDaB.s 			page 69


 2192              		.global	ETH0_GetIP
 2193              		.thumb
 2194              		.thumb_func
 2195              		.type	ETH0_GetIP, %function
 2196              	ETH0_GetIP:
 2197              	.LFB81:
1324:Generated_Source\PSoC5/ETH0.c **** 	return ETH0_GetSourceIP();
 2198              		.loc 1 1324 0
 2199              		.cfi_startproc
 2200              		@ args = 0, pretend = 0, frame = 0
 2201              		@ frame_needed = 0, uses_anonymous_args = 0
 2202 0000 08B5     		push	{r3, lr}
 2203              		.cfi_def_cfa_offset 8
 2204              		.cfi_offset 3, -8
 2205              		.cfi_offset 14, -4
1325:Generated_Source\PSoC5/ETH0.c **** }
 2206              		.loc 1 1325 0
 2207 0002 FFF7FEFF 		bl	ETH0_GetSourceIP
 2208              	.LVL271:
1326:Generated_Source\PSoC5/ETH0.c **** /* ------------------------------------------------------------------------ */
 2209              		.loc 1 1326 0
 2210 0006 08BD     		pop	{r3, pc}
 2211              		.cfi_endproc
 2212              	.LFE81:
 2213              		.size	ETH0_GetIP, .-ETH0_GetIP
 2214              		.section	.text.ETH0_SetMAC,"ax",%progbits
 2215              		.align	2
 2216              		.global	ETH0_SetMAC
 2217              		.thumb
 2218              		.thumb_func
 2219              		.type	ETH0_SetMAC, %function
 2220              	ETH0_SetMAC:
 2221              	.LFB82:
1330:Generated_Source\PSoC5/ETH0.c **** 	ETH0_SetSourceMAC( mac );
 2222              		.loc 1 1330 0
 2223              		.cfi_startproc
 2224              		@ args = 0, pretend = 0, frame = 0
 2225              		@ frame_needed = 0, uses_anonymous_args = 0
 2226              	.LVL272:
 2227 0000 08B5     		push	{r3, lr}
 2228              		.cfi_def_cfa_offset 8
 2229              		.cfi_offset 3, -8
 2230              		.cfi_offset 14, -4
1331:Generated_Source\PSoC5/ETH0.c **** }
 2231              		.loc 1 1331 0
 2232 0002 FFF7FEFF 		bl	ETH0_SetSourceMAC
 2233              	.LVL273:
 2234 0006 08BD     		pop	{r3, pc}
 2235              		.cfi_endproc
 2236              	.LFE82:
 2237              		.size	ETH0_SetMAC, .-ETH0_SetMAC
 2238              		.section	.text.ETH0_GetMAC,"ax",%progbits
 2239              		.align	2
 2240              		.global	ETH0_GetMAC
 2241              		.thumb
 2242              		.thumb_func
 2243              		.type	ETH0_GetMAC, %function
ARM GAS  C:\Users\USUARIO\AppData\Local\Temp\cchqzDaB.s 			page 70


 2244              	ETH0_GetMAC:
 2245              	.LFB83:
1336:Generated_Source\PSoC5/ETH0.c **** 	ETH0_GetSourceMAC( mac );
 2246              		.loc 1 1336 0
 2247              		.cfi_startproc
 2248              		@ args = 0, pretend = 0, frame = 0
 2249              		@ frame_needed = 0, uses_anonymous_args = 0
 2250              	.LVL274:
 2251 0000 08B5     		push	{r3, lr}
 2252              		.cfi_def_cfa_offset 8
 2253              		.cfi_offset 3, -8
 2254              		.cfi_offset 14, -4
1337:Generated_Source\PSoC5/ETH0.c **** }
 2255              		.loc 1 1337 0
 2256 0002 FFF7FEFF 		bl	ETH0_GetSourceMAC
 2257              	.LVL275:
 2258 0006 08BD     		pop	{r3, pc}
 2259              		.cfi_endproc
 2260              	.LFE83:
 2261              		.size	ETH0_GetMAC, .-ETH0_GetMAC
 2262              		.section	.text.ETH0_SocketOpen,"ax",%progbits
 2263              		.align	2
 2264              		.global	ETH0_SocketOpen
 2265              		.thumb
 2266              		.thumb_func
 2267              		.type	ETH0_SocketOpen, %function
 2268              	ETH0_SocketOpen:
 2269              	.LFB84:
1346:Generated_Source\PSoC5/ETH0.c **** 	uint8 socket;
 2270              		.loc 1 1346 0
 2271              		.cfi_startproc
 2272              		@ args = 0, pretend = 0, frame = 0
 2273              		@ frame_needed = 0, uses_anonymous_args = 0
 2274              	.LVL276:
 2275 0000 F8B5     		push	{r3, r4, r5, r6, r7, lr}
 2276              		.cfi_def_cfa_offset 24
 2277              		.cfi_offset 3, -24
 2278              		.cfi_offset 4, -20
 2279              		.cfi_offset 5, -16
 2280              		.cfi_offset 6, -12
 2281              		.cfi_offset 7, -8
 2282              		.cfi_offset 14, -4
 2283              	.LVL277:
1358:Generated_Source\PSoC5/ETH0.c **** 		if ( (socket == 0xFF) && (ETH0_SocketConfig[index].Protocol == 0) ) {
 2284              		.loc 1 1358 0
 2285 0002 0023     		movs	r3, #0
1356:Generated_Source\PSoC5/ETH0.c **** 	/* find the first available socket to open, and how much memory is available */
 2286              		.loc 1 1356 0
 2287 0004 FF24     		movs	r4, #255
1358:Generated_Source\PSoC5/ETH0.c **** 		if ( (socket == 0xFF) && (ETH0_SocketConfig[index].Protocol == 0) ) {
 2288              		.loc 1 1358 0
 2289 0006 0DE0     		b	.L188
 2290              	.LVL278:
 2291              	.L191:
1359:Generated_Source\PSoC5/ETH0.c **** 			/*
 2292              		.loc 1 1359 0
 2293 0008 FF2C     		cmp	r4, #255
ARM GAS  C:\Users\USUARIO\AppData\Local\Temp\cchqzDaB.s 			page 71


 2294 000a 0AD1     		bne	.L189
1359:Generated_Source\PSoC5/ETH0.c **** 			/*
 2295              		.loc 1 1359 0 is_stmt 0 discriminator 1
 2296 000c 03EB4307 		add	r7, r3, r3, lsl #1
 2297 0010 7D00     		lsls	r5, r7, #1
 2298 0012 144F     		ldr	r7, .L194
 2299 0014 3D44     		add	r5, r5, r7
 2300 0016 2F79     		ldrb	r7, [r5, #4]	@ zero_extendqisi2
 2301 0018 1FB9     		cbnz	r7, .L189
1365:Generated_Source\PSoC5/ETH0.c **** 				/* store this socket number for allocation */
 2302              		.loc 1 1365 0 is_stmt 1
 2303 001a 0428     		cmp	r0, #4
 2304 001c 00D1     		bne	.L190
1365:Generated_Source\PSoC5/ETH0.c **** 				/* store this socket number for allocation */
 2305              		.loc 1 1365 0 is_stmt 0 discriminator 1
 2306 001e 03B1     		cbz	r3, .L189
 2307              	.L190:
1367:Generated_Source\PSoC5/ETH0.c **** 			}
 2308              		.loc 1 1367 0 is_stmt 1
 2309 0020 DCB2     		uxtb	r4, r3
 2310              	.LVL279:
 2311              	.L189:
1358:Generated_Source\PSoC5/ETH0.c **** 		if ( (socket == 0xFF) && (ETH0_SocketConfig[index].Protocol == 0) ) {
 2312              		.loc 1 1358 0 discriminator 2
 2313 0022 0133     		adds	r3, r3, #1
 2314              	.LVL280:
 2315              	.L188:
1358:Generated_Source\PSoC5/ETH0.c **** 		if ( (socket == 0xFF) && (ETH0_SocketConfig[index].Protocol == 0) ) {
 2316              		.loc 1 1358 0 is_stmt 0 discriminator 1
 2317 0024 032B     		cmp	r3, #3
 2318 0026 EFDD     		ble	.L191
1371:Generated_Source\PSoC5/ETH0.c **** 		/* Store the socket information in the allocation table */
 2319              		.loc 1 1371 0 is_stmt 1
 2320 0028 FF2C     		cmp	r4, #255
 2321 002a 19D0     		beq	.L192
 2322 002c 1646     		mov	r6, r2
 2323 002e 0546     		mov	r5, r0
1373:Generated_Source\PSoC5/ETH0.c **** 		ETH0_SocketConfig[socket].SocketFlags = flags;
 2324              		.loc 1 1373 0
 2325 0030 0C4F     		ldr	r7, .L194
 2326 0032 6000     		lsls	r0, r4, #1
 2327              	.LVL281:
 2328 0034 0219     		adds	r2, r0, r4
 2329              	.LVL282:
 2330 0036 5300     		lsls	r3, r2, #1
 2331              	.LVL283:
 2332 0038 1A46     		mov	r2, r3
 2333 003a 3B44     		add	r3, r3, r7
 2334 003c 1D71     		strb	r5, [r3, #4]
1374:Generated_Source\PSoC5/ETH0.c **** 		ETH0_SocketConfig[socket].SourcePort = port;
 2335              		.loc 1 1374 0
 2336 003e 5E71     		strb	r6, [r3, #5]
1375:Generated_Source\PSoC5/ETH0.c **** 		ETH0_SocketConfig[socket].ServerFlag = 0;
 2337              		.loc 1 1375 0
 2338 0040 D980     		strh	r1, [r3, #6]	@ movhi
1376:Generated_Source\PSoC5/ETH0.c **** 		/* Send the socket open with the correct protocol information */
 2339              		.loc 1 1376 0
ARM GAS  C:\Users\USUARIO\AppData\Local\Temp\cchqzDaB.s 			page 72


 2340 0042 3A44     		add	r2, r2, r7
 2341 0044 0023     		movs	r3, #0
 2342 0046 1372     		strb	r3, [r2, #8]
1378:Generated_Source\PSoC5/ETH0.c **** 		ETH0_SetSocketMode( socket, Protocol | flags );
 2343              		.loc 1 1378 0
 2344 0048 2046     		mov	r0, r4
 2345 004a FFF7FEFF 		bl	ETH0_SetSocketSourcePort
 2346              	.LVL284:
1379:Generated_Source\PSoC5/ETH0.c **** 		ETH0_ExecuteSocketCommand( socket, 1 );
 2347              		.loc 1 1379 0
 2348 004e 45EA0601 		orr	r1, r5, r6
 2349 0052 2046     		mov	r0, r4
 2350 0054 FFF7FEFF 		bl	ETH0_SetSocketMode
 2351              	.LVL285:
1380:Generated_Source\PSoC5/ETH0.c **** 	}
 2352              		.loc 1 1380 0
 2353 0058 0121     		movs	r1, #1
 2354 005a 2046     		mov	r0, r4
 2355 005c FFF7FEFF 		bl	ETH0_ExecuteSocketCommand
 2356              	.LVL286:
 2357              	.L192:
1383:Generated_Source\PSoC5/ETH0.c **** /* ------------------------------------------------------------------------ */
 2358              		.loc 1 1383 0
 2359 0060 2046     		mov	r0, r4
 2360 0062 F8BD     		pop	{r3, r4, r5, r6, r7, pc}
 2361              	.LVL287:
 2362              	.L195:
 2363              		.align	2
 2364              	.L194:
 2365 0064 00000000 		.word	.LANCHOR1
 2366              		.cfi_endproc
 2367              	.LFE84:
 2368              		.size	ETH0_SocketOpen, .-ETH0_SocketOpen
 2369              		.section	.text.ETH0_SocketClose,"ax",%progbits
 2370              		.align	2
 2371              		.global	ETH0_SocketClose
 2372              		.thumb
 2373              		.thumb_func
 2374              		.type	ETH0_SocketClose, %function
 2375              	ETH0_SocketClose:
 2376              	.LFB85:
1387:Generated_Source\PSoC5/ETH0.c **** 	/*
 2377              		.loc 1 1387 0
 2378              		.cfi_startproc
 2379              		@ args = 0, pretend = 0, frame = 0
 2380              		@ frame_needed = 0, uses_anonymous_args = 0
 2381              	.LVL288:
1392:Generated_Source\PSoC5/ETH0.c **** 		/* clear the socket memory allocations */
 2382              		.loc 1 1392 0
 2383 0000 0328     		cmp	r0, #3
 2384 0002 12D8     		bhi	.L199
1387:Generated_Source\PSoC5/ETH0.c **** 	/*
 2385              		.loc 1 1387 0
 2386 0004 38B5     		push	{r3, r4, r5, lr}
 2387              		.cfi_def_cfa_offset 16
 2388              		.cfi_offset 3, -16
 2389              		.cfi_offset 4, -12
ARM GAS  C:\Users\USUARIO\AppData\Local\Temp\cchqzDaB.s 			page 73


 2390              		.cfi_offset 5, -8
 2391              		.cfi_offset 14, -4
 2392 0006 0446     		mov	r4, r0
1394:Generated_Source\PSoC5/ETH0.c **** 		ETH0_SocketConfig[socket].SocketFlags = 0;
 2393              		.loc 1 1394 0
 2394 0008 084D     		ldr	r5, .L200
 2395 000a 4300     		lsls	r3, r0, #1
 2396 000c 1A18     		adds	r2, r3, r0
 2397 000e 5100     		lsls	r1, r2, #1
 2398 0010 2944     		add	r1, r1, r5
 2399 0012 0020     		movs	r0, #0
 2400              	.LVL289:
 2401 0014 0871     		strb	r0, [r1, #4]
1395:Generated_Source\PSoC5/ETH0.c **** 		/* close the socket */
 2402              		.loc 1 1395 0
 2403 0016 4871     		strb	r0, [r1, #5]
1397:Generated_Source\PSoC5/ETH0.c **** 		/* Clear pending Interrupts */
 2404              		.loc 1 1397 0
 2405 0018 1021     		movs	r1, #16
 2406 001a 2046     		mov	r0, r4
 2407 001c FFF7FEFF 		bl	ETH0_ExecuteSocketCommand
 2408              	.LVL290:
1399:Generated_Source\PSoC5/ETH0.c **** 	}
 2409              		.loc 1 1399 0
 2410 0020 FF21     		movs	r1, #255
 2411 0022 2046     		mov	r0, r4
 2412 0024 FFF7FEFF 		bl	ETH0_SetSocketIR
 2413              	.LVL291:
 2414 0028 38BD     		pop	{r3, r4, r5, pc}
 2415              	.LVL292:
 2416              	.L199:
 2417              		.cfi_def_cfa_offset 0
 2418              		.cfi_restore 3
 2419              		.cfi_restore 4
 2420              		.cfi_restore 5
 2421              		.cfi_restore 14
 2422 002a 7047     		bx	lr
 2423              	.L201:
 2424              		.align	2
 2425              	.L200:
 2426 002c 00000000 		.word	.LANCHOR1
 2427              		.cfi_endproc
 2428              	.LFE85:
 2429              		.size	ETH0_SocketClose, .-ETH0_SocketClose
 2430              		.section	.text.ETH0_Init,"ax",%progbits
 2431              		.align	2
 2432              		.global	ETH0_Init
 2433              		.thumb
 2434              		.thumb_func
 2435              		.type	ETH0_Init, %function
 2436              	ETH0_Init:
 2437              	.LFB74:
1078:Generated_Source\PSoC5/ETH0.c **** 	/*
 2438              		.loc 1 1078 0
 2439              		.cfi_startproc
 2440              		@ args = 0, pretend = 0, frame = 0
 2441              		@ frame_needed = 0, uses_anonymous_args = 0
ARM GAS  C:\Users\USUARIO\AppData\Local\Temp\cchqzDaB.s 			page 74


 2442              	.LVL293:
 2443 0000 2DE9F041 		push	{r4, r5, r6, r7, r8, lr}
 2444              		.cfi_def_cfa_offset 24
 2445              		.cfi_offset 4, -24
 2446              		.cfi_offset 5, -20
 2447              		.cfi_offset 6, -16
 2448              		.cfi_offset 7, -12
 2449              		.cfi_offset 8, -8
 2450              		.cfi_offset 14, -4
 2451 0004 0746     		mov	r7, r0
 2452 0006 0E46     		mov	r6, r1
 2453 0008 1546     		mov	r5, r2
 2454 000a 9846     		mov	r8, r3
1086:Generated_Source\PSoC5/ETH0.c **** 	
 2455              		.loc 1 1086 0
 2456 000c FA20     		movs	r0, #250
 2457              	.LVL294:
 2458 000e FFF7FEFF 		bl	CyDelay
 2459              	.LVL295:
1089:Generated_Source\PSoC5/ETH0.c **** 	/* Wait for the chip initialization delay */
 2460              		.loc 1 1089 0
 2461 0012 8020     		movs	r0, #128
 2462 0014 FFF7FEFF 		bl	ETH0_SetMode
 2463              	.LVL296:
1091:Generated_Source\PSoC5/ETH0.c **** 	
 2464              		.loc 1 1091 0
 2465 0018 0A20     		movs	r0, #10
 2466 001a FFF7FEFF 		bl	CyDelay
 2467              	.LVL297:
1094:Generated_Source\PSoC5/ETH0.c **** 		ETH0_SocketClose( index );
 2468              		.loc 1 1094 0
 2469 001e 0024     		movs	r4, #0
 2470 0020 03E0     		b	.L203
 2471              	.LVL298:
 2472              	.L204:
1095:Generated_Source\PSoC5/ETH0.c **** 	}
 2473              		.loc 1 1095 0 discriminator 3
 2474 0022 E0B2     		uxtb	r0, r4
 2475 0024 FFF7FEFF 		bl	ETH0_SocketClose
 2476              	.LVL299:
1094:Generated_Source\PSoC5/ETH0.c **** 		ETH0_SocketClose( index );
 2477              		.loc 1 1094 0 discriminator 3
 2478 0028 0134     		adds	r4, r4, #1
 2479              	.LVL300:
 2480              	.L203:
1094:Generated_Source\PSoC5/ETH0.c **** 		ETH0_SocketClose( index );
 2481              		.loc 1 1094 0 is_stmt 0 discriminator 1
 2482 002a 032C     		cmp	r4, #3
 2483 002c F9DD     		ble	.L204
1098:Generated_Source\PSoC5/ETH0.c **** 	ETH0_SetRxMemSize(0x55); /* 2K Each */
 2484              		.loc 1 1098 0 is_stmt 1
 2485 002e 5520     		movs	r0, #85
 2486 0030 FFF7FEFF 		bl	ETH0_SetTxMemSize
 2487              	.LVL301:
1099:Generated_Source\PSoC5/ETH0.c **** 	/* Set device gateway address */
 2488              		.loc 1 1099 0
 2489 0034 5520     		movs	r0, #85
ARM GAS  C:\Users\USUARIO\AppData\Local\Temp\cchqzDaB.s 			page 75


 2490 0036 FFF7FEFF 		bl	ETH0_SetRxMemSize
 2491              	.LVL302:
1101:Generated_Source\PSoC5/ETH0.c **** 	ETH0_SetSubnetMask( subnet );
 2492              		.loc 1 1101 0
 2493 003a 4046     		mov	r0, r8
 2494 003c FFF7FEFF 		bl	ETH0_SetGatewayAddress
 2495              	.LVL303:
1102:Generated_Source\PSoC5/ETH0.c **** 	/* Store the subnet mask for later use, for ERRATA fix */
 2496              		.loc 1 1102 0
 2497 0040 2846     		mov	r0, r5
 2498 0042 FFF7FEFF 		bl	ETH0_SetSubnetMask
 2499              	.LVL304:
1104:Generated_Source\PSoC5/ETH0.c **** 	/* store the device mac */
 2500              		.loc 1 1104 0
 2501 0046 084B     		ldr	r3, .L206
 2502 0048 1D60     		str	r5, [r3]
1106:Generated_Source\PSoC5/ETH0.c **** 	/* store the IP address */
 2503              		.loc 1 1106 0
 2504 004a 3846     		mov	r0, r7
 2505 004c FFF7FEFF 		bl	ETH0_SetSourceMAC
 2506              	.LVL305:
1108:Generated_Source\PSoC5/ETH0.c **** 	/* clear pending interrupts */
 2507              		.loc 1 1108 0
 2508 0050 3046     		mov	r0, r6
 2509 0052 FFF7FEFF 		bl	ETH0_SetSourceIP
 2510              	.LVL306:
1110:Generated_Source\PSoC5/ETH0.c **** 	/* clear the subnet mask register (W5100 Errata Fix) */
 2511              		.loc 1 1110 0
 2512 0056 FF20     		movs	r0, #255
 2513 0058 FFF7FEFF 		bl	ETH0_SetIR
 2514              	.LVL307:
1112:Generated_Source\PSoC5/ETH0.c **** }
 2515              		.loc 1 1112 0
 2516 005c 0020     		movs	r0, #0
 2517 005e FFF7FEFF 		bl	ETH0_SetSubnetMask
 2518              	.LVL308:
 2519 0062 BDE8F081 		pop	{r4, r5, r6, r7, r8, pc}
 2520              	.LVL309:
 2521              	.L207:
 2522 0066 00BF     		.align	2
 2523              	.L206:
 2524 0068 00000000 		.word	.LANCHOR1
 2525              		.cfi_endproc
 2526              	.LFE74:
 2527              		.size	ETH0_Init, .-ETH0_Init
 2528              		.section	.text.ETH0_Start,"ax",%progbits
 2529              		.align	2
 2530              		.global	ETH0_Start
 2531              		.thumb
 2532              		.thumb_func
 2533              		.type	ETH0_Start, %function
 2534              	ETH0_Start:
 2535              	.LFB75:
1117:Generated_Source\PSoC5/ETH0.c **** 	uint32 ip;
 2536              		.loc 1 1117 0
 2537              		.cfi_startproc
 2538              		@ args = 0, pretend = 0, frame = 0
ARM GAS  C:\Users\USUARIO\AppData\Local\Temp\cchqzDaB.s 			page 76


 2539              		@ frame_needed = 0, uses_anonymous_args = 0
 2540 0000 38B5     		push	{r3, r4, r5, lr}
 2541              		.cfi_def_cfa_offset 16
 2542              		.cfi_offset 3, -16
 2543              		.cfi_offset 4, -12
 2544              		.cfi_offset 5, -8
 2545              		.cfi_offset 14, -4
1123:Generated_Source\PSoC5/ETH0.c **** 		/*
 2546              		.loc 1 1123 0
 2547 0002 164B     		ldr	r3, .L212
 2548 0004 1B78     		ldrb	r3, [r3]	@ zero_extendqisi2
 2549 0006 0BB9     		cbnz	r3, .L209
1128:Generated_Source\PSoC5/ETH0.c **** 	}
 2550              		.loc 1 1128 0
 2551 0008 FFF7FEFF 		bl	SPI0_Start
 2552              	.LVL310:
 2553              	.L209:
1132:Generated_Source\PSoC5/ETH0.c **** 	/* V1.2 new -- Parse MAC Address string */
 2554              		.loc 1 1132 0
 2555 000c 0A20     		movs	r0, #10
 2556 000e FFF7FEFF 		bl	CyDelay
 2557              	.LVL311:
1134:Generated_Source\PSoC5/ETH0.c **** 		ETH0_MAC[0] = 0;
 2558              		.loc 1 1134 0
 2559 0012 1349     		ldr	r1, .L212+4
 2560 0014 1348     		ldr	r0, .L212+8
 2561 0016 FFF7FEFF 		bl	ETH0_ParseMAC
 2562              	.LVL312:
 2563 001a 0628     		cmp	r0, #6
 2564 001c 0CD1     		bne	.L210
1135:Generated_Source\PSoC5/ETH0.c **** 		ETH0_MAC[1] = 0xDE;
 2565              		.loc 1 1135 0
 2566 001e 124B     		ldr	r3, .L212+12
 2567 0020 0022     		movs	r2, #0
 2568 0022 1A77     		strb	r2, [r3, #28]
1136:Generated_Source\PSoC5/ETH0.c **** 		ETH0_MAC[2] = 0xAD;
 2569              		.loc 1 1136 0
 2570 0024 DE21     		movs	r1, #222
 2571 0026 5977     		strb	r1, [r3, #29]
1137:Generated_Source\PSoC5/ETH0.c **** 		ETH0_MAC[3] = 0xC0;
 2572              		.loc 1 1137 0
 2573 0028 AD20     		movs	r0, #173
 2574 002a 9877     		strb	r0, [r3, #30]
1138:Generated_Source\PSoC5/ETH0.c **** 		ETH0_MAC[4] = 0xDE;
 2575              		.loc 1 1138 0
 2576 002c C020     		movs	r0, #192
 2577 002e D877     		strb	r0, [r3, #31]
1139:Generated_Source\PSoC5/ETH0.c **** 		ETH0_MAC[5] = 0;
 2578              		.loc 1 1139 0
 2579 0030 83F82010 		strb	r1, [r3, #32]
1140:Generated_Source\PSoC5/ETH0.c **** 	}
 2580              		.loc 1 1140 0
 2581 0034 83F82120 		strb	r2, [r3, #33]
 2582              	.L210:
1143:Generated_Source\PSoC5/ETH0.c **** 	sub = ETH0_ParseIP("255.255.255.0");
 2583              		.loc 1 1143 0
 2584 0038 0C48     		ldr	r0, .L212+16
ARM GAS  C:\Users\USUARIO\AppData\Local\Temp\cchqzDaB.s 			page 77


 2585 003a FFF7FEFF 		bl	ETH0_ParseIP
 2586              	.LVL313:
 2587 003e 0446     		mov	r4, r0
 2588              	.LVL314:
1144:Generated_Source\PSoC5/ETH0.c **** 	gateway = ETH0_ParseIP("192.168.0.1");
 2589              		.loc 1 1144 0
 2590 0040 0B48     		ldr	r0, .L212+20
 2591              	.LVL315:
 2592 0042 FFF7FEFF 		bl	ETH0_ParseIP
 2593              	.LVL316:
 2594 0046 0546     		mov	r5, r0
 2595              	.LVL317:
1145:Generated_Source\PSoC5/ETH0.c **** 	/* Initialize the device with the default data */
 2596              		.loc 1 1145 0
 2597 0048 0A48     		ldr	r0, .L212+24
 2598              	.LVL318:
 2599 004a FFF7FEFF 		bl	ETH0_ParseIP
 2600              	.LVL319:
1147:Generated_Source\PSoC5/ETH0.c **** }
 2601              		.loc 1 1147 0
 2602 004e 0346     		mov	r3, r0
 2603 0050 2A46     		mov	r2, r5
 2604 0052 2146     		mov	r1, r4
 2605 0054 0248     		ldr	r0, .L212+4
 2606              	.LVL320:
 2607 0056 FFF7FEFF 		bl	ETH0_Init
 2608              	.LVL321:
 2609 005a 38BD     		pop	{r3, r4, r5, pc}
 2610              	.LVL322:
 2611              	.L213:
 2612              		.align	2
 2613              	.L212:
 2614 005c 00000000 		.word	SPI0_initVar
 2615 0060 1C000000 		.word	.LANCHOR1+28
 2616 0064 00000000 		.word	.LC0
 2617 0068 00000000 		.word	.LANCHOR1
 2618 006c 24000000 		.word	.LC1
 2619 0070 34000000 		.word	.LC2
 2620 0074 44000000 		.word	.LC3
 2621              		.cfi_endproc
 2622              	.LFE75:
 2623              		.size	ETH0_Start, .-ETH0_Start
 2624              		.section	.text.ETH0_SocketProcessConnections,"ax",%progbits
 2625              		.align	2
 2626              		.global	ETH0_SocketProcessConnections
 2627              		.thumb
 2628              		.thumb_func
 2629              		.type	ETH0_SocketProcessConnections, %function
 2630              	ETH0_SocketProcessConnections:
 2631              	.LFB86:
1405:Generated_Source\PSoC5/ETH0.c **** 	uint8 status;
 2632              		.loc 1 1405 0
 2633              		.cfi_startproc
 2634              		@ args = 0, pretend = 0, frame = 0
 2635              		@ frame_needed = 0, uses_anonymous_args = 0
 2636              	.LVL323:
 2637 0000 10B5     		push	{r4, lr}
ARM GAS  C:\Users\USUARIO\AppData\Local\Temp\cchqzDaB.s 			page 78


 2638              		.cfi_def_cfa_offset 8
 2639              		.cfi_offset 4, -8
 2640              		.cfi_offset 14, -4
 2641 0002 0446     		mov	r4, r0
1408:Generated_Source\PSoC5/ETH0.c **** 	/* has a connection termination been requested by remote system */
 2642              		.loc 1 1408 0
 2643 0004 FFF7FEFF 		bl	ETH0_GetSocketStatus
 2644              	.LVL324:
1410:Generated_Source\PSoC5/ETH0.c **** 		/* Close the socket on this end */
 2645              		.loc 1 1410 0
 2646 0008 1C28     		cmp	r0, #28
 2647 000a 02D1     		bne	.L215
1412:Generated_Source\PSoC5/ETH0.c **** 	}
 2648              		.loc 1 1412 0
 2649 000c 2046     		mov	r0, r4
 2650              	.LVL325:
 2651 000e FFF7FEFF 		bl	ETH0_SocketClose
 2652              	.LVL326:
 2653              	.L215:
1414:Generated_Source\PSoC5/ETH0.c **** }
 2654              		.loc 1 1414 0
 2655 0012 2046     		mov	r0, r4
 2656 0014 FFF7FEFF 		bl	ETH0_GetSocketStatus
 2657              	.LVL327:
1415:Generated_Source\PSoC5/ETH0.c **** /* ------------------------------------------------------------------------ */
 2658              		.loc 1 1415 0
 2659 0018 B0FA80F0 		clz	r0, r0
 2660 001c 4009     		lsrs	r0, r0, #5
 2661 001e 10BD     		pop	{r4, pc}
 2662              		.cfi_endproc
 2663              	.LFE86:
 2664              		.size	ETH0_SocketProcessConnections, .-ETH0_SocketProcessConnections
 2665              		.section	.text.ETH0_SocketEstablished,"ax",%progbits
 2666              		.align	2
 2667              		.global	ETH0_SocketEstablished
 2668              		.thumb
 2669              		.thumb_func
 2670              		.type	ETH0_SocketEstablished, %function
 2671              	ETH0_SocketEstablished:
 2672              	.LFB87:
1419:Generated_Source\PSoC5/ETH0.c **** 	return (ETH0_GetSocketStatus( socket ) == 0x17);
 2673              		.loc 1 1419 0
 2674              		.cfi_startproc
 2675              		@ args = 0, pretend = 0, frame = 0
 2676              		@ frame_needed = 0, uses_anonymous_args = 0
 2677              	.LVL328:
 2678 0000 08B5     		push	{r3, lr}
 2679              		.cfi_def_cfa_offset 8
 2680              		.cfi_offset 3, -8
 2681              		.cfi_offset 14, -4
1420:Generated_Source\PSoC5/ETH0.c **** }
 2682              		.loc 1 1420 0
 2683 0002 FFF7FEFF 		bl	ETH0_GetSocketStatus
 2684              	.LVL329:
1421:Generated_Source\PSoC5/ETH0.c **** /* ------------------------------------------------------------------------ */
 2685              		.loc 1 1421 0
 2686 0006 1728     		cmp	r0, #23
ARM GAS  C:\Users\USUARIO\AppData\Local\Temp\cchqzDaB.s 			page 79


 2687 0008 14BF     		ite	ne
 2688 000a 0020     		movne	r0, #0
 2689 000c 0120     		moveq	r0, #1
 2690 000e 08BD     		pop	{r3, pc}
 2691              		.cfi_endproc
 2692              	.LFE87:
 2693              		.size	ETH0_SocketEstablished, .-ETH0_SocketEstablished
 2694              		.section	.text.ETH0_SocketRxDataWaiting,"ax",%progbits
 2695              		.align	2
 2696              		.global	ETH0_SocketRxDataWaiting
 2697              		.thumb
 2698              		.thumb_func
 2699              		.type	ETH0_SocketRxDataWaiting, %function
 2700              	ETH0_SocketRxDataWaiting:
 2701              	.LFB90:
1448:Generated_Source\PSoC5/ETH0.c **** }
1449:Generated_Source\PSoC5/ETH0.c **** /* ------------------------------------------------------------------------ */
1450:Generated_Source\PSoC5/ETH0.c **** /**
1451:Generated_Source\PSoC5/ETH0.c ****  * \brief Execute a SEND without an ARP.
1452:Generated_Source\PSoC5/ETH0.c ****  * \param socket the socket to which the SEND will be executed.
1453:Generated_Source\PSoC5/ETH0.c ****  */
1454:Generated_Source\PSoC5/ETH0.c **** static void
1455:Generated_Source\PSoC5/ETH0.c **** ETH0_SocketSendMac(uint8 socket )
1456:Generated_Source\PSoC5/ETH0.c **** {
1457:Generated_Source\PSoC5/ETH0.c **** 	uint8 ir;
1458:Generated_Source\PSoC5/ETH0.c **** 	
1459:Generated_Source\PSoC5/ETH0.c **** 	/* initialize the subnet mask register : ERRATA FIX */
1460:Generated_Source\PSoC5/ETH0.c **** 	ETH0_SetSubnetMask( ETH0_SubnetMask );
1461:Generated_Source\PSoC5/ETH0.c **** 	/* Issue the SEND command */
1462:Generated_Source\PSoC5/ETH0.c **** 	ETH0_ExecuteSocketCommand( socket, 0x21 );
1463:Generated_Source\PSoC5/ETH0.c **** 	/* wait for the SEND to complete, or for a timeout */
1464:Generated_Source\PSoC5/ETH0.c **** 	ir = ETH0_GetSocketIR( socket );
1465:Generated_Source\PSoC5/ETH0.c **** 	/* while SEND is not done, and the socket hasnot timed out or been dsconnected */
1466:Generated_Source\PSoC5/ETH0.c **** 	while ( ((ir & 0x10) == 0) && (!(ir&0x0A)) ) {
1467:Generated_Source\PSoC5/ETH0.c **** 		CyDelay(1);
1468:Generated_Source\PSoC5/ETH0.c **** 		ir = ETH0_GetSocketIR( socket );
1469:Generated_Source\PSoC5/ETH0.c **** 		
1470:Generated_Source\PSoC5/ETH0.c **** 	}
1471:Generated_Source\PSoC5/ETH0.c **** 	/* clear the SEND_OK flag from the register */
1472:Generated_Source\PSoC5/ETH0.c **** 	ETH0_SetSocketIR( socket, 0x10 );
1473:Generated_Source\PSoC5/ETH0.c **** 	/* reset the subnet mask : ERRATA FIX */
1474:Generated_Source\PSoC5/ETH0.c **** 	ETH0_SetSubnetMask( 0 );
1475:Generated_Source\PSoC5/ETH0.c **** }
1476:Generated_Source\PSoC5/ETH0.c **** /* ------------------------------------------------------------------------ */
1477:Generated_Source\PSoC5/ETH0.c **** uint16
1478:Generated_Source\PSoC5/ETH0.c **** ETH0_SocketRxDataWaiting( uint8 socket )
1479:Generated_Source\PSoC5/ETH0.c **** {
 2702              		.loc 1 1479 0
 2703              		.cfi_startproc
 2704              		@ args = 0, pretend = 0, frame = 0
 2705              		@ frame_needed = 0, uses_anonymous_args = 0
 2706              	.LVL330:
 2707 0000 08B5     		push	{r3, lr}
 2708              		.cfi_def_cfa_offset 8
 2709              		.cfi_offset 3, -8
 2710              		.cfi_offset 14, -4
1480:Generated_Source\PSoC5/ETH0.c **** 	return ETH0_GetRxSize( socket );
ARM GAS  C:\Users\USUARIO\AppData\Local\Temp\cchqzDaB.s 			page 80


 2711              		.loc 1 1480 0
 2712 0002 FFF7FEFF 		bl	ETH0_GetRxSize
 2713              	.LVL331:
1481:Generated_Source\PSoC5/ETH0.c **** }
 2714              		.loc 1 1481 0
 2715 0006 08BD     		pop	{r3, pc}
 2716              		.cfi_endproc
 2717              	.LFE90:
 2718              		.size	ETH0_SocketRxDataWaiting, .-ETH0_SocketRxDataWaiting
 2719              		.section	.text.ETH0_TcpOpen,"ax",%progbits
 2720              		.align	2
 2721              		.global	ETH0_TcpOpen
 2722              		.thumb
 2723              		.thumb_func
 2724              		.type	ETH0_TcpOpen, %function
 2725              	ETH0_TcpOpen:
 2726              	.LFB91:
1482:Generated_Source\PSoC5/ETH0.c **** #endif
1483:Generated_Source\PSoC5/ETH0.c **** /* ======================================================================== */
1484:Generated_Source\PSoC5/ETH0.c **** /* TCP/IP */
1485:Generated_Source\PSoC5/ETH0.c **** #if (1)
1486:Generated_Source\PSoC5/ETH0.c **** /* ------------------------------------------------------------------------ */
1487:Generated_Source\PSoC5/ETH0.c **** uint8
1488:Generated_Source\PSoC5/ETH0.c **** ETH0_TcpOpen(uint16 port)
1489:Generated_Source\PSoC5/ETH0.c **** {
 2727              		.loc 1 1489 0
 2728              		.cfi_startproc
 2729              		@ args = 0, pretend = 0, frame = 0
 2730              		@ frame_needed = 0, uses_anonymous_args = 0
 2731              	.LVL332:
 2732 0000 08B5     		push	{r3, lr}
 2733              		.cfi_def_cfa_offset 8
 2734              		.cfi_offset 3, -8
 2735              		.cfi_offset 14, -4
1490:Generated_Source\PSoC5/ETH0.c **** 	return ETH0_SocketOpen(ETH0_PROTO_TCP, port, 0);
 2736              		.loc 1 1490 0
 2737 0002 0022     		movs	r2, #0
 2738 0004 0146     		mov	r1, r0
 2739 0006 0120     		movs	r0, #1
 2740              	.LVL333:
 2741 0008 FFF7FEFF 		bl	ETH0_SocketOpen
 2742              	.LVL334:
1491:Generated_Source\PSoC5/ETH0.c **** }
 2743              		.loc 1 1491 0
 2744 000c 08BD     		pop	{r3, pc}
 2745              		.cfi_endproc
 2746              	.LFE91:
 2747              		.size	ETH0_TcpOpen, .-ETH0_TcpOpen
 2748 000e 00BF     		.section	.text.ETH0_TcpStartServer,"ax",%progbits
 2749              		.align	2
 2750              		.global	ETH0_TcpStartServer
 2751              		.thumb
 2752              		.thumb_func
 2753              		.type	ETH0_TcpStartServer, %function
 2754              	ETH0_TcpStartServer:
 2755              	.LFB92:
1492:Generated_Source\PSoC5/ETH0.c **** /* ------------------------------------------------------------------------ */
ARM GAS  C:\Users\USUARIO\AppData\Local\Temp\cchqzDaB.s 			page 81


1493:Generated_Source\PSoC5/ETH0.c **** void
1494:Generated_Source\PSoC5/ETH0.c **** ETH0_TcpStartServer( uint8 socket )
1495:Generated_Source\PSoC5/ETH0.c **** {
 2756              		.loc 1 1495 0
 2757              		.cfi_startproc
 2758              		@ args = 0, pretend = 0, frame = 0
 2759              		@ frame_needed = 0, uses_anonymous_args = 0
 2760              	.LVL335:
1496:Generated_Source\PSoC5/ETH0.c **** 	/*
1497:Generated_Source\PSoC5/ETH0.c **** 	 * Start a open socket listening for a connection
1498:Generated_Source\PSoC5/ETH0.c **** 	 */
1499:Generated_Source\PSoC5/ETH0.c **** 	/* was this a valid socket? */
1500:Generated_Source\PSoC5/ETH0.c **** 	if (socket < 4) {
 2761              		.loc 1 1500 0
 2762 0000 0328     		cmp	r0, #3
 2763 0002 04D8     		bhi	.L226
1495:Generated_Source\PSoC5/ETH0.c **** 	/*
 2764              		.loc 1 1495 0
 2765 0004 08B5     		push	{r3, lr}
 2766              		.cfi_def_cfa_offset 8
 2767              		.cfi_offset 3, -8
 2768              		.cfi_offset 14, -4
1501:Generated_Source\PSoC5/ETH0.c **** 		/* Execute the listen command */
1502:Generated_Source\PSoC5/ETH0.c **** 		ETH0_ExecuteSocketCommand( socket, 0x02 );
 2769              		.loc 1 1502 0
 2770 0006 0221     		movs	r1, #2
 2771 0008 FFF7FEFF 		bl	ETH0_ExecuteSocketCommand
 2772              	.LVL336:
 2773 000c 08BD     		pop	{r3, pc}
 2774              	.LVL337:
 2775              	.L226:
 2776              		.cfi_def_cfa_offset 0
 2777              		.cfi_restore 3
 2778              		.cfi_restore 14
 2779 000e 7047     		bx	lr
 2780              		.cfi_endproc
 2781              	.LFE92:
 2782              		.size	ETH0_TcpStartServer, .-ETH0_TcpStartServer
 2783              		.section	.text.ETH0_TcpStartServerWait,"ax",%progbits
 2784              		.align	2
 2785              		.global	ETH0_TcpStartServerWait
 2786              		.thumb
 2787              		.thumb_func
 2788              		.type	ETH0_TcpStartServerWait, %function
 2789              	ETH0_TcpStartServerWait:
 2790              	.LFB93:
1503:Generated_Source\PSoC5/ETH0.c **** 	}
1504:Generated_Source\PSoC5/ETH0.c **** }
1505:Generated_Source\PSoC5/ETH0.c **** /* ------------------------------------------------------------------------ */
1506:Generated_Source\PSoC5/ETH0.c **** void
1507:Generated_Source\PSoC5/ETH0.c **** ETH0_TcpStartServerWait( uint8 socket )
1508:Generated_Source\PSoC5/ETH0.c **** {
 2791              		.loc 1 1508 0
 2792              		.cfi_startproc
 2793              		@ args = 0, pretend = 0, frame = 0
 2794              		@ frame_needed = 0, uses_anonymous_args = 0
 2795              	.LVL338:
ARM GAS  C:\Users\USUARIO\AppData\Local\Temp\cchqzDaB.s 			page 82


 2796 0000 10B5     		push	{r4, lr}
 2797              		.cfi_def_cfa_offset 8
 2798              		.cfi_offset 4, -8
 2799              		.cfi_offset 14, -4
 2800 0002 0446     		mov	r4, r0
1509:Generated_Source\PSoC5/ETH0.c **** 	ETH0_TcpStartServer(socket);
 2801              		.loc 1 1509 0
 2802 0004 FFF7FEFF 		bl	ETH0_TcpStartServer
 2803              	.LVL339:
1510:Generated_Source\PSoC5/ETH0.c **** 	/* wait for socket establishment */
1511:Generated_Source\PSoC5/ETH0.c **** 	while ( !ETH0_SocketEstablished(socket) ) {
 2804              		.loc 1 1511 0
 2805 0008 02E0     		b	.L228
 2806              	.L229:
1512:Generated_Source\PSoC5/ETH0.c **** 		CyDelay(1);
 2807              		.loc 1 1512 0
 2808 000a 0120     		movs	r0, #1
 2809 000c FFF7FEFF 		bl	CyDelay
 2810              	.LVL340:
 2811              	.L228:
1511:Generated_Source\PSoC5/ETH0.c **** 		CyDelay(1);
 2812              		.loc 1 1511 0
 2813 0010 2046     		mov	r0, r4
 2814 0012 FFF7FEFF 		bl	ETH0_SocketEstablished
 2815              	.LVL341:
 2816 0016 0028     		cmp	r0, #0
 2817 0018 F7D0     		beq	.L229
1513:Generated_Source\PSoC5/ETH0.c **** 	}
1514:Generated_Source\PSoC5/ETH0.c **** }
 2818              		.loc 1 1514 0
 2819 001a 10BD     		pop	{r4, pc}
 2820              		.cfi_endproc
 2821              	.LFE93:
 2822              		.size	ETH0_TcpStartServerWait, .-ETH0_TcpStartServerWait
 2823              		.section	.text.ETH0_TcpConnect,"ax",%progbits
 2824              		.align	2
 2825              		.global	ETH0_TcpConnect
 2826              		.thumb
 2827              		.thumb_func
 2828              		.type	ETH0_TcpConnect, %function
 2829              	ETH0_TcpConnect:
 2830              	.LFB94:
1515:Generated_Source\PSoC5/ETH0.c **** /* ------------------------------------------------------------------------ */
1516:Generated_Source\PSoC5/ETH0.c **** void
1517:Generated_Source\PSoC5/ETH0.c **** ETH0_TcpConnect( uint8 socket, uint32 ip, uint16 port )
1518:Generated_Source\PSoC5/ETH0.c **** {
 2831              		.loc 1 1518 0
 2832              		.cfi_startproc
 2833              		@ args = 0, pretend = 0, frame = 0
 2834              		@ frame_needed = 0, uses_anonymous_args = 0
 2835              	.LVL342:
1519:Generated_Source\PSoC5/ETH0.c **** 	uint32 timeout;
1520:Generated_Source\PSoC5/ETH0.c **** 	uint8 ir;
1521:Generated_Source\PSoC5/ETH0.c **** 	
1522:Generated_Source\PSoC5/ETH0.c **** 	if ( (ip != 0xFFFFFFFF) && (ip != 0) ) {
 2836              		.loc 1 1522 0
 2837 0000 4B1E     		subs	r3, r1, #1
ARM GAS  C:\Users\USUARIO\AppData\Local\Temp\cchqzDaB.s 			page 83


 2838 0002 13F1030F 		cmn	r3, #3
 2839 0006 29D8     		bhi	.L239
1518:Generated_Source\PSoC5/ETH0.c **** 	uint32 timeout;
 2840              		.loc 1 1518 0
 2841 0008 70B5     		push	{r4, r5, r6, lr}
 2842              		.cfi_def_cfa_offset 16
 2843              		.cfi_offset 4, -16
 2844              		.cfi_offset 5, -12
 2845              		.cfi_offset 6, -8
 2846              		.cfi_offset 14, -4
 2847 000a 1646     		mov	r6, r2
 2848 000c 0546     		mov	r5, r0
