ARM GAS  C:\Users\USUARIO\AppData\Local\Temp\cchqzDaB.s 			page 1


   1              		.syntax unified
   2              		.cpu cortex-m3
   3              		.fpu softvfp
   4              		.eabi_attribute 20, 1
   5              		.eabi_attribute 21, 1
   6              		.eabi_attribute 23, 3
   7              		.eabi_attribute 24, 1
   8              		.eabi_attribute 25, 1
   9              		.eabi_attribute 26, 1
  10              		.eabi_attribute 30, 1
  11              		.eabi_attribute 34, 1
  12              		.eabi_attribute 18, 4
  13              		.thumb
  14              		.syntax unified
  15              		.file	"ETH0.c"
  16              		.text
  17              	.Ltext0:
  18              		.cfi_sections	.debug_frame
  19              		.section	.text.ETH0_W51_Write,"ax",%progbits
  20              		.align	2
  21              		.global	ETH0_W51_Write
  22              		.thumb
  23              		.thumb_func
  24              		.type	ETH0_W51_Write, %function
  25              	ETH0_W51_Write:
  26              	.LFB1:
  27              		.file 1 "Generated_Source\\PSoC5\\ETH0.c"
   1:Generated_Source\PSoC5/ETH0.c **** /**
   2:Generated_Source\PSoC5/ETH0.c ****  * \addtogroup w5100
   3:Generated_Source\PSoC5/ETH0.c ****  * @{
   4:Generated_Source\PSoC5/ETH0.c ****  */
   5:Generated_Source\PSoC5/ETH0.c **** 
   6:Generated_Source\PSoC5/ETH0.c **** /**
   7:Generated_Source\PSoC5/ETH0.c ****  * \file Driver implementation for interfacing with the W5100 device
   8:Generated_Source\PSoC5/ETH0.c ****  * \author Chuck Erhardt (chuck@e2forlife.com)
   9:Generated_Source\PSoC5/ETH0.c ****  *
  10:Generated_Source\PSoC5/ETH0.c ****  * This file contains the main driver implementation for control
  11:Generated_Source\PSoC5/ETH0.c ****  * of the W5100 device.
  12:Generated_Source\PSoC5/ETH0.c **** */
  13:Generated_Source\PSoC5/ETH0.c **** 
  14:Generated_Source\PSoC5/ETH0.c **** /*
  15:Generated_Source\PSoC5/ETH0.c ****  * Change Log:
  16:Generated_Source\PSoC5/ETH0.c ****  * 
  17:Generated_Source\PSoC5/ETH0.c ****  * V1.1
  18:Generated_Source\PSoC5/ETH0.c ****  * - Modified the SPI access function to remove hard wait for READ_WRITE_DELAY  <CE>
  19:Generated_Source\PSoC5/ETH0.c ****  * - Removed READ_WRITE_DELAY Parameter <CE>
  20:Generated_Source\PSoC5/ETH0.c ****  * - Added validator to SS_NUM parameter to ensure that the value is the range 0-3 <CE>
  21:Generated_Source\PSoC5/ETH0.c ****  * - Removed "inline" keywords from interal register access function to promote
  22:Generated_Source\PSoC5/ETH0.c ****  *   compatibility with Keil PSoC3 compilers that don't support them. <CE>
  23:Generated_Source\PSoC5/ETH0.c ****  * - Fixed bug in _ProcessRxData() that caused the read pointer not to be updated without
  24:Generated_Source\PSoC5/ETH0.c ****  *   the lookahead flag being set. <CE>
  25:Generated_Source\PSoC5/ETH0.c ****  * V1.2
  26:Generated_Source\PSoC5/ETH0.c ****  * - Added _STS_SPI_IDLE flag to _SpiDone conditions to prevent deadlocking that
  27:Generated_Source\PSoC5/ETH0.c ****  *   was occuring during the first read or write using the SPI device (SPIM moded) <CE>
  28:Generated_Source\PSoC5/ETH0.c ****  * - Removed the check for SOCKET_ESTABLISHED at the start of the TcpReceive
  29:Generated_Source\PSoC5/ETH0.c ****  *   function to allow for reading received socket data after the socket was dropped
  30:Generated_Source\PSoC5/ETH0.c ****  *   by the remote server.  It was brought to my attention that this occurs when
ARM GAS  C:\Users\USUARIO\AppData\Local\Temp\cchqzDaB.s 			page 2


  31:Generated_Source\PSoC5/ETH0.c ****  *   operating with client connection to HTTP servers. <CE>
  32:Generated_Source\PSoC5/ETH0.c ****  * - Added a MAC address parser and MAC to String Converter. <CE>
  33:Generated_Source\PSoC5/ETH0.c ****  */
  34:Generated_Source\PSoC5/ETH0.c **** 
  35:Generated_Source\PSoC5/ETH0.c **** /* Cypress library includes */
  36:Generated_Source\PSoC5/ETH0.c **** #include <cytypes.h>
  37:Generated_Source\PSoC5/ETH0.c **** #include <cylib.h>
  38:Generated_Source\PSoC5/ETH0.c **** 
  39:Generated_Source\PSoC5/ETH0.c **** /*  include functions and types for the driver */
  40:Generated_Source\PSoC5/ETH0.c **** #include "ETH0.h"
  41:Generated_Source\PSoC5/ETH0.c **** /* include the serial interface functions */
  42:Generated_Source\PSoC5/ETH0.c **** #include <SPI0.h>
  43:Generated_Source\PSoC5/ETH0.c **** 
  44:Generated_Source\PSoC5/ETH0.c **** extern uint8 SPI0_initVar;
  45:Generated_Source\PSoC5/ETH0.c **** 
  46:Generated_Source\PSoC5/ETH0.c **** typedef struct
  47:Generated_Source\PSoC5/ETH0.c **** {
  48:Generated_Source\PSoC5/ETH0.c **** 	uint8  Protocol;
  49:Generated_Source\PSoC5/ETH0.c **** 	uint8  SocketFlags;
  50:Generated_Source\PSoC5/ETH0.c **** 	uint16 SourcePort;
  51:Generated_Source\PSoC5/ETH0.c **** 	uint8  ServerFlag;
  52:Generated_Source\PSoC5/ETH0.c **** } ETH0_SOCKET;
  53:Generated_Source\PSoC5/ETH0.c **** 
  54:Generated_Source\PSoC5/ETH0.c **** const uint16 ETH0_SOCKET_TX_BASE[4] = { 0x4000, 0x4800, 0x5000, 0x5800 };
  55:Generated_Source\PSoC5/ETH0.c **** const uint16 ETH0_SOCKET_RX_BASE[4] = { 0x6000, 0x6800, 0x7000, 0x7800 };
  56:Generated_Source\PSoC5/ETH0.c **** 
  57:Generated_Source\PSoC5/ETH0.c **** static ETH0_SOCKET ETH0_SocketConfig[4];
  58:Generated_Source\PSoC5/ETH0.c **** static uint32 ETH0_SubnetMask;
  59:Generated_Source\PSoC5/ETH0.c **** 
  60:Generated_Source\PSoC5/ETH0.c **** static uint8 ETH0_MAC[6]; /* V1.2: removed = {0x00, 0xDE, 0xAD, 0xBE, 0xEF, 0x00}; */
  61:Generated_Source\PSoC5/ETH0.c **** 
  62:Generated_Source\PSoC5/ETH0.c **** /* ------------------------------------------------------------------------ */
  63:Generated_Source\PSoC5/ETH0.c **** /* V1.2 HEX digit conversion tools for MAC Address parsing */
  64:Generated_Source\PSoC5/ETH0.c **** #define ETH0_ISXDIGIT(x) \
  65:Generated_Source\PSoC5/ETH0.c **** ( ((x>='0')&&(x<='9'))||((x>='a')&&(x<='f'))||((x>='A')&&(x<='F')) )
  66:Generated_Source\PSoC5/ETH0.c **** /* ------------------------------------------------------------------------ */
  67:Generated_Source\PSoC5/ETH0.c **** #define ETH0_HEX2BIN(x) \
  68:Generated_Source\PSoC5/ETH0.c **** ( ((x>='0')&&(x<='9'))? (x-'0') : \
  69:Generated_Source\PSoC5/ETH0.c ****   ((x>='a')&&(x<='f'))? ((x-'a')+10) : \
  70:Generated_Source\PSoC5/ETH0.c ****   ((x>='A')&&(x<='F'))? ((x-'A')+10) : 0 )
  71:Generated_Source\PSoC5/ETH0.c **** /* ------------------------------------------------------------------------ */
  72:Generated_Source\PSoC5/ETH0.c **** #define ETH0_BIN2HEX(x) \
  73:Generated_Source\PSoC5/ETH0.c **** ( (x>9)? ((x-10)+'A') : (x + '0'))
  74:Generated_Source\PSoC5/ETH0.c **** /* END V1.2 defines */
  75:Generated_Source\PSoC5/ETH0.c **** /* ------------------------------------------------------------------------ */
  76:Generated_Source\PSoC5/ETH0.c **** 
  77:Generated_Source\PSoC5/ETH0.c **** /* ======================================================================== */
  78:Generated_Source\PSoC5/ETH0.c **** /* Generic SPI Functions */
  79:Generated_Source\PSoC5/ETH0.c **** /*
  80:Generated_Source\PSoC5/ETH0.c ****  * NOTE: when using the SPIM, there must be a buffer length of at least 4
  81:Generated_Source\PSoC5/ETH0.c ****  * bytes to allow the transfer/receive cycle for each read/write operation
  82:Generated_Source\PSoC5/ETH0.c ****  * to be contained within the FIFO buffer.
  83:Generated_Source\PSoC5/ETH0.c ****  */
  84:Generated_Source\PSoC5/ETH0.c **** #if !defined(CY_SCB_SPI0_H)
  85:Generated_Source\PSoC5/ETH0.c **** /* ------------------------------------------------------------------------ */	
  86:Generated_Source\PSoC5/ETH0.c **** /* V1.1 : Macro definition for the SpiDone flag. */
  87:Generated_Source\PSoC5/ETH0.c **** /*  
ARM GAS  C:\Users\USUARIO\AppData\Local\Temp\cchqzDaB.s 			page 3


  88:Generated_Source\PSoC5/ETH0.c **** 	V1.2 : Added SPI_IDLE flag to the condition for done to eliminate
  89:Generated_Source\PSoC5/ETH0.c **** 	deadlocking when IDLE but not done.  This seems to occur during the
  90:Generated_Source\PSoC5/ETH0.c **** 	initial write/read to/from the SPI port.
  91:Generated_Source\PSoC5/ETH0.c **** */
  92:Generated_Source\PSoC5/ETH0.c **** /**
  93:Generated_Source\PSoC5/ETH0.c ****  * \brief Macro to determine the state of the spi done
  94:Generated_Source\PSoC5/ETH0.c ****  * This macro reads the status register of the transmitter and masks off the doen bit.
  95:Generated_Source\PSoC5/ETH0.c ****  */
  96:Generated_Source\PSoC5/ETH0.c **** #define ETH0_SpiDone     (SPI0_ReadTxStatus() & (SPI0_STS_SPI_DONE | SPI0_STS_SPI_IDLE))
  97:Generated_Source\PSoC5/ETH0.c **** /* ------------------------------------------------------------------------ */
  98:Generated_Source\PSoC5/ETH0.c **** /**
  99:Generated_Source\PSoC5/ETH0.c ****  * \brief Select the active SCB chip select connected to the W51
 100:Generated_Source\PSoC5/ETH0.c ****  *
 101:Generated_Source\PSoC5/ETH0.c ****  * this fucntion will set the active SS line within the SCB to select and
 102:Generated_Source\PSoC5/ETH0.c ****  * communicate with the W5100 device.
 103:Generated_Source\PSoC5/ETH0.c ****  * \note this functions requires that the device chip select is originating
 104:Generated_Source\PSoC5/ETH0.c ****  *  from the SPI device.
 105:Generated_Source\PSoC5/ETH0.c ****  */
 106:Generated_Source\PSoC5/ETH0.c **** static void ETH0_W51_Select( void )
 107:Generated_Source\PSoC5/ETH0.c **** {
 108:Generated_Source\PSoC5/ETH0.c **** 	/*
 109:Generated_Source\PSoC5/ETH0.c **** 	 * User code for setting the chip select enable.  This is called once
 110:Generated_Source\PSoC5/ETH0.c **** 	 * at the beginning of each tranfer to/from the W5100, so we recommend
 111:Generated_Source\PSoC5/ETH0.c **** 	 * either doing nothing (SPIM SS straight out), or to switch the demux
 112:Generated_Source\PSoC5/ETH0.c **** 	 * component to select the correct output for the SS routing.  This
 113:Generated_Source\PSoC5/ETH0.c **** 	 * should probably not drive a pin directly since there is no return
 114:Generated_Source\PSoC5/ETH0.c **** 	 * call from the driver that would allow an enable/disable type of
 115:Generated_Source\PSoC5/ETH0.c **** 	 * implementation for CSN control.
 116:Generated_Source\PSoC5/ETH0.c **** 	 */
 117:Generated_Source\PSoC5/ETH0.c **** 	/* `#START CHIP_SELECT_GENERATION` */
 118:Generated_Source\PSoC5/ETH0.c **** 
 119:Generated_Source\PSoC5/ETH0.c **** 	/* `#END` */
 120:Generated_Source\PSoC5/ETH0.c **** }
 121:Generated_Source\PSoC5/ETH0.c **** /* ------------------------------------------------------------------------ */
 122:Generated_Source\PSoC5/ETH0.c **** /**
 123:Generated_Source\PSoC5/ETH0.c ****  * \brief write Data to the W5100 at the specified address
 124:Generated_Source\PSoC5/ETH0.c ****  * \param addr Address of register or memory buffer
 125:Generated_Source\PSoC5/ETH0.c ****  * \param dat Data to write to the device
 126:Generated_Source\PSoC5/ETH0.c ****  *
 127:Generated_Source\PSoC5/ETH0.c ****  * This function will send the WRITE opcode, address and data to the W5100
 128:Generated_Source\PSoC5/ETH0.c ****  * in order to write the data to the specified register.
 129:Generated_Source\PSoC5/ETH0.c ****  */
 130:Generated_Source\PSoC5/ETH0.c **** void ETH0_W51_Write(uint16 addr, uint8 dat)
 131:Generated_Source\PSoC5/ETH0.c **** {
  28              		.loc 1 131 0
  29              		.cfi_startproc
  30              		@ args = 0, pretend = 0, frame = 0
  31              		@ frame_needed = 0, uses_anonymous_args = 0
  32              	.LVL0:
  33 0000 38B5     		push	{r3, r4, r5, lr}
  34              		.cfi_def_cfa_offset 16
  35              		.cfi_offset 3, -16
  36              		.cfi_offset 4, -12
  37              		.cfi_offset 5, -8
  38              		.cfi_offset 14, -4
  39 0002 0446     		mov	r4, r0
  40 0004 0D46     		mov	r5, r1
ARM GAS  C:\Users\USUARIO\AppData\Local\Temp\cchqzDaB.s 			page 4


 132:Generated_Source\PSoC5/ETH0.c **** 	/* V1.1: Wait for SPI operation to complete */
 133:Generated_Source\PSoC5/ETH0.c **** 	while( ETH0_SpiDone == 0) {
  41              		.loc 1 133 0
  42 0006 02E0     		b	.L2
  43              	.LVL1:
  44              	.L3:
 134:Generated_Source\PSoC5/ETH0.c **** 		CyDelayUs(1);
  45              		.loc 1 134 0
  46 0008 0120     		movs	r0, #1
  47 000a FFF7FEFF 		bl	CyDelayUs
  48              	.LVL2:
  49              	.L2:
 133:Generated_Source\PSoC5/ETH0.c **** 		CyDelayUs(1);
  50              		.loc 1 133 0
  51 000e FFF7FEFF 		bl	SPI0_ReadTxStatus
  52              	.LVL3:
  53 0012 10F0110F 		tst	r0, #17
  54 0016 F7D0     		beq	.L3
 135:Generated_Source\PSoC5/ETH0.c **** 	}
 136:Generated_Source\PSoC5/ETH0.c **** 	/* V1.1: End change */
 137:Generated_Source\PSoC5/ETH0.c **** 	
 138:Generated_Source\PSoC5/ETH0.c **** 	/* Using internal device SS generation */
 139:Generated_Source\PSoC5/ETH0.c **** 	ETH0_W51_Select();
 140:Generated_Source\PSoC5/ETH0.c **** 	/*
 141:Generated_Source\PSoC5/ETH0.c **** 	 * The first thing to do is to clear the Rx Buffer of any lingering
 142:Generated_Source\PSoC5/ETH0.c **** 	 * data left from other transfers.  Then send the data per the W5100
 143:Generated_Source\PSoC5/ETH0.c **** 	 * datasheet p.62
 144:Generated_Source\PSoC5/ETH0.c **** 	 */
 145:Generated_Source\PSoC5/ETH0.c **** 	SPI0_ClearRxBuffer();
  55              		.loc 1 145 0
  56 0018 FFF7FEFF 		bl	SPI0_ClearRxBuffer
  57              	.LVL4:
 146:Generated_Source\PSoC5/ETH0.c **** 	/* Begin transfer of data to device */
 147:Generated_Source\PSoC5/ETH0.c **** 	SPI0_WriteTxData(ETH0_WRITE_OP);
  58              		.loc 1 147 0
  59 001c F020     		movs	r0, #240
  60 001e FFF7FEFF 		bl	SPI0_WriteTxData
  61              	.LVL5:
 148:Generated_Source\PSoC5/ETH0.c **** 	SPI0_WriteTxData((addr>>8)&0x00FF);
  62              		.loc 1 148 0
  63 0022 200A     		lsrs	r0, r4, #8
  64 0024 FFF7FEFF 		bl	SPI0_WriteTxData
  65              	.LVL6:
 149:Generated_Source\PSoC5/ETH0.c **** 	SPI0_WriteTxData(addr&0x00FF);
  66              		.loc 1 149 0
  67 0028 E0B2     		uxtb	r0, r4
  68 002a FFF7FEFF 		bl	SPI0_WriteTxData
  69              	.LVL7:
 150:Generated_Source\PSoC5/ETH0.c **** 	SPI0_WriteTxData(dat);
  70              		.loc 1 150 0
  71 002e 2846     		mov	r0, r5
  72 0030 FFF7FEFF 		bl	SPI0_WriteTxData
  73              	.LVL8:
  74 0034 38BD     		pop	{r3, r4, r5, pc}
  75              		.cfi_endproc
  76              	.LFE1:
  77              		.size	ETH0_W51_Write, .-ETH0_W51_Write
ARM GAS  C:\Users\USUARIO\AppData\Local\Temp\cchqzDaB.s 			page 5


  78 0036 00BF     		.section	.text.ETH0_SetMode,"ax",%progbits
  79              		.align	2
  80              		.thumb
  81              		.thumb_func
  82              		.type	ETH0_SetMode, %function
  83              	ETH0_SetMode:
  84              	.LFB19:
 151:Generated_Source\PSoC5/ETH0.c **** 
 152:Generated_Source\PSoC5/ETH0.c **** }
 153:Generated_Source\PSoC5/ETH0.c **** 
 154:Generated_Source\PSoC5/ETH0.c **** /* ------------------------------------------------------------------------ */
 155:Generated_Source\PSoC5/ETH0.c **** /**
 156:Generated_Source\PSoC5/ETH0.c ****  * \brief Read data from the W5100 at the spsecified address
 157:Generated_Source\PSoC5/ETH0.c ****  * \param addr Address from which to read
 158:Generated_Source\PSoC5/ETH0.c ****  * \returns the data read from the address
 159:Generated_Source\PSoC5/ETH0.c ****  *
 160:Generated_Source\PSoC5/ETH0.c ****  * this fucntion will access a W5100 memory location and read the contents
 161:Generated_Source\PSoC5/ETH0.c ****  * using the serial protocol specified on P.61 of the datasheet.
 162:Generated_Source\PSoC5/ETH0.c ****  */
 163:Generated_Source\PSoC5/ETH0.c **** uint8 ETH0_W51_Read(uint16 addr)
 164:Generated_Source\PSoC5/ETH0.c **** {
 165:Generated_Source\PSoC5/ETH0.c **** 	uint32 dat;
 166:Generated_Source\PSoC5/ETH0.c **** 	uint32 count;
 167:Generated_Source\PSoC5/ETH0.c **** 	
 168:Generated_Source\PSoC5/ETH0.c **** 	/* V1.1: Wait for SPI operation to complete */
 169:Generated_Source\PSoC5/ETH0.c **** 	while( ETH0_SpiDone == 0) {
 170:Generated_Source\PSoC5/ETH0.c **** 		CyDelayUs(1);
 171:Generated_Source\PSoC5/ETH0.c **** 	}
 172:Generated_Source\PSoC5/ETH0.c **** 	/* V1.1: End change */
 173:Generated_Source\PSoC5/ETH0.c **** 
 174:Generated_Source\PSoC5/ETH0.c **** 	/* Using internal device SS generation */
 175:Generated_Source\PSoC5/ETH0.c **** 	ETH0_W51_Select();
 176:Generated_Source\PSoC5/ETH0.c **** 	/*
 177:Generated_Source\PSoC5/ETH0.c **** 	 * First, clear the Rx Buffer of any waiting data.  Then begin the
 178:Generated_Source\PSoC5/ETH0.c **** 	 * read operation by sending the op code, followed byte the address
 179:Generated_Source\PSoC5/ETH0.c **** 	 * from which the read will be executed, then send a dummy byte
 180:Generated_Source\PSoC5/ETH0.c **** 	 * of zeros to read the data from the device.
 181:Generated_Source\PSoC5/ETH0.c **** 	 */
 182:Generated_Source\PSoC5/ETH0.c **** 	SPI0_ClearRxBuffer();
 183:Generated_Source\PSoC5/ETH0.c **** 	/* Begin data read */
 184:Generated_Source\PSoC5/ETH0.c **** 	SPI0_WriteTxData(ETH0_READ_OP);
 185:Generated_Source\PSoC5/ETH0.c **** 	SPI0_WriteTxData(addr>>8);
 186:Generated_Source\PSoC5/ETH0.c **** 	SPI0_WriteTxData(addr&0x00FF);
 187:Generated_Source\PSoC5/ETH0.c **** 	SPI0_WriteTxData( 0 );
 188:Generated_Source\PSoC5/ETH0.c **** 	
 189:Generated_Source\PSoC5/ETH0.c **** 	/* Wait for operations to complete. */
 190:Generated_Source\PSoC5/ETH0.c **** 	/* V1.1: Wait for SPI operation to complete */
 191:Generated_Source\PSoC5/ETH0.c **** 	while( ETH0_SpiDone == 0) {
 192:Generated_Source\PSoC5/ETH0.c **** 		CyDelayUs(1);
 193:Generated_Source\PSoC5/ETH0.c **** 	}
 194:Generated_Source\PSoC5/ETH0.c **** 	/* V1.1: End change */
 195:Generated_Source\PSoC5/ETH0.c **** 
 196:Generated_Source\PSoC5/ETH0.c **** 	count = SPI0_GetRxBufferSize();
 197:Generated_Source\PSoC5/ETH0.c **** 	while( count > 0 )
 198:Generated_Source\PSoC5/ETH0.c **** 	{
 199:Generated_Source\PSoC5/ETH0.c **** 		dat = SPI0_ReadRxData(); 
 200:Generated_Source\PSoC5/ETH0.c **** 		count = SPI0_GetRxBufferSize();
ARM GAS  C:\Users\USUARIO\AppData\Local\Temp\cchqzDaB.s 			page 6


 201:Generated_Source\PSoC5/ETH0.c **** 	}
 202:Generated_Source\PSoC5/ETH0.c **** 	
 203:Generated_Source\PSoC5/ETH0.c **** 	return( dat&0xFF );
 204:Generated_Source\PSoC5/ETH0.c **** }
 205:Generated_Source\PSoC5/ETH0.c **** /* ======================================================================== */
 206:Generated_Source\PSoC5/ETH0.c **** /* SCB Specific Functions */
 207:Generated_Source\PSoC5/ETH0.c **** #else
 208:Generated_Source\PSoC5/ETH0.c **** /* include SPI function header for the SCB */
 209:Generated_Source\PSoC5/ETH0.c **** #include <SPI0_SPI_UART.h>
 210:Generated_Source\PSoC5/ETH0.c **** 
 211:Generated_Source\PSoC5/ETH0.c **** /* V1.1 : Include the header for the select pin used. */
 212:Generated_Source\PSoC5/ETH0.c **** #define ETH0_SpiDone    ((SPI0_SpiUartGetTxBufferSize()==0)?1:0)
 213:Generated_Source\PSoC5/ETH0.c **** /*
 214:Generated_Source\PSoC5/ETH0.c **** #if (0 == 0)
 215:Generated_Source\PSoC5/ETH0.c **** #include <SPI0_ss0_m.h>
 216:Generated_Source\PSoC5/ETH0.c **** #define ETH0_SpiDone    ((SPI0_ss0_m_Read())
 217:Generated_Source\PSoC5/ETH0.c **** #elif (0 == 1)
 218:Generated_Source\PSoC5/ETH0.c **** #include <SPI0_ss1_m.h>
 219:Generated_Source\PSoC5/ETH0.c **** #define ETH0_SpiDone    (SPI0_ss1_m_Read())
 220:Generated_Source\PSoC5/ETH0.c **** #elif (0 == 2)
 221:Generated_Source\PSoC5/ETH0.c **** #include <SPI0_ss2_m.h>
 222:Generated_Source\PSoC5/ETH0.c **** #define ETH0_SpiDone    (SPI0_ss2_m_Read())
 223:Generated_Source\PSoC5/ETH0.c **** #elif (0 == 3)
 224:Generated_Source\PSoC5/ETH0.c **** #include <SPI0_ss3_m.h>
 225:Generated_Source\PSoC5/ETH0.c **** #define ETH0_SpiDone    (SPI0_ss3_m_Read())
 226:Generated_Source\PSoC5/ETH0.c **** #else
 227:Generated_Source\PSoC5/ETH0.c **** #include <SPI0_ss0_m.h>
 228:Generated_Source\PSoC5/ETH0.c **** #define ETH0_SpiDone    (SPI0_ss0_m_Read())
 229:Generated_Source\PSoC5/ETH0.c **** #endif
 230:Generated_Source\PSoC5/ETH0.c **** */
 231:Generated_Source\PSoC5/ETH0.c **** /* ------------------------------------------------------------------------ */
 232:Generated_Source\PSoC5/ETH0.c **** /**
 233:Generated_Source\PSoC5/ETH0.c ****  * \brief Select the active SCB chip select connected to the W51
 234:Generated_Source\PSoC5/ETH0.c ****  *
 235:Generated_Source\PSoC5/ETH0.c ****  * this fucntion will set the active SS line within the SCB to select and
 236:Generated_Source\PSoC5/ETH0.c ****  * communicate with the W5100 device.
 237:Generated_Source\PSoC5/ETH0.c ****  */
 238:Generated_Source\PSoC5/ETH0.c **** static void ETH0_W51_Select( void )
 239:Generated_Source\PSoC5/ETH0.c **** {
 240:Generated_Source\PSoC5/ETH0.c **** #if (0 == 0)
 241:Generated_Source\PSoC5/ETH0.c **** 	SPI0_SpiSetActiveSlaveSelect( SPI0_SPIM_ACTIVE_SS0 );
 242:Generated_Source\PSoC5/ETH0.c **** #elif (0 == 1)
 243:Generated_Source\PSoC5/ETH0.c **** 	SPI0_SpiSetActiveSlaveSelect( SPI0_SPIM_ACTIVE_SS1 );
 244:Generated_Source\PSoC5/ETH0.c **** #elif (0 == 2)
 245:Generated_Source\PSoC5/ETH0.c **** 	SPI0_SpiSetActiveSlaveSelect( SPI0_SPIM_ACTIVE_SS2 );
 246:Generated_Source\PSoC5/ETH0.c **** #elif (0 == 3)
 247:Generated_Source\PSoC5/ETH0.c **** 	SPI0_SpiSetActiveSlaveSelect( SPI0_SPIM_ACTIVE_SS3 );
 248:Generated_Source\PSoC5/ETH0.c **** #else
 249:Generated_Source\PSoC5/ETH0.c **** 		SPI0_SpiSetActiveSlaveSelect(0);
 250:Generated_Source\PSoC5/ETH0.c **** #endif
 251:Generated_Source\PSoC5/ETH0.c **** }
 252:Generated_Source\PSoC5/ETH0.c **** /* ------------------------------------------------------------------------ */
 253:Generated_Source\PSoC5/ETH0.c **** /**
 254:Generated_Source\PSoC5/ETH0.c ****  * \brief write Data to the W5100 at the specified address
 255:Generated_Source\PSoC5/ETH0.c ****  * \param addr Address of register or memory buffer
 256:Generated_Source\PSoC5/ETH0.c ****  * \param dat Data to write to the device
 257:Generated_Source\PSoC5/ETH0.c ****  *
ARM GAS  C:\Users\USUARIO\AppData\Local\Temp\cchqzDaB.s 			page 7


 258:Generated_Source\PSoC5/ETH0.c ****  * This function will send the WRITE opcode, address and data to the W5100
 259:Generated_Source\PSoC5/ETH0.c ****  * in order to write the data to the specified register.
 260:Generated_Source\PSoC5/ETH0.c ****  */
 261:Generated_Source\PSoC5/ETH0.c **** void ETH0_W51_Write(uint16 addr, uint8 dat)
 262:Generated_Source\PSoC5/ETH0.c **** {
 263:Generated_Source\PSoC5/ETH0.c **** 	/* V1.1: Wait for SPI operation to complete */
 264:Generated_Source\PSoC5/ETH0.c **** 	while( ETH0_SpiDone == 0) {
 265:Generated_Source\PSoC5/ETH0.c **** 		CyDelayUs(1);
 266:Generated_Source\PSoC5/ETH0.c **** 	}
 267:Generated_Source\PSoC5/ETH0.c **** 	CyDelay(1);
 268:Generated_Source\PSoC5/ETH0.c **** 	/* V1.1: End change */
 269:Generated_Source\PSoC5/ETH0.c **** 
 270:Generated_Source\PSoC5/ETH0.c **** 	/* Using internal device SS generation */
 271:Generated_Source\PSoC5/ETH0.c **** 	ETH0_W51_Select();
 272:Generated_Source\PSoC5/ETH0.c **** 	/*
 273:Generated_Source\PSoC5/ETH0.c **** 	 * The first thing to do is to clear the Rx Buffer of any lingering
 274:Generated_Source\PSoC5/ETH0.c **** 	 * data left from other transfers.  Then send the data per the W5100
 275:Generated_Source\PSoC5/ETH0.c **** 	 * datasheet p.62
 276:Generated_Source\PSoC5/ETH0.c **** 	 */
 277:Generated_Source\PSoC5/ETH0.c **** 	SPI0_SpiUartClearRxBuffer();
 278:Generated_Source\PSoC5/ETH0.c **** 	/* Begin transfer of data to device */
 279:Generated_Source\PSoC5/ETH0.c **** 	SPI0_SpiUartWriteTxData(ETH0_WRITE_OP);
 280:Generated_Source\PSoC5/ETH0.c **** 	SPI0_SpiUartWriteTxData((addr>>8)&0x00FF);
 281:Generated_Source\PSoC5/ETH0.c **** 	SPI0_SpiUartWriteTxData(addr&0x00FF);
 282:Generated_Source\PSoC5/ETH0.c **** 	SPI0_SpiUartWriteTxData(dat);
 283:Generated_Source\PSoC5/ETH0.c **** }
 284:Generated_Source\PSoC5/ETH0.c **** /* ------------------------------------------------------------------------ */
 285:Generated_Source\PSoC5/ETH0.c **** /**
 286:Generated_Source\PSoC5/ETH0.c ****  * \brief Read data from the W5100 at the spsecified address
 287:Generated_Source\PSoC5/ETH0.c ****  * \param addr Address from which to read
 288:Generated_Source\PSoC5/ETH0.c ****  * \returns the data read from the address
 289:Generated_Source\PSoC5/ETH0.c ****  *
 290:Generated_Source\PSoC5/ETH0.c ****  * this fucntion will access a W5100 memory location and read the contents
 291:Generated_Source\PSoC5/ETH0.c ****  * using the serial protocol specified on P.61 of the datasheet.
 292:Generated_Source\PSoC5/ETH0.c ****  */
 293:Generated_Source\PSoC5/ETH0.c **** uint8 ETH0_W51_Read(uint16 addr)
 294:Generated_Source\PSoC5/ETH0.c **** {
 295:Generated_Source\PSoC5/ETH0.c **** 	uint32 dat;
 296:Generated_Source\PSoC5/ETH0.c **** 	uint32 count;
 297:Generated_Source\PSoC5/ETH0.c **** 	
 298:Generated_Source\PSoC5/ETH0.c **** 	/* V1.1: Wait for SPI operation to complete */
 299:Generated_Source\PSoC5/ETH0.c **** 	while( ETH0_SpiDone == 0) {
 300:Generated_Source\PSoC5/ETH0.c **** 		CyDelayUs(1);
 301:Generated_Source\PSoC5/ETH0.c **** 	}
 302:Generated_Source\PSoC5/ETH0.c **** 	/* V1.1: End change */
 303:Generated_Source\PSoC5/ETH0.c **** 
 304:Generated_Source\PSoC5/ETH0.c **** 	/* Using internal device SS generation */
 305:Generated_Source\PSoC5/ETH0.c **** 	ETH0_W51_Select();
 306:Generated_Source\PSoC5/ETH0.c **** 	/*
 307:Generated_Source\PSoC5/ETH0.c **** 	 * First, clear the Rx Buffer of any waiting data.  Then begin the
 308:Generated_Source\PSoC5/ETH0.c **** 	 * read operation by sending the op code, followed byte the address
 309:Generated_Source\PSoC5/ETH0.c **** 	 * from which the read will be executed, then send a dummy byte
 310:Generated_Source\PSoC5/ETH0.c **** 	 * of zeros to read the data from the device.
 311:Generated_Source\PSoC5/ETH0.c **** 	 */
 312:Generated_Source\PSoC5/ETH0.c **** 	SPI0_SpiUartClearRxBuffer();
 313:Generated_Source\PSoC5/ETH0.c **** 	/* Begin data read */
 314:Generated_Source\PSoC5/ETH0.c **** 	SPI0_SpiUartWriteTxData(ETH0_READ_OP);
ARM GAS  C:\Users\USUARIO\AppData\Local\Temp\cchqzDaB.s 			page 8


 315:Generated_Source\PSoC5/ETH0.c **** 	SPI0_SpiUartWriteTxData(addr>>8);
 316:Generated_Source\PSoC5/ETH0.c **** 	SPI0_SpiUartWriteTxData(addr&0x00FF);
 317:Generated_Source\PSoC5/ETH0.c **** 	SPI0_SpiUartWriteTxData( 0 );
 318:Generated_Source\PSoC5/ETH0.c **** 	/* Wait for operations to complete. */
 319:Generated_Source\PSoC5/ETH0.c **** 	/* V1.1: Wait for SPI operation to complete */
 320:Generated_Source\PSoC5/ETH0.c **** 	while( ETH0_SpiDone == 0) {
 321:Generated_Source\PSoC5/ETH0.c **** 		CyDelayUs(1);
 322:Generated_Source\PSoC5/ETH0.c **** 	}
 323:Generated_Source\PSoC5/ETH0.c **** 	/* V1.1: End change */
 324:Generated_Source\PSoC5/ETH0.c **** 
 325:Generated_Source\PSoC5/ETH0.c **** 	count = SPI0_SpiUartGetRxBufferSize();
 326:Generated_Source\PSoC5/ETH0.c **** 	while( count > 0 )
 327:Generated_Source\PSoC5/ETH0.c **** 	{
 328:Generated_Source\PSoC5/ETH0.c **** 		dat = SPI0_SpiUartReadRxData(); 
 329:Generated_Source\PSoC5/ETH0.c **** 		count = SPI0_SpiUartGetRxBufferSize();
 330:Generated_Source\PSoC5/ETH0.c **** 	}
 331:Generated_Source\PSoC5/ETH0.c **** 	
 332:Generated_Source\PSoC5/ETH0.c **** 	return( dat&0xFF );
 333:Generated_Source\PSoC5/ETH0.c **** }
 334:Generated_Source\PSoC5/ETH0.c **** 
 335:Generated_Source\PSoC5/ETH0.c **** #endif
 336:Generated_Source\PSoC5/ETH0.c **** 
 337:Generated_Source\PSoC5/ETH0.c **** /* ======================================================================== */
 338:Generated_Source\PSoC5/ETH0.c **** /* W5100 Register Access Primitaves */
 339:Generated_Source\PSoC5/ETH0.c **** #if (1)
 340:Generated_Source\PSoC5/ETH0.c **** /* ------------------------------------------------------------------------ */
 341:Generated_Source\PSoC5/ETH0.c **** /**
 342:Generated_Source\PSoC5/ETH0.c ****  * \brief Write a MAC (hardware) address to a group of registers
 343:Generated_Source\PSoC5/ETH0.c ****  * \param addr The starting address of the registers/memory for the MAC address
 344:Generated_Source\PSoC5/ETH0.c ****  * \param *mac pointer to the array of bytes holding the MAC address.
 345:Generated_Source\PSoC5/ETH0.c ****  */
 346:Generated_Source\PSoC5/ETH0.c **** static void ETH0_W51_SetMAC(uint16 addr, uint8 *mac)
 347:Generated_Source\PSoC5/ETH0.c **** {
 348:Generated_Source\PSoC5/ETH0.c **** 	uint32 index;
 349:Generated_Source\PSoC5/ETH0.c **** 	
 350:Generated_Source\PSoC5/ETH0.c **** 	for(index = 0;index<6;++index)
 351:Generated_Source\PSoC5/ETH0.c **** 	{
 352:Generated_Source\PSoC5/ETH0.c **** 		ETH0_W51_Write(addr+index,mac[index]);
 353:Generated_Source\PSoC5/ETH0.c **** 	}
 354:Generated_Source\PSoC5/ETH0.c **** }
 355:Generated_Source\PSoC5/ETH0.c **** /* ------------------------------------------------------------------------ */
 356:Generated_Source\PSoC5/ETH0.c **** /**
 357:Generated_Source\PSoC5/ETH0.c ****  * \brief Read a MAC (hardware) address from a set of registers.
 358:Generated_Source\PSoC5/ETH0.c ****  * \param addr the address from which the data will be read
 359:Generated_Source\PSoC5/ETH0.c ****  * \param *mac pointer to the array of bytes to hold the output mac address.
 360:Generated_Source\PSoC5/ETH0.c ****  */
 361:Generated_Source\PSoC5/ETH0.c **** static void ETH0_W51_GetMAC( uint16 addr, uint8* mac )
 362:Generated_Source\PSoC5/ETH0.c **** {
 363:Generated_Source\PSoC5/ETH0.c **** 	uint32 index;
 364:Generated_Source\PSoC5/ETH0.c **** 	for(index=0;index<6;++index) {
 365:Generated_Source\PSoC5/ETH0.c **** 		mac[index] = ETH0_W51_Read(addr+index);
 366:Generated_Source\PSoC5/ETH0.c **** 	}
 367:Generated_Source\PSoC5/ETH0.c **** }
 368:Generated_Source\PSoC5/ETH0.c **** /* ------------------------------------------------------------------------ */
 369:Generated_Source\PSoC5/ETH0.c **** /**
 370:Generated_Source\PSoC5/ETH0.c ****  * \brief Write an IPv4 address to the device.
 371:Generated_Source\PSoC5/ETH0.c ****  * \param addr the address of the memory/registers to write the IPv4 Address
ARM GAS  C:\Users\USUARIO\AppData\Local\Temp\cchqzDaB.s 			page 9


 372:Generated_Source\PSoC5/ETH0.c ****  * \param ip the IP address to write
 373:Generated_Source\PSoC5/ETH0.c ****  */
 374:Generated_Source\PSoC5/ETH0.c **** static void ETH0_W51_SetIP( uint16 addr, uint32 ip )
 375:Generated_Source\PSoC5/ETH0.c **** {
 376:Generated_Source\PSoC5/ETH0.c **** 	uint32 index;
 377:Generated_Source\PSoC5/ETH0.c **** 	uint8* buffer;
 378:Generated_Source\PSoC5/ETH0.c **** 
 379:Generated_Source\PSoC5/ETH0.c **** 	buffer = (uint8*)&ip;
 380:Generated_Source\PSoC5/ETH0.c **** 	for(index = 0;index<4;++index) {
 381:Generated_Source\PSoC5/ETH0.c **** 		ETH0_W51_Write(addr+index,buffer[index]);
 382:Generated_Source\PSoC5/ETH0.c **** 	}
 383:Generated_Source\PSoC5/ETH0.c **** }
 384:Generated_Source\PSoC5/ETH0.c **** /* ------------------------------------------------------------------------ */
 385:Generated_Source\PSoC5/ETH0.c **** /**
 386:Generated_Source\PSoC5/ETH0.c ****  * \brief Read an IPv4 address from a set of registers
 387:Generated_Source\PSoC5/ETH0.c ****  * \param addr the address from which the IP address will be retrieved.
 388:Generated_Source\PSoC5/ETH0.c ****  * \returns the IP address read from the device.
 389:Generated_Source\PSoC5/ETH0.c ****  */
 390:Generated_Source\PSoC5/ETH0.c **** static uint32 ETH0_W51_GetIP( uint16 addr )
 391:Generated_Source\PSoC5/ETH0.c **** {
 392:Generated_Source\PSoC5/ETH0.c **** 	uint8 buffer[4];
 393:Generated_Source\PSoC5/ETH0.c **** 	int index;
 394:Generated_Source\PSoC5/ETH0.c **** 	uint32* ip;
 395:Generated_Source\PSoC5/ETH0.c **** 	
 396:Generated_Source\PSoC5/ETH0.c **** 	ip = (uint32*) &buffer[0];
 397:Generated_Source\PSoC5/ETH0.c **** 	*ip = 0;
 398:Generated_Source\PSoC5/ETH0.c **** 	for(index=0;index<4;++index) {
 399:Generated_Source\PSoC5/ETH0.c **** 		buffer[index] = ETH0_W51_Read(addr+index);
 400:Generated_Source\PSoC5/ETH0.c **** 	}
 401:Generated_Source\PSoC5/ETH0.c **** 	return( *ip );
 402:Generated_Source\PSoC5/ETH0.c **** }
 403:Generated_Source\PSoC5/ETH0.c **** /* ------------------------------------------------------------------------ */
 404:Generated_Source\PSoC5/ETH0.c **** /**
 405:Generated_Source\PSoC5/ETH0.c ****  * \brief Write a 16-bit word to the device
 406:Generated_Source\PSoC5/ETH0.c ****  * \param addr the starting address to which the data will be written
 407:Generated_Source\PSoC5/ETH0.c ****  * \param val the 16-bit value to write
 408:Generated_Source\PSoC5/ETH0.c ****  */
 409:Generated_Source\PSoC5/ETH0.c **** static void ETH0_W51_Write16( uint16 addr, uint16 val )
 410:Generated_Source\PSoC5/ETH0.c **** {
 411:Generated_Source\PSoC5/ETH0.c **** 	ETH0_W51_Write( addr, val>>8);
 412:Generated_Source\PSoC5/ETH0.c **** 	ETH0_W51_Write( addr + 1, val&0x00FF);
 413:Generated_Source\PSoC5/ETH0.c **** }
 414:Generated_Source\PSoC5/ETH0.c **** /* ------------------------------------------------------------------------ */
 415:Generated_Source\PSoC5/ETH0.c **** /**
 416:Generated_Source\PSoC5/ETH0.c ****  * \brief Read a 16-bit value from the device
 417:Generated_Source\PSoC5/ETH0.c ****  * \param addr The starting address from which data will be read
 418:Generated_Source\PSoC5/ETH0.c ****  * \returns the 16-bit value read from the memory.
 419:Generated_Source\PSoC5/ETH0.c ****  */
 420:Generated_Source\PSoC5/ETH0.c **** static uint16 ETH0_W51_Read16( uint16 addr )
 421:Generated_Source\PSoC5/ETH0.c **** {
 422:Generated_Source\PSoC5/ETH0.c **** 	uint16 val;
 423:Generated_Source\PSoC5/ETH0.c **** 	
 424:Generated_Source\PSoC5/ETH0.c **** 	val = ETH0_W51_Read( addr );
 425:Generated_Source\PSoC5/ETH0.c **** 	val <<= 8;
 426:Generated_Source\PSoC5/ETH0.c **** 	val += ETH0_W51_Read( addr + 1);
 427:Generated_Source\PSoC5/ETH0.c **** 	
 428:Generated_Source\PSoC5/ETH0.c **** 	return( val );
ARM GAS  C:\Users\USUARIO\AppData\Local\Temp\cchqzDaB.s 			page 10


 429:Generated_Source\PSoC5/ETH0.c **** }
 430:Generated_Source\PSoC5/ETH0.c **** /* ------------------------------------------------------------------------ */
 431:Generated_Source\PSoC5/ETH0.c **** /**
 432:Generated_Source\PSoC5/ETH0.c ****  * \brief Write a block of data to consecutive memory addresses
 433:Generated_Source\PSoC5/ETH0.c ****  * \param addr the starting address of the write
 434:Generated_Source\PSoC5/ETH0.c ****  * \param *buffer pointer to the data buffer holding the data to write
 435:Generated_Source\PSoC5/ETH0.c ****  * \param length the length of data to be written
 436:Generated_Source\PSoC5/ETH0.c ****  */
 437:Generated_Source\PSoC5/ETH0.c **** static void ETH0_W51_WriteBlock(uint16 addr, uint8* buffer, uint16 length)
 438:Generated_Source\PSoC5/ETH0.c **** {
 439:Generated_Source\PSoC5/ETH0.c **** 	int index;
 440:Generated_Source\PSoC5/ETH0.c **** 	for(index=0;index<length;++index) {
 441:Generated_Source\PSoC5/ETH0.c **** 		ETH0_W51_Write(addr+index,buffer[index]);
 442:Generated_Source\PSoC5/ETH0.c **** 	}
 443:Generated_Source\PSoC5/ETH0.c **** }
 444:Generated_Source\PSoC5/ETH0.c **** /* ------------------------------------------------------------------------ */
 445:Generated_Source\PSoC5/ETH0.c **** /**
 446:Generated_Source\PSoC5/ETH0.c ****  * \brief read a block of data from consecutive memory addresses
 447:Generated_Source\PSoC5/ETH0.c ****  * \param addr the address from which the read will begin
 448:Generated_Source\PSoC5/ETH0.c ****  * \param *buffer pointer to the memory buffer which will hold the read data
 449:Generated_Source\PSoC5/ETH0.c ****  * \param length the length of data to read from the buffer.
 450:Generated_Source\PSoC5/ETH0.c ****  */
 451:Generated_Source\PSoC5/ETH0.c **** static void ETH0_W51_ReadBlock(uint16 addr, uint8* buffer, uint16 length)
 452:Generated_Source\PSoC5/ETH0.c **** {
 453:Generated_Source\PSoC5/ETH0.c **** 	int index;
 454:Generated_Source\PSoC5/ETH0.c **** 	
 455:Generated_Source\PSoC5/ETH0.c **** 	for(index=0;index<length;++index) {
 456:Generated_Source\PSoC5/ETH0.c **** 		buffer[index] = ETH0_W51_Read(addr+index);
 457:Generated_Source\PSoC5/ETH0.c **** 	}
 458:Generated_Source\PSoC5/ETH0.c **** }
 459:Generated_Source\PSoC5/ETH0.c **** /* ======================================================================== */
 460:Generated_Source\PSoC5/ETH0.c **** /* END SECTION */
 461:Generated_Source\PSoC5/ETH0.c **** #endif
 462:Generated_Source\PSoC5/ETH0.c **** /* ======================================================================== */
 463:Generated_Source\PSoC5/ETH0.c **** /* Chip Register access */
 464:Generated_Source\PSoC5/ETH0.c **** #if (1)
 465:Generated_Source\PSoC5/ETH0.c **** // Common Registers
 466:Generated_Source\PSoC5/ETH0.c **** /* ------------------------------------------------------------------------ */
 467:Generated_Source\PSoC5/ETH0.c **** /**
 468:Generated_Source\PSoC5/ETH0.c ****  * \brief Set teh chip mac address to teh specified address
 469:Generated_Source\PSoC5/ETH0.c ****  * \param *mac pointer to the array holding the MAC address
 470:Generated_Source\PSoC5/ETH0.c ****  */
 471:Generated_Source\PSoC5/ETH0.c **** static void ETH0_SetSourceMAC( uint8* mac ) { ETH0_W51_SetMAC(9,mac); }
 472:Generated_Source\PSoC5/ETH0.c **** /* ------------------------------------------------------------------------ */
 473:Generated_Source\PSoC5/ETH0.c **** /**
 474:Generated_Source\PSoC5/ETH0.c ****  * \brief Read the chip source MAC address from the MAC registers
 475:Generated_Source\PSoC5/ETH0.c ****  * \param *mac pointer to the address of the buffer to hold the read MAC address
 476:Generated_Source\PSoC5/ETH0.c ****  */
 477:Generated_Source\PSoC5/ETH0.c **** static void ETH0_GetSourceMAC( uint8* mac ) { ETH0_W51_GetMAC(9,mac); }
 478:Generated_Source\PSoC5/ETH0.c **** /* ------------------------------------------------------------------------ */
 479:Generated_Source\PSoC5/ETH0.c **** /**
 480:Generated_Source\PSoC5/ETH0.c ****  * \brief Set the IPv4 address of the network gateway
 481:Generated_Source\PSoC5/ETH0.c ****  * \param ip IP address of the gateway
 482:Generated_Source\PSoC5/ETH0.c ****  */
 483:Generated_Source\PSoC5/ETH0.c **** static void ETH0_SetGatewayAddress(uint32 ip) { ETH0_W51_SetIP(1,ip); }
 484:Generated_Source\PSoC5/ETH0.c **** /* ------------------------------------------------------------------------ */
 485:Generated_Source\PSoC5/ETH0.c **** /**
ARM GAS  C:\Users\USUARIO\AppData\Local\Temp\cchqzDaB.s 			page 11


 486:Generated_Source\PSoC5/ETH0.c ****  * \brief Read the gateway address from the device
 487:Generated_Source\PSoC5/ETH0.c ****  * \returns the IP address of the gateway
 488:Generated_Source\PSoC5/ETH0.c ****  */
 489:Generated_Source\PSoC5/ETH0.c **** static uint32 ETH0_GetGatewayAddress( void ) { return ETH0_W51_GetIP(1); }
 490:Generated_Source\PSoC5/ETH0.c **** /* ------------------------------------------------------------------------ */
 491:Generated_Source\PSoC5/ETH0.c **** /**
 492:Generated_Source\PSoC5/ETH0.c ****  * \brief set the subnet mask of the ethernet device
 493:Generated_Source\PSoC5/ETH0.c ****  * \param the subnet mask (IPv4)
 494:Generated_Source\PSoC5/ETH0.c ****  */
 495:Generated_Source\PSoC5/ETH0.c **** static void ETH0_SetSubnetMask( uint32 ip ) { ETH0_W51_SetIP(5, ip); }
 496:Generated_Source\PSoC5/ETH0.c **** /* ------------------------------------------------------------------------ */
 497:Generated_Source\PSoC5/ETH0.c **** /**
 498:Generated_Source\PSoC5/ETH0.c ****  * \brief Read the subnet mask from the device
 499:Generated_Source\PSoC5/ETH0.c ****  * \returns the subnet mask that was read from the device.
 500:Generated_Source\PSoC5/ETH0.c ****  */
 501:Generated_Source\PSoC5/ETH0.c **** static uint32 ETH0_GetSubnetMask( void ) { return ETH0_W51_GetIP(5); }
 502:Generated_Source\PSoC5/ETH0.c **** /* ------------------------------------------------------------------------ */
 503:Generated_Source\PSoC5/ETH0.c **** /**
 504:Generated_Source\PSoC5/ETH0.c ****  * \brief Write the device source IPv4 address
 505:Generated_Source\PSoC5/ETH0.c ****  * \param ip the ip address to set as the chip IP address
 506:Generated_Source\PSoC5/ETH0.c ****  */
 507:Generated_Source\PSoC5/ETH0.c **** static void ETH0_SetSourceIP( uint32 ip ) { ETH0_W51_SetIP( 0x0F, ip ); }
 508:Generated_Source\PSoC5/ETH0.c **** /* ------------------------------------------------------------------------ */
 509:Generated_Source\PSoC5/ETH0.c **** /**
 510:Generated_Source\PSoC5/ETH0.c ****  * \brief Read the device's programmed IP address
 511:Generated_Source\PSoC5/ETH0.c ****  * \returns The IPv4 address to which the device is set.
 512:Generated_Source\PSoC5/ETH0.c ****  */
 513:Generated_Source\PSoC5/ETH0.c **** static uint32 ETH0_GetSourceIP( void ) { return ETH0_W51_GetIP( 0x0F ); }
 514:Generated_Source\PSoC5/ETH0.c **** /* ------------------------------------------------------------------------ */
 515:Generated_Source\PSoC5/ETH0.c **** /**
 516:Generated_Source\PSoC5/ETH0.c ****  * \brief Write a value to the device internal MODE register
 517:Generated_Source\PSoC5/ETH0.c ****  * \param mode the value to be written to the mode register.
 518:Generated_Source\PSoC5/ETH0.c ****  */
 519:Generated_Source\PSoC5/ETH0.c **** static void ETH0_SetMode( uint8 mode ) { ETH0_W51_Write(0,mode); }
  85              		.loc 1 519 0
  86              		.cfi_startproc
  87              		@ args = 0, pretend = 0, frame = 0
  88              		@ frame_needed = 0, uses_anonymous_args = 0
  89              	.LVL9:
  90 0000 08B5     		push	{r3, lr}
  91              		.cfi_def_cfa_offset 8
  92              		.cfi_offset 3, -8
  93              		.cfi_offset 14, -4
  94              		.loc 1 519 0
  95 0002 0146     		mov	r1, r0
  96 0004 0020     		movs	r0, #0
  97              	.LVL10:
  98 0006 FFF7FEFF 		bl	ETH0_W51_Write
  99              	.LVL11:
 100 000a 08BD     		pop	{r3, pc}
 101              		.cfi_endproc
 102              	.LFE19:
 103              		.size	ETH0_SetMode, .-ETH0_SetMode
 104              		.section	.text.ETH0_SetTxMemSize,"ax",%progbits
 105              		.align	2
 106              		.thumb
 107              		.thumb_func
ARM GAS  C:\Users\USUARIO\AppData\Local\Temp\cchqzDaB.s 			page 12


 108              		.type	ETH0_SetTxMemSize, %function
 109              	ETH0_SetTxMemSize:
 110              	.LFB31:
 520:Generated_Source\PSoC5/ETH0.c **** /* ------------------------------------------------------------------------ */
 521:Generated_Source\PSoC5/ETH0.c **** /**
 522:Generated_Source\PSoC5/ETH0.c ****  * \brief Read the present contents of the device internal mode register
 523:Generated_Source\PSoC5/ETH0.c ****  * \returns the value of the mode register
 524:Generated_Source\PSoC5/ETH0.c ****  */
 525:Generated_Source\PSoC5/ETH0.c **** static uint8 ETH0_GetMode( void ) { return ETH0_W51_Read(0); }
 526:Generated_Source\PSoC5/ETH0.c **** /* ------------------------------------------------------------------------ */
 527:Generated_Source\PSoC5/ETH0.c **** /**
 528:Generated_Source\PSoC5/ETH0.c ****  * \brief Write the value of the interrupt register
 529:Generated_Source\PSoC5/ETH0.c ****  * \param ir the value to be written to the interrupt register
 530:Generated_Source\PSoC5/ETH0.c ****  */
 531:Generated_Source\PSoC5/ETH0.c **** static void ETH0_SetIR( uint8 ir ) { ETH0_W51_Write(0x0015,ir); }
 532:Generated_Source\PSoC5/ETH0.c **** /* ------------------------------------------------------------------------ */
 533:Generated_Source\PSoC5/ETH0.c **** /**
 534:Generated_Source\PSoC5/ETH0.c ****  * \brief Read the contents of the interrupt register
 535:Generated_Source\PSoC5/ETH0.c ****  * \returns the contents read from the interrupt register
 536:Generated_Source\PSoC5/ETH0.c ****  */
 537:Generated_Source\PSoC5/ETH0.c **** static uint8 ETH0_GetIR( void ) { return ETH0_W51_Read(0x0015); }
 538:Generated_Source\PSoC5/ETH0.c **** /* ------------------------------------------------------------------------ */
 539:Generated_Source\PSoC5/ETH0.c **** /**
 540:Generated_Source\PSoC5/ETH0.c ****  * \brief Set the value of the interrupt mask register
 541:Generated_Source\PSoC5/ETH0.c ****  * \param imr the value to be written to the interrupt mask register
 542:Generated_Source\PSoC5/ETH0.c ****  */
 543:Generated_Source\PSoC5/ETH0.c **** static void ETH0_SetIMR( uint8 imr) { ETH0_W51_Write( 0x0016, imr ); }
 544:Generated_Source\PSoC5/ETH0.c **** /* ------------------------------------------------------------------------ */
 545:Generated_Source\PSoC5/ETH0.c **** /**
 546:Generated_Source\PSoC5/ETH0.c ****  * \brief Read the interrupt mask register
 547:Generated_Source\PSoC5/ETH0.c ****  * \returns the contents of the interrupt mask register
 548:Generated_Source\PSoC5/ETH0.c ****  */
 549:Generated_Source\PSoC5/ETH0.c **** static uint8 ETH0_GetIMR( void ) { return ETH0_W51_Read( 0x0016 ); }
 550:Generated_Source\PSoC5/ETH0.c **** /* ------------------------------------------------------------------------ */
 551:Generated_Source\PSoC5/ETH0.c **** /**
 552:Generated_Source\PSoC5/ETH0.c ****  * \brief Write the retry time register
 553:Generated_Source\PSoC5/ETH0.c ****  * \param time the value to be written to the regster
 554:Generated_Source\PSoC5/ETH0.c ****  */
 555:Generated_Source\PSoC5/ETH0.c **** static void ETH0_SetRetryTime( uint16 time) { ETH0_W51_Write16( 0x0017, time ); }
 556:Generated_Source\PSoC5/ETH0.c **** /* ------------------------------------------------------------------------ */
 557:Generated_Source\PSoC5/ETH0.c **** /**
 558:Generated_Source\PSoC5/ETH0.c ****  * \brief Read the retry tie register
 559:Generated_Source\PSoC5/ETH0.c ****  * \returns the value read from the register
 560:Generated_Source\PSoC5/ETH0.c ****  */
 561:Generated_Source\PSoC5/ETH0.c **** static uint16 ETH0_GetRetryTime( void ) { return ETH0_W51_Read16( 0x0017 ); }
 562:Generated_Source\PSoC5/ETH0.c **** /* ------------------------------------------------------------------------ */
 563:Generated_Source\PSoC5/ETH0.c **** /**
 564:Generated_Source\PSoC5/ETH0.c ****  * \breif write a value to the retry count register
 565:Generated_Source\PSoC5/ETH0.c ****  * \param count the value to be written to the register
 566:Generated_Source\PSoC5/ETH0.c ****  */
 567:Generated_Source\PSoC5/ETH0.c **** static void ETH0_SetRetryCount( uint8 count ) { ETH0_W51_Write( 0x0019, count); }
 568:Generated_Source\PSoC5/ETH0.c **** /* ------------------------------------------------------------------------ */
 569:Generated_Source\PSoC5/ETH0.c **** /**
 570:Generated_Source\PSoC5/ETH0.c ****  * \brief Read the contents of the retry count register
 571:Generated_Source\PSoC5/ETH0.c ****  * \returns the value read from teh register
 572:Generated_Source\PSoC5/ETH0.c ****  */
 573:Generated_Source\PSoC5/ETH0.c **** static uint8 ETH0_GetRetryCount( void ) { return ETH0_W51_Read( 0x0019 ); }
ARM GAS  C:\Users\USUARIO\AppData\Local\Temp\cchqzDaB.s 			page 13


 574:Generated_Source\PSoC5/ETH0.c **** /* ------------------------------------------------------------------------ */
 575:Generated_Source\PSoC5/ETH0.c **** /**
 576:Generated_Source\PSoC5/ETH0.c ****  * \brief write a value to the Rx mem size register
 577:Generated_Source\PSoC5/ETH0.c ****  * \param size the value to be written to the register
 578:Generated_Source\PSoC5/ETH0.c ****  */
 579:Generated_Source\PSoC5/ETH0.c **** static void ETH0_SetRxMemSize( uint8 size ) { ETH0_W51_Write( 0x1A, size ); }
 580:Generated_Source\PSoC5/ETH0.c **** /* ------------------------------------------------------------------------ */
 581:Generated_Source\PSoC5/ETH0.c **** /**
 582:Generated_Source\PSoC5/ETH0.c ****  * \brief Read the contents of hte rx mem size register
 583:Generated_Source\PSoC5/ETH0.c ****  * \returns the value read from teh register
 584:Generated_Source\PSoC5/ETH0.c ****  */
 585:Generated_Source\PSoC5/ETH0.c **** static uint8 ETH0_GetRxMemSize( void ) { return ETH0_W51_Read(0x1A); }
 586:Generated_Source\PSoC5/ETH0.c **** /* ------------------------------------------------------------------------ */
 587:Generated_Source\PSoC5/ETH0.c **** /**
 588:Generated_Source\PSoC5/ETH0.c ****  * \brief write a value to the tx mem size register
 589:Generated_Source\PSoC5/ETH0.c ****  * \param size The value to be written to the register
 590:Generated_Source\PSoC5/ETH0.c ****  */
 591:Generated_Source\PSoC5/ETH0.c **** static void ETH0_SetTxMemSize( uint8 size ) { ETH0_W51_Write( 0x1B, size); }
 111              		.loc 1 591 0
 112              		.cfi_startproc
 113              		@ args = 0, pretend = 0, frame = 0
 114              		@ frame_needed = 0, uses_anonymous_args = 0
 115              	.LVL12:
 116 0000 08B5     		push	{r3, lr}
 117              		.cfi_def_cfa_offset 8
 118              		.cfi_offset 3, -8
 119              		.cfi_offset 14, -4
 120              		.loc 1 591 0
 121 0002 0146     		mov	r1, r0
 122 0004 1B20     		movs	r0, #27
 123              	.LVL13:
 124 0006 FFF7FEFF 		bl	ETH0_W51_Write
 125              	.LVL14:
 126 000a 08BD     		pop	{r3, pc}
 127              		.cfi_endproc
 128              	.LFE31:
 129              		.size	ETH0_SetTxMemSize, .-ETH0_SetTxMemSize
 130              		.section	.text.ETH0_SetRxMemSize,"ax",%progbits
 131              		.align	2
 132              		.thumb
 133              		.thumb_func
 134              		.type	ETH0_SetRxMemSize, %function
 135              	ETH0_SetRxMemSize:
 136              	.LFB29:
 579:Generated_Source\PSoC5/ETH0.c **** /* ------------------------------------------------------------------------ */
 137              		.loc 1 579 0
 138              		.cfi_startproc
 139              		@ args = 0, pretend = 0, frame = 0
 140              		@ frame_needed = 0, uses_anonymous_args = 0
 141              	.LVL15:
 142 0000 08B5     		push	{r3, lr}
 143              		.cfi_def_cfa_offset 8
 144              		.cfi_offset 3, -8
 145              		.cfi_offset 14, -4
 579:Generated_Source\PSoC5/ETH0.c **** /* ------------------------------------------------------------------------ */
 146              		.loc 1 579 0
 147 0002 0146     		mov	r1, r0
ARM GAS  C:\Users\USUARIO\AppData\Local\Temp\cchqzDaB.s 			page 14


 148 0004 1A20     		movs	r0, #26
 149              	.LVL16:
 150 0006 FFF7FEFF 		bl	ETH0_W51_Write
 151              	.LVL17:
 152 000a 08BD     		pop	{r3, pc}
 153              		.cfi_endproc
 154              	.LFE29:
 155              		.size	ETH0_SetRxMemSize, .-ETH0_SetRxMemSize
 156              		.section	.text.ETH0_W51_SetIP,"ax",%progbits
 157              		.align	2
 158              		.thumb
 159              		.thumb_func
 160              		.type	ETH0_W51_SetIP, %function
 161              	ETH0_W51_SetIP:
 162              	.LFB5:
 375:Generated_Source\PSoC5/ETH0.c **** 	uint32 index;
 163              		.loc 1 375 0
 164              		.cfi_startproc
 165              		@ args = 0, pretend = 0, frame = 8
 166              		@ frame_needed = 0, uses_anonymous_args = 0
 167              	.LVL18:
 168 0000 30B5     		push	{r4, r5, lr}
 169              		.cfi_def_cfa_offset 12
 170              		.cfi_offset 4, -12
 171              		.cfi_offset 5, -8
 172              		.cfi_offset 14, -4
 173 0002 83B0     		sub	sp, sp, #12
 174              		.cfi_def_cfa_offset 24
 175 0004 0546     		mov	r5, r0
 176 0006 0191     		str	r1, [sp, #4]
 177              	.LVL19:
 380:Generated_Source\PSoC5/ETH0.c **** 		ETH0_W51_Write(addr+index,buffer[index]);
 178              		.loc 1 380 0
 179 0008 0024     		movs	r4, #0
 180 000a 06E0     		b	.L12
 181              	.LVL20:
 182              	.L13:
 381:Generated_Source\PSoC5/ETH0.c **** 	}
 183              		.loc 1 381 0 discriminator 3
 184 000c 2819     		adds	r0, r5, r4
 185 000e 01AB     		add	r3, sp, #4
 186              	.LVL21:
 187 0010 195D     		ldrb	r1, [r3, r4]	@ zero_extendqisi2
 188 0012 80B2     		uxth	r0, r0
 189 0014 FFF7FEFF 		bl	ETH0_W51_Write
 190              	.LVL22:
 380:Generated_Source\PSoC5/ETH0.c **** 		ETH0_W51_Write(addr+index,buffer[index]);
 191              		.loc 1 380 0 discriminator 3
 192 0018 0134     		adds	r4, r4, #1
 193              	.LVL23:
 194              	.L12:
 380:Generated_Source\PSoC5/ETH0.c **** 		ETH0_W51_Write(addr+index,buffer[index]);
 195              		.loc 1 380 0 is_stmt 0 discriminator 1
 196 001a 032C     		cmp	r4, #3
 197 001c F6D9     		bls	.L13
 383:Generated_Source\PSoC5/ETH0.c **** /* ------------------------------------------------------------------------ */
 198              		.loc 1 383 0 is_stmt 1
ARM GAS  C:\Users\USUARIO\AppData\Local\Temp\cchqzDaB.s 			page 15


 199 001e 03B0     		add	sp, sp, #12
 200              		.cfi_def_cfa_offset 12
 201              		@ sp needed
 202 0020 30BD     		pop	{r4, r5, pc}
 203              		.cfi_endproc
 204              	.LFE5:
 205              		.size	ETH0_W51_SetIP, .-ETH0_W51_SetIP
 206 0022 00BF     		.section	.text.ETH0_SetGatewayAddress,"ax",%progbits
 207              		.align	2
 208              		.thumb
 209              		.thumb_func
 210              		.type	ETH0_SetGatewayAddress, %function
 211              	ETH0_SetGatewayAddress:
 212              	.LFB13:
 483:Generated_Source\PSoC5/ETH0.c **** /* ------------------------------------------------------------------------ */
 213              		.loc 1 483 0
 214              		.cfi_startproc
 215              		@ args = 0, pretend = 0, frame = 0
 216              		@ frame_needed = 0, uses_anonymous_args = 0
 217              	.LVL24:
 218 0000 08B5     		push	{r3, lr}
 219              		.cfi_def_cfa_offset 8
 220              		.cfi_offset 3, -8
 221              		.cfi_offset 14, -4
 483:Generated_Source\PSoC5/ETH0.c **** /* ------------------------------------------------------------------------ */
 222              		.loc 1 483 0
 223 0002 0146     		mov	r1, r0
 224 0004 0120     		movs	r0, #1
 225              	.LVL25:
 226 0006 FFF7FEFF 		bl	ETH0_W51_SetIP
 227              	.LVL26:
 228 000a 08BD     		pop	{r3, pc}
 229              		.cfi_endproc
 230              	.LFE13:
 231              		.size	ETH0_SetGatewayAddress, .-ETH0_SetGatewayAddress
 232              		.section	.text.ETH0_SetSourceIP,"ax",%progbits
 233              		.align	2
 234              		.thumb
 235              		.thumb_func
 236              		.type	ETH0_SetSourceIP, %function
 237              	ETH0_SetSourceIP:
 238              	.LFB17:
 507:Generated_Source\PSoC5/ETH0.c **** /* ------------------------------------------------------------------------ */
 239              		.loc 1 507 0
 240              		.cfi_startproc
 241              		@ args = 0, pretend = 0, frame = 0
 242              		@ frame_needed = 0, uses_anonymous_args = 0
 243              	.LVL27:
 244 0000 08B5     		push	{r3, lr}
 245              		.cfi_def_cfa_offset 8
 246              		.cfi_offset 3, -8
 247              		.cfi_offset 14, -4
 507:Generated_Source\PSoC5/ETH0.c **** /* ------------------------------------------------------------------------ */
 248              		.loc 1 507 0
 249 0002 0146     		mov	r1, r0
 250 0004 0F20     		movs	r0, #15
 251              	.LVL28:
ARM GAS  C:\Users\USUARIO\AppData\Local\Temp\cchqzDaB.s 			page 16


 252 0006 FFF7FEFF 		bl	ETH0_W51_SetIP
 253              	.LVL29:
 254 000a 08BD     		pop	{r3, pc}
 255              		.cfi_endproc
 256              	.LFE17:
 257              		.size	ETH0_SetSourceIP, .-ETH0_SetSourceIP
 258              		.section	.text.ETH0_SetSubnetMask,"ax",%progbits
 259              		.align	2
 260              		.thumb
 261              		.thumb_func
 262              		.type	ETH0_SetSubnetMask, %function
 263              	ETH0_SetSubnetMask:
 264              	.LFB15:
 495:Generated_Source\PSoC5/ETH0.c **** /* ------------------------------------------------------------------------ */
 265              		.loc 1 495 0
 266              		.cfi_startproc
 267              		@ args = 0, pretend = 0, frame = 0
 268              		@ frame_needed = 0, uses_anonymous_args = 0
 269              	.LVL30:
 270 0000 08B5     		push	{r3, lr}
 271              		.cfi_def_cfa_offset 8
 272              		.cfi_offset 3, -8
 273              		.cfi_offset 14, -4
 495:Generated_Source\PSoC5/ETH0.c **** /* ------------------------------------------------------------------------ */
 274              		.loc 1 495 0
 275 0002 0146     		mov	r1, r0
 276 0004 0520     		movs	r0, #5
 277              	.LVL31:
 278 0006 FFF7FEFF 		bl	ETH0_W51_SetIP
 279              	.LVL32:
 280 000a 08BD     		pop	{r3, pc}
 281              		.cfi_endproc
 282              	.LFE15:
 283              		.size	ETH0_SetSubnetMask, .-ETH0_SetSubnetMask
 284              		.section	.text.ETH0_SetSocketDestIP,"ax",%progbits
 285              		.align	2
 286              		.thumb
 287              		.thumb_func
 288              		.type	ETH0_SetSocketDestIP, %function
 289              	ETH0_SetSocketDestIP:
 290              	.LFB49:
 592:Generated_Source\PSoC5/ETH0.c **** /* ------------------------------------------------------------------------ */
 593:Generated_Source\PSoC5/ETH0.c **** /**
 594:Generated_Source\PSoC5/ETH0.c ****  * \brief read the contents of the tx mem size register
 595:Generated_Source\PSoC5/ETH0.c ****  * \returns the value read from the register
 596:Generated_Source\PSoC5/ETH0.c ****  */
 597:Generated_Source\PSoC5/ETH0.c **** static uint8 ETH0_GetTxMemSize( void ) { return ETH0_W51_Read( 0x1B);}
 598:Generated_Source\PSoC5/ETH0.c **** /* ------------------------------------------------------------------------ */
 599:Generated_Source\PSoC5/ETH0.c **** /**
 600:Generated_Source\PSoC5/ETH0.c ****  * \brief write a value to the unreachable IP register
 601:Generated_Source\PSoC5/ETH0.c ****  * \param ip the value to be written to the register
 602:Generated_Source\PSoC5/ETH0.c ****  */
 603:Generated_Source\PSoC5/ETH0.c **** static void ETH0_SetUnreachableIP( uint32 ip) { ETH0_W51_SetIP( 0x2A, ip); }
 604:Generated_Source\PSoC5/ETH0.c **** /* ------------------------------------------------------------------------ */
 605:Generated_Source\PSoC5/ETH0.c **** /**
 606:Generated_Source\PSoC5/ETH0.c ****  * \brief read the contents of the unreachable IP register
 607:Generated_Source\PSoC5/ETH0.c ****  * \returns the value read from teh register
ARM GAS  C:\Users\USUARIO\AppData\Local\Temp\cchqzDaB.s 			page 17


 608:Generated_Source\PSoC5/ETH0.c ****  */
 609:Generated_Source\PSoC5/ETH0.c **** static uint32 ETH0_GetUnreachableIP( void ) { return ETH0_W51_GetIP( 0x2A ); }
 610:Generated_Source\PSoC5/ETH0.c **** /* ------------------------------------------------------------------------ */
 611:Generated_Source\PSoC5/ETH0.c **** /**
 612:Generated_Source\PSoC5/ETH0.c ****  * \brief write a value to the unreachable port register
 613:Generated_Source\PSoC5/ETH0.c ****  * \param port the value to be written to the register
 614:Generated_Source\PSoC5/ETH0.c ****  */
 615:Generated_Source\PSoC5/ETH0.c **** static void ETH0_SetUnreachablePort( uint16 port) { ETH0_W51_Write16(0x2E, port); }
 616:Generated_Source\PSoC5/ETH0.c **** /* ------------------------------------------------------------------------ */
 617:Generated_Source\PSoC5/ETH0.c **** /**
 618:Generated_Source\PSoC5/ETH0.c ****  * \brief read the contents of the unreachable port register
 619:Generated_Source\PSoC5/ETH0.c ****  * \returns the value read from the register
 620:Generated_Source\PSoC5/ETH0.c ****  */
 621:Generated_Source\PSoC5/ETH0.c **** static uint16 ETH0_GetUnreachablePort( void ) { return ETH0_W51_Read16(0x2E); }
 622:Generated_Source\PSoC5/ETH0.c **** /* ======================================================================== */
 623:Generated_Source\PSoC5/ETH0.c **** /* End Section */
 624:Generated_Source\PSoC5/ETH0.c **** #endif
 625:Generated_Source\PSoC5/ETH0.c **** /* ======================================================================== */
 626:Generated_Source\PSoC5/ETH0.c **** /* Socket Registers */
 627:Generated_Source\PSoC5/ETH0.c **** #if (1)
 628:Generated_Source\PSoC5/ETH0.c **** /**
 629:Generated_Source\PSoC5/ETH0.c ****  * \def ETH0_SOCKET BASE(s)
 630:Generated_Source\PSoC5/ETH0.c ****  * \brief Convert the socket number to a base address within the W5100
 631:Generated_Source\PSoC5/ETH0.c ****  */
 632:Generated_Source\PSoC5/ETH0.c **** #define ETH0_SOCKET_BASE(s)           ((s<<8)+0x0400)
 633:Generated_Source\PSoC5/ETH0.c **** /* ------------------------------------------------------------------------ */
 634:Generated_Source\PSoC5/ETH0.c **** /**
 635:Generated_Source\PSoC5/ETH0.c ****  * \brief Write a value to the socket mode register
 636:Generated_Source\PSoC5/ETH0.c ****  * \param socket the socket number for the addressed register
 637:Generated_Source\PSoC5/ETH0.c ****  * \param mode the value to be written to the register
 638:Generated_Source\PSoC5/ETH0.c ****  */
 639:Generated_Source\PSoC5/ETH0.c **** static void ETH0_SetSocketMode(uint8 socket, uint8 mode)
 640:Generated_Source\PSoC5/ETH0.c **** { ETH0_W51_Write(ETH0_SOCKET_BASE(socket), mode); }
 641:Generated_Source\PSoC5/ETH0.c **** /* ------------------------------------------------------------------------ */
 642:Generated_Source\PSoC5/ETH0.c **** /**
 643:Generated_Source\PSoC5/ETH0.c ****  * \brief Read a value from the socket mode register
 644:Generated_Source\PSoC5/ETH0.c ****  * \param socket the socket number for the addressed register
 645:Generated_Source\PSoC5/ETH0.c ****  * \returns the value read from the register
 646:Generated_Source\PSoC5/ETH0.c ****  */
 647:Generated_Source\PSoC5/ETH0.c **** static uint8 ETH0_GetSocketMode(uint8 socket)
 648:Generated_Source\PSoC5/ETH0.c **** { return ETH0_W51_Read(ETH0_SOCKET_BASE(socket)); }
 649:Generated_Source\PSoC5/ETH0.c **** /* ------------------------------------------------------------------------ */
 650:Generated_Source\PSoC5/ETH0.c **** /**
 651:Generated_Source\PSoC5/ETH0.c ****  * \brief Write a value to the socket command register
 652:Generated_Source\PSoC5/ETH0.c ****  * \param socket the socket number for the addressed register
 653:Generated_Source\PSoC5/ETH0.c ****  * \param cmd the value to be written to the register
 654:Generated_Source\PSoC5/ETH0.c ****  */
 655:Generated_Source\PSoC5/ETH0.c **** static void ETH0_SetSocketCommand(uint8 socket, uint8 cmd)
 656:Generated_Source\PSoC5/ETH0.c **** { ETH0_W51_Write(ETH0_SOCKET_BASE(socket)+1, cmd); }
 657:Generated_Source\PSoC5/ETH0.c **** /* ------------------------------------------------------------------------ */
 658:Generated_Source\PSoC5/ETH0.c **** /**
 659:Generated_Source\PSoC5/ETH0.c ****  * \brief Read a value from the socket command register
 660:Generated_Source\PSoC5/ETH0.c ****  * \param socket the socket number for the addressed register
 661:Generated_Source\PSoC5/ETH0.c ****  * \returns the value read from the register
 662:Generated_Source\PSoC5/ETH0.c ****  */
 663:Generated_Source\PSoC5/ETH0.c **** static uint8 ETH0_GetSocketCommand(uint8 socket)
 664:Generated_Source\PSoC5/ETH0.c **** { return ETH0_W51_Read(ETH0_SOCKET_BASE(socket)+1); }
ARM GAS  C:\Users\USUARIO\AppData\Local\Temp\cchqzDaB.s 			page 18


 665:Generated_Source\PSoC5/ETH0.c **** /* ------------------------------------------------------------------------ */
 666:Generated_Source\PSoC5/ETH0.c **** /**
 667:Generated_Source\PSoC5/ETH0.c ****  * \brief Write a value to the socket interrupt register
 668:Generated_Source\PSoC5/ETH0.c ****  * \param socket the socket number for the addressed register
 669:Generated_Source\PSoC5/ETH0.c ****  * \param ir the value to be written to the register
 670:Generated_Source\PSoC5/ETH0.c ****  */
 671:Generated_Source\PSoC5/ETH0.c **** static void ETH0_SetSocketIR(uint8 socket, uint8 ir)
 672:Generated_Source\PSoC5/ETH0.c **** { ETH0_W51_Write(ETH0_SOCKET_BASE(socket)+2,ir); }
 673:Generated_Source\PSoC5/ETH0.c **** /* ------------------------------------------------------------------------ */
 674:Generated_Source\PSoC5/ETH0.c **** /**
 675:Generated_Source\PSoC5/ETH0.c ****  * \brief Read a value from the socket interrupt register
 676:Generated_Source\PSoC5/ETH0.c ****  * \param socket the socket number for the addressed register
 677:Generated_Source\PSoC5/ETH0.c ****  * \returns the value read from the register
 678:Generated_Source\PSoC5/ETH0.c ****  */
 679:Generated_Source\PSoC5/ETH0.c **** static uint8 ETH0_GetSocketIR(uint8 socket)
 680:Generated_Source\PSoC5/ETH0.c **** { return ETH0_W51_Read(ETH0_SOCKET_BASE(socket)+2); }
 681:Generated_Source\PSoC5/ETH0.c **** /* ------------------------------------------------------------------------ */
 682:Generated_Source\PSoC5/ETH0.c **** /**
 683:Generated_Source\PSoC5/ETH0.c ****  * \brief Write a value to the socket status register
 684:Generated_Source\PSoC5/ETH0.c ****  * \param socket the socket number for the addressed register
 685:Generated_Source\PSoC5/ETH0.c ****  * \param status the value to be written to the register
 686:Generated_Source\PSoC5/ETH0.c ****  */
 687:Generated_Source\PSoC5/ETH0.c **** static void ETH0_SetSocketStatus(uint8 socket, uint8 status)
 688:Generated_Source\PSoC5/ETH0.c **** { ETH0_W51_Write(ETH0_SOCKET_BASE(socket)+3,status); }
 689:Generated_Source\PSoC5/ETH0.c **** /* ------------------------------------------------------------------------ */
 690:Generated_Source\PSoC5/ETH0.c **** /**
 691:Generated_Source\PSoC5/ETH0.c ****  * \brief Read a value from the socket status register
 692:Generated_Source\PSoC5/ETH0.c ****  * \param socket the socket number for the addressed register
 693:Generated_Source\PSoC5/ETH0.c ****  * \returns the value read from the register
 694:Generated_Source\PSoC5/ETH0.c ****  */
 695:Generated_Source\PSoC5/ETH0.c **** static uint8 ETH0_GetSocketStatus(uint8 socket)
 696:Generated_Source\PSoC5/ETH0.c **** { return ETH0_W51_Read(ETH0_SOCKET_BASE(socket)+3); }
 697:Generated_Source\PSoC5/ETH0.c **** /* ------------------------------------------------------------------------ */
 698:Generated_Source\PSoC5/ETH0.c **** /**
 699:Generated_Source\PSoC5/ETH0.c ****  * \brief Write a value to the socket source port register
 700:Generated_Source\PSoC5/ETH0.c ****  * \param socket the socket number for the addressed register
 701:Generated_Source\PSoC5/ETH0.c ****  * \param port the value to be written to the register
 702:Generated_Source\PSoC5/ETH0.c ****  */
 703:Generated_Source\PSoC5/ETH0.c **** static void ETH0_SetSocketSourcePort(uint8 socket, uint16 port)
 704:Generated_Source\PSoC5/ETH0.c **** { ETH0_W51_Write16(ETH0_SOCKET_BASE(socket)+4,port); }
 705:Generated_Source\PSoC5/ETH0.c **** /* ------------------------------------------------------------------------ */
 706:Generated_Source\PSoC5/ETH0.c **** /**
 707:Generated_Source\PSoC5/ETH0.c ****  * \brief Read a value from the socket source port register
 708:Generated_Source\PSoC5/ETH0.c ****  * \param socket the socket number for the addressed register
 709:Generated_Source\PSoC5/ETH0.c ****  * \returns the value read from the register
 710:Generated_Source\PSoC5/ETH0.c ****  */
 711:Generated_Source\PSoC5/ETH0.c **** static uint16 ETH0_GetSocketSourcePort(uint8 socket)
 712:Generated_Source\PSoC5/ETH0.c **** { return ETH0_W51_Read16(ETH0_SOCKET_BASE(socket)+4); }
 713:Generated_Source\PSoC5/ETH0.c **** /* ------------------------------------------------------------------------ */
 714:Generated_Source\PSoC5/ETH0.c **** /**
 715:Generated_Source\PSoC5/ETH0.c ****  * \brief Write a value to the socket Destination hardware address register
 716:Generated_Source\PSoC5/ETH0.c ****  * \param socket the socket number for the addressed register
 717:Generated_Source\PSoC5/ETH0.c ****  * \param *mac poitner to the array holding the values to be written to the register
 718:Generated_Source\PSoC5/ETH0.c ****  */
 719:Generated_Source\PSoC5/ETH0.c **** static void ETH0_SetSocketDestMAC(uint8 socket, uint8* mac)
 720:Generated_Source\PSoC5/ETH0.c **** { ETH0_W51_SetMAC( ETH0_SOCKET_BASE(socket)+6, mac); }
 721:Generated_Source\PSoC5/ETH0.c **** /* ------------------------------------------------------------------------ */
ARM GAS  C:\Users\USUARIO\AppData\Local\Temp\cchqzDaB.s 			page 19


 722:Generated_Source\PSoC5/ETH0.c **** /**
 723:Generated_Source\PSoC5/ETH0.c ****  * \brief Read a value from the socket destination hardware address (MAC) register
 724:Generated_Source\PSoC5/ETH0.c ****  * \param socket the socket number for the addressed register
 725:Generated_Source\PSoC5/ETH0.c ****  * \returns the value read from the register
 726:Generated_Source\PSoC5/ETH0.c ****  */
 727:Generated_Source\PSoC5/ETH0.c **** static void ETH0_GetSocketDestMAC(uint8 socket, uint8* mac)
 728:Generated_Source\PSoC5/ETH0.c **** { ETH0_W51_GetMAC( ETH0_SOCKET_BASE(socket)+6,mac); }
 729:Generated_Source\PSoC5/ETH0.c **** /* ------------------------------------------------------------------------ */
 730:Generated_Source\PSoC5/ETH0.c **** /**
 731:Generated_Source\PSoC5/ETH0.c ****  * \brief Write a value to the socket Destination IP address register
 732:Generated_Source\PSoC5/ETH0.c ****  * \param socket the socket number for the addressed register
 733:Generated_Source\PSoC5/ETH0.c ****  * \param ip the value to be written to the register
 734:Generated_Source\PSoC5/ETH0.c ****  */
 735:Generated_Source\PSoC5/ETH0.c **** static void ETH0_SetSocketDestIP(uint8 socket, uint32 ip)
 736:Generated_Source\PSoC5/ETH0.c **** { ETH0_W51_SetIP(ETH0_SOCKET_BASE(socket)+12,ip); }
 291              		.loc 1 736 0
 292              		.cfi_startproc
 293              		@ args = 0, pretend = 0, frame = 0
 294              		@ frame_needed = 0, uses_anonymous_args = 0
 295              	.LVL33:
 296 0000 08B5     		push	{r3, lr}
 297              		.cfi_def_cfa_offset 8
 298              		.cfi_offset 3, -8
 299              		.cfi_offset 14, -4
 300              		.loc 1 736 0
 301 0002 0002     		lsls	r0, r0, #8
 302              	.LVL34:
 303 0004 00F20C40 		addw	r0, r0, #1036
 304 0008 80B2     		uxth	r0, r0
 305 000a FFF7FEFF 		bl	ETH0_W51_SetIP
 306              	.LVL35:
 307 000e 08BD     		pop	{r3, pc}
 308              		.cfi_endproc
 309              	.LFE49:
 310              		.size	ETH0_SetSocketDestIP, .-ETH0_SetSocketDestIP
 311              		.section	.text.ETH0_W51_SetMAC,"ax",%progbits
 312              		.align	2
 313              		.thumb
 314              		.thumb_func
 315              		.type	ETH0_W51_SetMAC, %function
 316              	ETH0_W51_SetMAC:
 317              	.LFB3:
 347:Generated_Source\PSoC5/ETH0.c **** 	uint32 index;
 318              		.loc 1 347 0
 319              		.cfi_startproc
 320              		@ args = 0, pretend = 0, frame = 0
 321              		@ frame_needed = 0, uses_anonymous_args = 0
 322              	.LVL36:
 323 0000 70B5     		push	{r4, r5, r6, lr}
 324              		.cfi_def_cfa_offset 16
 325              		.cfi_offset 4, -16
 326              		.cfi_offset 5, -12
 327              		.cfi_offset 6, -8
 328              		.cfi_offset 14, -4
 329 0002 0646     		mov	r6, r0
 330 0004 0D46     		mov	r5, r1
 331              	.LVL37:
ARM GAS  C:\Users\USUARIO\AppData\Local\Temp\cchqzDaB.s 			page 20


 350:Generated_Source\PSoC5/ETH0.c **** 	{
 332              		.loc 1 350 0
 333 0006 0024     		movs	r4, #0
 334 0008 05E0     		b	.L24
 335              	.LVL38:
 336              	.L25:
 352:Generated_Source\PSoC5/ETH0.c **** 	}
 337              		.loc 1 352 0 discriminator 3
 338 000a 3019     		adds	r0, r6, r4
 339 000c 295D     		ldrb	r1, [r5, r4]	@ zero_extendqisi2
 340 000e 80B2     		uxth	r0, r0
 341 0010 FFF7FEFF 		bl	ETH0_W51_Write
 342              	.LVL39:
 350:Generated_Source\PSoC5/ETH0.c **** 	{
 343              		.loc 1 350 0 discriminator 3
 344 0014 0134     		adds	r4, r4, #1
 345              	.LVL40:
 346              	.L24:
 350:Generated_Source\PSoC5/ETH0.c **** 	{
 347              		.loc 1 350 0 is_stmt 0 discriminator 1
 348 0016 052C     		cmp	r4, #5
 349 0018 F7D9     		bls	.L25
 354:Generated_Source\PSoC5/ETH0.c **** /* ------------------------------------------------------------------------ */
 350              		.loc 1 354 0 is_stmt 1
 351 001a 70BD     		pop	{r4, r5, r6, pc}
 352              		.cfi_endproc
 353              	.LFE3:
 354              		.size	ETH0_W51_SetMAC, .-ETH0_W51_SetMAC
 355              		.section	.text.ETH0_SetSourceMAC,"ax",%progbits
 356              		.align	2
 357              		.thumb
 358              		.thumb_func
 359              		.type	ETH0_SetSourceMAC, %function
 360              	ETH0_SetSourceMAC:
 361              	.LFB11:
 471:Generated_Source\PSoC5/ETH0.c **** /* ------------------------------------------------------------------------ */
 362              		.loc 1 471 0
 363              		.cfi_startproc
 364              		@ args = 0, pretend = 0, frame = 0
 365              		@ frame_needed = 0, uses_anonymous_args = 0
 366              	.LVL41:
 367 0000 08B5     		push	{r3, lr}
 368              		.cfi_def_cfa_offset 8
 369              		.cfi_offset 3, -8
 370              		.cfi_offset 14, -4
 471:Generated_Source\PSoC5/ETH0.c **** /* ------------------------------------------------------------------------ */
 371              		.loc 1 471 0
 372 0002 0146     		mov	r1, r0
 373 0004 0920     		movs	r0, #9
 374              	.LVL42:
 375 0006 FFF7FEFF 		bl	ETH0_W51_SetMAC
 376              	.LVL43:
 377 000a 08BD     		pop	{r3, pc}
 378              		.cfi_endproc
 379              	.LFE11:
 380              		.size	ETH0_SetSourceMAC, .-ETH0_SetSourceMAC
 381              		.section	.text.ETH0_SetIR,"ax",%progbits
ARM GAS  C:\Users\USUARIO\AppData\Local\Temp\cchqzDaB.s 			page 21


 382              		.align	2
 383              		.thumb
 384              		.thumb_func
 385              		.type	ETH0_SetIR, %function
 386              	ETH0_SetIR:
 387              	.LFB21:
 531:Generated_Source\PSoC5/ETH0.c **** /* ------------------------------------------------------------------------ */
 388              		.loc 1 531 0
 389              		.cfi_startproc
 390              		@ args = 0, pretend = 0, frame = 0
 391              		@ frame_needed = 0, uses_anonymous_args = 0
 392              	.LVL44:
 393 0000 08B5     		push	{r3, lr}
 394              		.cfi_def_cfa_offset 8
 395              		.cfi_offset 3, -8
 396              		.cfi_offset 14, -4
 531:Generated_Source\PSoC5/ETH0.c **** /* ------------------------------------------------------------------------ */
 397              		.loc 1 531 0
 398 0002 0146     		mov	r1, r0
 399 0004 1520     		movs	r0, #21
 400              	.LVL45:
 401 0006 FFF7FEFF 		bl	ETH0_W51_Write
 402              	.LVL46:
 403 000a 08BD     		pop	{r3, pc}
 404              		.cfi_endproc
 405              	.LFE21:
 406              		.size	ETH0_SetIR, .-ETH0_SetIR
 407              		.section	.text.ETH0_W51_Write16,"ax",%progbits
 408              		.align	2
 409              		.thumb
 410              		.thumb_func
 411              		.type	ETH0_W51_Write16, %function
 412              	ETH0_W51_Write16:
 413              	.LFB7:
 410:Generated_Source\PSoC5/ETH0.c **** 	ETH0_W51_Write( addr, val>>8);
 414              		.loc 1 410 0
 415              		.cfi_startproc
 416              		@ args = 0, pretend = 0, frame = 0
 417              		@ frame_needed = 0, uses_anonymous_args = 0
 418              	.LVL47:
 419 0000 38B5     		push	{r3, r4, r5, lr}
 420              		.cfi_def_cfa_offset 16
 421              		.cfi_offset 3, -16
 422              		.cfi_offset 4, -12
 423              		.cfi_offset 5, -8
 424              		.cfi_offset 14, -4
 425 0002 0446     		mov	r4, r0
 426 0004 0D46     		mov	r5, r1
 411:Generated_Source\PSoC5/ETH0.c **** 	ETH0_W51_Write( addr + 1, val&0x00FF);
 427              		.loc 1 411 0
 428 0006 090A     		lsrs	r1, r1, #8
 429              	.LVL48:
 430 0008 FFF7FEFF 		bl	ETH0_W51_Write
 431              	.LVL49:
 412:Generated_Source\PSoC5/ETH0.c **** }
 432              		.loc 1 412 0
 433 000c 601C     		adds	r0, r4, #1
ARM GAS  C:\Users\USUARIO\AppData\Local\Temp\cchqzDaB.s 			page 22


 434 000e E9B2     		uxtb	r1, r5
 435 0010 80B2     		uxth	r0, r0
 436 0012 FFF7FEFF 		bl	ETH0_W51_Write
 437              	.LVL50:
 438 0016 38BD     		pop	{r3, r4, r5, pc}
 439              		.cfi_endproc
 440              	.LFE7:
 441              		.size	ETH0_W51_Write16, .-ETH0_W51_Write16
 442              		.section	.text.ETH0_SetSocketSourcePort,"ax",%progbits
 443              		.align	2
 444              		.thumb
 445              		.thumb_func
 446              		.type	ETH0_SetSocketSourcePort, %function
 447              	ETH0_SetSocketSourcePort:
 448              	.LFB45:
 704:Generated_Source\PSoC5/ETH0.c **** /* ------------------------------------------------------------------------ */
 449              		.loc 1 704 0
 450              		.cfi_startproc
 451              		@ args = 0, pretend = 0, frame = 0
 452              		@ frame_needed = 0, uses_anonymous_args = 0
 453              	.LVL51:
 454 0000 08B5     		push	{r3, lr}
 455              		.cfi_def_cfa_offset 8
 456              		.cfi_offset 3, -8
 457              		.cfi_offset 14, -4
 704:Generated_Source\PSoC5/ETH0.c **** /* ------------------------------------------------------------------------ */
 458              		.loc 1 704 0
 459 0002 0002     		lsls	r0, r0, #8
 460              	.LVL52:
 461 0004 00F20440 		addw	r0, r0, #1028
 462 0008 80B2     		uxth	r0, r0
 463 000a FFF7FEFF 		bl	ETH0_W51_Write16
 464              	.LVL53:
 465 000e 08BD     		pop	{r3, pc}
 466              		.cfi_endproc
 467              	.LFE45:
 468              		.size	ETH0_SetSocketSourcePort, .-ETH0_SetSocketSourcePort
 469              		.section	.text.ETH0_SetSocketDestPort,"ax",%progbits
 470              		.align	2
 471              		.thumb
 472              		.thumb_func
 473              		.type	ETH0_SetSocketDestPort, %function
 474              	ETH0_SetSocketDestPort:
 475              	.LFB51:
 737:Generated_Source\PSoC5/ETH0.c **** /* ------------------------------------------------------------------------ */
 738:Generated_Source\PSoC5/ETH0.c **** /**
 739:Generated_Source\PSoC5/ETH0.c ****  * \brief Read a value from the socket destination IP register
 740:Generated_Source\PSoC5/ETH0.c ****  * \param socket the socket number for the addressed register
 741:Generated_Source\PSoC5/ETH0.c ****  * \returns the value read from the register
 742:Generated_Source\PSoC5/ETH0.c ****  */
 743:Generated_Source\PSoC5/ETH0.c **** static uint32 ETH0_GetSocketDestIP(uint8 socket )
 744:Generated_Source\PSoC5/ETH0.c **** { return ETH0_W51_GetIP(ETH0_SOCKET_BASE(socket)+12); }
 745:Generated_Source\PSoC5/ETH0.c **** /* ------------------------------------------------------------------------ */
 746:Generated_Source\PSoC5/ETH0.c **** /**
 747:Generated_Source\PSoC5/ETH0.c ****  * \brief Write a value to the socket destination port register
 748:Generated_Source\PSoC5/ETH0.c ****  * \param socket the socket number for the addressed register
 749:Generated_Source\PSoC5/ETH0.c ****  * \param port the value to be written to the register
ARM GAS  C:\Users\USUARIO\AppData\Local\Temp\cchqzDaB.s 			page 23


 750:Generated_Source\PSoC5/ETH0.c ****  */
 751:Generated_Source\PSoC5/ETH0.c **** static void ETH0_SetSocketDestPort(uint8 socket, uint16 port)
 752:Generated_Source\PSoC5/ETH0.c **** { ETH0_W51_Write16( ETH0_SOCKET_BASE(socket)+16, port); }
 476              		.loc 1 752 0
 477              		.cfi_startproc
 478              		@ args = 0, pretend = 0, frame = 0
 479              		@ frame_needed = 0, uses_anonymous_args = 0
 480              	.LVL54:
 481 0000 08B5     		push	{r3, lr}
 482              		.cfi_def_cfa_offset 8
 483              		.cfi_offset 3, -8
 484              		.cfi_offset 14, -4
 485              		.loc 1 752 0
 486 0002 0002     		lsls	r0, r0, #8
 487              	.LVL55:
 488 0004 00F58260 		add	r0, r0, #1040
 489 0008 80B2     		uxth	r0, r0
 490 000a FFF7FEFF 		bl	ETH0_W51_Write16
 491              	.LVL56:
 492 000e 08BD     		pop	{r3, pc}
 493              		.cfi_endproc
 494              	.LFE51:
 495              		.size	ETH0_SetSocketDestPort, .-ETH0_SetSocketDestPort
 496              		.section	.text.ETH0_SetSocketTxWritePtr,"ax",%progbits
 497              		.align	2
 498              		.thumb
 499              		.thumb_func
 500              		.type	ETH0_SetSocketTxWritePtr, %function
 501              	ETH0_SetSocketTxWritePtr:
 502              	.LFB64:
 753:Generated_Source\PSoC5/ETH0.c **** /* ------------------------------------------------------------------------ */
 754:Generated_Source\PSoC5/ETH0.c **** /**
 755:Generated_Source\PSoC5/ETH0.c ****  * \brief Read a value from the socket destination port register
 756:Generated_Source\PSoC5/ETH0.c ****  * \param socket the socket number for the addressed register
 757:Generated_Source\PSoC5/ETH0.c ****  * \returns the value read from the register
 758:Generated_Source\PSoC5/ETH0.c ****  */
 759:Generated_Source\PSoC5/ETH0.c **** static uint16 ETH0_GetSocketDestPort(uint8 socket)
 760:Generated_Source\PSoC5/ETH0.c **** { return ETH0_W51_Read16( ETH0_SOCKET_BASE(socket)+16 ); }
 761:Generated_Source\PSoC5/ETH0.c **** /* ------------------------------------------------------------------------ */
 762:Generated_Source\PSoC5/ETH0.c **** /**
 763:Generated_Source\PSoC5/ETH0.c ****  * \brief Write a value to the socket max segment size register
 764:Generated_Source\PSoC5/ETH0.c ****  * \param socket the socket number for the addressed register
 765:Generated_Source\PSoC5/ETH0.c ****  * \param size the value to be written to the register
 766:Generated_Source\PSoC5/ETH0.c ****  */
 767:Generated_Source\PSoC5/ETH0.c **** static void ETH0_SetSocketMaxSegSize(uint8 socket, uint16 size)
 768:Generated_Source\PSoC5/ETH0.c **** { ETH0_W51_Write16(ETH0_SOCKET_BASE(socket)+18,size); }
 769:Generated_Source\PSoC5/ETH0.c **** /* ------------------------------------------------------------------------ */
 770:Generated_Source\PSoC5/ETH0.c **** /**
 771:Generated_Source\PSoC5/ETH0.c ****  * \brief Read a value from the socket maximum segment size register
 772:Generated_Source\PSoC5/ETH0.c ****  * \param socket the socket number for the addressed register
 773:Generated_Source\PSoC5/ETH0.c ****  * \returns the value read from the register
 774:Generated_Source\PSoC5/ETH0.c ****  */
 775:Generated_Source\PSoC5/ETH0.c **** static uint16 ETH0_GetSocketMaxSegSize(uint8 socket)
 776:Generated_Source\PSoC5/ETH0.c **** { return ETH0_W51_Read16(ETH0_SOCKET_BASE(socket)+18); }
 777:Generated_Source\PSoC5/ETH0.c **** /* ------------------------------------------------------------------------ */
 778:Generated_Source\PSoC5/ETH0.c **** /**
 779:Generated_Source\PSoC5/ETH0.c ****  * \brief Read a value from the socket protocol register (IP RAW/MAC RAW mode)
ARM GAS  C:\Users\USUARIO\AppData\Local\Temp\cchqzDaB.s 			page 24


 780:Generated_Source\PSoC5/ETH0.c ****  * \param socket the socket number for the addressed register
 781:Generated_Source\PSoC5/ETH0.c ****  * \returns the value read from the register
 782:Generated_Source\PSoC5/ETH0.c ****  */
 783:Generated_Source\PSoC5/ETH0.c **** static uint16  ETH0_GetSocketProto(uint8 socket)
 784:Generated_Source\PSoC5/ETH0.c **** { return ETH0_W51_Read(ETH0_SOCKET_BASE(socket)+20); }
 785:Generated_Source\PSoC5/ETH0.c **** /* ------------------------------------------------------------------------ */
 786:Generated_Source\PSoC5/ETH0.c **** /**
 787:Generated_Source\PSoC5/ETH0.c ****  * \brief Write a value to the socket TOS register
 788:Generated_Source\PSoC5/ETH0.c ****  * \param socket the socket number for the addressed register
 789:Generated_Source\PSoC5/ETH0.c ****  * \param tos the value to be written to the register
 790:Generated_Source\PSoC5/ETH0.c ****  */
 791:Generated_Source\PSoC5/ETH0.c **** static void ETH0_SetSocketTOS(uint8 socket, uint8 tos)
 792:Generated_Source\PSoC5/ETH0.c **** { ETH0_W51_Write(ETH0_SOCKET_BASE(socket)+21, tos); }
 793:Generated_Source\PSoC5/ETH0.c **** /* ------------------------------------------------------------------------ */
 794:Generated_Source\PSoC5/ETH0.c **** /**
 795:Generated_Source\PSoC5/ETH0.c ****  * \brief Read a value from the socket TOS register
 796:Generated_Source\PSoC5/ETH0.c ****  * \param socket the socket number for the addressed register
 797:Generated_Source\PSoC5/ETH0.c ****  * \returns the value read from the register
 798:Generated_Source\PSoC5/ETH0.c ****  */
 799:Generated_Source\PSoC5/ETH0.c **** static uint8 ETH0_GetSocketTOS(uint8 socket)
 800:Generated_Source\PSoC5/ETH0.c **** { return ETH0_W51_Read(ETH0_SOCKET_BASE(socket)+21); }
 801:Generated_Source\PSoC5/ETH0.c **** /* ------------------------------------------------------------------------ */
 802:Generated_Source\PSoC5/ETH0.c **** /**
 803:Generated_Source\PSoC5/ETH0.c ****  * \brief Write a value to the socket Time-To_Live (TTL) register
 804:Generated_Source\PSoC5/ETH0.c ****  * \param socket the socket number for the addressed register
 805:Generated_Source\PSoC5/ETH0.c ****  * \param ttl the value to be written to the register
 806:Generated_Source\PSoC5/ETH0.c ****  */
 807:Generated_Source\PSoC5/ETH0.c **** static void ETH0_SetSocketTTL(uint8 socket, uint8 ttl)
 808:Generated_Source\PSoC5/ETH0.c **** { ETH0_W51_Write(ETH0_SOCKET_BASE(socket)+22,ttl); }
 809:Generated_Source\PSoC5/ETH0.c **** /* ------------------------------------------------------------------------ */
 810:Generated_Source\PSoC5/ETH0.c **** /**
 811:Generated_Source\PSoC5/ETH0.c ****  * \brief Read a value from the socket time-to-live (TTL) register
 812:Generated_Source\PSoC5/ETH0.c ****  * \param socket the socket number for the addressed register
 813:Generated_Source\PSoC5/ETH0.c ****  * \returns the value read from the register
 814:Generated_Source\PSoC5/ETH0.c ****  */
 815:Generated_Source\PSoC5/ETH0.c **** static uint8 ETH0_GetSocketTTL(uint8 socket)
 816:Generated_Source\PSoC5/ETH0.c **** { return ETH0_W51_Read(ETH0_SOCKET_BASE(socket)+22); }
 817:Generated_Source\PSoC5/ETH0.c **** /* ------------------------------------------------------------------------ */
 818:Generated_Source\PSoC5/ETH0.c **** /**
 819:Generated_Source\PSoC5/ETH0.c ****  * \brief Write a value to the socket tx free size register
 820:Generated_Source\PSoC5/ETH0.c ****  * \param socket the socket number for the addressed register
 821:Generated_Source\PSoC5/ETH0.c ****  * \param size the value to be written to the register
 822:Generated_Source\PSoC5/ETH0.c ****  */
 823:Generated_Source\PSoC5/ETH0.c **** static void ETH0_SetSocketTxFree( uint8 socket, uint16 size)
 824:Generated_Source\PSoC5/ETH0.c **** { ETH0_W51_Write16(ETH0_SOCKET_BASE(socket)+0x20,size); }
 825:Generated_Source\PSoC5/ETH0.c **** /* ------------------------------------------------------------------------ */
 826:Generated_Source\PSoC5/ETH0.c **** /**
 827:Generated_Source\PSoC5/ETH0.c ****  * \brief Read a value from the socket Tx free size register
 828:Generated_Source\PSoC5/ETH0.c ****  * \param socket the socket number for the addressed register
 829:Generated_Source\PSoC5/ETH0.c ****  * \returns the value read from the register
 830:Generated_Source\PSoC5/ETH0.c ****  */
 831:Generated_Source\PSoC5/ETH0.c **** static uint16 ETH0_GetSocketTxFree(uint8 socket)
 832:Generated_Source\PSoC5/ETH0.c **** { return ETH0_W51_Read16(ETH0_SOCKET_BASE(socket)+0x20); }
 833:Generated_Source\PSoC5/ETH0.c **** /* ------------------------------------------------------------------------ */
 834:Generated_Source\PSoC5/ETH0.c **** /**
 835:Generated_Source\PSoC5/ETH0.c ****  * \brief Write a value to the socket tx read pointer register
 836:Generated_Source\PSoC5/ETH0.c ****  * \param socket the socket number for the addressed register
ARM GAS  C:\Users\USUARIO\AppData\Local\Temp\cchqzDaB.s 			page 25


 837:Generated_Source\PSoC5/ETH0.c ****  * \param ptr the value to be written to the register
 838:Generated_Source\PSoC5/ETH0.c ****  */
 839:Generated_Source\PSoC5/ETH0.c **** static void ETH0_SetSocketTxReadPtr(uint8 socket, uint16 ptr)
 840:Generated_Source\PSoC5/ETH0.c **** { ETH0_W51_Write16(ETH0_SOCKET_BASE(socket)+0x22,ptr); }
 841:Generated_Source\PSoC5/ETH0.c **** /* ------------------------------------------------------------------------ */
 842:Generated_Source\PSoC5/ETH0.c **** /**
 843:Generated_Source\PSoC5/ETH0.c ****  * \brief Read a value from the socket Tx buffer read pointer register
 844:Generated_Source\PSoC5/ETH0.c ****  * \param socket the socket number for the addressed register
 845:Generated_Source\PSoC5/ETH0.c ****  * \returns the value read from the register
 846:Generated_Source\PSoC5/ETH0.c ****  */
 847:Generated_Source\PSoC5/ETH0.c **** static uint16 ETH0_GetSocketTxReadPtr(uint8 socket)
 848:Generated_Source\PSoC5/ETH0.c **** { return ETH0_W51_Read16(ETH0_SOCKET_BASE(socket)+0x22); }
 849:Generated_Source\PSoC5/ETH0.c **** /* ------------------------------------------------------------------------ */
 850:Generated_Source\PSoC5/ETH0.c **** /**
 851:Generated_Source\PSoC5/ETH0.c ****  * \brief Write a value to the socket tx write pointer register
 852:Generated_Source\PSoC5/ETH0.c ****  * \param socket the socket number for the addressed register
 853:Generated_Source\PSoC5/ETH0.c ****  * \param ptr the value to be written to the register
 854:Generated_Source\PSoC5/ETH0.c ****  */
 855:Generated_Source\PSoC5/ETH0.c **** static void ETH0_SetSocketTxWritePtr(uint8 socket, uint16 ptr)
 856:Generated_Source\PSoC5/ETH0.c **** { ETH0_W51_Write16(ETH0_SOCKET_BASE(socket)+0x24,ptr); }
 503              		.loc 1 856 0
 504              		.cfi_startproc
 505              		@ args = 0, pretend = 0, frame = 0
 506              		@ frame_needed = 0, uses_anonymous_args = 0
 507              	.LVL57:
 508 0000 08B5     		push	{r3, lr}
 509              		.cfi_def_cfa_offset 8
 510              		.cfi_offset 3, -8
 511              		.cfi_offset 14, -4
 512              		.loc 1 856 0
 513 0002 0002     		lsls	r0, r0, #8
 514              	.LVL58:
 515 0004 00F22440 		addw	r0, r0, #1060
 516 0008 80B2     		uxth	r0, r0
 517 000a FFF7FEFF 		bl	ETH0_W51_Write16
 518              	.LVL59:
 519 000e 08BD     		pop	{r3, pc}
 520              		.cfi_endproc
 521              	.LFE64:
 522              		.size	ETH0_SetSocketTxWritePtr, .-ETH0_SetSocketTxWritePtr
 523              		.section	.text.ETH0_SetSocketRxReadPtr,"ax",%progbits
 524              		.align	2
 525              		.thumb
 526              		.thumb_func
 527              		.type	ETH0_SetSocketRxReadPtr, %function
 528              	ETH0_SetSocketRxReadPtr:
 529              	.LFB67:
 857:Generated_Source\PSoC5/ETH0.c **** /* ------------------------------------------------------------------------ */
 858:Generated_Source\PSoC5/ETH0.c **** /**
 859:Generated_Source\PSoC5/ETH0.c ****  * \brief Read a value from the socket tx buffer write pointer register
 860:Generated_Source\PSoC5/ETH0.c ****  * \param socket the socket number for the addressed register
 861:Generated_Source\PSoC5/ETH0.c ****  * \returns the value read from the register
 862:Generated_Source\PSoC5/ETH0.c ****  */
 863:Generated_Source\PSoC5/ETH0.c **** static uint16 ETH0_GetSocketTxWritePtr(uint8 socket)
 864:Generated_Source\PSoC5/ETH0.c **** { return ETH0_W51_Read16(ETH0_SOCKET_BASE(socket)+0x24); }
 865:Generated_Source\PSoC5/ETH0.c **** /* ------------------------------------------------------------------------ */
 866:Generated_Source\PSoC5/ETH0.c **** /**
ARM GAS  C:\Users\USUARIO\AppData\Local\Temp\cchqzDaB.s 			page 26


 867:Generated_Source\PSoC5/ETH0.c ****  * \brief Read a value from the socket rx received data size register
 868:Generated_Source\PSoC5/ETH0.c ****  * \param socket the socket number for the addressed register
 869:Generated_Source\PSoC5/ETH0.c ****  * \returns the value read from the register
 870:Generated_Source\PSoC5/ETH0.c ****  */
 871:Generated_Source\PSoC5/ETH0.c **** static uint16 ETH0_GetSocketRxSize(uint8 socket)
 872:Generated_Source\PSoC5/ETH0.c **** { return ETH0_W51_Read16(ETH0_SOCKET_BASE(socket)+0x26); }
 873:Generated_Source\PSoC5/ETH0.c **** /* ------------------------------------------------------------------------ */
 874:Generated_Source\PSoC5/ETH0.c **** /**
 875:Generated_Source\PSoC5/ETH0.c ****  * \brief Write a value to the socket rx read pointer register
 876:Generated_Source\PSoC5/ETH0.c ****  * \param socket the socket number for the addressed register
 877:Generated_Source\PSoC5/ETH0.c ****  * \param ptr the value to be written to the register
 878:Generated_Source\PSoC5/ETH0.c ****  */
 879:Generated_Source\PSoC5/ETH0.c **** static void ETH0_SetSocketRxReadPtr(uint8 socket, uint16 ptr)
 880:Generated_Source\PSoC5/ETH0.c **** { ETH0_W51_Write16(ETH0_SOCKET_BASE(socket)+0x28,ptr); }
 530              		.loc 1 880 0
 531              		.cfi_startproc
 532              		@ args = 0, pretend = 0, frame = 0
 533              		@ frame_needed = 0, uses_anonymous_args = 0
 534              	.LVL60:
 535 0000 08B5     		push	{r3, lr}
 536              		.cfi_def_cfa_offset 8
 537              		.cfi_offset 3, -8
 538              		.cfi_offset 14, -4
 539              		.loc 1 880 0
 540 0002 0002     		lsls	r0, r0, #8
 541              	.LVL61:
 542 0004 00F58560 		add	r0, r0, #1064
 543 0008 80B2     		uxth	r0, r0
 544 000a FFF7FEFF 		bl	ETH0_W51_Write16
 545              	.LVL62:
 546 000e 08BD     		pop	{r3, pc}
 547              		.cfi_endproc
 548              	.LFE67:
 549              		.size	ETH0_SetSocketRxReadPtr, .-ETH0_SetSocketRxReadPtr
 550              		.section	.text.ETH0_SetSocketMode,"ax",%progbits
 551              		.align	2
 552              		.thumb
 553              		.thumb_func
 554              		.type	ETH0_SetSocketMode, %function
 555              	ETH0_SetSocketMode:
 556              	.LFB37:
 640:Generated_Source\PSoC5/ETH0.c **** /* ------------------------------------------------------------------------ */
 557              		.loc 1 640 0
 558              		.cfi_startproc
 559              		@ args = 0, pretend = 0, frame = 0
 560              		@ frame_needed = 0, uses_anonymous_args = 0
 561              	.LVL63:
 562 0000 08B5     		push	{r3, lr}
 563              		.cfi_def_cfa_offset 8
 564              		.cfi_offset 3, -8
 565              		.cfi_offset 14, -4
 640:Generated_Source\PSoC5/ETH0.c **** /* ------------------------------------------------------------------------ */
 566              		.loc 1 640 0
 567 0002 0002     		lsls	r0, r0, #8
 568              	.LVL64:
 569 0004 00F58060 		add	r0, r0, #1024
 570 0008 00F47F40 		and	r0, r0, #65280
ARM GAS  C:\Users\USUARIO\AppData\Local\Temp\cchqzDaB.s 			page 27


 571 000c FFF7FEFF 		bl	ETH0_W51_Write
 572              	.LVL65:
 573 0010 08BD     		pop	{r3, pc}
 574              		.cfi_endproc
 575              	.LFE37:
 576              		.size	ETH0_SetSocketMode, .-ETH0_SetSocketMode
 577 0012 00BF     		.section	.text.ETH0_SetSocketCommand,"ax",%progbits
 578              		.align	2
 579              		.thumb
 580              		.thumb_func
 581              		.type	ETH0_SetSocketCommand, %function
 582              	ETH0_SetSocketCommand:
 583              	.LFB39:
 656:Generated_Source\PSoC5/ETH0.c **** /* ------------------------------------------------------------------------ */
 584              		.loc 1 656 0
 585              		.cfi_startproc
 586              		@ args = 0, pretend = 0, frame = 0
 587              		@ frame_needed = 0, uses_anonymous_args = 0
 588              	.LVL66:
 589 0000 08B5     		push	{r3, lr}
 590              		.cfi_def_cfa_offset 8
 591              		.cfi_offset 3, -8
 592              		.cfi_offset 14, -4
 656:Generated_Source\PSoC5/ETH0.c **** /* ------------------------------------------------------------------------ */
 593              		.loc 1 656 0
 594 0002 0002     		lsls	r0, r0, #8
 595              	.LVL67:
 596 0004 00F20140 		addw	r0, r0, #1025
 597 0008 80B2     		uxth	r0, r0
 598 000a FFF7FEFF 		bl	ETH0_W51_Write
 599              	.LVL68:
 600 000e 08BD     		pop	{r3, pc}
 601              		.cfi_endproc
 602              	.LFE39:
 603              		.size	ETH0_SetSocketCommand, .-ETH0_SetSocketCommand
 604              		.section	.text.ETH0_SetSocketIR,"ax",%progbits
 605              		.align	2
 606              		.thumb
 607              		.thumb_func
 608              		.type	ETH0_SetSocketIR, %function
 609              	ETH0_SetSocketIR:
 610              	.LFB41:
 672:Generated_Source\PSoC5/ETH0.c **** /* ------------------------------------------------------------------------ */
 611              		.loc 1 672 0
 612              		.cfi_startproc
 613              		@ args = 0, pretend = 0, frame = 0
 614              		@ frame_needed = 0, uses_anonymous_args = 0
 615              	.LVL69:
 616 0000 08B5     		push	{r3, lr}
 617              		.cfi_def_cfa_offset 8
 618              		.cfi_offset 3, -8
 619              		.cfi_offset 14, -4
 672:Generated_Source\PSoC5/ETH0.c **** /* ------------------------------------------------------------------------ */
 620              		.loc 1 672 0
 621 0002 0002     		lsls	r0, r0, #8
 622              	.LVL70:
 623 0004 00F20240 		addw	r0, r0, #1026
ARM GAS  C:\Users\USUARIO\AppData\Local\Temp\cchqzDaB.s 			page 28


 624 0008 80B2     		uxth	r0, r0
 625 000a FFF7FEFF 		bl	ETH0_W51_Write
 626              	.LVL71:
 627 000e 08BD     		pop	{r3, pc}
 628              		.cfi_endproc
 629              	.LFE41:
 630              		.size	ETH0_SetSocketIR, .-ETH0_SetSocketIR
 631              		.section	.text.ETH0_W51_WriteBlock,"ax",%progbits
 632              		.align	2
 633              		.thumb
 634              		.thumb_func
 635              		.type	ETH0_W51_WriteBlock, %function
 636              	ETH0_W51_WriteBlock:
 637              	.LFB9:
 438:Generated_Source\PSoC5/ETH0.c **** 	int index;
 638              		.loc 1 438 0
 639              		.cfi_startproc
 640              		@ args = 0, pretend = 0, frame = 0
 641              		@ frame_needed = 0, uses_anonymous_args = 0
 642              	.LVL72:
 643 0000 F8B5     		push	{r3, r4, r5, r6, r7, lr}
 644              		.cfi_def_cfa_offset 24
 645              		.cfi_offset 3, -24
 646              		.cfi_offset 4, -20
 647              		.cfi_offset 5, -16
 648              		.cfi_offset 6, -12
 649              		.cfi_offset 7, -8
 650              		.cfi_offset 14, -4
 651 0002 0746     		mov	r7, r0
 652 0004 0E46     		mov	r6, r1
 653 0006 1546     		mov	r5, r2
 654              	.LVL73:
 440:Generated_Source\PSoC5/ETH0.c **** 		ETH0_W51_Write(addr+index,buffer[index]);
 655              		.loc 1 440 0
 656 0008 0024     		movs	r4, #0
 657 000a 05E0     		b	.L48
 658              	.LVL74:
 659              	.L49:
 441:Generated_Source\PSoC5/ETH0.c **** 	}
 660              		.loc 1 441 0 discriminator 3
 661 000c 3819     		adds	r0, r7, r4
 662 000e 315D     		ldrb	r1, [r6, r4]	@ zero_extendqisi2
 663 0010 80B2     		uxth	r0, r0
 664 0012 FFF7FEFF 		bl	ETH0_W51_Write
 665              	.LVL75:
 440:Generated_Source\PSoC5/ETH0.c **** 		ETH0_W51_Write(addr+index,buffer[index]);
 666              		.loc 1 440 0 discriminator 3
 667 0016 0134     		adds	r4, r4, #1
 668              	.LVL76:
 669              	.L48:
 440:Generated_Source\PSoC5/ETH0.c **** 		ETH0_W51_Write(addr+index,buffer[index]);
 670              		.loc 1 440 0 is_stmt 0 discriminator 1
 671 0018 AC42     		cmp	r4, r5
 672 001a F7DB     		blt	.L49
 443:Generated_Source\PSoC5/ETH0.c **** /* ------------------------------------------------------------------------ */
 673              		.loc 1 443 0 is_stmt 1
 674 001c F8BD     		pop	{r3, r4, r5, r6, r7, pc}
ARM GAS  C:\Users\USUARIO\AppData\Local\Temp\cchqzDaB.s 			page 29


 675              		.cfi_endproc
 676              	.LFE9:
 677              		.size	ETH0_W51_WriteBlock, .-ETH0_W51_WriteBlock
 678 001e 00BF     		.section	.text.ETH0_W51_Read,"ax",%progbits
 679              		.align	2
 680              		.global	ETH0_W51_Read
 681              		.thumb
 682              		.thumb_func
 683              		.type	ETH0_W51_Read, %function
 684              	ETH0_W51_Read:
 685              	.LFB2:
 164:Generated_Source\PSoC5/ETH0.c **** 	uint32 dat;
 686              		.loc 1 164 0
 687              		.cfi_startproc
 688              		@ args = 0, pretend = 0, frame = 0
 689              		@ frame_needed = 0, uses_anonymous_args = 0
 690              	.LVL77:
 691 0000 38B5     		push	{r3, r4, r5, lr}
 692              		.cfi_def_cfa_offset 16
 693              		.cfi_offset 3, -16
 694              		.cfi_offset 4, -12
 695              		.cfi_offset 5, -8
 696              		.cfi_offset 14, -4
 697 0002 0546     		mov	r5, r0
 169:Generated_Source\PSoC5/ETH0.c **** 		CyDelayUs(1);
 698              		.loc 1 169 0
 699 0004 02E0     		b	.L52
 700              	.LVL78:
 701              	.L53:
 170:Generated_Source\PSoC5/ETH0.c **** 	}
 702              		.loc 1 170 0
 703 0006 0120     		movs	r0, #1
 704 0008 FFF7FEFF 		bl	CyDelayUs
 705              	.LVL79:
 706              	.L52:
 169:Generated_Source\PSoC5/ETH0.c **** 		CyDelayUs(1);
 707              		.loc 1 169 0
 708 000c FFF7FEFF 		bl	SPI0_ReadTxStatus
 709              	.LVL80:
 710 0010 10F0110F 		tst	r0, #17
 711 0014 F7D0     		beq	.L53
 182:Generated_Source\PSoC5/ETH0.c **** 	/* Begin data read */
 712              		.loc 1 182 0
 713 0016 FFF7FEFF 		bl	SPI0_ClearRxBuffer
 714              	.LVL81:
 184:Generated_Source\PSoC5/ETH0.c **** 	SPI0_WriteTxData(addr>>8);
 715              		.loc 1 184 0
 716 001a 0F20     		movs	r0, #15
 717 001c FFF7FEFF 		bl	SPI0_WriteTxData
 718              	.LVL82:
 185:Generated_Source\PSoC5/ETH0.c **** 	SPI0_WriteTxData(addr&0x00FF);
 719              		.loc 1 185 0
 720 0020 280A     		lsrs	r0, r5, #8
 721 0022 FFF7FEFF 		bl	SPI0_WriteTxData
 722              	.LVL83:
 186:Generated_Source\PSoC5/ETH0.c **** 	SPI0_WriteTxData( 0 );
 723              		.loc 1 186 0
ARM GAS  C:\Users\USUARIO\AppData\Local\Temp\cchqzDaB.s 			page 30


 724 0026 E8B2     		uxtb	r0, r5
 725 0028 FFF7FEFF 		bl	SPI0_WriteTxData
 726              	.LVL84:
 187:Generated_Source\PSoC5/ETH0.c **** 	
 727              		.loc 1 187 0
 728 002c 0020     		movs	r0, #0
 729 002e FFF7FEFF 		bl	SPI0_WriteTxData
 730              	.LVL85:
 191:Generated_Source\PSoC5/ETH0.c **** 		CyDelayUs(1);
 731              		.loc 1 191 0
 732 0032 02E0     		b	.L54
 733              	.L55:
 192:Generated_Source\PSoC5/ETH0.c **** 	}
 734              		.loc 1 192 0
 735 0034 0120     		movs	r0, #1
 736 0036 FFF7FEFF 		bl	CyDelayUs
 737              	.LVL86:
 738              	.L54:
 191:Generated_Source\PSoC5/ETH0.c **** 		CyDelayUs(1);
 739              		.loc 1 191 0
 740 003a FFF7FEFF 		bl	SPI0_ReadTxStatus
 741              	.LVL87:
 742 003e 10F0110F 		tst	r0, #17
 743 0042 F7D0     		beq	.L55
 196:Generated_Source\PSoC5/ETH0.c **** 	while( count > 0 )
 744              		.loc 1 196 0
 745 0044 FFF7FEFF 		bl	SPI0_GetRxBufferSize
 746              	.LVL88:
 197:Generated_Source\PSoC5/ETH0.c **** 	{
 747              		.loc 1 197 0
 748 0048 04E0     		b	.L56
 749              	.LVL89:
 750              	.L57:
 199:Generated_Source\PSoC5/ETH0.c **** 		count = SPI0_GetRxBufferSize();
 751              		.loc 1 199 0
 752 004a FFF7FEFF 		bl	SPI0_ReadRxData
 753              	.LVL90:
 754 004e 0446     		mov	r4, r0
 755              	.LVL91:
 200:Generated_Source\PSoC5/ETH0.c **** 	}
 756              		.loc 1 200 0
 757 0050 FFF7FEFF 		bl	SPI0_GetRxBufferSize
 758              	.LVL92:
 759              	.L56:
 197:Generated_Source\PSoC5/ETH0.c **** 	{
 760              		.loc 1 197 0
 761 0054 0028     		cmp	r0, #0
 762 0056 F8D1     		bne	.L57
 204:Generated_Source\PSoC5/ETH0.c **** /* ======================================================================== */
 763              		.loc 1 204 0
 764 0058 E0B2     		uxtb	r0, r4
 765              	.LVL93:
 766 005a 38BD     		pop	{r3, r4, r5, pc}
 767              		.cfi_endproc
 768              	.LFE2:
 769              		.size	ETH0_W51_Read, .-ETH0_W51_Read
 770              		.section	.text.ETH0_W51_GetMAC,"ax",%progbits
ARM GAS  C:\Users\USUARIO\AppData\Local\Temp\cchqzDaB.s 			page 31


 771              		.align	2
 772              		.thumb
 773              		.thumb_func
 774              		.type	ETH0_W51_GetMAC, %function
 775              	ETH0_W51_GetMAC:
 776              	.LFB4:
 362:Generated_Source\PSoC5/ETH0.c **** 	uint32 index;
 777              		.loc 1 362 0
 778              		.cfi_startproc
 779              		@ args = 0, pretend = 0, frame = 0
 780              		@ frame_needed = 0, uses_anonymous_args = 0
 781              	.LVL94:
 782 0000 70B5     		push	{r4, r5, r6, lr}
 783              		.cfi_def_cfa_offset 16
 784              		.cfi_offset 4, -16
 785              		.cfi_offset 5, -12
 786              		.cfi_offset 6, -8
 787              		.cfi_offset 14, -4
 788 0002 0646     		mov	r6, r0
 789 0004 0D46     		mov	r5, r1
 790              	.LVL95:
 364:Generated_Source\PSoC5/ETH0.c **** 		mac[index] = ETH0_W51_Read(addr+index);
 791              		.loc 1 364 0
 792 0006 0024     		movs	r4, #0
 793 0008 05E0     		b	.L60
 794              	.LVL96:
 795              	.L61:
 365:Generated_Source\PSoC5/ETH0.c **** 	}
 796              		.loc 1 365 0 discriminator 3
 797 000a 3019     		adds	r0, r6, r4
 798 000c 80B2     		uxth	r0, r0
 799 000e FFF7FEFF 		bl	ETH0_W51_Read
 800              	.LVL97:
 801 0012 2855     		strb	r0, [r5, r4]
 364:Generated_Source\PSoC5/ETH0.c **** 		mac[index] = ETH0_W51_Read(addr+index);
 802              		.loc 1 364 0 discriminator 3
 803 0014 0134     		adds	r4, r4, #1
 804              	.LVL98:
 805              	.L60:
 364:Generated_Source\PSoC5/ETH0.c **** 		mac[index] = ETH0_W51_Read(addr+index);
 806              		.loc 1 364 0 is_stmt 0 discriminator 1
 807 0016 052C     		cmp	r4, #5
 808 0018 F7D9     		bls	.L61
 367:Generated_Source\PSoC5/ETH0.c **** /* ------------------------------------------------------------------------ */
 809              		.loc 1 367 0 is_stmt 1
 810 001a 70BD     		pop	{r4, r5, r6, pc}
 811              		.cfi_endproc
 812              	.LFE4:
 813              		.size	ETH0_W51_GetMAC, .-ETH0_W51_GetMAC
 814              		.section	.text.ETH0_GetSourceMAC,"ax",%progbits
 815              		.align	2
 816              		.thumb
 817              		.thumb_func
 818              		.type	ETH0_GetSourceMAC, %function
 819              	ETH0_GetSourceMAC:
 820              	.LFB12:
 477:Generated_Source\PSoC5/ETH0.c **** /* ------------------------------------------------------------------------ */
ARM GAS  C:\Users\USUARIO\AppData\Local\Temp\cchqzDaB.s 			page 32


 821              		.loc 1 477 0
 822              		.cfi_startproc
 823              		@ args = 0, pretend = 0, frame = 0
 824              		@ frame_needed = 0, uses_anonymous_args = 0
 825              	.LVL99:
 826 0000 08B5     		push	{r3, lr}
 827              		.cfi_def_cfa_offset 8
 828              		.cfi_offset 3, -8
 829              		.cfi_offset 14, -4
 477:Generated_Source\PSoC5/ETH0.c **** /* ------------------------------------------------------------------------ */
 830              		.loc 1 477 0
 831 0002 0146     		mov	r1, r0
 832 0004 0920     		movs	r0, #9
 833              	.LVL100:
 834 0006 FFF7FEFF 		bl	ETH0_W51_GetMAC
 835              	.LVL101:
 836 000a 08BD     		pop	{r3, pc}
 837              		.cfi_endproc
 838              	.LFE12:
 839              		.size	ETH0_GetSourceMAC, .-ETH0_GetSourceMAC
 840              		.section	.text.ETH0_W51_GetIP,"ax",%progbits
 841              		.align	2
 842              		.thumb
 843              		.thumb_func
 844              		.type	ETH0_W51_GetIP, %function
 845              	ETH0_W51_GetIP:
 846              	.LFB6:
 391:Generated_Source\PSoC5/ETH0.c **** 	uint8 buffer[4];
 847              		.loc 1 391 0
 848              		.cfi_startproc
 849              		@ args = 0, pretend = 0, frame = 8
 850              		@ frame_needed = 0, uses_anonymous_args = 0
 851              	.LVL102:
 852 0000 30B5     		push	{r4, r5, lr}
 853              		.cfi_def_cfa_offset 12
 854              		.cfi_offset 4, -12
 855              		.cfi_offset 5, -8
 856              		.cfi_offset 14, -4
 857 0002 83B0     		sub	sp, sp, #12
 858              		.cfi_def_cfa_offset 24
 859 0004 0546     		mov	r5, r0
 860              	.LVL103:
 397:Generated_Source\PSoC5/ETH0.c **** 	for(index=0;index<4;++index) {
 861              		.loc 1 397 0
 862 0006 0024     		movs	r4, #0
 863 0008 0194     		str	r4, [sp, #4]
 864              	.LVL104:
 398:Generated_Source\PSoC5/ETH0.c **** 		buffer[index] = ETH0_W51_Read(addr+index);
 865              		.loc 1 398 0
 866 000a 08E0     		b	.L66
 867              	.LVL105:
 868              	.L67:
 399:Generated_Source\PSoC5/ETH0.c **** 	}
 869              		.loc 1 399 0 discriminator 3
 870 000c 2819     		adds	r0, r5, r4
 871 000e 80B2     		uxth	r0, r0
 872 0010 FFF7FEFF 		bl	ETH0_W51_Read
ARM GAS  C:\Users\USUARIO\AppData\Local\Temp\cchqzDaB.s 			page 33


 873              	.LVL106:
 874 0014 02AB     		add	r3, sp, #8
 875 0016 2344     		add	r3, r3, r4
 876 0018 03F8040C 		strb	r0, [r3, #-4]
 398:Generated_Source\PSoC5/ETH0.c **** 		buffer[index] = ETH0_W51_Read(addr+index);
 877              		.loc 1 398 0 discriminator 3
 878 001c 0134     		adds	r4, r4, #1
 879              	.LVL107:
 880              	.L66:
 398:Generated_Source\PSoC5/ETH0.c **** 		buffer[index] = ETH0_W51_Read(addr+index);
 881              		.loc 1 398 0 is_stmt 0 discriminator 1
 882 001e 032C     		cmp	r4, #3
 883 0020 F4DD     		ble	.L67
 402:Generated_Source\PSoC5/ETH0.c **** /* ------------------------------------------------------------------------ */
 884              		.loc 1 402 0 is_stmt 1
 885 0022 0198     		ldr	r0, [sp, #4]
 886 0024 03B0     		add	sp, sp, #12
 887              		.cfi_def_cfa_offset 12
 888              		@ sp needed
 889 0026 30BD     		pop	{r4, r5, pc}
 890              		.cfi_endproc
 891              	.LFE6:
 892              		.size	ETH0_W51_GetIP, .-ETH0_W51_GetIP
 893              		.section	.text.ETH0_GetSourceIP,"ax",%progbits
 894              		.align	2
 895              		.thumb
 896              		.thumb_func
 897              		.type	ETH0_GetSourceIP, %function
 898              	ETH0_GetSourceIP:
 899              	.LFB18:
 513:Generated_Source\PSoC5/ETH0.c **** /* ------------------------------------------------------------------------ */
 900              		.loc 1 513 0
 901              		.cfi_startproc
 902              		@ args = 0, pretend = 0, frame = 0
 903              		@ frame_needed = 0, uses_anonymous_args = 0
 904 0000 08B5     		push	{r3, lr}
 905              		.cfi_def_cfa_offset 8
 906              		.cfi_offset 3, -8
 907              		.cfi_offset 14, -4
 513:Generated_Source\PSoC5/ETH0.c **** /* ------------------------------------------------------------------------ */
 908              		.loc 1 513 0
 909 0002 0F20     		movs	r0, #15
 910 0004 FFF7FEFF 		bl	ETH0_W51_GetIP
 911              	.LVL108:
 912 0008 08BD     		pop	{r3, pc}
 913              		.cfi_endproc
 914              	.LFE18:
 915              		.size	ETH0_GetSourceIP, .-ETH0_GetSourceIP
 916 000a 00BF     		.section	.text.ETH0_GetSocketCommand,"ax",%progbits
 917              		.align	2
 918              		.thumb
 919              		.thumb_func
 920              		.type	ETH0_GetSocketCommand, %function
 921              	ETH0_GetSocketCommand:
 922              	.LFB40:
 664:Generated_Source\PSoC5/ETH0.c **** /* ------------------------------------------------------------------------ */
 923              		.loc 1 664 0
ARM GAS  C:\Users\USUARIO\AppData\Local\Temp\cchqzDaB.s 			page 34


 924              		.cfi_startproc
 925              		@ args = 0, pretend = 0, frame = 0
 926              		@ frame_needed = 0, uses_anonymous_args = 0
 927              	.LVL109:
 928 0000 08B5     		push	{r3, lr}
 929              		.cfi_def_cfa_offset 8
 930              		.cfi_offset 3, -8
 931              		.cfi_offset 14, -4
 664:Generated_Source\PSoC5/ETH0.c **** /* ------------------------------------------------------------------------ */
 932              		.loc 1 664 0
 933 0002 0002     		lsls	r0, r0, #8
 934              	.LVL110:
 935 0004 00F20140 		addw	r0, r0, #1025
 936 0008 80B2     		uxth	r0, r0
 937 000a FFF7FEFF 		bl	ETH0_W51_Read
 938              	.LVL111:
 939 000e 08BD     		pop	{r3, pc}
 940              		.cfi_endproc
 941              	.LFE40:
 942              		.size	ETH0_GetSocketCommand, .-ETH0_GetSocketCommand
 943              		.section	.text.ETH0_ExecuteSocketCommand,"ax",%progbits
 944              		.align	2
 945              		.thumb
 946              		.thumb_func
 947              		.type	ETH0_ExecuteSocketCommand, %function
 948              	ETH0_ExecuteSocketCommand:
 949              	.LFB69:
 881:Generated_Source\PSoC5/ETH0.c **** /* ------------------------------------------------------------------------ */
 882:Generated_Source\PSoC5/ETH0.c **** /**
 883:Generated_Source\PSoC5/ETH0.c ****  * \brief Read a value from the socket rx buffer read pointer register
 884:Generated_Source\PSoC5/ETH0.c ****  * \param socket the socket number for the addressed register
 885:Generated_Source\PSoC5/ETH0.c ****  * \returns the value read from the register
 886:Generated_Source\PSoC5/ETH0.c ****  */
 887:Generated_Source\PSoC5/ETH0.c **** static uint16 ETH0_GetSocketRxReadPtr(uint8 socket)
 888:Generated_Source\PSoC5/ETH0.c **** { return ETH0_W51_Read16(ETH0_SOCKET_BASE(socket)+0x28); }
 889:Generated_Source\PSoC5/ETH0.c **** /* ------------------------------------------------------------------------ */
 890:Generated_Source\PSoC5/ETH0.c **** /**
 891:Generated_Source\PSoC5/ETH0.c ****  * \brief Write a command to the socket command register and wait for completion
 892:Generated_Source\PSoC5/ETH0.c ****  * \param socket the addressed socket for the command
 893:Generated_Source\PSoC5/ETH0.c ****  * \param cmd the command to execute
 894:Generated_Source\PSoC5/ETH0.c ****  */
 895:Generated_Source\PSoC5/ETH0.c **** static uint32 ETH0_ExecuteSocketCommand( uint8 socket, int cmd)
 896:Generated_Source\PSoC5/ETH0.c **** {
 950              		.loc 1 896 0
 951              		.cfi_startproc
 952              		@ args = 0, pretend = 0, frame = 0
 953              		@ frame_needed = 0, uses_anonymous_args = 0
 954              	.LVL112:
 955 0000 38B5     		push	{r3, r4, r5, lr}
 956              		.cfi_def_cfa_offset 16
 957              		.cfi_offset 3, -16
 958              		.cfi_offset 4, -12
 959              		.cfi_offset 5, -8
 960              		.cfi_offset 14, -4
 961 0002 0546     		mov	r5, r0
 962              	.LVL113:
 897:Generated_Source\PSoC5/ETH0.c **** 	uint32 timeout;
ARM GAS  C:\Users\USUARIO\AppData\Local\Temp\cchqzDaB.s 			page 35


 898:Generated_Source\PSoC5/ETH0.c **** 	timeout = 0;
 899:Generated_Source\PSoC5/ETH0.c **** 	
 900:Generated_Source\PSoC5/ETH0.c **** 	ETH0_SetSocketCommand(socket,cmd);
 963              		.loc 1 900 0
 964 0004 C9B2     		uxtb	r1, r1
 965              	.LVL114:
 966 0006 FFF7FEFF 		bl	ETH0_SetSocketCommand
 967              	.LVL115:
 898:Generated_Source\PSoC5/ETH0.c **** 	
 968              		.loc 1 898 0
 969 000a 0024     		movs	r4, #0
 901:Generated_Source\PSoC5/ETH0.c **** 	while ( ( ETH0_GetSocketCommand(socket) ) && (timeout < 125))
 970              		.loc 1 901 0
 971 000c 03E0     		b	.L74
 972              	.LVL116:
 973              	.L76:
 902:Generated_Source\PSoC5/ETH0.c **** 	{
 903:Generated_Source\PSoC5/ETH0.c **** 		++timeout;
 974              		.loc 1 903 0
 975 000e 0134     		adds	r4, r4, #1
 976              	.LVL117:
 904:Generated_Source\PSoC5/ETH0.c **** 		CyDelay(1);
 977              		.loc 1 904 0
 978 0010 0120     		movs	r0, #1
 979 0012 FFF7FEFF 		bl	CyDelay
 980              	.LVL118:
 981              	.L74:
 901:Generated_Source\PSoC5/ETH0.c **** 	while ( ( ETH0_GetSocketCommand(socket) ) && (timeout < 125))
 982              		.loc 1 901 0
 983 0016 2846     		mov	r0, r5
 984 0018 FFF7FEFF 		bl	ETH0_GetSocketCommand
 985              	.LVL119:
 986 001c 08B1     		cbz	r0, .L75
 901:Generated_Source\PSoC5/ETH0.c **** 	while ( ( ETH0_GetSocketCommand(socket) ) && (timeout < 125))
 987              		.loc 1 901 0 is_stmt 0 discriminator 1
 988 001e 7C2C     		cmp	r4, #124
 989 0020 F5D9     		bls	.L76
 990              	.L75:
 905:Generated_Source\PSoC5/ETH0.c **** 	}
 906:Generated_Source\PSoC5/ETH0.c **** 	return( timeout );
 907:Generated_Source\PSoC5/ETH0.c **** }
 991              		.loc 1 907 0 is_stmt 1
 992 0022 2046     		mov	r0, r4
 993 0024 38BD     		pop	{r3, r4, r5, pc}
 994              		.cfi_endproc
 995              	.LFE69:
 996              		.size	ETH0_ExecuteSocketCommand, .-ETH0_ExecuteSocketCommand
 997 0026 00BF     		.section	.text.ETH0_GetSocketStatus,"ax",%progbits
 998              		.align	2
 999              		.thumb
 1000              		.thumb_func
 1001              		.type	ETH0_GetSocketStatus, %function
 1002              	ETH0_GetSocketStatus:
 1003              	.LFB44:
 696:Generated_Source\PSoC5/ETH0.c **** /* ------------------------------------------------------------------------ */
 1004              		.loc 1 696 0
 1005              		.cfi_startproc
ARM GAS  C:\Users\USUARIO\AppData\Local\Temp\cchqzDaB.s 			page 36


 1006              		@ args = 0, pretend = 0, frame = 0
 1007              		@ frame_needed = 0, uses_anonymous_args = 0
 1008              	.LVL120:
 1009 0000 08B5     		push	{r3, lr}
 1010              		.cfi_def_cfa_offset 8
 1011              		.cfi_offset 3, -8
 1012              		.cfi_offset 14, -4
 696:Generated_Source\PSoC5/ETH0.c **** /* ------------------------------------------------------------------------ */
 1013              		.loc 1 696 0
 1014 0002 0002     		lsls	r0, r0, #8
 1015              	.LVL121:
 1016 0004 00F20340 		addw	r0, r0, #1027
 1017 0008 80B2     		uxth	r0, r0
 1018 000a FFF7FEFF 		bl	ETH0_W51_Read
 1019              	.LVL122:
 1020 000e 08BD     		pop	{r3, pc}
 1021              		.cfi_endproc
 1022              	.LFE44:
 1023              		.size	ETH0_GetSocketStatus, .-ETH0_GetSocketStatus
 1024              		.section	.text.ETH0_W51_Read16,"ax",%progbits
 1025              		.align	2
 1026              		.thumb
 1027              		.thumb_func
 1028              		.type	ETH0_W51_Read16, %function
 1029              	ETH0_W51_Read16:
 1030              	.LFB8:
 421:Generated_Source\PSoC5/ETH0.c **** 	uint16 val;
 1031              		.loc 1 421 0
 1032              		.cfi_startproc
 1033              		@ args = 0, pretend = 0, frame = 0
 1034              		@ frame_needed = 0, uses_anonymous_args = 0
 1035              	.LVL123:
 1036 0000 38B5     		push	{r3, r4, r5, lr}
 1037              		.cfi_def_cfa_offset 16
 1038              		.cfi_offset 3, -16
 1039              		.cfi_offset 4, -12
 1040              		.cfi_offset 5, -8
 1041              		.cfi_offset 14, -4
 1042 0002 0546     		mov	r5, r0
 424:Generated_Source\PSoC5/ETH0.c **** 	val <<= 8;
 1043              		.loc 1 424 0
 1044 0004 FFF7FEFF 		bl	ETH0_W51_Read
 1045              	.LVL124:
 1046 0008 80B2     		uxth	r0, r0
 1047              	.LVL125:
 425:Generated_Source\PSoC5/ETH0.c **** 	val += ETH0_W51_Read( addr + 1);
 1048              		.loc 1 425 0
 1049 000a 0402     		lsls	r4, r0, #8
 1050 000c A4B2     		uxth	r4, r4
 1051              	.LVL126:
 426:Generated_Source\PSoC5/ETH0.c **** 	
 1052              		.loc 1 426 0
 1053 000e 681C     		adds	r0, r5, #1
 1054 0010 80B2     		uxth	r0, r0
 1055 0012 FFF7FEFF 		bl	ETH0_W51_Read
 1056              	.LVL127:
 1057 0016 2044     		add	r0, r0, r4
ARM GAS  C:\Users\USUARIO\AppData\Local\Temp\cchqzDaB.s 			page 37


 1058              	.LVL128:
 429:Generated_Source\PSoC5/ETH0.c **** /* ------------------------------------------------------------------------ */
 1059              		.loc 1 429 0
 1060 0018 80B2     		uxth	r0, r0
 1061 001a 38BD     		pop	{r3, r4, r5, pc}
 1062              		.cfi_endproc
 1063              	.LFE8:
 1064              		.size	ETH0_W51_Read16, .-ETH0_W51_Read16
 1065              		.section	.text.ETH0_GetSocketRxSize,"ax",%progbits
 1066              		.align	2
 1067              		.thumb
 1068              		.thumb_func
 1069              		.type	ETH0_GetSocketRxSize, %function
 1070              	ETH0_GetSocketRxSize:
 1071              	.LFB66:
 872:Generated_Source\PSoC5/ETH0.c **** /* ------------------------------------------------------------------------ */
 1072              		.loc 1 872 0
 1073              		.cfi_startproc
 1074              		@ args = 0, pretend = 0, frame = 0
 1075              		@ frame_needed = 0, uses_anonymous_args = 0
 1076              	.LVL129:
 1077 0000 08B5     		push	{r3, lr}
 1078              		.cfi_def_cfa_offset 8
 1079              		.cfi_offset 3, -8
 1080              		.cfi_offset 14, -4
 872:Generated_Source\PSoC5/ETH0.c **** /* ------------------------------------------------------------------------ */
 1081              		.loc 1 872 0
 1082 0002 0002     		lsls	r0, r0, #8
 1083              	.LVL130:
 1084 0004 00F22640 		addw	r0, r0, #1062
 1085 0008 80B2     		uxth	r0, r0
 1086 000a FFF7FEFF 		bl	ETH0_W51_Read16
 1087              	.LVL131:
 1088 000e 08BD     		pop	{r3, pc}
 1089              		.cfi_endproc
 1090              	.LFE66:
 1091              		.size	ETH0_GetSocketRxSize, .-ETH0_GetSocketRxSize
 1092              		.section	.text.ETH0_GetRxSize,"ax",%progbits
 1093              		.align	2
 1094              		.thumb
 1095              		.thumb_func
 1096              		.type	ETH0_GetRxSize, %function
 1097              	ETH0_GetRxSize:
 1098              	.LFB71:
 908:Generated_Source\PSoC5/ETH0.c **** /* ------------------------------------------------------------------------ */
 909:Generated_Source\PSoC5/ETH0.c **** /**
 910:Generated_Source\PSoC5/ETH0.c ****  * \brief Execute a safe read fo the Tx buffer free size register
 911:Generated_Source\PSoC5/ETH0.c ****  * \param socket the addressed socket to read the available tx buffer
 912:Generated_Source\PSoC5/ETH0.c ****  * \returns the number of bytes available in the transmit buffer for the socket
 913:Generated_Source\PSoC5/ETH0.c ****  */
 914:Generated_Source\PSoC5/ETH0.c **** static uint16 ETH0_GetTxFreeSize( uint8 socket )
 915:Generated_Source\PSoC5/ETH0.c **** {
 916:Generated_Source\PSoC5/ETH0.c **** 	uint16 first, second;
 917:Generated_Source\PSoC5/ETH0.c **** 	
 918:Generated_Source\PSoC5/ETH0.c **** 	first = 0;
 919:Generated_Source\PSoC5/ETH0.c **** 	second = 0;
 920:Generated_Source\PSoC5/ETH0.c **** 	do {
ARM GAS  C:\Users\USUARIO\AppData\Local\Temp\cchqzDaB.s 			page 38


 921:Generated_Source\PSoC5/ETH0.c **** 		first = ETH0_GetSocketTxFree( socket );
 922:Generated_Source\PSoC5/ETH0.c **** 		if (first != 0) {
 923:Generated_Source\PSoC5/ETH0.c **** 			second = ETH0_GetSocketTxFree( socket );
 924:Generated_Source\PSoC5/ETH0.c **** 		}
 925:Generated_Source\PSoC5/ETH0.c **** 	}
 926:Generated_Source\PSoC5/ETH0.c **** 	while (first != second );
 927:Generated_Source\PSoC5/ETH0.c **** 	
 928:Generated_Source\PSoC5/ETH0.c **** 	return( second );
 929:Generated_Source\PSoC5/ETH0.c **** }
 930:Generated_Source\PSoC5/ETH0.c **** /* ------------------------------------------------------------------------ */
 931:Generated_Source\PSoC5/ETH0.c **** /**
 932:Generated_Source\PSoC5/ETH0.c ****  * \brief Execute a safe read of the received data size
 933:Generated_Source\PSoC5/ETH0.c ****  * \param socket the addressed socketfrom which the data will be read
 934:Generated_Source\PSoC5/ETH0.c ****  * \returns the number of bytes waiting in the recieve buffer of the socket
 935:Generated_Source\PSoC5/ETH0.c ****  */
 936:Generated_Source\PSoC5/ETH0.c **** static uint16 ETH0_GetRxSize( uint8 socket )
 937:Generated_Source\PSoC5/ETH0.c **** {
 1099              		.loc 1 937 0
 1100              		.cfi_startproc
 1101              		@ args = 0, pretend = 0, frame = 0
 1102              		@ frame_needed = 0, uses_anonymous_args = 0
 1103              	.LVL132:
 1104 0000 70B5     		push	{r4, r5, r6, lr}
 1105              		.cfi_def_cfa_offset 16
 1106              		.cfi_offset 4, -16
 1107              		.cfi_offset 5, -12
 1108              		.cfi_offset 6, -8
 1109              		.cfi_offset 14, -4
 1110 0002 0646     		mov	r6, r0
 1111              	.LVL133:
 938:Generated_Source\PSoC5/ETH0.c **** 	uint16 first, second;
 939:Generated_Source\PSoC5/ETH0.c **** 	
 940:Generated_Source\PSoC5/ETH0.c **** 	first = 0;
 941:Generated_Source\PSoC5/ETH0.c **** 	second = 0;
 1112              		.loc 1 941 0
 1113 0004 0025     		movs	r5, #0
 1114              	.LVL134:
 1115              	.L86:
 942:Generated_Source\PSoC5/ETH0.c **** 	do {
 943:Generated_Source\PSoC5/ETH0.c **** 		first = ETH0_GetSocketRxSize( socket );
 1116              		.loc 1 943 0
 1117 0006 3046     		mov	r0, r6
 1118 0008 FFF7FEFF 		bl	ETH0_GetSocketRxSize
 1119              	.LVL135:
 944:Generated_Source\PSoC5/ETH0.c **** 		if (first != 0) {
 1120              		.loc 1 944 0
 1121 000c 0446     		mov	r4, r0
 1122 000e 18B1     		cbz	r0, .L85
 945:Generated_Source\PSoC5/ETH0.c **** 			second = ETH0_GetSocketRxSize( socket );
 1123              		.loc 1 945 0
 1124 0010 3046     		mov	r0, r6
 1125              	.LVL136:
 1126 0012 FFF7FEFF 		bl	ETH0_GetSocketRxSize
 1127              	.LVL137:
 1128 0016 0546     		mov	r5, r0
 1129              	.LVL138:
 1130              	.L85:
ARM GAS  C:\Users\USUARIO\AppData\Local\Temp\cchqzDaB.s 			page 39


 946:Generated_Source\PSoC5/ETH0.c **** 		}
 947:Generated_Source\PSoC5/ETH0.c **** 	}
 948:Generated_Source\PSoC5/ETH0.c **** 	while (first != second );
 1131              		.loc 1 948 0
 1132 0018 A542     		cmp	r5, r4
 1133 001a F4D1     		bne	.L86
 949:Generated_Source\PSoC5/ETH0.c **** 	
 950:Generated_Source\PSoC5/ETH0.c **** 	return second;
 951:Generated_Source\PSoC5/ETH0.c **** }
 1134              		.loc 1 951 0
 1135 001c 2846     		mov	r0, r5
 1136 001e 70BD     		pop	{r4, r5, r6, pc}
 1137              		.cfi_endproc
 1138              	.LFE71:
 1139              		.size	ETH0_GetRxSize, .-ETH0_GetRxSize
 1140              		.section	.text.ETH0_GetSocketTxFree,"ax",%progbits
 1141              		.align	2
 1142              		.thumb
 1143              		.thumb_func
 1144              		.type	ETH0_GetSocketTxFree, %function
 1145              	ETH0_GetSocketTxFree:
 1146              	.LFB61:
 832:Generated_Source\PSoC5/ETH0.c **** /* ------------------------------------------------------------------------ */
 1147              		.loc 1 832 0
 1148              		.cfi_startproc
 1149              		@ args = 0, pretend = 0, frame = 0
 1150              		@ frame_needed = 0, uses_anonymous_args = 0
 1151              	.LVL139:
 1152 0000 08B5     		push	{r3, lr}
 1153              		.cfi_def_cfa_offset 8
 1154              		.cfi_offset 3, -8
 1155              		.cfi_offset 14, -4
 832:Generated_Source\PSoC5/ETH0.c **** /* ------------------------------------------------------------------------ */
 1156              		.loc 1 832 0
 1157 0002 0002     		lsls	r0, r0, #8
 1158              	.LVL140:
 1159 0004 00F58460 		add	r0, r0, #1056
 1160 0008 80B2     		uxth	r0, r0
 1161 000a FFF7FEFF 		bl	ETH0_W51_Read16
 1162              	.LVL141:
 1163 000e 08BD     		pop	{r3, pc}
 1164              		.cfi_endproc
 1165              	.LFE61:
 1166              		.size	ETH0_GetSocketTxFree, .-ETH0_GetSocketTxFree
 1167              		.section	.text.ETH0_GetTxFreeSize,"ax",%progbits
 1168              		.align	2
 1169              		.thumb
 1170              		.thumb_func
 1171              		.type	ETH0_GetTxFreeSize, %function
 1172              	ETH0_GetTxFreeSize:
 1173              	.LFB70:
 915:Generated_Source\PSoC5/ETH0.c **** 	uint16 first, second;
 1174              		.loc 1 915 0
 1175              		.cfi_startproc
 1176              		@ args = 0, pretend = 0, frame = 0
 1177              		@ frame_needed = 0, uses_anonymous_args = 0
 1178              	.LVL142:
ARM GAS  C:\Users\USUARIO\AppData\Local\Temp\cchqzDaB.s 			page 40


 1179 0000 70B5     		push	{r4, r5, r6, lr}
 1180              		.cfi_def_cfa_offset 16
 1181              		.cfi_offset 4, -16
 1182              		.cfi_offset 5, -12
 1183              		.cfi_offset 6, -8
 1184              		.cfi_offset 14, -4
 1185 0002 0646     		mov	r6, r0
 1186              	.LVL143:
 919:Generated_Source\PSoC5/ETH0.c **** 	do {
 1187              		.loc 1 919 0
 1188 0004 0025     		movs	r5, #0
 1189              	.LVL144:
 1190              	.L92:
 921:Generated_Source\PSoC5/ETH0.c **** 		if (first != 0) {
 1191              		.loc 1 921 0
 1192 0006 3046     		mov	r0, r6
 1193 0008 FFF7FEFF 		bl	ETH0_GetSocketTxFree
 1194              	.LVL145:
 922:Generated_Source\PSoC5/ETH0.c **** 			second = ETH0_GetSocketTxFree( socket );
 1195              		.loc 1 922 0
 1196 000c 0446     		mov	r4, r0
 1197 000e 18B1     		cbz	r0, .L91
 923:Generated_Source\PSoC5/ETH0.c **** 		}
 1198              		.loc 1 923 0
 1199 0010 3046     		mov	r0, r6
 1200              	.LVL146:
 1201 0012 FFF7FEFF 		bl	ETH0_GetSocketTxFree
 1202              	.LVL147:
 1203 0016 0546     		mov	r5, r0
 1204              	.LVL148:
 1205              	.L91:
 926:Generated_Source\PSoC5/ETH0.c **** 	
 1206              		.loc 1 926 0
 1207 0018 A542     		cmp	r5, r4
 1208 001a F4D1     		bne	.L92
 929:Generated_Source\PSoC5/ETH0.c **** /* ------------------------------------------------------------------------ */
 1209              		.loc 1 929 0
 1210 001c 2846     		mov	r0, r5
 1211 001e 70BD     		pop	{r4, r5, r6, pc}
 1212              		.cfi_endproc
 1213              	.LFE70:
 1214              		.size	ETH0_GetTxFreeSize, .-ETH0_GetTxFreeSize
 1215              		.section	.text.ETH0_GetSocketTxWritePtr,"ax",%progbits
 1216              		.align	2
 1217              		.thumb
 1218              		.thumb_func
 1219              		.type	ETH0_GetSocketTxWritePtr, %function
 1220              	ETH0_GetSocketTxWritePtr:
 1221              	.LFB65:
 864:Generated_Source\PSoC5/ETH0.c **** /* ------------------------------------------------------------------------ */
 1222              		.loc 1 864 0
 1223              		.cfi_startproc
 1224              		@ args = 0, pretend = 0, frame = 0
 1225              		@ frame_needed = 0, uses_anonymous_args = 0
 1226              	.LVL149:
 1227 0000 08B5     		push	{r3, lr}
 1228              		.cfi_def_cfa_offset 8
ARM GAS  C:\Users\USUARIO\AppData\Local\Temp\cchqzDaB.s 			page 41


 1229              		.cfi_offset 3, -8
 1230              		.cfi_offset 14, -4
 864:Generated_Source\PSoC5/ETH0.c **** /* ------------------------------------------------------------------------ */
 1231              		.loc 1 864 0
 1232 0002 0002     		lsls	r0, r0, #8
 1233              	.LVL150:
 1234 0004 00F22440 		addw	r0, r0, #1060
 1235 0008 80B2     		uxth	r0, r0
 1236 000a FFF7FEFF 		bl	ETH0_W51_Read16
 1237              	.LVL151:
 1238 000e 08BD     		pop	{r3, pc}
 1239              		.cfi_endproc
 1240              	.LFE65:
 1241              		.size	ETH0_GetSocketTxWritePtr, .-ETH0_GetSocketTxWritePtr
 1242              		.section	.text.ETH0_ProcessTxData,"ax",%progbits
 1243              		.align	2
 1244              		.thumb
 1245              		.thumb_func
 1246              		.type	ETH0_ProcessTxData, %function
 1247              	ETH0_ProcessTxData:
 1248              	.LFB72:
 952:Generated_Source\PSoC5/ETH0.c **** /* ------------------------------------------------------------------------ */
 953:Generated_Source\PSoC5/ETH0.c **** 
 954:Generated_Source\PSoC5/ETH0.c **** // END Socket Register access section
 955:Generated_Source\PSoC5/ETH0.c **** #endif
 956:Generated_Source\PSoC5/ETH0.c **** /* ======================================================================== */
 957:Generated_Source\PSoC5/ETH0.c **** /* W5100 Data Buffer Memory access primitives */
 958:Generated_Source\PSoC5/ETH0.c **** #if (1)
 959:Generated_Source\PSoC5/ETH0.c **** /* ------------------------------------------------------------------------ */
 960:Generated_Source\PSoC5/ETH0.c **** /**
 961:Generated_Source\PSoC5/ETH0.c ****  * \brief Transfer data from a local data buffer to the chip Tx fifo
 962:Generated_Source\PSoC5/ETH0.c ****  * \param socket the socket buffer to which the data will be written
 963:Generated_Source\PSoC5/ETH0.c ****  * \param offset The offest in to the socket buffer
 964:Generated_Source\PSoC5/ETH0.c ****  * \param *buffer pointer to the local buffer to copy to the transmit fifo
 965:Generated_Source\PSoC5/ETH0.c ****  * \param length the number of bytes to be copied to the transmit fifo
 966:Generated_Source\PSoC5/ETH0.c ****  */
 967:Generated_Source\PSoC5/ETH0.c **** static void ETH0_ProcessTxData(uint8 socket, uint16 offset, uint8* buffer, uint16 length)
 968:Generated_Source\PSoC5/ETH0.c **** {
 1249              		.loc 1 968 0
 1250              		.cfi_startproc
 1251              		@ args = 0, pretend = 0, frame = 0
 1252              		@ frame_needed = 0, uses_anonymous_args = 0
 1253              	.LVL152:
 1254 0000 2DE9F843 		push	{r3, r4, r5, r6, r7, r8, r9, lr}
 1255              		.cfi_def_cfa_offset 32
 1256              		.cfi_offset 3, -32
 1257              		.cfi_offset 4, -28
 1258              		.cfi_offset 5, -24
 1259              		.cfi_offset 6, -20
 1260              		.cfi_offset 7, -16
 1261              		.cfi_offset 8, -12
 1262              		.cfi_offset 9, -8
 1263              		.cfi_offset 14, -4
 1264 0004 0746     		mov	r7, r0
 1265 0006 0D46     		mov	r5, r1
 1266 0008 9046     		mov	r8, r2
 1267 000a 1E46     		mov	r6, r3
ARM GAS  C:\Users\USUARIO\AppData\Local\Temp\cchqzDaB.s 			page 42


 969:Generated_Source\PSoC5/ETH0.c **** 	uint16 addr;
 970:Generated_Source\PSoC5/ETH0.c **** 	uint16 base;
 971:Generated_Source\PSoC5/ETH0.c **** 	uint16 PointerOffset;
 972:Generated_Source\PSoC5/ETH0.c **** 	uint16 size;
 973:Generated_Source\PSoC5/ETH0.c **** 	
 974:Generated_Source\PSoC5/ETH0.c **** 	/*
 975:Generated_Source\PSoC5/ETH0.c **** 	 * Read the offset pointer, and calculate the base address for the start of write
 976:Generated_Source\PSoC5/ETH0.c **** 	 * in to the chip buffers.  Written data will be offset by the offset byte count
 977:Generated_Source\PSoC5/ETH0.c **** 	 * specified in the parameters.
 978:Generated_Source\PSoC5/ETH0.c **** 	 */
 979:Generated_Source\PSoC5/ETH0.c **** 	base = ETH0_GetSocketTxWritePtr(socket) + offset;
 1268              		.loc 1 979 0
 1269 000c FFF7FEFF 		bl	ETH0_GetSocketTxWritePtr
 1270              	.LVL153:
 1271 0010 2844     		add	r0, r0, r5
 1272 0012 85B2     		uxth	r5, r0
 1273              	.LVL154:
 980:Generated_Source\PSoC5/ETH0.c **** 	PointerOffset = (base & 0x07FF);
 1274              		.loc 1 980 0
 1275 0014 C5F30A04 		ubfx	r4, r5, #0, #11
 1276              	.LVL155:
 981:Generated_Source\PSoC5/ETH0.c **** 	addr = PointerOffset + ETH0_SOCKET_TX_BASE[socket];
 1277              		.loc 1 981 0
 1278 0018 104B     		ldr	r3, .L100
 1279 001a 33F81790 		ldrh	r9, [r3, r7, lsl #1]
 1280 001e 04EB0900 		add	r0, r4, r9
 1281 0022 80B2     		uxth	r0, r0
 1282              	.LVL156:
 982:Generated_Source\PSoC5/ETH0.c **** 	/* calculate the number of bytes from the pointer to the end of the buffer */
 983:Generated_Source\PSoC5/ETH0.c **** 	size = 0x0800 - PointerOffset;
 1283              		.loc 1 983 0
 1284 0024 C4F50064 		rsb	r4, r4, #2048
 1285              	.LVL157:
 1286 0028 A4B2     		uxth	r4, r4
 1287              	.LVL158:
 984:Generated_Source\PSoC5/ETH0.c **** 	
 985:Generated_Source\PSoC5/ETH0.c **** 	/*
 986:Generated_Source\PSoC5/ETH0.c **** 	 * is there enough space to write the complete packet
 987:Generated_Source\PSoC5/ETH0.c **** 	 * or, shoudl the data be split in to two writes.
 988:Generated_Source\PSoC5/ETH0.c **** 	 */
 989:Generated_Source\PSoC5/ETH0.c **** 	if ( length > size) {
 1288              		.loc 1 989 0
 1289 002a B442     		cmp	r4, r6
 1290 002c 0BD2     		bcs	.L97
 990:Generated_Source\PSoC5/ETH0.c **** 		/*
 991:Generated_Source\PSoC5/ETH0.c **** 		 * There is more data to send than will fit from the pointer to the end
 992:Generated_Source\PSoC5/ETH0.c **** 		 * of the memory, so we will write the data in two chunks.  First, write the
 993:Generated_Source\PSoC5/ETH0.c **** 		 * data from the pointer to the end of the buffer, then write the portion
 994:Generated_Source\PSoC5/ETH0.c **** 		 * remaining to the start (base ptr) of the socket buffer
 995:Generated_Source\PSoC5/ETH0.c **** 		 */
 996:Generated_Source\PSoC5/ETH0.c **** 		ETH0_W51_WriteBlock(addr, buffer, size);
 1291              		.loc 1 996 0
 1292 002e 2246     		mov	r2, r4
 1293 0030 4146     		mov	r1, r8
 1294 0032 FFF7FEFF 		bl	ETH0_W51_WriteBlock
 1295              	.LVL159:
 997:Generated_Source\PSoC5/ETH0.c **** 		ETH0_W51_WriteBlock(ETH0_SOCKET_TX_BASE[socket], &buffer[size], length - size);
ARM GAS  C:\Users\USUARIO\AppData\Local\Temp\cchqzDaB.s 			page 43


 1296              		.loc 1 997 0
 1297 0036 321B     		subs	r2, r6, r4
 1298 0038 92B2     		uxth	r2, r2
 1299 003a 08EB0401 		add	r1, r8, r4
 1300 003e 4846     		mov	r0, r9
 1301 0040 FFF7FEFF 		bl	ETH0_W51_WriteBlock
 1302              	.LVL160:
 1303 0044 03E0     		b	.L98
 1304              	.LVL161:
 1305              	.L97:
 998:Generated_Source\PSoC5/ETH0.c **** 	}
 999:Generated_Source\PSoC5/ETH0.c **** 	else {
1000:Generated_Source\PSoC5/ETH0.c **** 		/* 
1001:Generated_Source\PSoC5/ETH0.c **** 		 * there is enough available space from the write point to the end of buffer
1002:Generated_Source\PSoC5/ETH0.c **** 		 * to hold the whole packe of information, so just write it to the memory
1003:Generated_Source\PSoC5/ETH0.c **** 		 */
1004:Generated_Source\PSoC5/ETH0.c **** 		ETH0_W51_WriteBlock(addr,buffer,length);
 1306              		.loc 1 1004 0
 1307 0046 3246     		mov	r2, r6
 1308 0048 4146     		mov	r1, r8
 1309 004a FFF7FEFF 		bl	ETH0_W51_WriteBlock
 1310              	.LVL162:
 1311              	.L98:
1005:Generated_Source\PSoC5/ETH0.c **** 	}
1006:Generated_Source\PSoC5/ETH0.c **** 	/* move the write pointer */
1007:Generated_Source\PSoC5/ETH0.c **** 	base += length;
 1312              		.loc 1 1007 0
 1313 004e A919     		adds	r1, r5, r6
 1314              	.LVL163:
1008:Generated_Source\PSoC5/ETH0.c **** 	/* 
1009:Generated_Source\PSoC5/ETH0.c **** 	 * Store the new write pointer so that the device knows that there is data waiting
1010:Generated_Source\PSoC5/ETH0.c **** 	 * to be transmitted over the link.
1011:Generated_Source\PSoC5/ETH0.c **** 	 */
1012:Generated_Source\PSoC5/ETH0.c **** 	ETH0_SetSocketTxWritePtr(socket, base);
 1315              		.loc 1 1012 0
 1316 0050 89B2     		uxth	r1, r1
 1317 0052 3846     		mov	r0, r7
 1318 0054 FFF7FEFF 		bl	ETH0_SetSocketTxWritePtr
 1319              	.LVL164:
 1320 0058 BDE8F883 		pop	{r3, r4, r5, r6, r7, r8, r9, pc}
 1321              	.LVL165:
 1322              	.L101:
 1323              		.align	2
 1324              	.L100:
 1325 005c 00000000 		.word	.LANCHOR0
 1326              		.cfi_endproc
 1327              	.LFE72:
 1328              		.size	ETH0_ProcessTxData, .-ETH0_ProcessTxData
 1329              		.section	.text.ETH0_GetSocketRxReadPtr,"ax",%progbits
 1330              		.align	2
 1331              		.thumb
 1332              		.thumb_func
 1333              		.type	ETH0_GetSocketRxReadPtr, %function
 1334              	ETH0_GetSocketRxReadPtr:
 1335              	.LFB68:
 888:Generated_Source\PSoC5/ETH0.c **** /* ------------------------------------------------------------------------ */
 1336              		.loc 1 888 0
ARM GAS  C:\Users\USUARIO\AppData\Local\Temp\cchqzDaB.s 			page 44


 1337              		.cfi_startproc
 1338              		@ args = 0, pretend = 0, frame = 0
 1339              		@ frame_needed = 0, uses_anonymous_args = 0
 1340              	.LVL166:
 1341 0000 08B5     		push	{r3, lr}
 1342              		.cfi_def_cfa_offset 8
 1343              		.cfi_offset 3, -8
 1344              		.cfi_offset 14, -4
 888:Generated_Source\PSoC5/ETH0.c **** /* ------------------------------------------------------------------------ */
 1345              		.loc 1 888 0
 1346 0002 0002     		lsls	r0, r0, #8
 1347              	.LVL167:
 1348 0004 00F58560 		add	r0, r0, #1064
 1349 0008 80B2     		uxth	r0, r0
 1350 000a FFF7FEFF 		bl	ETH0_W51_Read16
 1351              	.LVL168:
 1352 000e 08BD     		pop	{r3, pc}
 1353              		.cfi_endproc
 1354              	.LFE68:
 1355              		.size	ETH0_GetSocketRxReadPtr, .-ETH0_GetSocketRxReadPtr
 1356              		.section	.text.ETH0_GetSocketIR,"ax",%progbits
 1357              		.align	2
 1358              		.thumb
 1359              		.thumb_func
 1360              		.type	ETH0_GetSocketIR, %function
 1361              	ETH0_GetSocketIR:
 1362              	.LFB42:
 680:Generated_Source\PSoC5/ETH0.c **** /* ------------------------------------------------------------------------ */
 1363              		.loc 1 680 0
 1364              		.cfi_startproc
 1365              		@ args = 0, pretend = 0, frame = 0
 1366              		@ frame_needed = 0, uses_anonymous_args = 0
 1367              	.LVL169:
 1368 0000 08B5     		push	{r3, lr}
 1369              		.cfi_def_cfa_offset 8
 1370              		.cfi_offset 3, -8
 1371              		.cfi_offset 14, -4
 680:Generated_Source\PSoC5/ETH0.c **** /* ------------------------------------------------------------------------ */
 1372              		.loc 1 680 0
 1373 0002 0002     		lsls	r0, r0, #8
 1374              	.LVL170:
 1375 0004 00F20240 		addw	r0, r0, #1026
 1376 0008 80B2     		uxth	r0, r0
 1377 000a FFF7FEFF 		bl	ETH0_W51_Read
 1378              	.LVL171:
 1379 000e 08BD     		pop	{r3, pc}
 1380              		.cfi_endproc
 1381              	.LFE42:
 1382              		.size	ETH0_GetSocketIR, .-ETH0_GetSocketIR
 1383              		.section	.text.ETH0_SocketSend,"ax",%progbits
 1384              		.align	2
 1385              		.thumb
 1386              		.thumb_func
 1387              		.type	ETH0_SocketSend, %function
 1388              	ETH0_SocketSend:
 1389              	.LFB88:
1013:Generated_Source\PSoC5/ETH0.c **** }
ARM GAS  C:\Users\USUARIO\AppData\Local\Temp\cchqzDaB.s 			page 45


1014:Generated_Source\PSoC5/ETH0.c **** /* ------------------------------------------------------------------------ */
1015:Generated_Source\PSoC5/ETH0.c **** /**
1016:Generated_Source\PSoC5/ETH0.c ****  * \brief Transfer data from the chip receive buffer to a local buffer
1017:Generated_Source\PSoC5/ETH0.c ****  * \param socket the socket buffer from which the data will be read
1018:Generated_Source\PSoC5/ETH0.c ****  * \param offset The offest in to the socket buffer
1019:Generated_Source\PSoC5/ETH0.c ****  * \param *buffer pointer to the local buffer to hold the receive fifo data
1020:Generated_Source\PSoC5/ETH0.c ****  * \param length the max number of bytes to be copied to the local buffer
1021:Generated_Source\PSoC5/ETH0.c ****  * \param flags Flag settings to control read fifo options (lookahead)
1022:Generated_Source\PSoC5/ETH0.c ****  */
1023:Generated_Source\PSoC5/ETH0.c **** static void ETH0_ProcessRxData(uint8 socket, uint16 offset, uint8* buffer, uint16 length, uint8 fla
1024:Generated_Source\PSoC5/ETH0.c **** {
1025:Generated_Source\PSoC5/ETH0.c **** 	uint16 addr;
1026:Generated_Source\PSoC5/ETH0.c **** 	uint16 base;
1027:Generated_Source\PSoC5/ETH0.c **** 	uint16 PointerOffset;
1028:Generated_Source\PSoC5/ETH0.c **** 	uint16 size;
1029:Generated_Source\PSoC5/ETH0.c **** 	
1030:Generated_Source\PSoC5/ETH0.c **** 	/*
1031:Generated_Source\PSoC5/ETH0.c **** 	 * Read the offset pointer, and calculate the base address for the start of read
1032:Generated_Source\PSoC5/ETH0.c **** 	 * in to the chip buffers.  The data read will be offset by the offset byte count
1033:Generated_Source\PSoC5/ETH0.c **** 	 * specified in the parameters.
1034:Generated_Source\PSoC5/ETH0.c **** 	 */
1035:Generated_Source\PSoC5/ETH0.c **** 	base = ETH0_GetSocketRxReadPtr(socket) + offset;
1036:Generated_Source\PSoC5/ETH0.c **** 	PointerOffset = (base & 0x07FF);
1037:Generated_Source\PSoC5/ETH0.c **** 	addr = PointerOffset + ETH0_SOCKET_RX_BASE[socket];
1038:Generated_Source\PSoC5/ETH0.c **** 	/* calculate the number of bytes from the pointer to the end of the buffer */
1039:Generated_Source\PSoC5/ETH0.c **** 	size = 0x0800 - PointerOffset;
1040:Generated_Source\PSoC5/ETH0.c **** 	/*
1041:Generated_Source\PSoC5/ETH0.c **** 	 * is there enough space to read the complete packet
1042:Generated_Source\PSoC5/ETH0.c **** 	 * or, should the data be split in to two reads.
1043:Generated_Source\PSoC5/ETH0.c **** 	 */
1044:Generated_Source\PSoC5/ETH0.c **** 	if ( length > size) {
1045:Generated_Source\PSoC5/ETH0.c **** 		/*
1046:Generated_Source\PSoC5/ETH0.c **** 		 * There is more data to send than will fit from the pointer to the end
1047:Generated_Source\PSoC5/ETH0.c **** 		 * of the memory, so we will write the data in two chunks.  First, write the
1048:Generated_Source\PSoC5/ETH0.c **** 		 * data from the pointer to the end of the buffer, then write the portion
1049:Generated_Source\PSoC5/ETH0.c **** 		 * remaining to the start (base ptr) of the socket buffer
1050:Generated_Source\PSoC5/ETH0.c **** 		 */
1051:Generated_Source\PSoC5/ETH0.c **** 		ETH0_W51_ReadBlock(addr, buffer, size);
1052:Generated_Source\PSoC5/ETH0.c **** 		ETH0_W51_ReadBlock(ETH0_SOCKET_RX_BASE[socket], &buffer[size], length - size);
1053:Generated_Source\PSoC5/ETH0.c **** 	}
1054:Generated_Source\PSoC5/ETH0.c **** 	else {
1055:Generated_Source\PSoC5/ETH0.c **** 		/* 
1056:Generated_Source\PSoC5/ETH0.c **** 		 * there is enough available space from the write point to the end of buffer
1057:Generated_Source\PSoC5/ETH0.c **** 		 * to hold the whole packe of information, so just write it to the memory
1058:Generated_Source\PSoC5/ETH0.c **** 		 */
1059:Generated_Source\PSoC5/ETH0.c **** 		ETH0_W51_ReadBlock(addr,buffer,length);
1060:Generated_Source\PSoC5/ETH0.c **** 	}
1061:Generated_Source\PSoC5/ETH0.c **** 	if ( (flags & 0x01) == 0 ) { /* V1.1: Added ==0 condition to lookahead flag check */
1062:Generated_Source\PSoC5/ETH0.c **** 		/* move the write pointer */
1063:Generated_Source\PSoC5/ETH0.c **** 		base += length;
1064:Generated_Source\PSoC5/ETH0.c **** 		/* 
1065:Generated_Source\PSoC5/ETH0.c **** 		 * Store the new write pointer so that the device knows that there is data waiting
1066:Generated_Source\PSoC5/ETH0.c **** 		 * to be transmitted over the link.
1067:Generated_Source\PSoC5/ETH0.c **** 		 */
1068:Generated_Source\PSoC5/ETH0.c **** 		ETH0_SetSocketRxReadPtr(socket, base);
1069:Generated_Source\PSoC5/ETH0.c **** 	}
1070:Generated_Source\PSoC5/ETH0.c **** }
ARM GAS  C:\Users\USUARIO\AppData\Local\Temp\cchqzDaB.s 			page 46


1071:Generated_Source\PSoC5/ETH0.c **** #endif
1072:Generated_Source\PSoC5/ETH0.c **** /* ======================================================================== */
1073:Generated_Source\PSoC5/ETH0.c **** /* Driver Initialization */
1074:Generated_Source\PSoC5/ETH0.c **** #if (1)
1075:Generated_Source\PSoC5/ETH0.c **** /* ------------------------------------------------------------------------ */
1076:Generated_Source\PSoC5/ETH0.c **** void
1077:Generated_Source\PSoC5/ETH0.c **** ETH0_Init(uint8* mac, uint32 ip, uint32 subnet, uint32 gateway)
1078:Generated_Source\PSoC5/ETH0.c **** {
1079:Generated_Source\PSoC5/ETH0.c **** 	/*
1080:Generated_Source\PSoC5/ETH0.c **** 	 * Initialize the device and the address configuration, then
1081:Generated_Source\PSoC5/ETH0.c **** 	 * execute socket memory initialization for the local allocation
1082:Generated_Source\PSoC5/ETH0.c **** 	 * table.
1083:Generated_Source\PSoC5/ETH0.c **** 	 */
1084:Generated_Source\PSoC5/ETH0.c **** 	int index;
1085:Generated_Source\PSoC5/ETH0.c **** 	
1086:Generated_Source\PSoC5/ETH0.c **** 	CyDelay( 250 ); /* Fixed Boot Delay or chip inintialization will fail */
1087:Generated_Source\PSoC5/ETH0.c **** 	
1088:Generated_Source\PSoC5/ETH0.c **** 	/* Reset the device */
1089:Generated_Source\PSoC5/ETH0.c **** 	ETH0_SetMode(0x80); /* Send Reset Command */
1090:Generated_Source\PSoC5/ETH0.c **** 	/* Wait for the chip initialization delay */
1091:Generated_Source\PSoC5/ETH0.c **** 	CyDelay( 10 );
1092:Generated_Source\PSoC5/ETH0.c **** 	
1093:Generated_Source\PSoC5/ETH0.c **** 	/* Close all of the socket, and clear the memory to make them available. */
1094:Generated_Source\PSoC5/ETH0.c **** 	for(index=0;index<4;++index) {
1095:Generated_Source\PSoC5/ETH0.c **** 		ETH0_SocketClose( index );
1096:Generated_Source\PSoC5/ETH0.c **** 	}
1097:Generated_Source\PSoC5/ETH0.c **** 	/* Write the default configruation for memory size to the device */
1098:Generated_Source\PSoC5/ETH0.c **** 	ETH0_SetTxMemSize(0x55); /* 2K each */
1099:Generated_Source\PSoC5/ETH0.c **** 	ETH0_SetRxMemSize(0x55); /* 2K Each */
1100:Generated_Source\PSoC5/ETH0.c **** 	/* Set device gateway address */
1101:Generated_Source\PSoC5/ETH0.c **** 	ETH0_SetGatewayAddress(gateway);
1102:Generated_Source\PSoC5/ETH0.c **** 	ETH0_SetSubnetMask( subnet );
1103:Generated_Source\PSoC5/ETH0.c **** 	/* Store the subnet mask for later use, for ERRATA fix */
1104:Generated_Source\PSoC5/ETH0.c **** 	ETH0_SubnetMask = subnet;
1105:Generated_Source\PSoC5/ETH0.c **** 	/* store the device mac */
1106:Generated_Source\PSoC5/ETH0.c **** 	ETH0_SetSourceMAC( mac );
1107:Generated_Source\PSoC5/ETH0.c **** 	/* store the IP address */
1108:Generated_Source\PSoC5/ETH0.c **** 	ETH0_SetSourceIP( ip );
1109:Generated_Source\PSoC5/ETH0.c **** 	/* clear pending interrupts */
1110:Generated_Source\PSoC5/ETH0.c **** 	ETH0_SetIR(0xFF);
1111:Generated_Source\PSoC5/ETH0.c **** 	/* clear the subnet mask register (W5100 Errata Fix) */
1112:Generated_Source\PSoC5/ETH0.c **** 	ETH0_SetSubnetMask( 0 );
1113:Generated_Source\PSoC5/ETH0.c **** }
1114:Generated_Source\PSoC5/ETH0.c **** /* ------------------------------------------------------------------------ */
1115:Generated_Source\PSoC5/ETH0.c **** void
1116:Generated_Source\PSoC5/ETH0.c **** ETH0_Start( void )
1117:Generated_Source\PSoC5/ETH0.c **** {
1118:Generated_Source\PSoC5/ETH0.c **** 	uint32 ip;
1119:Generated_Source\PSoC5/ETH0.c **** 	uint32 gateway;
1120:Generated_Source\PSoC5/ETH0.c **** 	uint32 sub;
1121:Generated_Source\PSoC5/ETH0.c **** 	
1122:Generated_Source\PSoC5/ETH0.c **** 	/* Check for SPI initialization */
1123:Generated_Source\PSoC5/ETH0.c **** 	if (SPI0_initVar == 0) {
1124:Generated_Source\PSoC5/ETH0.c **** 		/*
1125:Generated_Source\PSoC5/ETH0.c **** 		 * the hardware has not yet been initialized.  Before anything can be
1126:Generated_Source\PSoC5/ETH0.c **** 		 * initialized within the driver, the external hardware must be started
1127:Generated_Source\PSoC5/ETH0.c **** 		 */
ARM GAS  C:\Users\USUARIO\AppData\Local\Temp\cchqzDaB.s 			page 47


1128:Generated_Source\PSoC5/ETH0.c **** 		SPI0_Start();
1129:Generated_Source\PSoC5/ETH0.c **** 	}
1130:Generated_Source\PSoC5/ETH0.c **** 		
1131:Generated_Source\PSoC5/ETH0.c **** 	/* wait for power on PLL Lock */
1132:Generated_Source\PSoC5/ETH0.c **** 	CyDelay( 10 );
1133:Generated_Source\PSoC5/ETH0.c **** 	/* V1.2 new -- Parse MAC Address string */
1134:Generated_Source\PSoC5/ETH0.c **** 	if ( ETH0_ParseMAC("0x00, 0xDE, 0xAD, 0xBE, 0xEF, 0x00", &ETH0_MAC[0]) == CYRET_BAD_DATA) {
1135:Generated_Source\PSoC5/ETH0.c **** 		ETH0_MAC[0] = 0;
1136:Generated_Source\PSoC5/ETH0.c **** 		ETH0_MAC[1] = 0xDE;
1137:Generated_Source\PSoC5/ETH0.c **** 		ETH0_MAC[2] = 0xAD;
1138:Generated_Source\PSoC5/ETH0.c **** 		ETH0_MAC[3] = 0xC0;
1139:Generated_Source\PSoC5/ETH0.c **** 		ETH0_MAC[4] = 0xDE;
1140:Generated_Source\PSoC5/ETH0.c **** 		ETH0_MAC[5] = 0;
1141:Generated_Source\PSoC5/ETH0.c **** 	}
1142:Generated_Source\PSoC5/ETH0.c **** 	/* END of V1.2 Update ------ */
1143:Generated_Source\PSoC5/ETH0.c **** 	ip = ETH0_ParseIP("192.168.0.80");
1144:Generated_Source\PSoC5/ETH0.c **** 	sub = ETH0_ParseIP("255.255.255.0");
1145:Generated_Source\PSoC5/ETH0.c **** 	gateway = ETH0_ParseIP("192.168.0.1");
1146:Generated_Source\PSoC5/ETH0.c **** 	/* Initialize the device with the default data */
1147:Generated_Source\PSoC5/ETH0.c **** 	ETH0_Init( &ETH0_MAC[0], ip, sub, gateway  );
1148:Generated_Source\PSoC5/ETH0.c **** }
1149:Generated_Source\PSoC5/ETH0.c **** /* ------------------------------------------------------------------------ */
1150:Generated_Source\PSoC5/ETH0.c **** uint32
1151:Generated_Source\PSoC5/ETH0.c **** ETH0_ParseIP( const char* ipString )
1152:Generated_Source\PSoC5/ETH0.c **** {
1153:Generated_Source\PSoC5/ETH0.c **** 	/*
1154:Generated_Source\PSoC5/ETH0.c **** 	 * Parse a human readable string in to a IP address usable by the hardare
1155:Generated_Source\PSoC5/ETH0.c **** 	 */
1156:Generated_Source\PSoC5/ETH0.c **** 	int index;
1157:Generated_Source\PSoC5/ETH0.c **** 	char digit[5];
1158:Generated_Source\PSoC5/ETH0.c **** 	uint8 ip[4];
1159:Generated_Source\PSoC5/ETH0.c **** 	int counter;
1160:Generated_Source\PSoC5/ETH0.c **** 	int dindex;
1161:Generated_Source\PSoC5/ETH0.c **** 	
1162:Generated_Source\PSoC5/ETH0.c **** 	index = 0;
1163:Generated_Source\PSoC5/ETH0.c **** 	dindex = 0;
1164:Generated_Source\PSoC5/ETH0.c **** 	counter = 0;
1165:Generated_Source\PSoC5/ETH0.c **** 	
1166:Generated_Source\PSoC5/ETH0.c **** 	while ( (counter < 4) && ((unsigned int)index < strlen(ipString) ) ) {
1167:Generated_Source\PSoC5/ETH0.c **** 		if ( (ipString[index] >= '0' ) && (ipString[index] <= '9') ) {
1168:Generated_Source\PSoC5/ETH0.c **** 			if (dindex > 3) return( 0xFFFFFFFF );
1169:Generated_Source\PSoC5/ETH0.c **** 			digit[dindex++] = ipString[index];
1170:Generated_Source\PSoC5/ETH0.c **** 			
1171:Generated_Source\PSoC5/ETH0.c **** 		}
1172:Generated_Source\PSoC5/ETH0.c **** 		
1173:Generated_Source\PSoC5/ETH0.c **** 		if ( (ipString[index] == '.') || (ipString[index+1] == 0) ) {
1174:Generated_Source\PSoC5/ETH0.c **** 			digit[dindex] = 0;
1175:Generated_Source\PSoC5/ETH0.c **** 			dindex = 0;
1176:Generated_Source\PSoC5/ETH0.c **** 			/* convert the value and store in the buffer */
1177:Generated_Source\PSoC5/ETH0.c **** 			ip[counter] = 0;
1178:Generated_Source\PSoC5/ETH0.c **** 			while (digit[dindex] != 0) {
1179:Generated_Source\PSoC5/ETH0.c **** 				ip[counter] = (ip[counter]*10) + (digit[dindex]-'0');
1180:Generated_Source\PSoC5/ETH0.c **** 				++dindex;
1181:Generated_Source\PSoC5/ETH0.c **** 				// ip[counter] = ...
1182:Generated_Source\PSoC5/ETH0.c **** 			}
1183:Generated_Source\PSoC5/ETH0.c **** 			/* reset the digit index to start accumulating digits again*/
1184:Generated_Source\PSoC5/ETH0.c **** 			dindex = 0;
ARM GAS  C:\Users\USUARIO\AppData\Local\Temp\cchqzDaB.s 			page 48


1185:Generated_Source\PSoC5/ETH0.c **** 			/* move to the next address byte */
1186:Generated_Source\PSoC5/ETH0.c **** 			++counter;
1187:Generated_Source\PSoC5/ETH0.c **** 		}
1188:Generated_Source\PSoC5/ETH0.c **** 		++index;
1189:Generated_Source\PSoC5/ETH0.c **** 	}
1190:Generated_Source\PSoC5/ETH0.c **** 	
1191:Generated_Source\PSoC5/ETH0.c **** 	if (counter != 4) {
1192:Generated_Source\PSoC5/ETH0.c **** 		return( 0xFFFFFFFF );
1193:Generated_Source\PSoC5/ETH0.c **** 	}
1194:Generated_Source\PSoC5/ETH0.c **** 	else {
1195:Generated_Source\PSoC5/ETH0.c **** 		return( ETH0_IPADDRESS(ip[0], ip[1], ip[2], ip[3]) );
1196:Generated_Source\PSoC5/ETH0.c **** 	}
1197:Generated_Source\PSoC5/ETH0.c **** }
1198:Generated_Source\PSoC5/ETH0.c **** /* ------------------------------------------------------------------------ */
1199:Generated_Source\PSoC5/ETH0.c **** /**
1200:Generated_Source\PSoC5/ETH0.c ****  * /brief Parse a MAC Address string in to a 6-byte mac address
1201:Generated_Source\PSoC5/ETH0.c ****  * /param *macString Pointer to the ASCII-Z String containing the MAC address
1202:Generated_Source\PSoC5/ETH0.c ****  * /param *mac Pointer to the 6-byte array to hold the output mac addres
1203:Generated_Source\PSoC5/ETH0.c ****  */
1204:Generated_Source\PSoC5/ETH0.c **** cystatus ETH0_ParseMAC(const char *macString, uint8 *mac)
1205:Generated_Source\PSoC5/ETH0.c **** {
1206:Generated_Source\PSoC5/ETH0.c **** 	/* 
1207:Generated_Source\PSoC5/ETH0.c **** 	 * a mac address is specified as a string of 6 hex bytes with
1208:Generated_Source\PSoC5/ETH0.c **** 	 * dashes ('-') seperating the bytes.  An invalidly formed
1209:Generated_Source\PSoC5/ETH0.c **** 	 * address will only process the values up the error and return BAD_DATA
1210:Generated_Source\PSoC5/ETH0.c **** 	 * otherwise, SUCESS is returned.
1211:Generated_Source\PSoC5/ETH0.c **** 	 */
1212:Generated_Source\PSoC5/ETH0.c **** 	int digit;
1213:Generated_Source\PSoC5/ETH0.c **** 	int index;
1214:Generated_Source\PSoC5/ETH0.c **** 	cystatus result;
1215:Generated_Source\PSoC5/ETH0.c **** 	
1216:Generated_Source\PSoC5/ETH0.c **** 	result = CYRET_SUCCESS;
1217:Generated_Source\PSoC5/ETH0.c **** 	index = 0;
1218:Generated_Source\PSoC5/ETH0.c **** 	for(digit = 0;(digit<6) && (result == CYRET_SUCCESS)&&(macString[index] != 0);++digit) {
1219:Generated_Source\PSoC5/ETH0.c **** 		// process the first nibble
1220:Generated_Source\PSoC5/ETH0.c **** 		if (ETH0_ISXDIGIT(macString[index]) ) {
1221:Generated_Source\PSoC5/ETH0.c **** 			mac[digit] = ETH0_HEX2BIN(macString[index]);
1222:Generated_Source\PSoC5/ETH0.c **** 			++index;
1223:Generated_Source\PSoC5/ETH0.c **** 			mac[digit] <<= 4;
1224:Generated_Source\PSoC5/ETH0.c **** 			if (ETH0_ISXDIGIT(macString[index])) {
1225:Generated_Source\PSoC5/ETH0.c **** 				mac[digit] += ETH0_HEX2BIN(macString[index]);
1226:Generated_Source\PSoC5/ETH0.c **** 				++index;
1227:Generated_Source\PSoC5/ETH0.c **** 				/*
1228:Generated_Source\PSoC5/ETH0.c **** 				 * now for digits other than digit 5 (the last one) look for
1229:Generated_Source\PSoC5/ETH0.c **** 				 * the dash seperator.  If there is no dash, return bad data
1230:Generated_Source\PSoC5/ETH0.c **** 				 */
1231:Generated_Source\PSoC5/ETH0.c **** 				if (digit<5) {
1232:Generated_Source\PSoC5/ETH0.c **** 					if( (macString[index]!='-') && (macString[index]!= ':') ){
1233:Generated_Source\PSoC5/ETH0.c **** 						result = CYRET_BAD_DATA;
1234:Generated_Source\PSoC5/ETH0.c **** 					}
1235:Generated_Source\PSoC5/ETH0.c **** 					++index; // move conversion pointer to the next value
1236:Generated_Source\PSoC5/ETH0.c **** 				}
1237:Generated_Source\PSoC5/ETH0.c **** 			}
1238:Generated_Source\PSoC5/ETH0.c **** 			else {
1239:Generated_Source\PSoC5/ETH0.c **** 				result = CYRET_BAD_DATA;
1240:Generated_Source\PSoC5/ETH0.c **** 			}
1241:Generated_Source\PSoC5/ETH0.c **** 		}
ARM GAS  C:\Users\USUARIO\AppData\Local\Temp\cchqzDaB.s 			page 49


1242:Generated_Source\PSoC5/ETH0.c **** 		else {
1243:Generated_Source\PSoC5/ETH0.c **** 			result = CYRET_BAD_DATA;
1244:Generated_Source\PSoC5/ETH0.c **** 		}
1245:Generated_Source\PSoC5/ETH0.c **** 	}
1246:Generated_Source\PSoC5/ETH0.c **** 	return( result );
1247:Generated_Source\PSoC5/ETH0.c **** }
1248:Generated_Source\PSoC5/ETH0.c **** /* ------------------------------------------------------------------------ */
1249:Generated_Source\PSoC5/ETH0.c **** void ETH0_StringMAC(char *macString)
1250:Generated_Source\PSoC5/ETH0.c **** {
1251:Generated_Source\PSoC5/ETH0.c **** 	uint8 mac[6];
1252:Generated_Source\PSoC5/ETH0.c **** 	int digit;
1253:Generated_Source\PSoC5/ETH0.c **** 	int index;
1254:Generated_Source\PSoC5/ETH0.c **** 	
1255:Generated_Source\PSoC5/ETH0.c **** 	/*
1256:Generated_Source\PSoC5/ETH0.c **** 	 * first read the MAC address from the chip
1257:Generated_Source\PSoC5/ETH0.c **** 	 * and inintialize some locals so that the
1258:Generated_Source\PSoC5/ETH0.c **** 	 * string formater will function properly
1259:Generated_Source\PSoC5/ETH0.c **** 	 */
1260:Generated_Source\PSoC5/ETH0.c **** 	ETH0_GetSourceMAC( &mac[0] );
1261:Generated_Source\PSoC5/ETH0.c **** 	index = 0;
1262:Generated_Source\PSoC5/ETH0.c **** 	for(digit=0;digit<6;++digit) {
1263:Generated_Source\PSoC5/ETH0.c **** 		// convert the first nibble
1264:Generated_Source\PSoC5/ETH0.c **** 		macString[index++] = ETH0_BIN2HEX(((mac[digit]>>4)&0x0F));
1265:Generated_Source\PSoC5/ETH0.c **** 		macString[index++] = ETH0_BIN2HEX((mac[digit]&0x0F));
1266:Generated_Source\PSoC5/ETH0.c **** 		if (digit<5) {
1267:Generated_Source\PSoC5/ETH0.c **** 			macString[index++] = '-';
1268:Generated_Source\PSoC5/ETH0.c **** 		}
1269:Generated_Source\PSoC5/ETH0.c **** 		else {
1270:Generated_Source\PSoC5/ETH0.c **** 			macString[index] = 0;
1271:Generated_Source\PSoC5/ETH0.c **** 		}
1272:Generated_Source\PSoC5/ETH0.c **** 	}
1273:Generated_Source\PSoC5/ETH0.c **** }
1274:Generated_Source\PSoC5/ETH0.c **** /* ------------------------------------------------------------------------ */
1275:Generated_Source\PSoC5/ETH0.c **** void ETH0_StringIP( char *ipString )
1276:Generated_Source\PSoC5/ETH0.c **** {
1277:Generated_Source\PSoC5/ETH0.c **** 	uint32 ip;
1278:Generated_Source\PSoC5/ETH0.c **** 	uint8 *ipBytes;
1279:Generated_Source\PSoC5/ETH0.c **** 	int index;
1280:Generated_Source\PSoC5/ETH0.c **** 	int digit;
1281:Generated_Source\PSoC5/ETH0.c **** 	int work, temp;
1282:Generated_Source\PSoC5/ETH0.c **** 	
1283:Generated_Source\PSoC5/ETH0.c **** 	ip = ETH0_GetSourceIP();
1284:Generated_Source\PSoC5/ETH0.c **** 	ipBytes = (uint8*)&ip;
1285:Generated_Source\PSoC5/ETH0.c **** 	index = 0;
1286:Generated_Source\PSoC5/ETH0.c **** 	for(digit=0;digit<4;++digit) {
1287:Generated_Source\PSoC5/ETH0.c **** 		work = ipBytes[digit];
1288:Generated_Source\PSoC5/ETH0.c **** 		if (work >= 100) {
1289:Generated_Source\PSoC5/ETH0.c **** 			temp = work/100;
1290:Generated_Source\PSoC5/ETH0.c **** 			work -= (temp*100);
1291:Generated_Source\PSoC5/ETH0.c **** 			ipString[index++] = '0' + temp;
1292:Generated_Source\PSoC5/ETH0.c **** 		}
1293:Generated_Source\PSoC5/ETH0.c **** 		if (work >= 10) {
1294:Generated_Source\PSoC5/ETH0.c **** 			temp = work /10;
1295:Generated_Source\PSoC5/ETH0.c **** 			work -= (temp*10);
1296:Generated_Source\PSoC5/ETH0.c **** 			ipString[index++] = '0'+temp;
1297:Generated_Source\PSoC5/ETH0.c **** 		}
1298:Generated_Source\PSoC5/ETH0.c **** 		ipString[index++] = '0'+work;
ARM GAS  C:\Users\USUARIO\AppData\Local\Temp\cchqzDaB.s 			page 50


1299:Generated_Source\PSoC5/ETH0.c **** 		if (digit <3) {
1300:Generated_Source\PSoC5/ETH0.c **** 			ipString[index++] = '.';
1301:Generated_Source\PSoC5/ETH0.c **** 		}
1302:Generated_Source\PSoC5/ETH0.c **** 		else {
1303:Generated_Source\PSoC5/ETH0.c **** 			ipString[index] = 0;
1304:Generated_Source\PSoC5/ETH0.c **** 		}
1305:Generated_Source\PSoC5/ETH0.c **** 	}
1306:Generated_Source\PSoC5/ETH0.c **** }
1307:Generated_Source\PSoC5/ETH0.c **** 
1308:Generated_Source\PSoC5/ETH0.c **** /* ------------------------------------------------------------------------ */
1309:Generated_Source\PSoC5/ETH0.c **** uint8
1310:Generated_Source\PSoC5/ETH0.c **** ETH0_SetIP( uint32 ip )
1311:Generated_Source\PSoC5/ETH0.c **** {
1312:Generated_Source\PSoC5/ETH0.c **** 	uint8 ok = 0;
1313:Generated_Source\PSoC5/ETH0.c **** 	
1314:Generated_Source\PSoC5/ETH0.c **** 	if ( ( ip != 0) && (ip != 0xFFFFFFFF) ) {
1315:Generated_Source\PSoC5/ETH0.c **** 		ETH0_SetSourceIP( ip );
1316:Generated_Source\PSoC5/ETH0.c **** 		ok = 0xFF;
1317:Generated_Source\PSoC5/ETH0.c **** 	}
1318:Generated_Source\PSoC5/ETH0.c **** 	
1319:Generated_Source\PSoC5/ETH0.c **** 	return ok;
1320:Generated_Source\PSoC5/ETH0.c **** }
1321:Generated_Source\PSoC5/ETH0.c **** /* ------------------------------------------------------------------------ */
1322:Generated_Source\PSoC5/ETH0.c **** uint32
1323:Generated_Source\PSoC5/ETH0.c **** ETH0_GetIP( void )
1324:Generated_Source\PSoC5/ETH0.c **** {
1325:Generated_Source\PSoC5/ETH0.c **** 	return ETH0_GetSourceIP();
1326:Generated_Source\PSoC5/ETH0.c **** }
1327:Generated_Source\PSoC5/ETH0.c **** /* ------------------------------------------------------------------------ */
1328:Generated_Source\PSoC5/ETH0.c **** void
1329:Generated_Source\PSoC5/ETH0.c **** ETH0_SetMAC( uint8* mac )
1330:Generated_Source\PSoC5/ETH0.c **** {
1331:Generated_Source\PSoC5/ETH0.c **** 	ETH0_SetSourceMAC( mac );
1332:Generated_Source\PSoC5/ETH0.c **** }
1333:Generated_Source\PSoC5/ETH0.c **** /* ------------------------------------------------------------------------ */
1334:Generated_Source\PSoC5/ETH0.c **** void
1335:Generated_Source\PSoC5/ETH0.c **** ETH0_GetMAC( uint8* mac )
1336:Generated_Source\PSoC5/ETH0.c **** {
1337:Generated_Source\PSoC5/ETH0.c **** 	ETH0_GetSourceMAC( mac );
1338:Generated_Source\PSoC5/ETH0.c **** }
1339:Generated_Source\PSoC5/ETH0.c **** #endif
1340:Generated_Source\PSoC5/ETH0.c **** /* ======================================================================== */
1341:Generated_Source\PSoC5/ETH0.c **** /* Socket Controls */
1342:Generated_Source\PSoC5/ETH0.c **** #if (1)
1343:Generated_Source\PSoC5/ETH0.c **** /* ------------------------------------------------------------------------ */
1344:Generated_Source\PSoC5/ETH0.c **** uint8
1345:Generated_Source\PSoC5/ETH0.c **** ETH0_SocketOpen( uint8 Protocol, uint16 port, uint8 flags )
1346:Generated_Source\PSoC5/ETH0.c **** {
1347:Generated_Source\PSoC5/ETH0.c **** 	uint8 socket;
1348:Generated_Source\PSoC5/ETH0.c **** 	int index;
1349:Generated_Source\PSoC5/ETH0.c **** 	
1350:Generated_Source\PSoC5/ETH0.c **** 	/*
1351:Generated_Source\PSoC5/ETH0.c **** 	 * This function will look for the first available socket for allocation
1352:Generated_Source\PSoC5/ETH0.c **** 	 * using the defined protocol.  The socket configuration will then be
1353:Generated_Source\PSoC5/ETH0.c **** 	 * initialized and saved in the allocation table. If the requested socket
1354:Generated_Source\PSoC5/ETH0.c **** 	 * can not be initialized, 0xFF is returned
1355:Generated_Source\PSoC5/ETH0.c **** 	 */
ARM GAS  C:\Users\USUARIO\AppData\Local\Temp\cchqzDaB.s 			page 51


1356:Generated_Source\PSoC5/ETH0.c **** 	socket = 0xFF;
1357:Generated_Source\PSoC5/ETH0.c **** 	/* find the first available socket to open, and how much memory is available */
1358:Generated_Source\PSoC5/ETH0.c **** 	for( index = 0;index<4;++index) {
1359:Generated_Source\PSoC5/ETH0.c **** 		if ( (socket == 0xFF) && (ETH0_SocketConfig[index].Protocol == 0) ) {
1360:Generated_Source\PSoC5/ETH0.c **** 			/*
1361:Generated_Source\PSoC5/ETH0.c **** 			 * Since the W5100 does not support MAC mode commucications, check to see
1362:Generated_Source\PSoC5/ETH0.c **** 			 * if the socket that is free was socket 0.  If the mac protocol was
1363:Generated_Source\PSoC5/ETH0.c **** 			 * selected, ignore socket 0
1364:Generated_Source\PSoC5/ETH0.c **** 			 */
1365:Generated_Source\PSoC5/ETH0.c **** 			if ( (Protocol != ETH0_PROTO_MAC) || (index != 0) ) {
1366:Generated_Source\PSoC5/ETH0.c **** 				/* store this socket number for allocation */
1367:Generated_Source\PSoC5/ETH0.c **** 				socket = index;
1368:Generated_Source\PSoC5/ETH0.c **** 			}
1369:Generated_Source\PSoC5/ETH0.c **** 		}
1370:Generated_Source\PSoC5/ETH0.c **** 	}
1371:Generated_Source\PSoC5/ETH0.c **** 	if (socket != 0xFF ) {
1372:Generated_Source\PSoC5/ETH0.c **** 		/* Store the socket information in the allocation table */
1373:Generated_Source\PSoC5/ETH0.c **** 		ETH0_SocketConfig[socket].Protocol = Protocol;
1374:Generated_Source\PSoC5/ETH0.c **** 		ETH0_SocketConfig[socket].SocketFlags = flags;
1375:Generated_Source\PSoC5/ETH0.c **** 		ETH0_SocketConfig[socket].SourcePort = port;
1376:Generated_Source\PSoC5/ETH0.c **** 		ETH0_SocketConfig[socket].ServerFlag = 0;
1377:Generated_Source\PSoC5/ETH0.c **** 		/* Send the socket open with the correct protocol information */
1378:Generated_Source\PSoC5/ETH0.c **** 		ETH0_SetSocketSourcePort( socket, port );
1379:Generated_Source\PSoC5/ETH0.c **** 		ETH0_SetSocketMode( socket, Protocol | flags );
1380:Generated_Source\PSoC5/ETH0.c **** 		ETH0_ExecuteSocketCommand( socket, 1 );
1381:Generated_Source\PSoC5/ETH0.c **** 	}
1382:Generated_Source\PSoC5/ETH0.c **** 	return socket;
1383:Generated_Source\PSoC5/ETH0.c **** }
1384:Generated_Source\PSoC5/ETH0.c **** /* ------------------------------------------------------------------------ */
1385:Generated_Source\PSoC5/ETH0.c **** void
1386:Generated_Source\PSoC5/ETH0.c **** ETH0_SocketClose( uint8 socket )
1387:Generated_Source\PSoC5/ETH0.c **** {
1388:Generated_Source\PSoC5/ETH0.c **** 	/*
1389:Generated_Source\PSoC5/ETH0.c **** 	 * Set the socket allocation to empty, and issue the close command
1390:Generated_Source\PSoC5/ETH0.c **** 	 * to the socket
1391:Generated_Source\PSoC5/ETH0.c **** 	 */
1392:Generated_Source\PSoC5/ETH0.c **** 	if (socket < 4) {
1393:Generated_Source\PSoC5/ETH0.c **** 		/* clear the socket memory allocations */
1394:Generated_Source\PSoC5/ETH0.c **** 		ETH0_SocketConfig[socket].Protocol = 0;
1395:Generated_Source\PSoC5/ETH0.c **** 		ETH0_SocketConfig[socket].SocketFlags = 0;
1396:Generated_Source\PSoC5/ETH0.c **** 		/* close the socket */
1397:Generated_Source\PSoC5/ETH0.c **** 		ETH0_ExecuteSocketCommand( socket, 0x10 );
1398:Generated_Source\PSoC5/ETH0.c **** 		/* Clear pending Interrupts */
1399:Generated_Source\PSoC5/ETH0.c **** 		ETH0_SetSocketIR( socket, 0xFF);
1400:Generated_Source\PSoC5/ETH0.c **** 	}
1401:Generated_Source\PSoC5/ETH0.c **** }
1402:Generated_Source\PSoC5/ETH0.c **** /* ------------------------------------------------------------------------ */
1403:Generated_Source\PSoC5/ETH0.c **** uint8
1404:Generated_Source\PSoC5/ETH0.c **** ETH0_SocketProcessConnections( uint8 socket )
1405:Generated_Source\PSoC5/ETH0.c **** {
1406:Generated_Source\PSoC5/ETH0.c **** 	uint8 status;
1407:Generated_Source\PSoC5/ETH0.c **** 	
1408:Generated_Source\PSoC5/ETH0.c **** 	status = ETH0_GetSocketStatus(socket);
1409:Generated_Source\PSoC5/ETH0.c **** 	/* has a connection termination been requested by remote system */
1410:Generated_Source\PSoC5/ETH0.c **** 	if (status == 0x1C) {
1411:Generated_Source\PSoC5/ETH0.c **** 		/* Close the socket on this end */
1412:Generated_Source\PSoC5/ETH0.c **** 		ETH0_SocketClose(socket);
ARM GAS  C:\Users\USUARIO\AppData\Local\Temp\cchqzDaB.s 			page 52


1413:Generated_Source\PSoC5/ETH0.c **** 	}
1414:Generated_Source\PSoC5/ETH0.c **** 	return (ETH0_GetSocketStatus(socket) == 0x00);
1415:Generated_Source\PSoC5/ETH0.c **** }
1416:Generated_Source\PSoC5/ETH0.c **** /* ------------------------------------------------------------------------ */
1417:Generated_Source\PSoC5/ETH0.c **** uint8
1418:Generated_Source\PSoC5/ETH0.c **** ETH0_SocketEstablished( uint8 socket )
1419:Generated_Source\PSoC5/ETH0.c **** {
1420:Generated_Source\PSoC5/ETH0.c **** 	return (ETH0_GetSocketStatus( socket ) == 0x17);
1421:Generated_Source\PSoC5/ETH0.c **** }
1422:Generated_Source\PSoC5/ETH0.c **** /* ------------------------------------------------------------------------ */
1423:Generated_Source\PSoC5/ETH0.c **** /**
1424:Generated_Source\PSoC5/ETH0.c ****  * \brief Transmit a SEND operation over a socket
1425:Generated_Source\PSoC5/ETH0.c ****  * \param socket the socket to which the send command will be sent
1426:Generated_Source\PSoC5/ETH0.c ****  */
1427:Generated_Source\PSoC5/ETH0.c **** static void
1428:Generated_Source\PSoC5/ETH0.c **** ETH0_SocketSend(uint8 socket )
1429:Generated_Source\PSoC5/ETH0.c **** {
 1390              		.loc 1 1429 0
 1391              		.cfi_startproc
 1392              		@ args = 0, pretend = 0, frame = 0
 1393              		@ frame_needed = 0, uses_anonymous_args = 0
 1394              	.LVL172:
 1395 0000 10B5     		push	{r4, lr}
 1396              		.cfi_def_cfa_offset 8
 1397              		.cfi_offset 4, -8
 1398              		.cfi_offset 14, -4
 1399 0002 0446     		mov	r4, r0
1430:Generated_Source\PSoC5/ETH0.c **** 	uint8 ir;
1431:Generated_Source\PSoC5/ETH0.c **** 	
1432:Generated_Source\PSoC5/ETH0.c **** 	/* initialize the subnet mask register : ERRATA FIX */
1433:Generated_Source\PSoC5/ETH0.c **** 	ETH0_SetSubnetMask( ETH0_SubnetMask );
 1400              		.loc 1 1433 0
 1401 0004 0E4B     		ldr	r3, .L110
 1402 0006 1868     		ldr	r0, [r3]
 1403              	.LVL173:
 1404 0008 FFF7FEFF 		bl	ETH0_SetSubnetMask
 1405              	.LVL174:
1434:Generated_Source\PSoC5/ETH0.c **** 	/* Issue the SEND command */
1435:Generated_Source\PSoC5/ETH0.c **** 	ETH0_ExecuteSocketCommand( socket, 0x20 );
 1406              		.loc 1 1435 0
 1407 000c 2021     		movs	r1, #32
 1408 000e 2046     		mov	r0, r4
 1409 0010 FFF7FEFF 		bl	ETH0_ExecuteSocketCommand
 1410              	.LVL175:
1436:Generated_Source\PSoC5/ETH0.c **** 	/* wait for the SEND to complete, or for a timeout */
1437:Generated_Source\PSoC5/ETH0.c **** 	ir = ETH0_GetSocketIR( socket );
 1411              		.loc 1 1437 0
 1412 0014 2046     		mov	r0, r4
 1413 0016 FFF7FEFF 		bl	ETH0_GetSocketIR
 1414              	.LVL176:
1438:Generated_Source\PSoC5/ETH0.c **** 	/* while SEND is not done, and the socket hasnot timed out or been dsconnected */
1439:Generated_Source\PSoC5/ETH0.c **** 	while ( ((ir & 0x10) == 0) && (!(ir&0x0A)) ) {
 1415              		.loc 1 1439 0
 1416 001a 05E0     		b	.L107
 1417              	.L108:
1440:Generated_Source\PSoC5/ETH0.c **** 		CyDelay(1);
 1418              		.loc 1 1440 0
ARM GAS  C:\Users\USUARIO\AppData\Local\Temp\cchqzDaB.s 			page 53


 1419 001c 0120     		movs	r0, #1
 1420              	.LVL177:
 1421 001e FFF7FEFF 		bl	CyDelay
 1422              	.LVL178:
1441:Generated_Source\PSoC5/ETH0.c **** 		ir = ETH0_GetSocketIR( socket );
 1423              		.loc 1 1441 0
 1424 0022 2046     		mov	r0, r4
 1425 0024 FFF7FEFF 		bl	ETH0_GetSocketIR
 1426              	.LVL179:
 1427              	.L107:
1439:Generated_Source\PSoC5/ETH0.c **** 		CyDelay(1);
 1428              		.loc 1 1439 0
 1429 0028 10F01A0F 		tst	r0, #26
 1430 002c F6D0     		beq	.L108
1442:Generated_Source\PSoC5/ETH0.c **** 		
1443:Generated_Source\PSoC5/ETH0.c **** 	}
1444:Generated_Source\PSoC5/ETH0.c **** 	/* clear the SEND_OK flag from the register */
1445:Generated_Source\PSoC5/ETH0.c **** 	ETH0_SetSocketIR( socket, 0x10 );
 1431              		.loc 1 1445 0
 1432 002e 1021     		movs	r1, #16
 1433 0030 2046     		mov	r0, r4
 1434              	.LVL180:
 1435 0032 FFF7FEFF 		bl	ETH0_SetSocketIR
 1436              	.LVL181:
1446:Generated_Source\PSoC5/ETH0.c **** 	/* reset the subnet mask : ERRATA FIX */
1447:Generated_Source\PSoC5/ETH0.c **** 	ETH0_SetSubnetMask( 0 );
 1437              		.loc 1 1447 0
 1438 0036 0020     		movs	r0, #0
 1439 0038 FFF7FEFF 		bl	ETH0_SetSubnetMask
 1440              	.LVL182:
 1441 003c 10BD     		pop	{r4, pc}
 1442              	.L111:
 1443 003e 00BF     		.align	2
 1444              	.L110:
 1445 0040 00000000 		.word	.LANCHOR1
 1446              		.cfi_endproc
 1447              	.LFE88:
 1448              		.size	ETH0_SocketSend, .-ETH0_SocketSend
 1449              		.section	.text.ETH0_W51_ReadBlock,"ax",%progbits
 1450              		.align	2
 1451              		.thumb
 1452              		.thumb_func
 1453              		.type	ETH0_W51_ReadBlock, %function
 1454              	ETH0_W51_ReadBlock:
 1455              	.LFB10:
 452:Generated_Source\PSoC5/ETH0.c **** 	int index;
 1456              		.loc 1 452 0
 1457              		.cfi_startproc
 1458              		@ args = 0, pretend = 0, frame = 0
 1459              		@ frame_needed = 0, uses_anonymous_args = 0
 1460              	.LVL183:
 1461 0000 F8B5     		push	{r3, r4, r5, r6, r7, lr}
 1462              		.cfi_def_cfa_offset 24
 1463              		.cfi_offset 3, -24
 1464              		.cfi_offset 4, -20
 1465              		.cfi_offset 5, -16
 1466              		.cfi_offset 6, -12
ARM GAS  C:\Users\USUARIO\AppData\Local\Temp\cchqzDaB.s 			page 54


 1467              		.cfi_offset 7, -8
 1468              		.cfi_offset 14, -4
 1469 0002 0746     		mov	r7, r0
 1470 0004 0E46     		mov	r6, r1
 1471 0006 1546     		mov	r5, r2
 1472              	.LVL184:
 455:Generated_Source\PSoC5/ETH0.c **** 		buffer[index] = ETH0_W51_Read(addr+index);
 1473              		.loc 1 455 0
 1474 0008 0024     		movs	r4, #0
 1475 000a 05E0     		b	.L113
 1476              	.LVL185:
 1477              	.L114:
 456:Generated_Source\PSoC5/ETH0.c **** 	}
 1478              		.loc 1 456 0 discriminator 3
 1479 000c 3819     		adds	r0, r7, r4
 1480 000e 80B2     		uxth	r0, r0
 1481 0010 FFF7FEFF 		bl	ETH0_W51_Read
 1482              	.LVL186:
 1483 0014 3055     		strb	r0, [r6, r4]
 455:Generated_Source\PSoC5/ETH0.c **** 		buffer[index] = ETH0_W51_Read(addr+index);
 1484              		.loc 1 455 0 discriminator 3
 1485 0016 0134     		adds	r4, r4, #1
 1486              	.LVL187:
 1487              	.L113:
 455:Generated_Source\PSoC5/ETH0.c **** 		buffer[index] = ETH0_W51_Read(addr+index);
 1488              		.loc 1 455 0 is_stmt 0 discriminator 1
 1489 0018 AC42     		cmp	r4, r5
 1490 001a F7DB     		blt	.L114
 458:Generated_Source\PSoC5/ETH0.c **** /* ======================================================================== */
 1491              		.loc 1 458 0 is_stmt 1
 1492 001c F8BD     		pop	{r3, r4, r5, r6, r7, pc}
 1493              		.cfi_endproc
 1494              	.LFE10:
 1495              		.size	ETH0_W51_ReadBlock, .-ETH0_W51_ReadBlock
 1496 001e 00BF     		.section	.text.ETH0_ProcessRxData,"ax",%progbits
 1497              		.align	2
 1498              		.thumb
 1499              		.thumb_func
 1500              		.type	ETH0_ProcessRxData, %function
 1501              	ETH0_ProcessRxData:
 1502              	.LFB73:
1024:Generated_Source\PSoC5/ETH0.c **** 	uint16 addr;
 1503              		.loc 1 1024 0
 1504              		.cfi_startproc
 1505              		@ args = 4, pretend = 0, frame = 0
 1506              		@ frame_needed = 0, uses_anonymous_args = 0
 1507              	.LVL188:
 1508 0000 2DE9F843 		push	{r3, r4, r5, r6, r7, r8, r9, lr}
 1509              		.cfi_def_cfa_offset 32
 1510              		.cfi_offset 3, -32
 1511              		.cfi_offset 4, -28
 1512              		.cfi_offset 5, -24
 1513              		.cfi_offset 6, -20
 1514              		.cfi_offset 7, -16
 1515              		.cfi_offset 8, -12
 1516              		.cfi_offset 9, -8
 1517              		.cfi_offset 14, -4
ARM GAS  C:\Users\USUARIO\AppData\Local\Temp\cchqzDaB.s 			page 55


 1518 0004 8046     		mov	r8, r0
 1519 0006 0D46     		mov	r5, r1
 1520 0008 1746     		mov	r7, r2
 1521 000a 1E46     		mov	r6, r3
1035:Generated_Source\PSoC5/ETH0.c **** 	PointerOffset = (base & 0x07FF);
 1522              		.loc 1 1035 0
 1523 000c FFF7FEFF 		bl	ETH0_GetSocketRxReadPtr
 1524              	.LVL189:
 1525 0010 2844     		add	r0, r0, r5
 1526 0012 85B2     		uxth	r5, r0
 1527              	.LVL190:
1036:Generated_Source\PSoC5/ETH0.c **** 	addr = PointerOffset + ETH0_SOCKET_RX_BASE[socket];
 1528              		.loc 1 1036 0
 1529 0014 C5F30A04 		ubfx	r4, r5, #0, #11
 1530              	.LVL191:
1037:Generated_Source\PSoC5/ETH0.c **** 	/* calculate the number of bytes from the pointer to the end of the buffer */
 1531              		.loc 1 1037 0
 1532 0018 134B     		ldr	r3, .L121
 1533 001a 03EB4803 		add	r3, r3, r8, lsl #1
 1534 001e B3F80890 		ldrh	r9, [r3, #8]
 1535 0022 04EB0900 		add	r0, r4, r9
 1536 0026 80B2     		uxth	r0, r0
 1537              	.LVL192:
1039:Generated_Source\PSoC5/ETH0.c **** 	/*
 1538              		.loc 1 1039 0
 1539 0028 C4F50064 		rsb	r4, r4, #2048
 1540              	.LVL193:
 1541 002c A4B2     		uxth	r4, r4
 1542              	.LVL194:
1044:Generated_Source\PSoC5/ETH0.c **** 		/*
 1543              		.loc 1 1044 0
 1544 002e B442     		cmp	r4, r6
 1545 0030 0AD2     		bcs	.L117
1051:Generated_Source\PSoC5/ETH0.c **** 		ETH0_W51_ReadBlock(ETH0_SOCKET_RX_BASE[socket], &buffer[size], length - size);
 1546              		.loc 1 1051 0
 1547 0032 2246     		mov	r2, r4
 1548 0034 3946     		mov	r1, r7
 1549 0036 FFF7FEFF 		bl	ETH0_W51_ReadBlock
 1550              	.LVL195:
1052:Generated_Source\PSoC5/ETH0.c **** 	}
 1551              		.loc 1 1052 0
 1552 003a 321B     		subs	r2, r6, r4
 1553 003c 92B2     		uxth	r2, r2
 1554 003e 3919     		adds	r1, r7, r4
 1555 0040 4846     		mov	r0, r9
 1556 0042 FFF7FEFF 		bl	ETH0_W51_ReadBlock
 1557              	.LVL196:
 1558 0046 03E0     		b	.L118
 1559              	.LVL197:
 1560              	.L117:
1059:Generated_Source\PSoC5/ETH0.c **** 	}
 1561              		.loc 1 1059 0
 1562 0048 3246     		mov	r2, r6
 1563 004a 3946     		mov	r1, r7
 1564 004c FFF7FEFF 		bl	ETH0_W51_ReadBlock
 1565              	.LVL198:
 1566              	.L118:
ARM GAS  C:\Users\USUARIO\AppData\Local\Temp\cchqzDaB.s 			page 56


1061:Generated_Source\PSoC5/ETH0.c **** 		/* move the write pointer */
 1567              		.loc 1 1061 0
 1568 0050 9DF82030 		ldrb	r3, [sp, #32]	@ zero_extendqisi2
 1569 0054 13F0010F 		tst	r3, #1
 1570 0058 04D1     		bne	.L116
1063:Generated_Source\PSoC5/ETH0.c **** 		/* 
 1571              		.loc 1 1063 0
 1572 005a A919     		adds	r1, r5, r6
 1573              	.LVL199:
1068:Generated_Source\PSoC5/ETH0.c **** 	}
 1574              		.loc 1 1068 0
 1575 005c 89B2     		uxth	r1, r1
 1576 005e 4046     		mov	r0, r8
 1577 0060 FFF7FEFF 		bl	ETH0_SetSocketRxReadPtr
 1578              	.LVL200:
 1579              	.L116:
 1580 0064 BDE8F883 		pop	{r3, r4, r5, r6, r7, r8, r9, pc}
 1581              	.LVL201:
 1582              	.L122:
 1583              		.align	2
 1584              	.L121:
 1585 0068 00000000 		.word	.LANCHOR0
 1586              		.cfi_endproc
 1587              	.LFE73:
 1588              		.size	ETH0_ProcessRxData, .-ETH0_ProcessRxData
 1589              		.section	.text.ETH0_ParseIP,"ax",%progbits
 1590              		.align	2
 1591              		.global	ETH0_ParseIP
 1592              		.thumb
 1593              		.thumb_func
 1594              		.type	ETH0_ParseIP, %function
 1595              	ETH0_ParseIP:
 1596              	.LFB76:
1152:Generated_Source\PSoC5/ETH0.c **** 	/*
 1597              		.loc 1 1152 0
 1598              		.cfi_startproc
 1599              		@ args = 0, pretend = 0, frame = 16
 1600              		@ frame_needed = 0, uses_anonymous_args = 0
 1601              	.LVL202:
 1602 0000 F0B5     		push	{r4, r5, r6, r7, lr}
 1603              		.cfi_def_cfa_offset 20
 1604              		.cfi_offset 4, -20
 1605              		.cfi_offset 5, -16
 1606              		.cfi_offset 6, -12
 1607              		.cfi_offset 7, -8
 1608              		.cfi_offset 14, -4
 1609 0002 85B0     		sub	sp, sp, #20
 1610              		.cfi_def_cfa_offset 40
 1611 0004 0646     		mov	r6, r0
 1612              	.LVL203:
1163:Generated_Source\PSoC5/ETH0.c **** 	counter = 0;
 1613              		.loc 1 1163 0
 1614 0006 0027     		movs	r7, #0
1164:Generated_Source\PSoC5/ETH0.c **** 	
 1615              		.loc 1 1164 0
 1616 0008 3C46     		mov	r4, r7
1162:Generated_Source\PSoC5/ETH0.c **** 	dindex = 0;
ARM GAS  C:\Users\USUARIO\AppData\Local\Temp\cchqzDaB.s 			page 57


 1617              		.loc 1 1162 0
 1618 000a 3D46     		mov	r5, r7
1166:Generated_Source\PSoC5/ETH0.c **** 		if ( (ipString[index] >= '0' ) && (ipString[index] <= '9') ) {
 1619              		.loc 1 1166 0
 1620 000c 2FE0     		b	.L124
 1621              	.LVL204:
 1622              	.L132:
1167:Generated_Source\PSoC5/ETH0.c **** 			if (dindex > 3) return( 0xFFFFFFFF );
 1623              		.loc 1 1167 0
 1624 000e 725D     		ldrb	r2, [r6, r5]	@ zero_extendqisi2
 1625 0010 A2F13003 		sub	r3, r2, #48
 1626 0014 DBB2     		uxtb	r3, r3
 1627 0016 092B     		cmp	r3, #9
 1628 0018 06D8     		bhi	.L125
1168:Generated_Source\PSoC5/ETH0.c **** 			digit[dindex++] = ipString[index];
 1629              		.loc 1 1168 0
 1630 001a 032F     		cmp	r7, #3
 1631 001c 40DC     		bgt	.L133
 1632              	.LVL205:
1169:Generated_Source\PSoC5/ETH0.c **** 			
 1633              		.loc 1 1169 0
 1634 001e 04AB     		add	r3, sp, #16
 1635 0020 3B44     		add	r3, r3, r7
 1636 0022 03F8082C 		strb	r2, [r3, #-8]
 1637 0026 0137     		adds	r7, r7, #1
 1638              	.LVL206:
 1639              	.L125:
1173:Generated_Source\PSoC5/ETH0.c **** 			digit[dindex] = 0;
 1640              		.loc 1 1173 0
 1641 0028 2E2A     		cmp	r2, #46
 1642 002a 02D0     		beq	.L127
1173:Generated_Source\PSoC5/ETH0.c **** 			digit[dindex] = 0;
 1643              		.loc 1 1173 0 is_stmt 0 discriminator 1
 1644 002c 0131     		adds	r1, r1, #1
 1645              	.LVL207:
 1646 002e 735C     		ldrb	r3, [r6, r1]	@ zero_extendqisi2
 1647 0030 E3B9     		cbnz	r3, .L128
 1648              	.L127:
1174:Generated_Source\PSoC5/ETH0.c **** 			dindex = 0;
 1649              		.loc 1 1174 0 is_stmt 1
 1650 0032 04AB     		add	r3, sp, #16
 1651 0034 1F44     		add	r7, r7, r3
 1652              	.LVL208:
 1653 0036 0021     		movs	r1, #0
 1654 0038 07F8081C 		strb	r1, [r7, #-8]
 1655              	.LVL209:
1177:Generated_Source\PSoC5/ETH0.c **** 			while (digit[dindex] != 0) {
 1656              		.loc 1 1177 0
 1657 003c 2344     		add	r3, r3, r4
 1658 003e 03F80C1C 		strb	r1, [r3, #-12]
1178:Generated_Source\PSoC5/ETH0.c **** 				ip[counter] = (ip[counter]*10) + (digit[dindex]-'0');
 1659              		.loc 1 1178 0
 1660 0042 0BE0     		b	.L129
 1661              	.LVL210:
 1662              	.L130:
1179:Generated_Source\PSoC5/ETH0.c **** 				++dindex;
 1663              		.loc 1 1179 0
ARM GAS  C:\Users\USUARIO\AppData\Local\Temp\cchqzDaB.s 			page 58


 1664 0044 04AB     		add	r3, sp, #16
 1665 0046 1F19     		adds	r7, r3, r4
 1666 0048 17F80C2C 		ldrb	r2, [r7, #-12]	@ zero_extendqisi2
 1667 004c 02EB8202 		add	r2, r2, r2, lsl #2
 1668 0050 5300     		lsls	r3, r2, #1
 1669 0052 0344     		add	r3, r3, r0
 1670 0054 303B     		subs	r3, r3, #48
 1671 0056 07F80C3C 		strb	r3, [r7, #-12]
1180:Generated_Source\PSoC5/ETH0.c **** 				// ip[counter] = ...
 1672              		.loc 1 1180 0
 1673 005a 0131     		adds	r1, r1, #1
 1674              	.LVL211:
 1675              	.L129:
1178:Generated_Source\PSoC5/ETH0.c **** 				ip[counter] = (ip[counter]*10) + (digit[dindex]-'0');
 1676              		.loc 1 1178 0
 1677 005c 04AB     		add	r3, sp, #16
 1678 005e 0B44     		add	r3, r3, r1
 1679 0060 13F8080C 		ldrb	r0, [r3, #-8]	@ zero_extendqisi2
 1680 0064 0028     		cmp	r0, #0
 1681 0066 EDD1     		bne	.L130
 1682              	.LVL212:
1186:Generated_Source\PSoC5/ETH0.c **** 		}
 1683              		.loc 1 1186 0
 1684 0068 0134     		adds	r4, r4, #1
 1685              	.LVL213:
1184:Generated_Source\PSoC5/ETH0.c **** 			/* move to the next address byte */
 1686              		.loc 1 1184 0
 1687 006a 0027     		movs	r7, #0
 1688              	.LVL214:
 1689              	.L128:
1188:Generated_Source\PSoC5/ETH0.c **** 	}
 1690              		.loc 1 1188 0
 1691 006c 0135     		adds	r5, r5, #1
 1692              	.LVL215:
 1693              	.L124:
1166:Generated_Source\PSoC5/ETH0.c **** 		if ( (ipString[index] >= '0' ) && (ipString[index] <= '9') ) {
 1694              		.loc 1 1166 0
 1695 006e 032C     		cmp	r4, #3
 1696 0070 05DC     		bgt	.L131
1166:Generated_Source\PSoC5/ETH0.c **** 		if ( (ipString[index] >= '0' ) && (ipString[index] <= '9') ) {
 1697              		.loc 1 1166 0 is_stmt 0 discriminator 1
 1698 0072 3046     		mov	r0, r6
 1699 0074 FFF7FEFF 		bl	strlen
 1700              	.LVL216:
 1701 0078 2946     		mov	r1, r5
 1702 007a A842     		cmp	r0, r5
 1703 007c C7D8     		bhi	.L132
 1704              	.L131:
1191:Generated_Source\PSoC5/ETH0.c **** 		return( 0xFFFFFFFF );
 1705              		.loc 1 1191 0 is_stmt 1
 1706 007e 042C     		cmp	r4, #4
 1707 0080 11D1     		bne	.L134
1195:Generated_Source\PSoC5/ETH0.c **** 	}
 1708              		.loc 1 1195 0
 1709 0082 9DF80430 		ldrb	r3, [sp, #4]	@ zero_extendqisi2
 1710 0086 9DF80520 		ldrb	r2, [sp, #5]	@ zero_extendqisi2
 1711 008a 03EB0223 		add	r3, r3, r2, lsl #8
ARM GAS  C:\Users\USUARIO\AppData\Local\Temp\cchqzDaB.s 			page 59


 1712 008e 9DF80600 		ldrb	r0, [sp, #6]	@ zero_extendqisi2
 1713 0092 03EB0043 		add	r3, r3, r0, lsl #16
 1714 0096 9DF80700 		ldrb	r0, [sp, #7]	@ zero_extendqisi2
 1715 009a 03EB0060 		add	r0, r3, r0, lsl #24
 1716 009e 04E0     		b	.L126
 1717              	.LVL217:
 1718              	.L133:
1168:Generated_Source\PSoC5/ETH0.c **** 			digit[dindex++] = ipString[index];
 1719              		.loc 1 1168 0
 1720 00a0 4FF0FF30 		mov	r0, #-1
 1721 00a4 01E0     		b	.L126
 1722              	.LVL218:
 1723              	.L134:
1192:Generated_Source\PSoC5/ETH0.c **** 	}
 1724              		.loc 1 1192 0
 1725 00a6 4FF0FF30 		mov	r0, #-1
 1726              	.L126:
1197:Generated_Source\PSoC5/ETH0.c **** /* ------------------------------------------------------------------------ */
 1727              		.loc 1 1197 0
 1728 00aa 05B0     		add	sp, sp, #20
 1729              		.cfi_def_cfa_offset 20
 1730              		@ sp needed
 1731 00ac F0BD     		pop	{r4, r5, r6, r7, pc}
 1732              		.cfi_endproc
 1733              	.LFE76:
 1734              		.size	ETH0_ParseIP, .-ETH0_ParseIP
 1735 00ae 00BF     		.section	.text.ETH0_ParseMAC,"ax",%progbits
 1736              		.align	2
 1737              		.global	ETH0_ParseMAC
 1738              		.thumb
 1739              		.thumb_func
 1740              		.type	ETH0_ParseMAC, %function
 1741              	ETH0_ParseMAC:
 1742              	.LFB77:
1205:Generated_Source\PSoC5/ETH0.c **** 	/* 
 1743              		.loc 1 1205 0
 1744              		.cfi_startproc
 1745              		@ args = 0, pretend = 0, frame = 0
 1746              		@ frame_needed = 0, uses_anonymous_args = 0
 1747              	.LVL219:
 1748 0000 2DE9F041 		push	{r4, r5, r6, r7, r8, lr}
 1749              		.cfi_def_cfa_offset 24
 1750              		.cfi_offset 4, -24
 1751              		.cfi_offset 5, -20
 1752              		.cfi_offset 6, -16
 1753              		.cfi_offset 7, -12
 1754              		.cfi_offset 8, -8
 1755              		.cfi_offset 14, -4
 1756              	.LVL220:
1216:Generated_Source\PSoC5/ETH0.c **** 	index = 0;
 1757              		.loc 1 1216 0
 1758 0004 0026     		movs	r6, #0
1217:Generated_Source\PSoC5/ETH0.c **** 	for(digit = 0;(digit<6) && (result == CYRET_SUCCESS)&&(macString[index] != 0);++digit) {
 1759              		.loc 1 1217 0
 1760 0006 3546     		mov	r5, r6
1218:Generated_Source\PSoC5/ETH0.c **** 		// process the first nibble
 1761              		.loc 1 1218 0
ARM GAS  C:\Users\USUARIO\AppData\Local\Temp\cchqzDaB.s 			page 60


 1762 0008 3446     		mov	r4, r6
 1763 000a 67E0     		b	.L137
 1764              	.LVL221:
 1765              	.L147:
1220:Generated_Source\PSoC5/ETH0.c **** 			mac[digit] = ETH0_HEX2BIN(macString[index]);
 1766              		.loc 1 1220 0
 1767 000c A2F13003 		sub	r3, r2, #48
 1768 0010 DBB2     		uxtb	r3, r3
 1769 0012 092B     		cmp	r3, #9
 1770 0014 09D9     		bls	.L138
1220:Generated_Source\PSoC5/ETH0.c **** 			mac[digit] = ETH0_HEX2BIN(macString[index]);
 1771              		.loc 1 1220 0 is_stmt 0 discriminator 1
 1772 0016 A2F16107 		sub	r7, r2, #97
 1773 001a FFB2     		uxtb	r7, r7
 1774 001c 052F     		cmp	r7, #5
 1775 001e 04D9     		bls	.L138
1220:Generated_Source\PSoC5/ETH0.c **** 			mac[digit] = ETH0_HEX2BIN(macString[index]);
 1776              		.loc 1 1220 0 discriminator 2
 1777 0020 A2F14107 		sub	r7, r2, #65
 1778 0024 FFB2     		uxtb	r7, r7
 1779 0026 052F     		cmp	r7, #5
 1780 0028 51D8     		bhi	.L148
 1781              	.L138:
1221:Generated_Source\PSoC5/ETH0.c **** 			++index;
 1782              		.loc 1 1221 0 is_stmt 1
 1783 002a 0F19     		adds	r7, r1, r4
 1784 002c 092B     		cmp	r3, #9
 1785 002e 12D9     		bls	.L140
1221:Generated_Source\PSoC5/ETH0.c **** 			++index;
 1786              		.loc 1 1221 0 is_stmt 0 discriminator 2
 1787 0030 A2F16103 		sub	r3, r2, #97
 1788 0034 DBB2     		uxtb	r3, r3
 1789 0036 052B     		cmp	r3, #5
 1790 0038 03D8     		bhi	.L141
1221:Generated_Source\PSoC5/ETH0.c **** 			++index;
 1791              		.loc 1 1221 0 discriminator 4
 1792 003a A2F15703 		sub	r3, r2, #87
 1793 003e DBB2     		uxtb	r3, r3
 1794 0040 09E0     		b	.L140
 1795              	.L141:
1221:Generated_Source\PSoC5/ETH0.c **** 			++index;
 1796              		.loc 1 1221 0 discriminator 5
 1797 0042 A2F14103 		sub	r3, r2, #65
 1798 0046 DBB2     		uxtb	r3, r3
 1799 0048 052B     		cmp	r3, #5
 1800 004a 03D8     		bhi	.L150
1221:Generated_Source\PSoC5/ETH0.c **** 			++index;
 1801              		.loc 1 1221 0 discriminator 7
 1802 004c A2F13703 		sub	r3, r2, #55
 1803 0050 DBB2     		uxtb	r3, r3
 1804 0052 00E0     		b	.L140
 1805              	.L150:
1221:Generated_Source\PSoC5/ETH0.c **** 			++index;
 1806              		.loc 1 1221 0
 1807 0054 0023     		movs	r3, #0
 1808              	.L140:
1222:Generated_Source\PSoC5/ETH0.c **** 			mac[digit] <<= 4;
ARM GAS  C:\Users\USUARIO\AppData\Local\Temp\cchqzDaB.s 			page 61


 1809              		.loc 1 1222 0 is_stmt 1 discriminator 12
 1810 0056 05F1010C 		add	ip, r5, #1
 1811              	.LVL222:
1223:Generated_Source\PSoC5/ETH0.c **** 			if (ETH0_ISXDIGIT(macString[index])) {
 1812              		.loc 1 1223 0 discriminator 12
 1813 005a 1B01     		lsls	r3, r3, #4
 1814 005c DBB2     		uxtb	r3, r3
 1815 005e 3B70     		strb	r3, [r7]
1224:Generated_Source\PSoC5/ETH0.c **** 				mac[digit] += ETH0_HEX2BIN(macString[index]);
 1816              		.loc 1 1224 0 discriminator 12
 1817 0060 10F80CE0 		ldrb	lr, [r0, ip]	@ zero_extendqisi2
 1818 0064 AEF13002 		sub	r2, lr, #48
 1819 0068 D2B2     		uxtb	r2, r2
 1820 006a 092A     		cmp	r2, #9
 1821 006c 0DD9     		bls	.L142
1224:Generated_Source\PSoC5/ETH0.c **** 				mac[digit] += ETH0_HEX2BIN(macString[index]);
 1822              		.loc 1 1224 0 is_stmt 0 discriminator 1
 1823 006e AEF16108 		sub	r8, lr, #97
 1824 0072 5FFA88F8 		uxtb	r8, r8
 1825 0076 B8F1050F 		cmp	r8, #5
 1826 007a 06D9     		bls	.L142
1224:Generated_Source\PSoC5/ETH0.c **** 				mac[digit] += ETH0_HEX2BIN(macString[index]);
 1827              		.loc 1 1224 0 discriminator 2
 1828 007c AEF14108 		sub	r8, lr, #65
 1829 0080 5FFA88F8 		uxtb	r8, r8
 1830 0084 B8F1050F 		cmp	r8, #5
 1831 0088 23D8     		bhi	.L151
 1832              	.L142:
1225:Generated_Source\PSoC5/ETH0.c **** 				++index;
 1833              		.loc 1 1225 0 is_stmt 1
 1834 008a 092A     		cmp	r2, #9
 1835 008c 12D9     		bls	.L143
1225:Generated_Source\PSoC5/ETH0.c **** 				++index;
 1836              		.loc 1 1225 0 is_stmt 0 discriminator 2
 1837 008e AEF16102 		sub	r2, lr, #97
 1838 0092 D2B2     		uxtb	r2, r2
 1839 0094 052A     		cmp	r2, #5
 1840 0096 03D8     		bhi	.L144
1225:Generated_Source\PSoC5/ETH0.c **** 				++index;
 1841              		.loc 1 1225 0 discriminator 4
 1842 0098 AEF15702 		sub	r2, lr, #87
 1843 009c D2B2     		uxtb	r2, r2
 1844 009e 09E0     		b	.L143
 1845              	.L144:
1225:Generated_Source\PSoC5/ETH0.c **** 				++index;
 1846              		.loc 1 1225 0 discriminator 5
 1847 00a0 AEF14102 		sub	r2, lr, #65
 1848 00a4 D2B2     		uxtb	r2, r2
 1849 00a6 052A     		cmp	r2, #5
 1850 00a8 03D8     		bhi	.L153
1225:Generated_Source\PSoC5/ETH0.c **** 				++index;
 1851              		.loc 1 1225 0 discriminator 7
 1852 00aa AEF13702 		sub	r2, lr, #55
 1853 00ae D2B2     		uxtb	r2, r2
 1854 00b0 00E0     		b	.L143
 1855              	.L153:
1225:Generated_Source\PSoC5/ETH0.c **** 				++index;
ARM GAS  C:\Users\USUARIO\AppData\Local\Temp\cchqzDaB.s 			page 62


 1856              		.loc 1 1225 0
 1857 00b2 0022     		movs	r2, #0
 1858              	.L143:
1225:Generated_Source\PSoC5/ETH0.c **** 				++index;
 1859              		.loc 1 1225 0 discriminator 12
 1860 00b4 1A44     		add	r2, r2, r3
 1861 00b6 3A70     		strb	r2, [r7]
1226:Generated_Source\PSoC5/ETH0.c **** 				/*
 1862              		.loc 1 1226 0 is_stmt 1 discriminator 12
 1863 00b8 AB1C     		adds	r3, r5, #2
 1864              	.LVL223:
1231:Generated_Source\PSoC5/ETH0.c **** 					if( (macString[index]!='-') && (macString[index]!= ':') ){
 1865              		.loc 1 1231 0 discriminator 12
 1866 00ba 042C     		cmp	r4, #4
 1867 00bc 0CDC     		bgt	.L154
1232:Generated_Source\PSoC5/ETH0.c **** 						result = CYRET_BAD_DATA;
 1868              		.loc 1 1232 0
 1869 00be C35C     		ldrb	r3, [r0, r3]	@ zero_extendqisi2
 1870              	.LVL224:
 1871 00c0 2D2B     		cmp	r3, #45
 1872 00c2 02D0     		beq	.L145
1232:Generated_Source\PSoC5/ETH0.c **** 						result = CYRET_BAD_DATA;
 1873              		.loc 1 1232 0 is_stmt 0 discriminator 1
 1874 00c4 3A2B     		cmp	r3, #58
 1875 00c6 00D0     		beq	.L145
1233:Generated_Source\PSoC5/ETH0.c **** 					}
 1876              		.loc 1 1233 0 is_stmt 1
 1877 00c8 0626     		movs	r6, #6
 1878              	.LVL225:
 1879              	.L145:
1235:Generated_Source\PSoC5/ETH0.c **** 				}
 1880              		.loc 1 1235 0
 1881 00ca 0335     		adds	r5, r5, #3
 1882              	.LVL226:
 1883 00cc 05E0     		b	.L139
 1884              	.L148:
1243:Generated_Source\PSoC5/ETH0.c **** 		}
 1885              		.loc 1 1243 0
 1886 00ce 0626     		movs	r6, #6
 1887              	.LVL227:
 1888 00d0 03E0     		b	.L139
 1889              	.LVL228:
 1890              	.L151:
1222:Generated_Source\PSoC5/ETH0.c **** 			mac[digit] <<= 4;
 1891              		.loc 1 1222 0
 1892 00d2 6546     		mov	r5, ip
1239:Generated_Source\PSoC5/ETH0.c **** 			}
 1893              		.loc 1 1239 0
 1894 00d4 0626     		movs	r6, #6
 1895              	.LVL229:
 1896 00d6 00E0     		b	.L139
 1897              	.LVL230:
 1898              	.L154:
1226:Generated_Source\PSoC5/ETH0.c **** 				/*
 1899              		.loc 1 1226 0
 1900 00d8 1D46     		mov	r5, r3
 1901              	.LVL231:
ARM GAS  C:\Users\USUARIO\AppData\Local\Temp\cchqzDaB.s 			page 63


 1902              	.L139:
1218:Generated_Source\PSoC5/ETH0.c **** 		// process the first nibble
 1903              		.loc 1 1218 0 discriminator 2
 1904 00da 0134     		adds	r4, r4, #1
 1905              	.LVL232:
 1906              	.L137:
1218:Generated_Source\PSoC5/ETH0.c **** 		// process the first nibble
 1907              		.loc 1 1218 0 is_stmt 0 discriminator 1
 1908 00dc 052C     		cmp	r4, #5
 1909 00de 03DC     		bgt	.L146
1218:Generated_Source\PSoC5/ETH0.c **** 		// process the first nibble
 1910              		.loc 1 1218 0 discriminator 3
 1911 00e0 16B9     		cbnz	r6, .L146
1218:Generated_Source\PSoC5/ETH0.c **** 		// process the first nibble
 1912              		.loc 1 1218 0 discriminator 4
 1913 00e2 425D     		ldrb	r2, [r0, r5]	@ zero_extendqisi2
 1914 00e4 002A     		cmp	r2, #0
 1915 00e6 91D1     		bne	.L147
 1916              	.L146:
1247:Generated_Source\PSoC5/ETH0.c **** /* ------------------------------------------------------------------------ */
 1917              		.loc 1 1247 0 is_stmt 1
 1918 00e8 3046     		mov	r0, r6
 1919              	.LVL233:
 1920 00ea BDE8F081 		pop	{r4, r5, r6, r7, r8, pc}
 1921              		.cfi_endproc
 1922              	.LFE77:
 1923              		.size	ETH0_ParseMAC, .-ETH0_ParseMAC
 1924 00ee 00BF     		.section	.text.ETH0_StringMAC,"ax",%progbits
 1925              		.align	2
 1926              		.global	ETH0_StringMAC
 1927              		.thumb
 1928              		.thumb_func
 1929              		.type	ETH0_StringMAC, %function
 1930              	ETH0_StringMAC:
 1931              	.LFB78:
1250:Generated_Source\PSoC5/ETH0.c **** 	uint8 mac[6];
 1932              		.loc 1 1250 0
 1933              		.cfi_startproc
 1934              		@ args = 0, pretend = 0, frame = 8
 1935              		@ frame_needed = 0, uses_anonymous_args = 0
 1936              	.LVL234:
 1937 0000 30B5     		push	{r4, r5, lr}
 1938              		.cfi_def_cfa_offset 12
 1939              		.cfi_offset 4, -12
 1940              		.cfi_offset 5, -8
 1941              		.cfi_offset 14, -4
 1942 0002 83B0     		sub	sp, sp, #12
 1943              		.cfi_def_cfa_offset 24
 1944 0004 0446     		mov	r4, r0
1260:Generated_Source\PSoC5/ETH0.c **** 	index = 0;
 1945              		.loc 1 1260 0
 1946 0006 6846     		mov	r0, sp
 1947              	.LVL235:
 1948 0008 FFF7FEFF 		bl	ETH0_GetSourceMAC
 1949              	.LVL236:
1261:Generated_Source\PSoC5/ETH0.c **** 	for(digit=0;digit<6;++digit) {
 1950              		.loc 1 1261 0
ARM GAS  C:\Users\USUARIO\AppData\Local\Temp\cchqzDaB.s 			page 64


 1951 000c 0021     		movs	r1, #0
1262:Generated_Source\PSoC5/ETH0.c **** 		// convert the first nibble
 1952              		.loc 1 1262 0
 1953 000e 0A46     		mov	r2, r1
 1954 0010 23E0     		b	.L158
 1955              	.LVL237:
 1956              	.L165:
1264:Generated_Source\PSoC5/ETH0.c **** 		macString[index++] = ETH0_BIN2HEX((mac[digit]&0x0F));
 1957              		.loc 1 1264 0
 1958 0012 4D1C     		adds	r5, r1, #1
 1959              	.LVL238:
 1960 0014 6018     		adds	r0, r4, r1
 1961 0016 02AB     		add	r3, sp, #8
 1962 0018 1344     		add	r3, r3, r2
 1963 001a 13F8083C 		ldrb	r3, [r3, #-8]	@ zero_extendqisi2
 1964 001e 1B09     		lsrs	r3, r3, #4
 1965 0020 092B     		cmp	r3, #9
 1966 0022 01DD     		ble	.L159
1264:Generated_Source\PSoC5/ETH0.c **** 		macString[index++] = ETH0_BIN2HEX((mac[digit]&0x0F));
 1967              		.loc 1 1264 0 is_stmt 0 discriminator 1
 1968 0024 3733     		adds	r3, r3, #55
 1969 0026 00E0     		b	.L160
 1970              	.L159:
1264:Generated_Source\PSoC5/ETH0.c **** 		macString[index++] = ETH0_BIN2HEX((mac[digit]&0x0F));
 1971              		.loc 1 1264 0 discriminator 2
 1972 0028 3033     		adds	r3, r3, #48
 1973              	.L160:
1264:Generated_Source\PSoC5/ETH0.c **** 		macString[index++] = ETH0_BIN2HEX((mac[digit]&0x0F));
 1974              		.loc 1 1264 0 discriminator 4
 1975 002a 0370     		strb	r3, [r0]
1265:Generated_Source\PSoC5/ETH0.c **** 		if (digit<5) {
 1976              		.loc 1 1265 0 is_stmt 1 discriminator 4
 1977 002c 881C     		adds	r0, r1, #2
 1978              	.LVL239:
 1979 002e 02AB     		add	r3, sp, #8
 1980 0030 1344     		add	r3, r3, r2
 1981 0032 13F8083C 		ldrb	r3, [r3, #-8]	@ zero_extendqisi2
 1982 0036 03F00F03 		and	r3, r3, #15
 1983 003a 092B     		cmp	r3, #9
 1984 003c 01DD     		ble	.L161
1265:Generated_Source\PSoC5/ETH0.c **** 		if (digit<5) {
 1985              		.loc 1 1265 0 is_stmt 0 discriminator 1
 1986 003e 3733     		adds	r3, r3, #55
 1987 0040 00E0     		b	.L162
 1988              	.L161:
1265:Generated_Source\PSoC5/ETH0.c **** 		if (digit<5) {
 1989              		.loc 1 1265 0 discriminator 2
 1990 0042 3033     		adds	r3, r3, #48
 1991              	.L162:
1265:Generated_Source\PSoC5/ETH0.c **** 		if (digit<5) {
 1992              		.loc 1 1265 0 discriminator 4
 1993 0044 6355     		strb	r3, [r4, r5]
1266:Generated_Source\PSoC5/ETH0.c **** 			macString[index++] = '-';
 1994              		.loc 1 1266 0 is_stmt 1 discriminator 4
 1995 0046 042A     		cmp	r2, #4
 1996 0048 03DC     		bgt	.L163
1267:Generated_Source\PSoC5/ETH0.c **** 		}
ARM GAS  C:\Users\USUARIO\AppData\Local\Temp\cchqzDaB.s 			page 65


 1997              		.loc 1 1267 0
 1998 004a 0331     		adds	r1, r1, #3
 1999              	.LVL240:
 2000 004c 2D23     		movs	r3, #45
 2001 004e 2354     		strb	r3, [r4, r0]
 2002 0050 02E0     		b	.L164
 2003              	.LVL241:
 2004              	.L163:
1270:Generated_Source\PSoC5/ETH0.c **** 		}
 2005              		.loc 1 1270 0
 2006 0052 0023     		movs	r3, #0
 2007 0054 2354     		strb	r3, [r4, r0]
1265:Generated_Source\PSoC5/ETH0.c **** 		if (digit<5) {
 2008              		.loc 1 1265 0
 2009 0056 0146     		mov	r1, r0
 2010              	.LVL242:
 2011              	.L164:
1262:Generated_Source\PSoC5/ETH0.c **** 		// convert the first nibble
 2012              		.loc 1 1262 0 discriminator 2
 2013 0058 0132     		adds	r2, r2, #1
 2014              	.LVL243:
 2015              	.L158:
1262:Generated_Source\PSoC5/ETH0.c **** 		// convert the first nibble
 2016              		.loc 1 1262 0 is_stmt 0 discriminator 1
 2017 005a 052A     		cmp	r2, #5
 2018 005c D9DD     		ble	.L165
1273:Generated_Source\PSoC5/ETH0.c **** /* ------------------------------------------------------------------------ */
 2019              		.loc 1 1273 0 is_stmt 1
 2020 005e 03B0     		add	sp, sp, #12
 2021              		.cfi_def_cfa_offset 12
 2022              		@ sp needed
 2023 0060 30BD     		pop	{r4, r5, pc}
 2024              		.cfi_endproc
 2025              	.LFE78:
 2026              		.size	ETH0_StringMAC, .-ETH0_StringMAC
 2027 0062 00BF     		.section	.text.ETH0_StringIP,"ax",%progbits
 2028              		.align	2
 2029              		.global	ETH0_StringIP
 2030              		.thumb
 2031              		.thumb_func
 2032              		.type	ETH0_StringIP, %function
 2033              	ETH0_StringIP:
 2034              	.LFB79:
1276:Generated_Source\PSoC5/ETH0.c **** 	uint32 ip;
 2035              		.loc 1 1276 0
 2036              		.cfi_startproc
 2037              		@ args = 0, pretend = 0, frame = 8
 2038              		@ frame_needed = 0, uses_anonymous_args = 0
 2039              	.LVL244:
 2040 0000 30B5     		push	{r4, r5, lr}
 2041              		.cfi_def_cfa_offset 12
 2042              		.cfi_offset 4, -12
 2043              		.cfi_offset 5, -8
 2044              		.cfi_offset 14, -4
 2045 0002 83B0     		sub	sp, sp, #12
 2046              		.cfi_def_cfa_offset 24
 2047 0004 0446     		mov	r4, r0
ARM GAS  C:\Users\USUARIO\AppData\Local\Temp\cchqzDaB.s 			page 66


1283:Generated_Source\PSoC5/ETH0.c **** 	ipBytes = (uint8*)&ip;
 2048              		.loc 1 1283 0
 2049 0006 FFF7FEFF 		bl	ETH0_GetSourceIP
 2050              	.LVL245:
 2051 000a 0190     		str	r0, [sp, #4]
 2052              	.LVL246:
1286:Generated_Source\PSoC5/ETH0.c **** 		work = ipBytes[digit];
 2053              		.loc 1 1286 0
 2054 000c 0021     		movs	r1, #0
1285:Generated_Source\PSoC5/ETH0.c **** 	for(digit=0;digit<4;++digit) {
 2055              		.loc 1 1285 0
 2056 000e 0A46     		mov	r2, r1
1286:Generated_Source\PSoC5/ETH0.c **** 		work = ipBytes[digit];
 2057              		.loc 1 1286 0
 2058 0010 2CE0     		b	.L168
 2059              	.LVL247:
 2060              	.L173:
1287:Generated_Source\PSoC5/ETH0.c **** 		if (work >= 100) {
 2061              		.loc 1 1287 0
 2062 0012 02AB     		add	r3, sp, #8
 2063 0014 0B44     		add	r3, r3, r1
 2064 0016 13F8043C 		ldrb	r3, [r3, #-4]	@ zero_extendqisi2
 2065              	.LVL248:
1288:Generated_Source\PSoC5/ETH0.c **** 			temp = work/100;
 2066              		.loc 1 1288 0
 2067 001a 632B     		cmp	r3, #99
 2068 001c 0ADD     		ble	.L169
1289:Generated_Source\PSoC5/ETH0.c **** 			work -= (temp*100);
 2069              		.loc 1 1289 0
 2070 001e 1548     		ldr	r0, .L175
 2071 0020 80FB0350 		smull	r5, r0, r0, r3
 2072 0024 4011     		asrs	r0, r0, #5
 2073              	.LVL249:
1290:Generated_Source\PSoC5/ETH0.c **** 			ipString[index++] = '0' + temp;
 2074              		.loc 1 1290 0
 2075 0026 6FF06305 		mvn	r5, #99
 2076 002a 05FB0033 		mla	r3, r5, r0, r3
 2077              	.LVL250:
1291:Generated_Source\PSoC5/ETH0.c **** 		}
 2078              		.loc 1 1291 0
 2079 002e 3030     		adds	r0, r0, #48
 2080              	.LVL251:
 2081 0030 A054     		strb	r0, [r4, r2]
 2082 0032 0132     		adds	r2, r2, #1
 2083              	.LVL252:
 2084              	.L169:
1293:Generated_Source\PSoC5/ETH0.c **** 			temp = work /10;
 2085              		.loc 1 1293 0
 2086 0034 092B     		cmp	r3, #9
 2087 0036 0CDD     		ble	.L170
1294:Generated_Source\PSoC5/ETH0.c **** 			work -= (temp*10);
 2088              		.loc 1 1294 0
 2089 0038 0F48     		ldr	r0, .L175+4
 2090 003a 80FB0305 		smull	r0, r5, r0, r3
 2091 003e D817     		asrs	r0, r3, #31
 2092 0040 C0EBA500 		rsb	r0, r0, r5, asr #2
 2093              	.LVL253:
ARM GAS  C:\Users\USUARIO\AppData\Local\Temp\cchqzDaB.s 			page 67


1295:Generated_Source\PSoC5/ETH0.c **** 			ipString[index++] = '0'+temp;
 2094              		.loc 1 1295 0
 2095 0044 6FF00905 		mvn	r5, #9
 2096 0048 05FB0033 		mla	r3, r5, r0, r3
 2097              	.LVL254:
1296:Generated_Source\PSoC5/ETH0.c **** 		}
 2098              		.loc 1 1296 0
 2099 004c 3030     		adds	r0, r0, #48
 2100              	.LVL255:
 2101 004e A054     		strb	r0, [r4, r2]
 2102 0050 0132     		adds	r2, r2, #1
 2103              	.LVL256:
 2104              	.L170:
1298:Generated_Source\PSoC5/ETH0.c **** 		if (digit <3) {
 2105              		.loc 1 1298 0
 2106 0052 501C     		adds	r0, r2, #1
 2107              	.LVL257:
 2108 0054 3033     		adds	r3, r3, #48
 2109              	.LVL258:
 2110 0056 A354     		strb	r3, [r4, r2]
1299:Generated_Source\PSoC5/ETH0.c **** 			ipString[index++] = '.';
 2111              		.loc 1 1299 0
 2112 0058 0229     		cmp	r1, #2
 2113 005a 03DC     		bgt	.L171
1300:Generated_Source\PSoC5/ETH0.c **** 		}
 2114              		.loc 1 1300 0
 2115 005c 0232     		adds	r2, r2, #2
 2116              	.LVL259:
 2117 005e 2E23     		movs	r3, #46
 2118              	.LVL260:
 2119 0060 2354     		strb	r3, [r4, r0]
 2120 0062 02E0     		b	.L172
 2121              	.LVL261:
 2122              	.L171:
1303:Generated_Source\PSoC5/ETH0.c **** 		}
 2123              		.loc 1 1303 0
 2124 0064 0023     		movs	r3, #0
 2125              	.LVL262:
 2126 0066 2354     		strb	r3, [r4, r0]
1298:Generated_Source\PSoC5/ETH0.c **** 		if (digit <3) {
 2127              		.loc 1 1298 0
 2128 0068 0246     		mov	r2, r0
 2129              	.LVL263:
 2130              	.L172:
1286:Generated_Source\PSoC5/ETH0.c **** 		work = ipBytes[digit];
 2131              		.loc 1 1286 0 discriminator 2
 2132 006a 0131     		adds	r1, r1, #1
 2133              	.LVL264:
 2134              	.L168:
1286:Generated_Source\PSoC5/ETH0.c **** 		work = ipBytes[digit];
 2135              		.loc 1 1286 0 is_stmt 0 discriminator 1
 2136 006c 0329     		cmp	r1, #3
 2137 006e D0DD     		ble	.L173
1306:Generated_Source\PSoC5/ETH0.c **** 
 2138              		.loc 1 1306 0 is_stmt 1
 2139 0070 03B0     		add	sp, sp, #12
 2140              		.cfi_def_cfa_offset 12
ARM GAS  C:\Users\USUARIO\AppData\Local\Temp\cchqzDaB.s 			page 68


 2141              		@ sp needed
 2142 0072 30BD     		pop	{r4, r5, pc}
 2143              	.LVL265:
 2144              	.L176:
 2145              		.align	2
 2146              	.L175:
 2147 0074 1F85EB51 		.word	1374389535
 2148 0078 67666666 		.word	1717986919
 2149              		.cfi_endproc
 2150              	.LFE79:
 2151              		.size	ETH0_StringIP, .-ETH0_StringIP
 2152              		.section	.text.ETH0_SetIP,"ax",%progbits
 2153              		.align	2
 2154              		.global	ETH0_SetIP
 2155              		.thumb
 2156              		.thumb_func
 2157              		.type	ETH0_SetIP, %function
 2158              	ETH0_SetIP:
 2159              	.LFB80:
1311:Generated_Source\PSoC5/ETH0.c **** 	uint8 ok = 0;
 2160              		.loc 1 1311 0
 2161              		.cfi_startproc
 2162              		@ args = 0, pretend = 0, frame = 0
 2163              		@ frame_needed = 0, uses_anonymous_args = 0
 2164              	.LVL266:
 2165 0000 08B5     		push	{r3, lr}
 2166              		.cfi_def_cfa_offset 8
 2167              		.cfi_offset 3, -8
 2168              		.cfi_offset 14, -4
 2169              	.LVL267:
1314:Generated_Source\PSoC5/ETH0.c **** 		ETH0_SetSourceIP( ip );
 2170              		.loc 1 1314 0
 2171 0002 431E     		subs	r3, r0, #1
 2172 0004 13F1030F 		cmn	r3, #3
 2173 0008 03D8     		bhi	.L179
1315:Generated_Source\PSoC5/ETH0.c **** 		ok = 0xFF;
 2174              		.loc 1 1315 0
 2175 000a FFF7FEFF 		bl	ETH0_SetSourceIP
 2176              	.LVL268:
1316:Generated_Source\PSoC5/ETH0.c **** 	}
 2177              		.loc 1 1316 0
 2178 000e FF20     		movs	r0, #255
 2179 0010 08BD     		pop	{r3, pc}
 2180              	.LVL269:
 2181              	.L179:
1312:Generated_Source\PSoC5/ETH0.c **** 	
 2182              		.loc 1 1312 0
 2183 0012 0020     		movs	r0, #0
 2184              	.LVL270:
1320:Generated_Source\PSoC5/ETH0.c **** /* ------------------------------------------------------------------------ */
 2185              		.loc 1 1320 0
 2186 0014 08BD     		pop	{r3, pc}
 2187              		.cfi_endproc
 2188              	.LFE80:
 2189              		.size	ETH0_SetIP, .-ETH0_SetIP
 2190 0016 00BF     		.section	.text.ETH0_GetIP,"ax",%progbits
 2191              		.align	2
ARM GAS  C:\Users\USUARIO\AppData\Local\Temp\cchqzDaB.s 			page 69


 2192              		.global	ETH0_GetIP
 2193              		.thumb
 2194              		.thumb_func
 2195              		.type	ETH0_GetIP, %function
 2196              	ETH0_GetIP:
 2197              	.LFB81:
1324:Generated_Source\PSoC5/ETH0.c **** 	return ETH0_GetSourceIP();
 2198              		.loc 1 1324 0
 2199              		.cfi_startproc
 2200              		@ args = 0, pretend = 0, frame = 0
 2201              		@ frame_needed = 0, uses_anonymous_args = 0
 2202 0000 08B5     		push	{r3, lr}
 2203              		.cfi_def_cfa_offset 8
 2204              		.cfi_offset 3, -8
 2205              		.cfi_offset 14, -4
1325:Generated_Source\PSoC5/ETH0.c **** }
 2206              		.loc 1 1325 0
 2207 0002 FFF7FEFF 		bl	ETH0_GetSourceIP
 2208              	.LVL271:
1326:Generated_Source\PSoC5/ETH0.c **** /* ------------------------------------------------------------------------ */
 2209              		.loc 1 1326 0
 2210 0006 08BD     		pop	{r3, pc}
 2211              		.cfi_endproc
 2212              	.LFE81:
 2213              		.size	ETH0_GetIP, .-ETH0_GetIP
 2214              		.section	.text.ETH0_SetMAC,"ax",%progbits
 2215              		.align	2
 2216              		.global	ETH0_SetMAC
 2217              		.thumb
 2218              		.thumb_func
 2219              		.type	ETH0_SetMAC, %function
 2220              	ETH0_SetMAC:
 2221              	.LFB82:
1330:Generated_Source\PSoC5/ETH0.c **** 	ETH0_SetSourceMAC( mac );
 2222              		.loc 1 1330 0
 2223              		.cfi_startproc
 2224              		@ args = 0, pretend = 0, frame = 0
 2225              		@ frame_needed = 0, uses_anonymous_args = 0
 2226              	.LVL272:
 2227 0000 08B5     		push	{r3, lr}
 2228              		.cfi_def_cfa_offset 8
 2229              		.cfi_offset 3, -8
 2230              		.cfi_offset 14, -4
1331:Generated_Source\PSoC5/ETH0.c **** }
 2231              		.loc 1 1331 0
 2232 0002 FFF7FEFF 		bl	ETH0_SetSourceMAC
 2233              	.LVL273:
 2234 0006 08BD     		pop	{r3, pc}
 2235              		.cfi_endproc
 2236              	.LFE82:
 2237              		.size	ETH0_SetMAC, .-ETH0_SetMAC
 2238              		.section	.text.ETH0_GetMAC,"ax",%progbits
 2239              		.align	2
 2240              		.global	ETH0_GetMAC
 2241              		.thumb
 2242              		.thumb_func
 2243              		.type	ETH0_GetMAC, %function
ARM GAS  C:\Users\USUARIO\AppData\Local\Temp\cchqzDaB.s 			page 70


 2244              	ETH0_GetMAC:
 2245              	.LFB83:
1336:Generated_Source\PSoC5/ETH0.c **** 	ETH0_GetSourceMAC( mac );
 2246              		.loc 1 1336 0
 2247              		.cfi_startproc
 2248              		@ args = 0, pretend = 0, frame = 0
 2249              		@ frame_needed = 0, uses_anonymous_args = 0
 2250              	.LVL274:
 2251 0000 08B5     		push	{r3, lr}
 2252              		.cfi_def_cfa_offset 8
 2253              		.cfi_offset 3, -8
 2254              		.cfi_offset 14, -4
1337:Generated_Source\PSoC5/ETH0.c **** }
 2255              		.loc 1 1337 0
 2256 0002 FFF7FEFF 		bl	ETH0_GetSourceMAC
 2257              	.LVL275:
 2258 0006 08BD     		pop	{r3, pc}
 2259              		.cfi_endproc
 2260              	.LFE83:
 2261              		.size	ETH0_GetMAC, .-ETH0_GetMAC
 2262              		.section	.text.ETH0_SocketOpen,"ax",%progbits
 2263              		.align	2
 2264              		.global	ETH0_SocketOpen
 2265              		.thumb
 2266              		.thumb_func
 2267              		.type	ETH0_SocketOpen, %function
 2268              	ETH0_SocketOpen:
 2269              	.LFB84:
1346:Generated_Source\PSoC5/ETH0.c **** 	uint8 socket;
 2270              		.loc 1 1346 0
 2271              		.cfi_startproc
 2272              		@ args = 0, pretend = 0, frame = 0
 2273              		@ frame_needed = 0, uses_anonymous_args = 0
 2274              	.LVL276:
 2275 0000 F8B5     		push	{r3, r4, r5, r6, r7, lr}
 2276              		.cfi_def_cfa_offset 24
 2277              		.cfi_offset 3, -24
 2278              		.cfi_offset 4, -20
 2279              		.cfi_offset 5, -16
 2280              		.cfi_offset 6, -12
 2281              		.cfi_offset 7, -8
 2282              		.cfi_offset 14, -4
 2283              	.LVL277:
1358:Generated_Source\PSoC5/ETH0.c **** 		if ( (socket == 0xFF) && (ETH0_SocketConfig[index].Protocol == 0) ) {
 2284              		.loc 1 1358 0
 2285 0002 0023     		movs	r3, #0
1356:Generated_Source\PSoC5/ETH0.c **** 	/* find the first available socket to open, and how much memory is available */
 2286              		.loc 1 1356 0
 2287 0004 FF24     		movs	r4, #255
1358:Generated_Source\PSoC5/ETH0.c **** 		if ( (socket == 0xFF) && (ETH0_SocketConfig[index].Protocol == 0) ) {
 2288              		.loc 1 1358 0
 2289 0006 0DE0     		b	.L188
 2290              	.LVL278:
 2291              	.L191:
1359:Generated_Source\PSoC5/ETH0.c **** 			/*
 2292              		.loc 1 1359 0
 2293 0008 FF2C     		cmp	r4, #255
ARM GAS  C:\Users\USUARIO\AppData\Local\Temp\cchqzDaB.s 			page 71


 2294 000a 0AD1     		bne	.L189
1359:Generated_Source\PSoC5/ETH0.c **** 			/*
 2295              		.loc 1 1359 0 is_stmt 0 discriminator 1
 2296 000c 03EB4307 		add	r7, r3, r3, lsl #1
 2297 0010 7D00     		lsls	r5, r7, #1
 2298 0012 144F     		ldr	r7, .L194
 2299 0014 3D44     		add	r5, r5, r7
 2300 0016 2F79     		ldrb	r7, [r5, #4]	@ zero_extendqisi2
 2301 0018 1FB9     		cbnz	r7, .L189
1365:Generated_Source\PSoC5/ETH0.c **** 				/* store this socket number for allocation */
 2302              		.loc 1 1365 0 is_stmt 1
 2303 001a 0428     		cmp	r0, #4
 2304 001c 00D1     		bne	.L190
1365:Generated_Source\PSoC5/ETH0.c **** 				/* store this socket number for allocation */
 2305              		.loc 1 1365 0 is_stmt 0 discriminator 1
 2306 001e 03B1     		cbz	r3, .L189
 2307              	.L190:
1367:Generated_Source\PSoC5/ETH0.c **** 			}
 2308              		.loc 1 1367 0 is_stmt 1
 2309 0020 DCB2     		uxtb	r4, r3
 2310              	.LVL279:
 2311              	.L189:
1358:Generated_Source\PSoC5/ETH0.c **** 		if ( (socket == 0xFF) && (ETH0_SocketConfig[index].Protocol == 0) ) {
 2312              		.loc 1 1358 0 discriminator 2
 2313 0022 0133     		adds	r3, r3, #1
 2314              	.LVL280:
 2315              	.L188:
1358:Generated_Source\PSoC5/ETH0.c **** 		if ( (socket == 0xFF) && (ETH0_SocketConfig[index].Protocol == 0) ) {
 2316              		.loc 1 1358 0 is_stmt 0 discriminator 1
 2317 0024 032B     		cmp	r3, #3
 2318 0026 EFDD     		ble	.L191
1371:Generated_Source\PSoC5/ETH0.c **** 		/* Store the socket information in the allocation table */
 2319              		.loc 1 1371 0 is_stmt 1
 2320 0028 FF2C     		cmp	r4, #255
 2321 002a 19D0     		beq	.L192
 2322 002c 1646     		mov	r6, r2
 2323 002e 0546     		mov	r5, r0
1373:Generated_Source\PSoC5/ETH0.c **** 		ETH0_SocketConfig[socket].SocketFlags = flags;
 2324              		.loc 1 1373 0
 2325 0030 0C4F     		ldr	r7, .L194
 2326 0032 6000     		lsls	r0, r4, #1
 2327              	.LVL281:
 2328 0034 0219     		adds	r2, r0, r4
 2329              	.LVL282:
 2330 0036 5300     		lsls	r3, r2, #1
 2331              	.LVL283:
 2332 0038 1A46     		mov	r2, r3
 2333 003a 3B44     		add	r3, r3, r7
 2334 003c 1D71     		strb	r5, [r3, #4]
1374:Generated_Source\PSoC5/ETH0.c **** 		ETH0_SocketConfig[socket].SourcePort = port;
 2335              		.loc 1 1374 0
 2336 003e 5E71     		strb	r6, [r3, #5]
1375:Generated_Source\PSoC5/ETH0.c **** 		ETH0_SocketConfig[socket].ServerFlag = 0;
 2337              		.loc 1 1375 0
 2338 0040 D980     		strh	r1, [r3, #6]	@ movhi
1376:Generated_Source\PSoC5/ETH0.c **** 		/* Send the socket open with the correct protocol information */
 2339              		.loc 1 1376 0
ARM GAS  C:\Users\USUARIO\AppData\Local\Temp\cchqzDaB.s 			page 72


 2340 0042 3A44     		add	r2, r2, r7
 2341 0044 0023     		movs	r3, #0
 2342 0046 1372     		strb	r3, [r2, #8]
1378:Generated_Source\PSoC5/ETH0.c **** 		ETH0_SetSocketMode( socket, Protocol | flags );
 2343              		.loc 1 1378 0
 2344 0048 2046     		mov	r0, r4
 2345 004a FFF7FEFF 		bl	ETH0_SetSocketSourcePort
 2346              	.LVL284:
1379:Generated_Source\PSoC5/ETH0.c **** 		ETH0_ExecuteSocketCommand( socket, 1 );
 2347              		.loc 1 1379 0
 2348 004e 45EA0601 		orr	r1, r5, r6
 2349 0052 2046     		mov	r0, r4
 2350 0054 FFF7FEFF 		bl	ETH0_SetSocketMode
 2351              	.LVL285:
1380:Generated_Source\PSoC5/ETH0.c **** 	}
 2352              		.loc 1 1380 0
 2353 0058 0121     		movs	r1, #1
 2354 005a 2046     		mov	r0, r4
 2355 005c FFF7FEFF 		bl	ETH0_ExecuteSocketCommand
 2356              	.LVL286:
 2357              	.L192:
1383:Generated_Source\PSoC5/ETH0.c **** /* ------------------------------------------------------------------------ */
 2358              		.loc 1 1383 0
 2359 0060 2046     		mov	r0, r4
 2360 0062 F8BD     		pop	{r3, r4, r5, r6, r7, pc}
 2361              	.LVL287:
 2362              	.L195:
 2363              		.align	2
 2364              	.L194:
 2365 0064 00000000 		.word	.LANCHOR1
 2366              		.cfi_endproc
 2367              	.LFE84:
 2368              		.size	ETH0_SocketOpen, .-ETH0_SocketOpen
 2369              		.section	.text.ETH0_SocketClose,"ax",%progbits
 2370              		.align	2
 2371              		.global	ETH0_SocketClose
 2372              		.thumb
 2373              		.thumb_func
 2374              		.type	ETH0_SocketClose, %function
 2375              	ETH0_SocketClose:
 2376              	.LFB85:
1387:Generated_Source\PSoC5/ETH0.c **** 	/*
 2377              		.loc 1 1387 0
 2378              		.cfi_startproc
 2379              		@ args = 0, pretend = 0, frame = 0
 2380              		@ frame_needed = 0, uses_anonymous_args = 0
 2381              	.LVL288:
1392:Generated_Source\PSoC5/ETH0.c **** 		/* clear the socket memory allocations */
 2382              		.loc 1 1392 0
 2383 0000 0328     		cmp	r0, #3
 2384 0002 12D8     		bhi	.L199
1387:Generated_Source\PSoC5/ETH0.c **** 	/*
 2385              		.loc 1 1387 0
 2386 0004 38B5     		push	{r3, r4, r5, lr}
 2387              		.cfi_def_cfa_offset 16
 2388              		.cfi_offset 3, -16
 2389              		.cfi_offset 4, -12
ARM GAS  C:\Users\USUARIO\AppData\Local\Temp\cchqzDaB.s 			page 73


 2390              		.cfi_offset 5, -8
 2391              		.cfi_offset 14, -4
 2392 0006 0446     		mov	r4, r0
1394:Generated_Source\PSoC5/ETH0.c **** 		ETH0_SocketConfig[socket].SocketFlags = 0;
 2393              		.loc 1 1394 0
 2394 0008 084D     		ldr	r5, .L200
 2395 000a 4300     		lsls	r3, r0, #1
 2396 000c 1A18     		adds	r2, r3, r0
 2397 000e 5100     		lsls	r1, r2, #1
 2398 0010 2944     		add	r1, r1, r5
 2399 0012 0020     		movs	r0, #0
 2400              	.LVL289:
 2401 0014 0871     		strb	r0, [r1, #4]
1395:Generated_Source\PSoC5/ETH0.c **** 		/* close the socket */
 2402              		.loc 1 1395 0
 2403 0016 4871     		strb	r0, [r1, #5]
1397:Generated_Source\PSoC5/ETH0.c **** 		/* Clear pending Interrupts */
 2404              		.loc 1 1397 0
 2405 0018 1021     		movs	r1, #16
 2406 001a 2046     		mov	r0, r4
 2407 001c FFF7FEFF 		bl	ETH0_ExecuteSocketCommand
 2408              	.LVL290:
1399:Generated_Source\PSoC5/ETH0.c **** 	}
 2409              		.loc 1 1399 0
 2410 0020 FF21     		movs	r1, #255
 2411 0022 2046     		mov	r0, r4
 2412 0024 FFF7FEFF 		bl	ETH0_SetSocketIR
 2413              	.LVL291:
 2414 0028 38BD     		pop	{r3, r4, r5, pc}
 2415              	.LVL292:
 2416              	.L199:
 2417              		.cfi_def_cfa_offset 0
 2418              		.cfi_restore 3
 2419              		.cfi_restore 4
 2420              		.cfi_restore 5
 2421              		.cfi_restore 14
 2422 002a 7047     		bx	lr
 2423              	.L201:
 2424              		.align	2
 2425              	.L200:
 2426 002c 00000000 		.word	.LANCHOR1
 2427              		.cfi_endproc
 2428              	.LFE85:
 2429              		.size	ETH0_SocketClose, .-ETH0_SocketClose
 2430              		.section	.text.ETH0_Init,"ax",%progbits
 2431              		.align	2
 2432              		.global	ETH0_Init
 2433              		.thumb
 2434              		.thumb_func
 2435              		.type	ETH0_Init, %function
 2436              	ETH0_Init:
 2437              	.LFB74:
1078:Generated_Source\PSoC5/ETH0.c **** 	/*
 2438              		.loc 1 1078 0
 2439              		.cfi_startproc
 2440              		@ args = 0, pretend = 0, frame = 0
 2441              		@ frame_needed = 0, uses_anonymous_args = 0
ARM GAS  C:\Users\USUARIO\AppData\Local\Temp\cchqzDaB.s 			page 74


 2442              	.LVL293:
 2443 0000 2DE9F041 		push	{r4, r5, r6, r7, r8, lr}
 2444              		.cfi_def_cfa_offset 24
 2445              		.cfi_offset 4, -24
 2446              		.cfi_offset 5, -20
 2447              		.cfi_offset 6, -16
 2448              		.cfi_offset 7, -12
 2449              		.cfi_offset 8, -8
 2450              		.cfi_offset 14, -4
 2451 0004 0746     		mov	r7, r0
 2452 0006 0E46     		mov	r6, r1
 2453 0008 1546     		mov	r5, r2
 2454 000a 9846     		mov	r8, r3
1086:Generated_Source\PSoC5/ETH0.c **** 	
 2455              		.loc 1 1086 0
 2456 000c FA20     		movs	r0, #250
 2457              	.LVL294:
 2458 000e FFF7FEFF 		bl	CyDelay
 2459              	.LVL295:
1089:Generated_Source\PSoC5/ETH0.c **** 	/* Wait for the chip initialization delay */
 2460              		.loc 1 1089 0
 2461 0012 8020     		movs	r0, #128
 2462 0014 FFF7FEFF 		bl	ETH0_SetMode
 2463              	.LVL296:
1091:Generated_Source\PSoC5/ETH0.c **** 	
 2464              		.loc 1 1091 0
 2465 0018 0A20     		movs	r0, #10
 2466 001a FFF7FEFF 		bl	CyDelay
 2467              	.LVL297:
1094:Generated_Source\PSoC5/ETH0.c **** 		ETH0_SocketClose( index );
 2468              		.loc 1 1094 0
 2469 001e 0024     		movs	r4, #0
 2470 0020 03E0     		b	.L203
 2471              	.LVL298:
 2472              	.L204:
1095:Generated_Source\PSoC5/ETH0.c **** 	}
 2473              		.loc 1 1095 0 discriminator 3
 2474 0022 E0B2     		uxtb	r0, r4
 2475 0024 FFF7FEFF 		bl	ETH0_SocketClose
 2476              	.LVL299:
1094:Generated_Source\PSoC5/ETH0.c **** 		ETH0_SocketClose( index );
 2477              		.loc 1 1094 0 discriminator 3
 2478 0028 0134     		adds	r4, r4, #1
 2479              	.LVL300:
 2480              	.L203:
1094:Generated_Source\PSoC5/ETH0.c **** 		ETH0_SocketClose( index );
 2481              		.loc 1 1094 0 is_stmt 0 discriminator 1
 2482 002a 032C     		cmp	r4, #3
 2483 002c F9DD     		ble	.L204
1098:Generated_Source\PSoC5/ETH0.c **** 	ETH0_SetRxMemSize(0x55); /* 2K Each */
 2484              		.loc 1 1098 0 is_stmt 1
 2485 002e 5520     		movs	r0, #85
 2486 0030 FFF7FEFF 		bl	ETH0_SetTxMemSize
 2487              	.LVL301:
1099:Generated_Source\PSoC5/ETH0.c **** 	/* Set device gateway address */
 2488              		.loc 1 1099 0
 2489 0034 5520     		movs	r0, #85
ARM GAS  C:\Users\USUARIO\AppData\Local\Temp\cchqzDaB.s 			page 75


 2490 0036 FFF7FEFF 		bl	ETH0_SetRxMemSize
 2491              	.LVL302:
1101:Generated_Source\PSoC5/ETH0.c **** 	ETH0_SetSubnetMask( subnet );
 2492              		.loc 1 1101 0
 2493 003a 4046     		mov	r0, r8
 2494 003c FFF7FEFF 		bl	ETH0_SetGatewayAddress
 2495              	.LVL303:
1102:Generated_Source\PSoC5/ETH0.c **** 	/* Store the subnet mask for later use, for ERRATA fix */
 2496              		.loc 1 1102 0
 2497 0040 2846     		mov	r0, r5
 2498 0042 FFF7FEFF 		bl	ETH0_SetSubnetMask
 2499              	.LVL304:
1104:Generated_Source\PSoC5/ETH0.c **** 	/* store the device mac */
 2500              		.loc 1 1104 0
 2501 0046 084B     		ldr	r3, .L206
 2502 0048 1D60     		str	r5, [r3]
1106:Generated_Source\PSoC5/ETH0.c **** 	/* store the IP address */
 2503              		.loc 1 1106 0
 2504 004a 3846     		mov	r0, r7
 2505 004c FFF7FEFF 		bl	ETH0_SetSourceMAC
 2506              	.LVL305:
1108:Generated_Source\PSoC5/ETH0.c **** 	/* clear pending interrupts */
 2507              		.loc 1 1108 0
 2508 0050 3046     		mov	r0, r6
 2509 0052 FFF7FEFF 		bl	ETH0_SetSourceIP
 2510              	.LVL306:
1110:Generated_Source\PSoC5/ETH0.c **** 	/* clear the subnet mask register (W5100 Errata Fix) */
 2511              		.loc 1 1110 0
 2512 0056 FF20     		movs	r0, #255
 2513 0058 FFF7FEFF 		bl	ETH0_SetIR
 2514              	.LVL307:
1112:Generated_Source\PSoC5/ETH0.c **** }
 2515              		.loc 1 1112 0
 2516 005c 0020     		movs	r0, #0
 2517 005e FFF7FEFF 		bl	ETH0_SetSubnetMask
 2518              	.LVL308:
 2519 0062 BDE8F081 		pop	{r4, r5, r6, r7, r8, pc}
 2520              	.LVL309:
 2521              	.L207:
 2522 0066 00BF     		.align	2
 2523              	.L206:
 2524 0068 00000000 		.word	.LANCHOR1
 2525              		.cfi_endproc
 2526              	.LFE74:
 2527              		.size	ETH0_Init, .-ETH0_Init
 2528              		.section	.text.ETH0_Start,"ax",%progbits
 2529              		.align	2
 2530              		.global	ETH0_Start
 2531              		.thumb
 2532              		.thumb_func
 2533              		.type	ETH0_Start, %function
 2534              	ETH0_Start:
 2535              	.LFB75:
1117:Generated_Source\PSoC5/ETH0.c **** 	uint32 ip;
 2536              		.loc 1 1117 0
 2537              		.cfi_startproc
 2538              		@ args = 0, pretend = 0, frame = 0
ARM GAS  C:\Users\USUARIO\AppData\Local\Temp\cchqzDaB.s 			page 76


 2539              		@ frame_needed = 0, uses_anonymous_args = 0
 2540 0000 38B5     		push	{r3, r4, r5, lr}
 2541              		.cfi_def_cfa_offset 16
 2542              		.cfi_offset 3, -16
 2543              		.cfi_offset 4, -12
 2544              		.cfi_offset 5, -8
 2545              		.cfi_offset 14, -4
1123:Generated_Source\PSoC5/ETH0.c **** 		/*
 2546              		.loc 1 1123 0
 2547 0002 164B     		ldr	r3, .L212
 2548 0004 1B78     		ldrb	r3, [r3]	@ zero_extendqisi2
 2549 0006 0BB9     		cbnz	r3, .L209
1128:Generated_Source\PSoC5/ETH0.c **** 	}
 2550              		.loc 1 1128 0
 2551 0008 FFF7FEFF 		bl	SPI0_Start
 2552              	.LVL310:
 2553              	.L209:
1132:Generated_Source\PSoC5/ETH0.c **** 	/* V1.2 new -- Parse MAC Address string */
 2554              		.loc 1 1132 0
 2555 000c 0A20     		movs	r0, #10
 2556 000e FFF7FEFF 		bl	CyDelay
 2557              	.LVL311:
1134:Generated_Source\PSoC5/ETH0.c **** 		ETH0_MAC[0] = 0;
 2558              		.loc 1 1134 0
 2559 0012 1349     		ldr	r1, .L212+4
 2560 0014 1348     		ldr	r0, .L212+8
 2561 0016 FFF7FEFF 		bl	ETH0_ParseMAC
 2562              	.LVL312:
 2563 001a 0628     		cmp	r0, #6
 2564 001c 0CD1     		bne	.L210
1135:Generated_Source\PSoC5/ETH0.c **** 		ETH0_MAC[1] = 0xDE;
 2565              		.loc 1 1135 0
 2566 001e 124B     		ldr	r3, .L212+12
 2567 0020 0022     		movs	r2, #0
 2568 0022 1A77     		strb	r2, [r3, #28]
1136:Generated_Source\PSoC5/ETH0.c **** 		ETH0_MAC[2] = 0xAD;
 2569              		.loc 1 1136 0
 2570 0024 DE21     		movs	r1, #222
 2571 0026 5977     		strb	r1, [r3, #29]
1137:Generated_Source\PSoC5/ETH0.c **** 		ETH0_MAC[3] = 0xC0;
 2572              		.loc 1 1137 0
 2573 0028 AD20     		movs	r0, #173
 2574 002a 9877     		strb	r0, [r3, #30]
1138:Generated_Source\PSoC5/ETH0.c **** 		ETH0_MAC[4] = 0xDE;
 2575              		.loc 1 1138 0
 2576 002c C020     		movs	r0, #192
 2577 002e D877     		strb	r0, [r3, #31]
1139:Generated_Source\PSoC5/ETH0.c **** 		ETH0_MAC[5] = 0;
 2578              		.loc 1 1139 0
 2579 0030 83F82010 		strb	r1, [r3, #32]
1140:Generated_Source\PSoC5/ETH0.c **** 	}
 2580              		.loc 1 1140 0
 2581 0034 83F82120 		strb	r2, [r3, #33]
 2582              	.L210:
1143:Generated_Source\PSoC5/ETH0.c **** 	sub = ETH0_ParseIP("255.255.255.0");
 2583              		.loc 1 1143 0
 2584 0038 0C48     		ldr	r0, .L212+16
ARM GAS  C:\Users\USUARIO\AppData\Local\Temp\cchqzDaB.s 			page 77


 2585 003a FFF7FEFF 		bl	ETH0_ParseIP
 2586              	.LVL313:
 2587 003e 0446     		mov	r4, r0
 2588              	.LVL314:
1144:Generated_Source\PSoC5/ETH0.c **** 	gateway = ETH0_ParseIP("192.168.0.1");
 2589              		.loc 1 1144 0
 2590 0040 0B48     		ldr	r0, .L212+20
 2591              	.LVL315:
 2592 0042 FFF7FEFF 		bl	ETH0_ParseIP
 2593              	.LVL316:
 2594 0046 0546     		mov	r5, r0
 2595              	.LVL317:
1145:Generated_Source\PSoC5/ETH0.c **** 	/* Initialize the device with the default data */
 2596              		.loc 1 1145 0
 2597 0048 0A48     		ldr	r0, .L212+24
 2598              	.LVL318:
 2599 004a FFF7FEFF 		bl	ETH0_ParseIP
 2600              	.LVL319:
1147:Generated_Source\PSoC5/ETH0.c **** }
 2601              		.loc 1 1147 0
 2602 004e 0346     		mov	r3, r0
 2603 0050 2A46     		mov	r2, r5
 2604 0052 2146     		mov	r1, r4
 2605 0054 0248     		ldr	r0, .L212+4
 2606              	.LVL320:
 2607 0056 FFF7FEFF 		bl	ETH0_Init
 2608              	.LVL321:
 2609 005a 38BD     		pop	{r3, r4, r5, pc}
 2610              	.LVL322:
 2611              	.L213:
 2612              		.align	2
 2613              	.L212:
 2614 005c 00000000 		.word	SPI0_initVar
 2615 0060 1C000000 		.word	.LANCHOR1+28
 2616 0064 00000000 		.word	.LC0
 2617 0068 00000000 		.word	.LANCHOR1
 2618 006c 24000000 		.word	.LC1
 2619 0070 34000000 		.word	.LC2
 2620 0074 44000000 		.word	.LC3
 2621              		.cfi_endproc
 2622              	.LFE75:
 2623              		.size	ETH0_Start, .-ETH0_Start
 2624              		.section	.text.ETH0_SocketProcessConnections,"ax",%progbits
 2625              		.align	2
 2626              		.global	ETH0_SocketProcessConnections
 2627              		.thumb
 2628              		.thumb_func
 2629              		.type	ETH0_SocketProcessConnections, %function
 2630              	ETH0_SocketProcessConnections:
 2631              	.LFB86:
1405:Generated_Source\PSoC5/ETH0.c **** 	uint8 status;
 2632              		.loc 1 1405 0
 2633              		.cfi_startproc
 2634              		@ args = 0, pretend = 0, frame = 0
 2635              		@ frame_needed = 0, uses_anonymous_args = 0
 2636              	.LVL323:
 2637 0000 10B5     		push	{r4, lr}
ARM GAS  C:\Users\USUARIO\AppData\Local\Temp\cchqzDaB.s 			page 78


 2638              		.cfi_def_cfa_offset 8
 2639              		.cfi_offset 4, -8
 2640              		.cfi_offset 14, -4
 2641 0002 0446     		mov	r4, r0
1408:Generated_Source\PSoC5/ETH0.c **** 	/* has a connection termination been requested by remote system */
 2642              		.loc 1 1408 0
 2643 0004 FFF7FEFF 		bl	ETH0_GetSocketStatus
 2644              	.LVL324:
1410:Generated_Source\PSoC5/ETH0.c **** 		/* Close the socket on this end */
 2645              		.loc 1 1410 0
 2646 0008 1C28     		cmp	r0, #28
 2647 000a 02D1     		bne	.L215
1412:Generated_Source\PSoC5/ETH0.c **** 	}
 2648              		.loc 1 1412 0
 2649 000c 2046     		mov	r0, r4
 2650              	.LVL325:
 2651 000e FFF7FEFF 		bl	ETH0_SocketClose
 2652              	.LVL326:
 2653              	.L215:
1414:Generated_Source\PSoC5/ETH0.c **** }
 2654              		.loc 1 1414 0
 2655 0012 2046     		mov	r0, r4
 2656 0014 FFF7FEFF 		bl	ETH0_GetSocketStatus
 2657              	.LVL327:
1415:Generated_Source\PSoC5/ETH0.c **** /* ------------------------------------------------------------------------ */
 2658              		.loc 1 1415 0
 2659 0018 B0FA80F0 		clz	r0, r0
 2660 001c 4009     		lsrs	r0, r0, #5
 2661 001e 10BD     		pop	{r4, pc}
 2662              		.cfi_endproc
 2663              	.LFE86:
 2664              		.size	ETH0_SocketProcessConnections, .-ETH0_SocketProcessConnections
 2665              		.section	.text.ETH0_SocketEstablished,"ax",%progbits
 2666              		.align	2
 2667              		.global	ETH0_SocketEstablished
 2668              		.thumb
 2669              		.thumb_func
 2670              		.type	ETH0_SocketEstablished, %function
 2671              	ETH0_SocketEstablished:
 2672              	.LFB87:
1419:Generated_Source\PSoC5/ETH0.c **** 	return (ETH0_GetSocketStatus( socket ) == 0x17);
 2673              		.loc 1 1419 0
 2674              		.cfi_startproc
 2675              		@ args = 0, pretend = 0, frame = 0
 2676              		@ frame_needed = 0, uses_anonymous_args = 0
 2677              	.LVL328:
 2678 0000 08B5     		push	{r3, lr}
 2679              		.cfi_def_cfa_offset 8
 2680              		.cfi_offset 3, -8
 2681              		.cfi_offset 14, -4
1420:Generated_Source\PSoC5/ETH0.c **** }
 2682              		.loc 1 1420 0
 2683 0002 FFF7FEFF 		bl	ETH0_GetSocketStatus
 2684              	.LVL329:
1421:Generated_Source\PSoC5/ETH0.c **** /* ------------------------------------------------------------------------ */
 2685              		.loc 1 1421 0
 2686 0006 1728     		cmp	r0, #23
ARM GAS  C:\Users\USUARIO\AppData\Local\Temp\cchqzDaB.s 			page 79


 2687 0008 14BF     		ite	ne
 2688 000a 0020     		movne	r0, #0
 2689 000c 0120     		moveq	r0, #1
 2690 000e 08BD     		pop	{r3, pc}
 2691              		.cfi_endproc
 2692              	.LFE87:
 2693              		.size	ETH0_SocketEstablished, .-ETH0_SocketEstablished
 2694              		.section	.text.ETH0_SocketRxDataWaiting,"ax",%progbits
 2695              		.align	2
 2696              		.global	ETH0_SocketRxDataWaiting
 2697              		.thumb
 2698              		.thumb_func
 2699              		.type	ETH0_SocketRxDataWaiting, %function
 2700              	ETH0_SocketRxDataWaiting:
 2701              	.LFB90:
1448:Generated_Source\PSoC5/ETH0.c **** }
1449:Generated_Source\PSoC5/ETH0.c **** /* ------------------------------------------------------------------------ */
1450:Generated_Source\PSoC5/ETH0.c **** /**
1451:Generated_Source\PSoC5/ETH0.c ****  * \brief Execute a SEND without an ARP.
1452:Generated_Source\PSoC5/ETH0.c ****  * \param socket the socket to which the SEND will be executed.
1453:Generated_Source\PSoC5/ETH0.c ****  */
1454:Generated_Source\PSoC5/ETH0.c **** static void
1455:Generated_Source\PSoC5/ETH0.c **** ETH0_SocketSendMac(uint8 socket )
1456:Generated_Source\PSoC5/ETH0.c **** {
1457:Generated_Source\PSoC5/ETH0.c **** 	uint8 ir;
1458:Generated_Source\PSoC5/ETH0.c **** 	
1459:Generated_Source\PSoC5/ETH0.c **** 	/* initialize the subnet mask register : ERRATA FIX */
1460:Generated_Source\PSoC5/ETH0.c **** 	ETH0_SetSubnetMask( ETH0_SubnetMask );
1461:Generated_Source\PSoC5/ETH0.c **** 	/* Issue the SEND command */
1462:Generated_Source\PSoC5/ETH0.c **** 	ETH0_ExecuteSocketCommand( socket, 0x21 );
1463:Generated_Source\PSoC5/ETH0.c **** 	/* wait for the SEND to complete, or for a timeout */
1464:Generated_Source\PSoC5/ETH0.c **** 	ir = ETH0_GetSocketIR( socket );
1465:Generated_Source\PSoC5/ETH0.c **** 	/* while SEND is not done, and the socket hasnot timed out or been dsconnected */
1466:Generated_Source\PSoC5/ETH0.c **** 	while ( ((ir & 0x10) == 0) && (!(ir&0x0A)) ) {
1467:Generated_Source\PSoC5/ETH0.c **** 		CyDelay(1);
1468:Generated_Source\PSoC5/ETH0.c **** 		ir = ETH0_GetSocketIR( socket );
1469:Generated_Source\PSoC5/ETH0.c **** 		
1470:Generated_Source\PSoC5/ETH0.c **** 	}
1471:Generated_Source\PSoC5/ETH0.c **** 	/* clear the SEND_OK flag from the register */
1472:Generated_Source\PSoC5/ETH0.c **** 	ETH0_SetSocketIR( socket, 0x10 );
1473:Generated_Source\PSoC5/ETH0.c **** 	/* reset the subnet mask : ERRATA FIX */
1474:Generated_Source\PSoC5/ETH0.c **** 	ETH0_SetSubnetMask( 0 );
1475:Generated_Source\PSoC5/ETH0.c **** }
1476:Generated_Source\PSoC5/ETH0.c **** /* ------------------------------------------------------------------------ */
1477:Generated_Source\PSoC5/ETH0.c **** uint16
1478:Generated_Source\PSoC5/ETH0.c **** ETH0_SocketRxDataWaiting( uint8 socket )
1479:Generated_Source\PSoC5/ETH0.c **** {
 2702              		.loc 1 1479 0
 2703              		.cfi_startproc
 2704              		@ args = 0, pretend = 0, frame = 0
 2705              		@ frame_needed = 0, uses_anonymous_args = 0
 2706              	.LVL330:
 2707 0000 08B5     		push	{r3, lr}
 2708              		.cfi_def_cfa_offset 8
 2709              		.cfi_offset 3, -8
 2710              		.cfi_offset 14, -4
1480:Generated_Source\PSoC5/ETH0.c **** 	return ETH0_GetRxSize( socket );
ARM GAS  C:\Users\USUARIO\AppData\Local\Temp\cchqzDaB.s 			page 80


 2711              		.loc 1 1480 0
 2712 0002 FFF7FEFF 		bl	ETH0_GetRxSize
 2713              	.LVL331:
1481:Generated_Source\PSoC5/ETH0.c **** }
 2714              		.loc 1 1481 0
 2715 0006 08BD     		pop	{r3, pc}
 2716              		.cfi_endproc
 2717              	.LFE90:
 2718              		.size	ETH0_SocketRxDataWaiting, .-ETH0_SocketRxDataWaiting
 2719              		.section	.text.ETH0_TcpOpen,"ax",%progbits
 2720              		.align	2
 2721              		.global	ETH0_TcpOpen
 2722              		.thumb
 2723              		.thumb_func
 2724              		.type	ETH0_TcpOpen, %function
 2725              	ETH0_TcpOpen:
 2726              	.LFB91:
1482:Generated_Source\PSoC5/ETH0.c **** #endif
1483:Generated_Source\PSoC5/ETH0.c **** /* ======================================================================== */
1484:Generated_Source\PSoC5/ETH0.c **** /* TCP/IP */
1485:Generated_Source\PSoC5/ETH0.c **** #if (1)
1486:Generated_Source\PSoC5/ETH0.c **** /* ------------------------------------------------------------------------ */
1487:Generated_Source\PSoC5/ETH0.c **** uint8
1488:Generated_Source\PSoC5/ETH0.c **** ETH0_TcpOpen(uint16 port)
1489:Generated_Source\PSoC5/ETH0.c **** {
 2727              		.loc 1 1489 0
 2728              		.cfi_startproc
 2729              		@ args = 0, pretend = 0, frame = 0
 2730              		@ frame_needed = 0, uses_anonymous_args = 0
 2731              	.LVL332:
 2732 0000 08B5     		push	{r3, lr}
 2733              		.cfi_def_cfa_offset 8
 2734              		.cfi_offset 3, -8
 2735              		.cfi_offset 14, -4
1490:Generated_Source\PSoC5/ETH0.c **** 	return ETH0_SocketOpen(ETH0_PROTO_TCP, port, 0);
 2736              		.loc 1 1490 0
 2737 0002 0022     		movs	r2, #0
 2738 0004 0146     		mov	r1, r0
 2739 0006 0120     		movs	r0, #1
 2740              	.LVL333:
 2741 0008 FFF7FEFF 		bl	ETH0_SocketOpen
 2742              	.LVL334:
1491:Generated_Source\PSoC5/ETH0.c **** }
 2743              		.loc 1 1491 0
 2744 000c 08BD     		pop	{r3, pc}
 2745              		.cfi_endproc
 2746              	.LFE91:
 2747              		.size	ETH0_TcpOpen, .-ETH0_TcpOpen
 2748 000e 00BF     		.section	.text.ETH0_TcpStartServer,"ax",%progbits
 2749              		.align	2
 2750              		.global	ETH0_TcpStartServer
 2751              		.thumb
 2752              		.thumb_func
 2753              		.type	ETH0_TcpStartServer, %function
 2754              	ETH0_TcpStartServer:
 2755              	.LFB92:
1492:Generated_Source\PSoC5/ETH0.c **** /* ------------------------------------------------------------------------ */
ARM GAS  C:\Users\USUARIO\AppData\Local\Temp\cchqzDaB.s 			page 81


1493:Generated_Source\PSoC5/ETH0.c **** void
1494:Generated_Source\PSoC5/ETH0.c **** ETH0_TcpStartServer( uint8 socket )
1495:Generated_Source\PSoC5/ETH0.c **** {
 2756              		.loc 1 1495 0
 2757              		.cfi_startproc
 2758              		@ args = 0, pretend = 0, frame = 0
 2759              		@ frame_needed = 0, uses_anonymous_args = 0
 2760              	.LVL335:
1496:Generated_Source\PSoC5/ETH0.c **** 	/*
1497:Generated_Source\PSoC5/ETH0.c **** 	 * Start a open socket listening for a connection
1498:Generated_Source\PSoC5/ETH0.c **** 	 */
1499:Generated_Source\PSoC5/ETH0.c **** 	/* was this a valid socket? */
1500:Generated_Source\PSoC5/ETH0.c **** 	if (socket < 4) {
 2761              		.loc 1 1500 0
 2762 0000 0328     		cmp	r0, #3
 2763 0002 04D8     		bhi	.L226
1495:Generated_Source\PSoC5/ETH0.c **** 	/*
 2764              		.loc 1 1495 0
 2765 0004 08B5     		push	{r3, lr}
 2766              		.cfi_def_cfa_offset 8
 2767              		.cfi_offset 3, -8
 2768              		.cfi_offset 14, -4
1501:Generated_Source\PSoC5/ETH0.c **** 		/* Execute the listen command */
1502:Generated_Source\PSoC5/ETH0.c **** 		ETH0_ExecuteSocketCommand( socket, 0x02 );
 2769              		.loc 1 1502 0
 2770 0006 0221     		movs	r1, #2
 2771 0008 FFF7FEFF 		bl	ETH0_ExecuteSocketCommand
 2772              	.LVL336:
 2773 000c 08BD     		pop	{r3, pc}
 2774              	.LVL337:
 2775              	.L226:
 2776              		.cfi_def_cfa_offset 0
 2777              		.cfi_restore 3
 2778              		.cfi_restore 14
 2779 000e 7047     		bx	lr
 2780              		.cfi_endproc
 2781              	.LFE92:
 2782              		.size	ETH0_TcpStartServer, .-ETH0_TcpStartServer
 2783              		.section	.text.ETH0_TcpStartServerWait,"ax",%progbits
 2784              		.align	2
 2785              		.global	ETH0_TcpStartServerWait
 2786              		.thumb
 2787              		.thumb_func
 2788              		.type	ETH0_TcpStartServerWait, %function
 2789              	ETH0_TcpStartServerWait:
 2790              	.LFB93:
1503:Generated_Source\PSoC5/ETH0.c **** 	}
1504:Generated_Source\PSoC5/ETH0.c **** }
1505:Generated_Source\PSoC5/ETH0.c **** /* ------------------------------------------------------------------------ */
1506:Generated_Source\PSoC5/ETH0.c **** void
1507:Generated_Source\PSoC5/ETH0.c **** ETH0_TcpStartServerWait( uint8 socket )
1508:Generated_Source\PSoC5/ETH0.c **** {
 2791              		.loc 1 1508 0
 2792              		.cfi_startproc
 2793              		@ args = 0, pretend = 0, frame = 0
 2794              		@ frame_needed = 0, uses_anonymous_args = 0
 2795              	.LVL338:
ARM GAS  C:\Users\USUARIO\AppData\Local\Temp\cchqzDaB.s 			page 82


 2796 0000 10B5     		push	{r4, lr}
 2797              		.cfi_def_cfa_offset 8
 2798              		.cfi_offset 4, -8
 2799              		.cfi_offset 14, -4
 2800 0002 0446     		mov	r4, r0
1509:Generated_Source\PSoC5/ETH0.c **** 	ETH0_TcpStartServer(socket);
 2801              		.loc 1 1509 0
 2802 0004 FFF7FEFF 		bl	ETH0_TcpStartServer
 2803              	.LVL339:
1510:Generated_Source\PSoC5/ETH0.c **** 	/* wait for socket establishment */
1511:Generated_Source\PSoC5/ETH0.c **** 	while ( !ETH0_SocketEstablished(socket) ) {
 2804              		.loc 1 1511 0
 2805 0008 02E0     		b	.L228
 2806              	.L229:
1512:Generated_Source\PSoC5/ETH0.c **** 		CyDelay(1);
 2807              		.loc 1 1512 0
 2808 000a 0120     		movs	r0, #1
 2809 000c FFF7FEFF 		bl	CyDelay
 2810              	.LVL340:
 2811              	.L228:
1511:Generated_Source\PSoC5/ETH0.c **** 		CyDelay(1);
 2812              		.loc 1 1511 0
 2813 0010 2046     		mov	r0, r4
 2814 0012 FFF7FEFF 		bl	ETH0_SocketEstablished
 2815              	.LVL341:
 2816 0016 0028     		cmp	r0, #0
 2817 0018 F7D0     		beq	.L229
1513:Generated_Source\PSoC5/ETH0.c **** 	}
1514:Generated_Source\PSoC5/ETH0.c **** }
 2818              		.loc 1 1514 0
 2819 001a 10BD     		pop	{r4, pc}
 2820              		.cfi_endproc
 2821              	.LFE93:
 2822              		.size	ETH0_TcpStartServerWait, .-ETH0_TcpStartServerWait
 2823              		.section	.text.ETH0_TcpConnect,"ax",%progbits
 2824              		.align	2
 2825              		.global	ETH0_TcpConnect
 2826              		.thumb
 2827              		.thumb_func
 2828              		.type	ETH0_TcpConnect, %function
 2829              	ETH0_TcpConnect:
 2830              	.LFB94:
1515:Generated_Source\PSoC5/ETH0.c **** /* ------------------------------------------------------------------------ */
1516:Generated_Source\PSoC5/ETH0.c **** void
1517:Generated_Source\PSoC5/ETH0.c **** ETH0_TcpConnect( uint8 socket, uint32 ip, uint16 port )
1518:Generated_Source\PSoC5/ETH0.c **** {
 2831              		.loc 1 1518 0
 2832              		.cfi_startproc
 2833              		@ args = 0, pretend = 0, frame = 0
 2834              		@ frame_needed = 0, uses_anonymous_args = 0
 2835              	.LVL342:
1519:Generated_Source\PSoC5/ETH0.c **** 	uint32 timeout;
1520:Generated_Source\PSoC5/ETH0.c **** 	uint8 ir;
1521:Generated_Source\PSoC5/ETH0.c **** 	
1522:Generated_Source\PSoC5/ETH0.c **** 	if ( (ip != 0xFFFFFFFF) && (ip != 0) ) {
 2836              		.loc 1 1522 0
 2837 0000 4B1E     		subs	r3, r1, #1
ARM GAS  C:\Users\USUARIO\AppData\Local\Temp\cchqzDaB.s 			page 83


 2838 0002 13F1030F 		cmn	r3, #3
 2839 0006 29D8     		bhi	.L239
1518:Generated_Source\PSoC5/ETH0.c **** 	uint32 timeout;
 2840              		.loc 1 1518 0
 2841 0008 70B5     		push	{r4, r5, r6, lr}
 2842              		.cfi_def_cfa_offset 16
 2843              		.cfi_offset 4, -16
 2844              		.cfi_offset 5, -12
 2845              		.cfi_offset 6, -8
 2846              		.cfi_offset 14, -4
 2847 000a 1646     		mov	r6, r2
 2848 000c 0546     		mov	r5, r0
1523:Generated_Source\PSoC5/ETH0.c **** 		ETH0_SetSocketDestIP( socket, ip );
 2849              		.loc 1 1523 0
 2850 000e FFF7FEFF 		bl	ETH0_SetSocketDestIP
 2851              	.LVL343:
1524:Generated_Source\PSoC5/ETH0.c **** 		ETH0_SetSocketDestPort( socket, port );
 2852              		.loc 1 1524 0
 2853 0012 3146     		mov	r1, r6
 2854 0014 2846     		mov	r0, r5
 2855 0016 FFF7FEFF 		bl	ETH0_SetSocketDestPort
 2856              	.LVL344:
1525:Generated_Source\PSoC5/ETH0.c **** 		/* set socket subnet mask */
1526:Generated_Source\PSoC5/ETH0.c **** 		ETH0_SetSubnetMask( ETH0_SubnetMask );
 2857              		.loc 1 1526 0
 2858 001a 114B     		ldr	r3, .L240
 2859 001c 1868     		ldr	r0, [r3]
 2860 001e FFF7FEFF 		bl	ETH0_SetSubnetMask
 2861              	.LVL345:
1527:Generated_Source\PSoC5/ETH0.c **** 		ETH0_ExecuteSocketCommand( socket, 0x04);
 2862              		.loc 1 1527 0
 2863 0022 0421     		movs	r1, #4
 2864 0024 2846     		mov	r0, r5
 2865 0026 FFF7FEFF 		bl	ETH0_ExecuteSocketCommand
 2866              	.LVL346:
1528:Generated_Source\PSoC5/ETH0.c **** 		/* wait for the socket connection to the remote host is established */
1529:Generated_Source\PSoC5/ETH0.c **** 		while ( (!ETH0_SocketEstablished(socket))  && (timeout < 3000) ) {
 2867              		.loc 1 1529 0
 2868 002a 0BE0     		b	.L233
 2869              	.LVL347:
 2870              	.L236:
1530:Generated_Source\PSoC5/ETH0.c **** 			CyDelay(1);
 2871              		.loc 1 1530 0
 2872 002c 0120     		movs	r0, #1
 2873 002e FFF7FEFF 		bl	CyDelay
 2874              	.LVL348:
1531:Generated_Source\PSoC5/ETH0.c **** 			++timeout;
 2875              		.loc 1 1531 0
 2876 0032 0134     		adds	r4, r4, #1
 2877              	.LVL349:
1532:Generated_Source\PSoC5/ETH0.c **** 			ir = ETH0_GetSocketIR( socket );
 2878              		.loc 1 1532 0
 2879 0034 2846     		mov	r0, r5
 2880 0036 FFF7FEFF 		bl	ETH0_GetSocketIR
 2881              	.LVL350:
1533:Generated_Source\PSoC5/ETH0.c **** 			if ( (ir & 0x08) != 0 ) {
 2882              		.loc 1 1533 0
ARM GAS  C:\Users\USUARIO\AppData\Local\Temp\cchqzDaB.s 			page 84


 2883 003a 10F0080F 		tst	r0, #8
 2884 003e 01D0     		beq	.L233
1534:Generated_Source\PSoC5/ETH0.c **** 				/* internal chip timeout occured */
1535:Generated_Source\PSoC5/ETH0.c **** 				timeout = 3000;
 2885              		.loc 1 1535 0
 2886 0040 40F6B834 		movw	r4, #3000
 2887              	.LVL351:
 2888              	.L233:
1529:Generated_Source\PSoC5/ETH0.c **** 			CyDelay(1);
 2889              		.loc 1 1529 0
 2890 0044 2846     		mov	r0, r5
 2891 0046 FFF7FEFF 		bl	ETH0_SocketEstablished
 2892              	.LVL352:
 2893 004a 18B9     		cbnz	r0, .L235
1529:Generated_Source\PSoC5/ETH0.c **** 			CyDelay(1);
 2894              		.loc 1 1529 0 is_stmt 0 discriminator 1
 2895 004c 40F6B733 		movw	r3, #2999
 2896 0050 9C42     		cmp	r4, r3
 2897 0052 EBD9     		bls	.L236
 2898              	.L235:
1536:Generated_Source\PSoC5/ETH0.c **** 			}
1537:Generated_Source\PSoC5/ETH0.c **** 		}
1538:Generated_Source\PSoC5/ETH0.c **** 		/* clear the Subnet mask register */
1539:Generated_Source\PSoC5/ETH0.c **** 		ETH0_SetSubnetMask(0);
 2899              		.loc 1 1539 0 is_stmt 1
 2900 0054 0020     		movs	r0, #0
 2901 0056 FFF7FEFF 		bl	ETH0_SetSubnetMask
 2902              	.LVL353:
 2903 005a 70BD     		pop	{r4, r5, r6, pc}
 2904              	.LVL354:
 2905              	.L239:
 2906              		.cfi_def_cfa_offset 0
 2907              		.cfi_restore 4
 2908              		.cfi_restore 5
 2909              		.cfi_restore 6
 2910              		.cfi_restore 14
 2911 005c 7047     		bx	lr
 2912              	.L241:
 2913 005e 00BF     		.align	2
 2914              	.L240:
 2915 0060 00000000 		.word	.LANCHOR1
 2916              		.cfi_endproc
 2917              	.LFE94:
 2918              		.size	ETH0_TcpConnect, .-ETH0_TcpConnect
 2919              		.section	.text.ETH0_TcpConnected,"ax",%progbits
 2920              		.align	2
 2921              		.global	ETH0_TcpConnected
 2922              		.thumb
 2923              		.thumb_func
 2924              		.type	ETH0_TcpConnected, %function
 2925              	ETH0_TcpConnected:
 2926              	.LFB95:
1540:Generated_Source\PSoC5/ETH0.c **** 	}
1541:Generated_Source\PSoC5/ETH0.c **** }
1542:Generated_Source\PSoC5/ETH0.c **** /* ------------------------------------------------------------------------ */
1543:Generated_Source\PSoC5/ETH0.c **** uint8
1544:Generated_Source\PSoC5/ETH0.c **** ETH0_TcpConnected( uint8 socket )
ARM GAS  C:\Users\USUARIO\AppData\Local\Temp\cchqzDaB.s 			page 85


1545:Generated_Source\PSoC5/ETH0.c **** { return ETH0_SocketEstablished(socket); }
 2927              		.loc 1 1545 0
 2928              		.cfi_startproc
 2929              		@ args = 0, pretend = 0, frame = 0
 2930              		@ frame_needed = 0, uses_anonymous_args = 0
 2931              	.LVL355:
 2932 0000 08B5     		push	{r3, lr}
 2933              		.cfi_def_cfa_offset 8
 2934              		.cfi_offset 3, -8
 2935              		.cfi_offset 14, -4
 2936              		.loc 1 1545 0
 2937 0002 FFF7FEFF 		bl	ETH0_SocketEstablished
 2938              	.LVL356:
 2939 0006 08BD     		pop	{r3, pc}
 2940              		.cfi_endproc
 2941              	.LFE95:
 2942              		.size	ETH0_TcpConnected, .-ETH0_TcpConnected
 2943              		.section	.text.ETH0_TcpDisconnect,"ax",%progbits
 2944              		.align	2
 2945              		.global	ETH0_TcpDisconnect
 2946              		.thumb
 2947              		.thumb_func
 2948              		.type	ETH0_TcpDisconnect, %function
 2949              	ETH0_TcpDisconnect:
 2950              	.LFB96:
1546:Generated_Source\PSoC5/ETH0.c **** /* ------------------------------------------------------------------------ */
1547:Generated_Source\PSoC5/ETH0.c **** void
1548:Generated_Source\PSoC5/ETH0.c **** ETH0_TcpDisconnect( uint8 socket )
1549:Generated_Source\PSoC5/ETH0.c **** {
 2951              		.loc 1 1549 0
 2952              		.cfi_startproc
 2953              		@ args = 0, pretend = 0, frame = 0
 2954              		@ frame_needed = 0, uses_anonymous_args = 0
 2955              	.LVL357:
 2956 0000 08B5     		push	{r3, lr}
 2957              		.cfi_def_cfa_offset 8
 2958              		.cfi_offset 3, -8
 2959              		.cfi_offset 14, -4
1550:Generated_Source\PSoC5/ETH0.c **** 	ETH0_ExecuteSocketCommand(socket, 0x08);
 2960              		.loc 1 1550 0
 2961 0002 0821     		movs	r1, #8
 2962 0004 FFF7FEFF 		bl	ETH0_ExecuteSocketCommand
 2963              	.LVL358:
 2964 0008 08BD     		pop	{r3, pc}
 2965              		.cfi_endproc
 2966              	.LFE96:
 2967              		.size	ETH0_TcpDisconnect, .-ETH0_TcpDisconnect
 2968 000a 00BF     		.section	.text.ETH0_TcpSend,"ax",%progbits
 2969              		.align	2
 2970              		.global	ETH0_TcpSend
 2971              		.thumb
 2972              		.thumb_func
 2973              		.type	ETH0_TcpSend, %function
 2974              	ETH0_TcpSend:
 2975              	.LFB97:
1551:Generated_Source\PSoC5/ETH0.c **** }
1552:Generated_Source\PSoC5/ETH0.c **** /* ------------------------------------------------------------------------ */
ARM GAS  C:\Users\USUARIO\AppData\Local\Temp\cchqzDaB.s 			page 86


1553:Generated_Source\PSoC5/ETH0.c **** uint16
1554:Generated_Source\PSoC5/ETH0.c **** ETH0_TcpSend(uint8 socket, uint8* buffer, uint16 len)
1555:Generated_Source\PSoC5/ETH0.c **** {
 2976              		.loc 1 1555 0
 2977              		.cfi_startproc
 2978              		@ args = 0, pretend = 0, frame = 0
 2979              		@ frame_needed = 0, uses_anonymous_args = 0
 2980              	.LVL359:
 2981 0000 F8B5     		push	{r3, r4, r5, r6, r7, lr}
 2982              		.cfi_def_cfa_offset 24
 2983              		.cfi_offset 3, -24
 2984              		.cfi_offset 4, -20
 2985              		.cfi_offset 5, -16
 2986              		.cfi_offset 6, -12
 2987              		.cfi_offset 7, -8
 2988              		.cfi_offset 14, -4
 2989 0002 0446     		mov	r4, r0
 2990 0004 0F46     		mov	r7, r1
1556:Generated_Source\PSoC5/ETH0.c **** 	uint16 TxSize;
1557:Generated_Source\PSoC5/ETH0.c **** 	uint16 FreeSpace;
1558:Generated_Source\PSoC5/ETH0.c **** 	uint8 status;
1559:Generated_Source\PSoC5/ETH0.c **** 	
1560:Generated_Source\PSoC5/ETH0.c **** 	TxSize =  (len > 0x0800) ? 0x0800 : len;
 2991              		.loc 1 1560 0
 2992 0006 B2F5006F 		cmp	r2, #2048
 2993 000a 28BF     		it	cs
 2994 000c 4FF40062 		movcs	r2, #2048
 2995              	.LVL360:
 2996 0010 1546     		mov	r5, r2
 2997              	.LVL361:
1561:Generated_Source\PSoC5/ETH0.c **** 	/* check the connection status, and protocol of the socket */
1562:Generated_Source\PSoC5/ETH0.c **** 	status = ETH0_GetSocketStatus(socket);
 2998              		.loc 1 1562 0
 2999 0012 FFF7FEFF 		bl	ETH0_GetSocketStatus
 3000              	.LVL362:
1563:Generated_Source\PSoC5/ETH0.c **** 	if ( ( status == 0x17) && (ETH0_SocketConfig[socket].Protocol == ETH0_PROTO_TCP) ) {
 3001              		.loc 1 1563 0
 3002 0016 1728     		cmp	r0, #23
 3003 0018 20D1     		bne	.L251
 3004              		.loc 1 1563 0 is_stmt 0 discriminator 1
 3005 001a 04EB4402 		add	r2, r4, r4, lsl #1
 3006 001e 5300     		lsls	r3, r2, #1
 3007 0020 104A     		ldr	r2, .L254
 3008 0022 1344     		add	r3, r3, r2
 3009 0024 1B79     		ldrb	r3, [r3, #4]	@ zero_extendqisi2
 3010 0026 012B     		cmp	r3, #1
 3011 0028 09D0     		beq	.L252
1564:Generated_Source\PSoC5/ETH0.c **** 		/* 
1565:Generated_Source\PSoC5/ETH0.c **** 		 * The socket was open with the correct protocol and is connected to
1566:Generated_Source\PSoC5/ETH0.c **** 		 * a valid remote system. In order to send the requested packet data,
1567:Generated_Source\PSoC5/ETH0.c **** 		 * first, we must wait for the available buffer memory to be free
1568:Generated_Source\PSoC5/ETH0.c **** 		 * in the transmit buffer fifo.
1569:Generated_Source\PSoC5/ETH0.c **** 		 */
1570:Generated_Source\PSoC5/ETH0.c **** 		FreeSpace = 0;
1571:Generated_Source\PSoC5/ETH0.c **** 		status = 0x17;
1572:Generated_Source\PSoC5/ETH0.c **** 		while ( (FreeSpace < TxSize) && ( (status == 0x17) && (status != 0x1C) ) ) {
1573:Generated_Source\PSoC5/ETH0.c **** 			FreeSpace = ETH0_GetTxFreeSize( socket );
ARM GAS  C:\Users\USUARIO\AppData\Local\Temp\cchqzDaB.s 			page 87


1574:Generated_Source\PSoC5/ETH0.c **** 			status = ETH0_GetSocketStatus( socket );
1575:Generated_Source\PSoC5/ETH0.c **** 		}
1576:Generated_Source\PSoC5/ETH0.c **** 		/*
1577:Generated_Source\PSoC5/ETH0.c **** 		 * Write the data buffer to the chip Tx Buffer, then issue
1578:Generated_Source\PSoC5/ETH0.c **** 		 * the chip SEND command
1579:Generated_Source\PSoC5/ETH0.c **** 		 */
1580:Generated_Source\PSoC5/ETH0.c **** 		ETH0_ProcessTxData(socket, 0, buffer, TxSize);
1581:Generated_Source\PSoC5/ETH0.c **** 		ETH0_SocketSend( socket );
1582:Generated_Source\PSoC5/ETH0.c **** 	}
1583:Generated_Source\PSoC5/ETH0.c **** 	else {
1584:Generated_Source\PSoC5/ETH0.c **** 		/*
1585:Generated_Source\PSoC5/ETH0.c **** 		 * the socket was not establised, or there was an error, so clear
1586:Generated_Source\PSoC5/ETH0.c **** 		 * the TxSize to signal that no data has bee sent
1587:Generated_Source\PSoC5/ETH0.c **** 		 */
1588:Generated_Source\PSoC5/ETH0.c **** 		TxSize = 0;
 3012              		.loc 1 1588 0 is_stmt 1
 3013 002a 0025     		movs	r5, #0
 3014              	.LVL363:
 3015 002c 17E0     		b	.L247
 3016              	.LVL364:
 3017              	.L250:
1573:Generated_Source\PSoC5/ETH0.c **** 			status = ETH0_GetSocketStatus( socket );
 3018              		.loc 1 1573 0
 3019 002e 2046     		mov	r0, r4
 3020              	.LVL365:
 3021 0030 FFF7FEFF 		bl	ETH0_GetTxFreeSize
 3022              	.LVL366:
 3023 0034 0646     		mov	r6, r0
 3024              	.LVL367:
1574:Generated_Source\PSoC5/ETH0.c **** 		}
 3025              		.loc 1 1574 0
 3026 0036 2046     		mov	r0, r4
 3027 0038 FFF7FEFF 		bl	ETH0_GetSocketStatus
 3028              	.LVL368:
 3029 003c 00E0     		b	.L248
 3030              	.LVL369:
 3031              	.L252:
 3032 003e 0026     		movs	r6, #0
 3033              	.L248:
 3034              	.LVL370:
1572:Generated_Source\PSoC5/ETH0.c **** 			FreeSpace = ETH0_GetTxFreeSize( socket );
 3035              		.loc 1 1572 0
 3036 0040 AE42     		cmp	r6, r5
 3037 0042 01D2     		bcs	.L249
1572:Generated_Source\PSoC5/ETH0.c **** 			FreeSpace = ETH0_GetTxFreeSize( socket );
 3038              		.loc 1 1572 0 is_stmt 0 discriminator 1
 3039 0044 1728     		cmp	r0, #23
 3040 0046 F2D0     		beq	.L250
 3041              	.L249:
1580:Generated_Source\PSoC5/ETH0.c **** 		ETH0_SocketSend( socket );
 3042              		.loc 1 1580 0 is_stmt 1
 3043 0048 2B46     		mov	r3, r5
 3044 004a 3A46     		mov	r2, r7
 3045 004c 0021     		movs	r1, #0
 3046 004e 2046     		mov	r0, r4
 3047              	.LVL371:
 3048 0050 FFF7FEFF 		bl	ETH0_ProcessTxData
ARM GAS  C:\Users\USUARIO\AppData\Local\Temp\cchqzDaB.s 			page 88


 3049              	.LVL372:
1581:Generated_Source\PSoC5/ETH0.c **** 	}
 3050              		.loc 1 1581 0
 3051 0054 2046     		mov	r0, r4
 3052 0056 FFF7FEFF 		bl	ETH0_SocketSend
 3053              	.LVL373:
 3054 005a 00E0     		b	.L247
 3055              	.LVL374:
 3056              	.L251:
 3057              		.loc 1 1588 0
 3058 005c 0025     		movs	r5, #0
 3059              	.LVL375:
 3060              	.L247:
1589:Generated_Source\PSoC5/ETH0.c **** 	}
1590:Generated_Source\PSoC5/ETH0.c **** 	return TxSize;
1591:Generated_Source\PSoC5/ETH0.c **** }
 3061              		.loc 1 1591 0
 3062 005e 2846     		mov	r0, r5
 3063 0060 F8BD     		pop	{r3, r4, r5, r6, r7, pc}
 3064              	.LVL376:
 3065              	.L255:
 3066 0062 00BF     		.align	2
 3067              	.L254:
 3068 0064 00000000 		.word	.LANCHOR1
 3069              		.cfi_endproc
 3070              	.LFE97:
 3071              		.size	ETH0_TcpSend, .-ETH0_TcpSend
 3072              		.section	.text.ETH0_TcpReceive,"ax",%progbits
 3073              		.align	2
 3074              		.global	ETH0_TcpReceive
 3075              		.thumb
 3076              		.thumb_func
 3077              		.type	ETH0_TcpReceive, %function
 3078              	ETH0_TcpReceive:
 3079              	.LFB98:
1592:Generated_Source\PSoC5/ETH0.c **** /* ------------------------------------------------------------------------ */
1593:Generated_Source\PSoC5/ETH0.c **** uint16
1594:Generated_Source\PSoC5/ETH0.c **** ETH0_TcpReceive( uint8 socket, uint8* buffer, uint16 length )
1595:Generated_Source\PSoC5/ETH0.c **** {
 3080              		.loc 1 1595 0
 3081              		.cfi_startproc
 3082              		@ args = 0, pretend = 0, frame = 0
 3083              		@ frame_needed = 0, uses_anonymous_args = 0
 3084              	.LVL377:
 3085 0000 70B5     		push	{r4, r5, r6, lr}
 3086              		.cfi_def_cfa_offset 16
 3087              		.cfi_offset 4, -16
 3088              		.cfi_offset 5, -12
 3089              		.cfi_offset 6, -8
 3090              		.cfi_offset 14, -4
 3091 0002 82B0     		sub	sp, sp, #8
 3092              		.cfi_def_cfa_offset 24
 3093 0004 0546     		mov	r5, r0
 3094 0006 0E46     		mov	r6, r1
 3095 0008 1446     		mov	r4, r2
1596:Generated_Source\PSoC5/ETH0.c **** 	uint16 RxSize;
1597:Generated_Source\PSoC5/ETH0.c **** 
ARM GAS  C:\Users\USUARIO\AppData\Local\Temp\cchqzDaB.s 			page 89


1598:Generated_Source\PSoC5/ETH0.c **** 	/*
1599:Generated_Source\PSoC5/ETH0.c **** 	 * First thing to do is to check to see if the socket is connected
1600:Generated_Source\PSoC5/ETH0.c **** 	 * and that there is data waiting
1601:Generated_Source\PSoC5/ETH0.c **** 	 */
1602:Generated_Source\PSoC5/ETH0.c **** //	RxSize = 0;
1603:Generated_Source\PSoC5/ETH0.c **** 
1604:Generated_Source\PSoC5/ETH0.c **** //	if ( ETH0_GetSocketStatus( socket ) == 0x17) {
1605:Generated_Source\PSoC5/ETH0.c **** 		/*
1606:Generated_Source\PSoC5/ETH0.c **** 		 * read the number of waiting bytes in the buffer memory
1607:Generated_Source\PSoC5/ETH0.c **** 		 * but, clip the length of data read to the requested
1608:Generated_Source\PSoC5/ETH0.c **** 		 * length of data.
1609:Generated_Source\PSoC5/ETH0.c **** 		 */
1610:Generated_Source\PSoC5/ETH0.c **** 		RxSize = ETH0_GetRxSize( socket );
 3096              		.loc 1 1610 0
 3097 000a FFF7FEFF 		bl	ETH0_GetRxSize
 3098              	.LVL378:
1611:Generated_Source\PSoC5/ETH0.c **** 		RxSize = (RxSize > length) ? length : RxSize;
 3099              		.loc 1 1611 0
 3100 000e A042     		cmp	r0, r4
 3101 0010 28BF     		it	cs
 3102 0012 2046     		movcs	r0, r4
 3103              	.LVL379:
 3104 0014 84B2     		uxth	r4, r0
 3105              	.LVL380:
1612:Generated_Source\PSoC5/ETH0.c **** 		/* If there was waiting data, read it from the buffer */
1613:Generated_Source\PSoC5/ETH0.c **** 		if (RxSize > 0) {
 3106              		.loc 1 1613 0
 3107 0016 54B1     		cbz	r4, .L257
1614:Generated_Source\PSoC5/ETH0.c **** 			ETH0_ProcessRxData( socket, 0, buffer, RxSize, 0);
 3108              		.loc 1 1614 0
 3109 0018 0021     		movs	r1, #0
 3110 001a 0091     		str	r1, [sp]
 3111 001c 2346     		mov	r3, r4
 3112 001e 3246     		mov	r2, r6
 3113 0020 2846     		mov	r0, r5
 3114 0022 FFF7FEFF 		bl	ETH0_ProcessRxData
 3115              	.LVL381:
1615:Generated_Source\PSoC5/ETH0.c **** 			/* 
1616:Generated_Source\PSoC5/ETH0.c **** 			 * after reading the buffer data, send the receive command
1617:Generated_Source\PSoC5/ETH0.c **** 			 * to the socket so that the W5100 completes the read
1618:Generated_Source\PSoC5/ETH0.c **** 			 */
1619:Generated_Source\PSoC5/ETH0.c **** 			ETH0_ExecuteSocketCommand(socket, 0x40);
 3116              		.loc 1 1619 0
 3117 0026 4021     		movs	r1, #64
 3118 0028 2846     		mov	r0, r5
 3119 002a FFF7FEFF 		bl	ETH0_ExecuteSocketCommand
 3120              	.LVL382:
 3121              	.L257:
1620:Generated_Source\PSoC5/ETH0.c **** 		}
1621:Generated_Source\PSoC5/ETH0.c **** //	}
1622:Generated_Source\PSoC5/ETH0.c **** 	
1623:Generated_Source\PSoC5/ETH0.c **** 	/* return the number of read bytes from the buffer memory */
1624:Generated_Source\PSoC5/ETH0.c **** 	return RxSize;
1625:Generated_Source\PSoC5/ETH0.c **** }
 3122              		.loc 1 1625 0
 3123 002e 2046     		mov	r0, r4
 3124 0030 02B0     		add	sp, sp, #8
ARM GAS  C:\Users\USUARIO\AppData\Local\Temp\cchqzDaB.s 			page 90


 3125              		.cfi_def_cfa_offset 16
 3126              		@ sp needed
 3127 0032 70BD     		pop	{r4, r5, r6, pc}
 3128              		.cfi_endproc
 3129              	.LFE98:
 3130              		.size	ETH0_TcpReceive, .-ETH0_TcpReceive
 3131              		.section	.text.ETH0_TcpPrint,"ax",%progbits
 3132              		.align	2
 3133              		.global	ETH0_TcpPrint
 3134              		.thumb
 3135              		.thumb_func
 3136              		.type	ETH0_TcpPrint, %function
 3137              	ETH0_TcpPrint:
 3138              	.LFB99:
1626:Generated_Source\PSoC5/ETH0.c **** /* ------------------------------------------------------------------------ */
1627:Generated_Source\PSoC5/ETH0.c **** void
1628:Generated_Source\PSoC5/ETH0.c **** ETH0_TcpPrint( uint8 socket, const char* str )
1629:Generated_Source\PSoC5/ETH0.c **** {
 3139              		.loc 1 1629 0
 3140              		.cfi_startproc
 3141              		@ args = 0, pretend = 0, frame = 0
 3142              		@ frame_needed = 0, uses_anonymous_args = 0
 3143              	.LVL383:
 3144 0000 38B5     		push	{r3, r4, r5, lr}
 3145              		.cfi_def_cfa_offset 16
 3146              		.cfi_offset 3, -16
 3147              		.cfi_offset 4, -12
 3148              		.cfi_offset 5, -8
 3149              		.cfi_offset 14, -4
 3150 0002 0546     		mov	r5, r0
 3151 0004 0C46     		mov	r4, r1
1630:Generated_Source\PSoC5/ETH0.c **** 	ETH0_TcpSend(socket, (uint8*)str, strlen(str));
 3152              		.loc 1 1630 0
 3153 0006 0846     		mov	r0, r1
 3154              	.LVL384:
 3155 0008 FFF7FEFF 		bl	strlen
 3156              	.LVL385:
 3157 000c 82B2     		uxth	r2, r0
 3158 000e 2146     		mov	r1, r4
 3159 0010 2846     		mov	r0, r5
 3160 0012 FFF7FEFF 		bl	ETH0_TcpSend
 3161              	.LVL386:
 3162 0016 38BD     		pop	{r3, r4, r5, pc}
 3163              		.cfi_endproc
 3164              	.LFE99:
 3165              		.size	ETH0_TcpPrint, .-ETH0_TcpPrint
 3166              		.global	ETH0_SOCKET_RX_BASE
 3167              		.global	ETH0_SOCKET_TX_BASE
 3168              		.section	.rodata
 3169              		.align	2
 3170              		.set	.LANCHOR0,. + 0
 3171              		.type	ETH0_SOCKET_TX_BASE, %object
 3172              		.size	ETH0_SOCKET_TX_BASE, 8
 3173              	ETH0_SOCKET_TX_BASE:
 3174 0000 0040     		.short	16384
 3175 0002 0048     		.short	18432
 3176 0004 0050     		.short	20480
ARM GAS  C:\Users\USUARIO\AppData\Local\Temp\cchqzDaB.s 			page 91


 3177 0006 0058     		.short	22528
 3178              		.type	ETH0_SOCKET_RX_BASE, %object
 3179              		.size	ETH0_SOCKET_RX_BASE, 8
 3180              	ETH0_SOCKET_RX_BASE:
 3181 0008 0060     		.short	24576
 3182 000a 0068     		.short	26624
 3183 000c 0070     		.short	28672
 3184 000e 0078     		.short	30720
 3185              		.section	.rodata.str1.4,"aMS",%progbits,1
 3186              		.align	2
 3187              	.LC0:
 3188 0000 30783030 		.ascii	"0x00, 0xDE, 0xAD, 0xBE, 0xEF, 0x00\000"
 3188      2C203078 
 3188      44452C20 
 3188      30784144 
 3188      2C203078 
 3189 0023 00       		.space	1
 3190              	.LC1:
 3191 0024 3139322E 		.ascii	"192.168.0.80\000"
 3191      3136382E 
 3191      302E3830 
 3191      00
 3192 0031 000000   		.space	3
 3193              	.LC2:
 3194 0034 3235352E 		.ascii	"255.255.255.0\000"
 3194      3235352E 
 3194      3235352E 
 3194      3000
 3195 0042 0000     		.space	2
 3196              	.LC3:
 3197 0044 3139322E 		.ascii	"192.168.0.1\000"
 3197      3136382E 
 3197      302E3100 
 3198              		.bss
 3199              		.align	2
 3200              		.set	.LANCHOR1,. + 0
 3201              		.type	ETH0_SubnetMask, %object
 3202              		.size	ETH0_SubnetMask, 4
 3203              	ETH0_SubnetMask:
 3204 0000 00000000 		.space	4
 3205              		.type	ETH0_SocketConfig, %object
 3206              		.size	ETH0_SocketConfig, 24
 3207              	ETH0_SocketConfig:
 3208 0004 00000000 		.space	24
 3208      00000000 
 3208      00000000 
 3208      00000000 
 3208      00000000 
 3209              		.type	ETH0_MAC, %object
 3210              		.size	ETH0_MAC, 6
 3211              	ETH0_MAC:
 3212 001c 00000000 		.space	6
 3212      0000
 3213              		.text
 3214              	.Letext0:
 3215              		.file 2 "Generated_Source\\PSoC5/cytypes.h"
 3216              		.file 3 "Generated_Source\\PSoC5/cylib.h"
ARM GAS  C:\Users\USUARIO\AppData\Local\Temp\cchqzDaB.s 			page 92


 3217              		.file 4 "Generated_Source\\PSoC5/SPI0.h"
 3218              		.file 5 "c:\\program files (x86)\\cypress\\psoc creator\\4.4\\psoc creator\\import\\gnu\\arm\\5.4.
 3219              		.section	.debug_info,"",%progbits
 3220              	.Ldebug_info0:
 3221 0000 461C0000 		.4byte	0x1c46
 3222 0004 0400     		.2byte	0x4
 3223 0006 00000000 		.4byte	.Ldebug_abbrev0
 3224 000a 04       		.byte	0x4
 3225 000b 01       		.uleb128 0x1
 3226 000c 1A020000 		.4byte	.LASF134
 3227 0010 0C       		.byte	0xc
 3228 0011 39080000 		.4byte	.LASF135
 3229 0015 7B060000 		.4byte	.LASF136
 3230 0019 00000000 		.4byte	.Ldebug_ranges0+0
 3231 001d 00000000 		.4byte	0
 3232 0021 00000000 		.4byte	.Ldebug_line0
 3233 0025 02       		.uleb128 0x2
 3234 0026 01       		.byte	0x1
 3235 0027 06       		.byte	0x6
 3236 0028 DE070000 		.4byte	.LASF0
 3237 002c 02       		.uleb128 0x2
 3238 002d 01       		.byte	0x1
 3239 002e 08       		.byte	0x8
 3240 002f 48070000 		.4byte	.LASF1
 3241 0033 02       		.uleb128 0x2
 3242 0034 02       		.byte	0x2
 3243 0035 05       		.byte	0x5
 3244 0036 3E050000 		.4byte	.LASF2
 3245 003a 02       		.uleb128 0x2
 3246 003b 02       		.byte	0x2
 3247 003c 07       		.byte	0x7
 3248 003d EA070000 		.4byte	.LASF3
 3249 0041 02       		.uleb128 0x2
 3250 0042 04       		.byte	0x4
 3251 0043 05       		.byte	0x5
 3252 0044 48050000 		.4byte	.LASF4
 3253 0048 02       		.uleb128 0x2
 3254 0049 04       		.byte	0x4
 3255 004a 07       		.byte	0x7
 3256 004b 56060000 		.4byte	.LASF5
 3257 004f 02       		.uleb128 0x2
 3258 0050 08       		.byte	0x8
 3259 0051 05       		.byte	0x5
 3260 0052 05040000 		.4byte	.LASF6
 3261 0056 02       		.uleb128 0x2
 3262 0057 08       		.byte	0x8
 3263 0058 07       		.byte	0x7
 3264 0059 DC010000 		.4byte	.LASF7
 3265 005d 03       		.uleb128 0x3
 3266 005e 04       		.byte	0x4
 3267 005f 05       		.byte	0x5
 3268 0060 696E7400 		.ascii	"int\000"
 3269 0064 02       		.uleb128 0x2
 3270 0065 04       		.byte	0x4
 3271 0066 07       		.byte	0x7
 3272 0067 80000000 		.4byte	.LASF8
 3273 006b 04       		.uleb128 0x4
ARM GAS  C:\Users\USUARIO\AppData\Local\Temp\cchqzDaB.s 			page 93


 3274 006c 2C080000 		.4byte	.LASF9
 3275 0070 02       		.byte	0x2
 3276 0071 9201     		.2byte	0x192
 3277 0073 2C000000 		.4byte	0x2c
 3278 0077 04       		.uleb128 0x4
 3279 0078 7B030000 		.4byte	.LASF10
 3280 007c 02       		.byte	0x2
 3281 007d 9301     		.2byte	0x193
 3282 007f 3A000000 		.4byte	0x3a
 3283 0083 04       		.uleb128 0x4
 3284 0084 8A040000 		.4byte	.LASF11
 3285 0088 02       		.byte	0x2
 3286 0089 9401     		.2byte	0x194
 3287 008b 48000000 		.4byte	0x48
 3288 008f 02       		.uleb128 0x2
 3289 0090 04       		.byte	0x4
 3290 0091 04       		.byte	0x4
 3291 0092 B4010000 		.4byte	.LASF12
 3292 0096 02       		.uleb128 0x2
 3293 0097 08       		.byte	0x8
 3294 0098 04       		.byte	0x4
 3295 0099 32080000 		.4byte	.LASF13
 3296 009d 02       		.uleb128 0x2
 3297 009e 01       		.byte	0x1
 3298 009f 08       		.byte	0x8
 3299 00a0 67030000 		.4byte	.LASF14
 3300 00a4 04       		.uleb128 0x4
 3301 00a5 2E070000 		.4byte	.LASF15
 3302 00a9 02       		.byte	0x2
 3303 00aa 3402     		.2byte	0x234
 3304 00ac 48000000 		.4byte	0x48
 3305 00b0 02       		.uleb128 0x2
 3306 00b1 08       		.byte	0x8
 3307 00b2 04       		.byte	0x4
 3308 00b3 05050000 		.4byte	.LASF16
 3309 00b7 02       		.uleb128 0x2
 3310 00b8 04       		.byte	0x4
 3311 00b9 07       		.byte	0x7
 3312 00ba 3B060000 		.4byte	.LASF17
 3313 00be 05       		.uleb128 0x5
 3314 00bf 04       		.byte	0x4
 3315 00c0 9D000000 		.4byte	0x9d
 3316 00c4 05       		.uleb128 0x5
 3317 00c5 04       		.byte	0x4
 3318 00c6 CA000000 		.4byte	0xca
 3319 00ca 06       		.uleb128 0x6
 3320 00cb 9D000000 		.4byte	0x9d
 3321 00cf 07       		.uleb128 0x7
 3322 00d0 06       		.byte	0x6
 3323 00d1 01       		.byte	0x1
 3324 00d2 2E       		.byte	0x2e
 3325 00d3 08010000 		.4byte	0x108
 3326 00d7 08       		.uleb128 0x8
 3327 00d8 71040000 		.4byte	.LASF18
 3328 00dc 01       		.byte	0x1
 3329 00dd 30       		.byte	0x30
 3330 00de 6B000000 		.4byte	0x6b
ARM GAS  C:\Users\USUARIO\AppData\Local\Temp\cchqzDaB.s 			page 94


 3331 00e2 00       		.byte	0
 3332 00e3 08       		.uleb128 0x8
 3333 00e4 22070000 		.4byte	.LASF19
 3334 00e8 01       		.byte	0x1
 3335 00e9 31       		.byte	0x31
 3336 00ea 6B000000 		.4byte	0x6b
 3337 00ee 01       		.byte	0x1
 3338 00ef 08       		.uleb128 0x8
 3339 00f0 FE020000 		.4byte	.LASF20
 3340 00f4 01       		.byte	0x1
 3341 00f5 32       		.byte	0x32
 3342 00f6 77000000 		.4byte	0x77
 3343 00fa 02       		.byte	0x2
 3344 00fb 08       		.uleb128 0x8
 3345 00fc 40010000 		.4byte	.LASF21
 3346 0100 01       		.byte	0x1
 3347 0101 33       		.byte	0x33
 3348 0102 6B000000 		.4byte	0x6b
 3349 0106 04       		.byte	0x4
 3350 0107 00       		.byte	0
 3351 0108 09       		.uleb128 0x9
 3352 0109 25050000 		.4byte	.LASF22
 3353 010d 01       		.byte	0x1
 3354 010e 34       		.byte	0x34
 3355 010f CF000000 		.4byte	0xcf
 3356 0113 0A       		.uleb128 0xa
 3357 0114 08000000 		.4byte	.LASF87
 3358 0118 01       		.byte	0x1
 3359 0119 82       		.byte	0x82
 3360 011a 00000000 		.4byte	.LFB1
 3361 011e 36000000 		.4byte	.LFE1-.LFB1
 3362 0122 01       		.uleb128 0x1
 3363 0123 9C       		.byte	0x9c
 3364 0124 BA010000 		.4byte	0x1ba
 3365 0128 0B       		.uleb128 0xb
 3366 0129 AB070000 		.4byte	.LASF23
 3367 012d 01       		.byte	0x1
 3368 012e 82       		.byte	0x82
 3369 012f 77000000 		.4byte	0x77
 3370 0133 00000000 		.4byte	.LLST0
 3371 0137 0C       		.uleb128 0xc
 3372 0138 64617400 		.ascii	"dat\000"
 3373 013c 01       		.byte	0x1
 3374 013d 82       		.byte	0x82
 3375 013e 6B000000 		.4byte	0x6b
 3376 0142 21000000 		.4byte	.LLST1
 3377 0146 0D       		.uleb128 0xd
 3378 0147 0E000000 		.4byte	.LVL2
 3379 014b E61B0000 		.4byte	0x1be6
 3380 014f 59010000 		.4byte	0x159
 3381 0153 0E       		.uleb128 0xe
 3382 0154 01       		.uleb128 0x1
 3383 0155 50       		.byte	0x50
 3384 0156 01       		.uleb128 0x1
 3385 0157 31       		.byte	0x31
 3386 0158 00       		.byte	0
 3387 0159 0F       		.uleb128 0xf
ARM GAS  C:\Users\USUARIO\AppData\Local\Temp\cchqzDaB.s 			page 95


 3388 015a 12000000 		.4byte	.LVL3
 3389 015e F11B0000 		.4byte	0x1bf1
 3390 0162 0F       		.uleb128 0xf
 3391 0163 1C000000 		.4byte	.LVL4
 3392 0167 FC1B0000 		.4byte	0x1bfc
 3393 016b 0D       		.uleb128 0xd
 3394 016c 22000000 		.4byte	.LVL5
 3395 0170 071C0000 		.4byte	0x1c07
 3396 0174 7F010000 		.4byte	0x17f
 3397 0178 0E       		.uleb128 0xe
 3398 0179 01       		.uleb128 0x1
 3399 017a 50       		.byte	0x50
 3400 017b 02       		.uleb128 0x2
 3401 017c 09       		.byte	0x9
 3402 017d F0       		.byte	0xf0
 3403 017e 00       		.byte	0
 3404 017f 0D       		.uleb128 0xd
 3405 0180 28000000 		.4byte	.LVL6
 3406 0184 071C0000 		.4byte	0x1c07
 3407 0188 95010000 		.4byte	0x195
 3408 018c 0E       		.uleb128 0xe
 3409 018d 01       		.uleb128 0x1
 3410 018e 50       		.byte	0x50
 3411 018f 04       		.uleb128 0x4
 3412 0190 74       		.byte	0x74
 3413 0191 00       		.sleb128 0
 3414 0192 38       		.byte	0x38
 3415 0193 25       		.byte	0x25
 3416 0194 00       		.byte	0
 3417 0195 0D       		.uleb128 0xd
 3418 0196 2E000000 		.4byte	.LVL7
 3419 019a 071C0000 		.4byte	0x1c07
 3420 019e A9010000 		.4byte	0x1a9
 3421 01a2 0E       		.uleb128 0xe
 3422 01a3 01       		.uleb128 0x1
 3423 01a4 50       		.byte	0x50
 3424 01a5 02       		.uleb128 0x2
 3425 01a6 74       		.byte	0x74
 3426 01a7 00       		.sleb128 0
 3427 01a8 00       		.byte	0
 3428 01a9 10       		.uleb128 0x10
 3429 01aa 34000000 		.4byte	.LVL8
 3430 01ae 071C0000 		.4byte	0x1c07
 3431 01b2 0E       		.uleb128 0xe
 3432 01b3 01       		.uleb128 0x1
 3433 01b4 50       		.byte	0x50
 3434 01b5 02       		.uleb128 0x2
 3435 01b6 75       		.byte	0x75
 3436 01b7 00       		.sleb128 0
 3437 01b8 00       		.byte	0
 3438 01b9 00       		.byte	0
 3439 01ba 11       		.uleb128 0x11
 3440 01bb F1020000 		.4byte	.LASF25
 3441 01bf 01       		.byte	0x1
 3442 01c0 0702     		.2byte	0x207
 3443 01c2 00000000 		.4byte	.LFB19
 3444 01c6 0C000000 		.4byte	.LFE19-.LFB19
ARM GAS  C:\Users\USUARIO\AppData\Local\Temp\cchqzDaB.s 			page 96


 3445 01ca 01       		.uleb128 0x1
 3446 01cb 9C       		.byte	0x9c
 3447 01cc F0010000 		.4byte	0x1f0
 3448 01d0 12       		.uleb128 0x12
 3449 01d1 07010000 		.4byte	.LASF24
 3450 01d5 01       		.byte	0x1
 3451 01d6 0702     		.2byte	0x207
 3452 01d8 6B000000 		.4byte	0x6b
 3453 01dc 42000000 		.4byte	.LLST2
 3454 01e0 10       		.uleb128 0x10
 3455 01e1 0A000000 		.4byte	.LVL11
 3456 01e5 13010000 		.4byte	0x113
 3457 01e9 0E       		.uleb128 0xe
 3458 01ea 01       		.uleb128 0x1
 3459 01eb 50       		.byte	0x50
 3460 01ec 01       		.uleb128 0x1
 3461 01ed 30       		.byte	0x30
 3462 01ee 00       		.byte	0
 3463 01ef 00       		.byte	0
 3464 01f0 11       		.uleb128 0x11
 3465 01f1 9A000000 		.4byte	.LASF26
 3466 01f5 01       		.byte	0x1
 3467 01f6 4F02     		.2byte	0x24f
 3468 01f8 00000000 		.4byte	.LFB31
 3469 01fc 0C000000 		.4byte	.LFE31-.LFB31
 3470 0200 01       		.uleb128 0x1
 3471 0201 9C       		.byte	0x9c
 3472 0202 26020000 		.4byte	0x226
 3473 0206 12       		.uleb128 0x12
 3474 0207 85040000 		.4byte	.LASF27
 3475 020b 01       		.byte	0x1
 3476 020c 4F02     		.2byte	0x24f
 3477 020e 6B000000 		.4byte	0x6b
 3478 0212 63000000 		.4byte	.LLST3
 3479 0216 10       		.uleb128 0x10
 3480 0217 0A000000 		.4byte	.LVL14
 3481 021b 13010000 		.4byte	0x113
 3482 021f 0E       		.uleb128 0xe
 3483 0220 01       		.uleb128 0x1
 3484 0221 50       		.byte	0x50
 3485 0222 01       		.uleb128 0x1
 3486 0223 4B       		.byte	0x4b
 3487 0224 00       		.byte	0
 3488 0225 00       		.byte	0
 3489 0226 11       		.uleb128 0x11
 3490 0227 2B040000 		.4byte	.LASF28
 3491 022b 01       		.byte	0x1
 3492 022c 4302     		.2byte	0x243
 3493 022e 00000000 		.4byte	.LFB29
 3494 0232 0C000000 		.4byte	.LFE29-.LFB29
 3495 0236 01       		.uleb128 0x1
 3496 0237 9C       		.byte	0x9c
 3497 0238 5C020000 		.4byte	0x25c
 3498 023c 12       		.uleb128 0x12
 3499 023d 85040000 		.4byte	.LASF27
 3500 0241 01       		.byte	0x1
 3501 0242 4302     		.2byte	0x243
ARM GAS  C:\Users\USUARIO\AppData\Local\Temp\cchqzDaB.s 			page 97


 3502 0244 6B000000 		.4byte	0x6b
 3503 0248 84000000 		.4byte	.LLST4
 3504 024c 10       		.uleb128 0x10
 3505 024d 0A000000 		.4byte	.LVL17
 3506 0251 13010000 		.4byte	0x113
 3507 0255 0E       		.uleb128 0xe
 3508 0256 01       		.uleb128 0x1
 3509 0257 50       		.byte	0x50
 3510 0258 01       		.uleb128 0x1
 3511 0259 4A       		.byte	0x4a
 3512 025a 00       		.byte	0
 3513 025b 00       		.byte	0
 3514 025c 11       		.uleb128 0x11
 3515 025d 6C030000 		.4byte	.LASF29
 3516 0261 01       		.byte	0x1
 3517 0262 7601     		.2byte	0x176
 3518 0264 00000000 		.4byte	.LFB5
 3519 0268 22000000 		.4byte	.LFE5-.LFB5
 3520 026c 01       		.uleb128 0x1
 3521 026d 9C       		.byte	0x9c
 3522 026e C5020000 		.4byte	0x2c5
 3523 0272 12       		.uleb128 0x12
 3524 0273 AB070000 		.4byte	.LASF23
 3525 0277 01       		.byte	0x1
 3526 0278 7601     		.2byte	0x176
 3527 027a 77000000 		.4byte	0x77
 3528 027e A5000000 		.4byte	.LLST5
 3529 0282 13       		.uleb128 0x13
 3530 0283 697000   		.ascii	"ip\000"
 3531 0286 01       		.byte	0x1
 3532 0287 7601     		.2byte	0x176
 3533 0289 83000000 		.4byte	0x83
 3534 028d C6000000 		.4byte	.LLST6
 3535 0291 14       		.uleb128 0x14
 3536 0292 C5010000 		.4byte	.LASF30
 3537 0296 01       		.byte	0x1
 3538 0297 7801     		.2byte	0x178
 3539 0299 83000000 		.4byte	0x83
 3540 029d FD000000 		.4byte	.LLST7
 3541 02a1 14       		.uleb128 0x14
 3542 02a2 4B000000 		.4byte	.LASF31
 3543 02a6 01       		.byte	0x1
 3544 02a7 7901     		.2byte	0x179
 3545 02a9 C5020000 		.4byte	0x2c5
 3546 02ad 1C010000 		.4byte	.LLST8
 3547 02b1 10       		.uleb128 0x10
 3548 02b2 18000000 		.4byte	.LVL22
 3549 02b6 13010000 		.4byte	0x113
 3550 02ba 0E       		.uleb128 0xe
 3551 02bb 01       		.uleb128 0x1
 3552 02bc 50       		.byte	0x50
 3553 02bd 05       		.uleb128 0x5
 3554 02be 75       		.byte	0x75
 3555 02bf 00       		.sleb128 0
 3556 02c0 74       		.byte	0x74
 3557 02c1 00       		.sleb128 0
 3558 02c2 22       		.byte	0x22
ARM GAS  C:\Users\USUARIO\AppData\Local\Temp\cchqzDaB.s 			page 98


 3559 02c3 00       		.byte	0
 3560 02c4 00       		.byte	0
 3561 02c5 05       		.uleb128 0x5
 3562 02c6 04       		.byte	0x4
 3563 02c7 6B000000 		.4byte	0x6b
 3564 02cb 11       		.uleb128 0x11
 3565 02cc FD070000 		.4byte	.LASF32
 3566 02d0 01       		.byte	0x1
 3567 02d1 E301     		.2byte	0x1e3
 3568 02d3 00000000 		.4byte	.LFB13
 3569 02d7 0C000000 		.4byte	.LFE13-.LFB13
 3570 02db 01       		.uleb128 0x1
 3571 02dc 9C       		.byte	0x9c
 3572 02dd 07030000 		.4byte	0x307
 3573 02e1 13       		.uleb128 0x13
 3574 02e2 697000   		.ascii	"ip\000"
 3575 02e5 01       		.byte	0x1
 3576 02e6 E301     		.2byte	0x1e3
 3577 02e8 83000000 		.4byte	0x83
 3578 02ec 49010000 		.4byte	.LLST9
 3579 02f0 10       		.uleb128 0x10
 3580 02f1 0A000000 		.4byte	.LVL26
 3581 02f5 5C020000 		.4byte	0x25c
 3582 02f9 0E       		.uleb128 0xe
 3583 02fa 01       		.uleb128 0x1
 3584 02fb 50       		.byte	0x50
 3585 02fc 01       		.uleb128 0x1
 3586 02fd 31       		.byte	0x31
 3587 02fe 0E       		.uleb128 0xe
 3588 02ff 01       		.uleb128 0x1
 3589 0300 51       		.byte	0x51
 3590 0301 03       		.uleb128 0x3
 3591 0302 F3       		.byte	0xf3
 3592 0303 01       		.uleb128 0x1
 3593 0304 50       		.byte	0x50
 3594 0305 00       		.byte	0
 3595 0306 00       		.byte	0
 3596 0307 11       		.uleb128 0x11
 3597 0308 F6000000 		.4byte	.LASF33
 3598 030c 01       		.byte	0x1
 3599 030d FB01     		.2byte	0x1fb
 3600 030f 00000000 		.4byte	.LFB17
 3601 0313 0C000000 		.4byte	.LFE17-.LFB17
 3602 0317 01       		.uleb128 0x1
 3603 0318 9C       		.byte	0x9c
 3604 0319 43030000 		.4byte	0x343
 3605 031d 13       		.uleb128 0x13
 3606 031e 697000   		.ascii	"ip\000"
 3607 0321 01       		.byte	0x1
 3608 0322 FB01     		.2byte	0x1fb
 3609 0324 83000000 		.4byte	0x83
 3610 0328 75010000 		.4byte	.LLST10
 3611 032c 10       		.uleb128 0x10
 3612 032d 0A000000 		.4byte	.LVL29
 3613 0331 5C020000 		.4byte	0x25c
 3614 0335 0E       		.uleb128 0xe
 3615 0336 01       		.uleb128 0x1
ARM GAS  C:\Users\USUARIO\AppData\Local\Temp\cchqzDaB.s 			page 99


 3616 0337 50       		.byte	0x50
 3617 0338 01       		.uleb128 0x1
 3618 0339 3F       		.byte	0x3f
 3619 033a 0E       		.uleb128 0xe
 3620 033b 01       		.uleb128 0x1
 3621 033c 51       		.byte	0x51
 3622 033d 03       		.uleb128 0x3
 3623 033e F3       		.byte	0xf3
 3624 033f 01       		.uleb128 0x1
 3625 0340 50       		.byte	0x50
 3626 0341 00       		.byte	0
 3627 0342 00       		.byte	0
 3628 0343 11       		.uleb128 0x11
 3629 0344 B9040000 		.4byte	.LASF34
 3630 0348 01       		.byte	0x1
 3631 0349 EF01     		.2byte	0x1ef
 3632 034b 00000000 		.4byte	.LFB15
 3633 034f 0C000000 		.4byte	.LFE15-.LFB15
 3634 0353 01       		.uleb128 0x1
 3635 0354 9C       		.byte	0x9c
 3636 0355 7F030000 		.4byte	0x37f
 3637 0359 13       		.uleb128 0x13
 3638 035a 697000   		.ascii	"ip\000"
 3639 035d 01       		.byte	0x1
 3640 035e EF01     		.2byte	0x1ef
 3641 0360 83000000 		.4byte	0x83
 3642 0364 A1010000 		.4byte	.LLST11
 3643 0368 10       		.uleb128 0x10
 3644 0369 0A000000 		.4byte	.LVL32
 3645 036d 5C020000 		.4byte	0x25c
 3646 0371 0E       		.uleb128 0xe
 3647 0372 01       		.uleb128 0x1
 3648 0373 50       		.byte	0x50
 3649 0374 01       		.uleb128 0x1
 3650 0375 35       		.byte	0x35
 3651 0376 0E       		.uleb128 0xe
 3652 0377 01       		.uleb128 0x1
 3653 0378 51       		.byte	0x51
 3654 0379 03       		.uleb128 0x3
 3655 037a F3       		.byte	0xf3
 3656 037b 01       		.uleb128 0x1
 3657 037c 50       		.byte	0x50
 3658 037d 00       		.byte	0
 3659 037e 00       		.byte	0
 3660 037f 11       		.uleb128 0x11
 3661 0380 9F010000 		.4byte	.LASF35
 3662 0384 01       		.byte	0x1
 3663 0385 DF02     		.2byte	0x2df
 3664 0387 00000000 		.4byte	.LFB49
 3665 038b 10000000 		.4byte	.LFE49-.LFB49
 3666 038f 01       		.uleb128 0x1
 3667 0390 9C       		.byte	0x9c
 3668 0391 C6030000 		.4byte	0x3c6
 3669 0395 12       		.uleb128 0x12
 3670 0396 C9050000 		.4byte	.LASF36
 3671 039a 01       		.byte	0x1
 3672 039b DF02     		.2byte	0x2df
ARM GAS  C:\Users\USUARIO\AppData\Local\Temp\cchqzDaB.s 			page 100


 3673 039d 6B000000 		.4byte	0x6b
 3674 03a1 CD010000 		.4byte	.LLST12
 3675 03a5 13       		.uleb128 0x13
 3676 03a6 697000   		.ascii	"ip\000"
 3677 03a9 01       		.byte	0x1
 3678 03aa DF02     		.2byte	0x2df
 3679 03ac 83000000 		.4byte	0x83
 3680 03b0 EE010000 		.4byte	.LLST13
 3681 03b4 10       		.uleb128 0x10
 3682 03b5 0E000000 		.4byte	.LVL35
 3683 03b9 5C020000 		.4byte	0x25c
 3684 03bd 0E       		.uleb128 0xe
 3685 03be 01       		.uleb128 0x1
 3686 03bf 51       		.byte	0x51
 3687 03c0 03       		.uleb128 0x3
 3688 03c1 F3       		.byte	0xf3
 3689 03c2 01       		.uleb128 0x1
 3690 03c3 51       		.byte	0x51
 3691 03c4 00       		.byte	0
 3692 03c5 00       		.byte	0
 3693 03c6 11       		.uleb128 0x11
 3694 03c7 9B070000 		.4byte	.LASF37
 3695 03cb 01       		.byte	0x1
 3696 03cc 5A01     		.2byte	0x15a
 3697 03ce 00000000 		.4byte	.LFB3
 3698 03d2 1C000000 		.4byte	.LFE3-.LFB3
 3699 03d6 01       		.uleb128 0x1
 3700 03d7 9C       		.byte	0x9c
 3701 03d8 20040000 		.4byte	0x420
 3702 03dc 12       		.uleb128 0x12
 3703 03dd AB070000 		.4byte	.LASF23
 3704 03e1 01       		.byte	0x1
 3705 03e2 5A01     		.2byte	0x15a
 3706 03e4 77000000 		.4byte	0x77
 3707 03e8 0F020000 		.4byte	.LLST14
 3708 03ec 13       		.uleb128 0x13
 3709 03ed 6D616300 		.ascii	"mac\000"
 3710 03f1 01       		.byte	0x1
 3711 03f2 5A01     		.2byte	0x15a
 3712 03f4 C5020000 		.4byte	0x2c5
 3713 03f8 30020000 		.4byte	.LLST15
 3714 03fc 14       		.uleb128 0x14
 3715 03fd C5010000 		.4byte	.LASF30
 3716 0401 01       		.byte	0x1
 3717 0402 5C01     		.2byte	0x15c
 3718 0404 83000000 		.4byte	0x83
 3719 0408 4E020000 		.4byte	.LLST16
 3720 040c 10       		.uleb128 0x10
 3721 040d 14000000 		.4byte	.LVL39
 3722 0411 13010000 		.4byte	0x113
 3723 0415 0E       		.uleb128 0xe
 3724 0416 01       		.uleb128 0x1
 3725 0417 50       		.byte	0x50
 3726 0418 05       		.uleb128 0x5
 3727 0419 76       		.byte	0x76
 3728 041a 00       		.sleb128 0
 3729 041b 74       		.byte	0x74
ARM GAS  C:\Users\USUARIO\AppData\Local\Temp\cchqzDaB.s 			page 101


 3730 041c 00       		.sleb128 0
 3731 041d 22       		.byte	0x22
 3732 041e 00       		.byte	0
 3733 041f 00       		.byte	0
 3734 0420 11       		.uleb128 0x11
 3735 0421 E8050000 		.4byte	.LASF38
 3736 0425 01       		.byte	0x1
 3737 0426 D701     		.2byte	0x1d7
 3738 0428 00000000 		.4byte	.LFB11
 3739 042c 0C000000 		.4byte	.LFE11-.LFB11
 3740 0430 01       		.uleb128 0x1
 3741 0431 9C       		.byte	0x9c
 3742 0432 5D040000 		.4byte	0x45d
 3743 0436 13       		.uleb128 0x13
 3744 0437 6D616300 		.ascii	"mac\000"
 3745 043b 01       		.byte	0x1
 3746 043c D701     		.2byte	0x1d7
 3747 043e C5020000 		.4byte	0x2c5
 3748 0442 6D020000 		.4byte	.LLST17
 3749 0446 10       		.uleb128 0x10
 3750 0447 0A000000 		.4byte	.LVL43
 3751 044b C6030000 		.4byte	0x3c6
 3752 044f 0E       		.uleb128 0xe
 3753 0450 01       		.uleb128 0x1
 3754 0451 50       		.byte	0x50
 3755 0452 01       		.uleb128 0x1
 3756 0453 39       		.byte	0x39
 3757 0454 0E       		.uleb128 0xe
 3758 0455 01       		.uleb128 0x1
 3759 0456 51       		.byte	0x51
 3760 0457 03       		.uleb128 0x3
 3761 0458 F3       		.byte	0xf3
 3762 0459 01       		.uleb128 0x1
 3763 045a 50       		.byte	0x50
 3764 045b 00       		.byte	0
 3765 045c 00       		.byte	0
 3766 045d 11       		.uleb128 0x11
 3767 045e 14030000 		.4byte	.LASF39
 3768 0462 01       		.byte	0x1
 3769 0463 1302     		.2byte	0x213
 3770 0465 00000000 		.4byte	.LFB21
 3771 0469 0C000000 		.4byte	.LFE21-.LFB21
 3772 046d 01       		.uleb128 0x1
 3773 046e 9C       		.byte	0x9c
 3774 046f 92040000 		.4byte	0x492
 3775 0473 13       		.uleb128 0x13
 3776 0474 697200   		.ascii	"ir\000"
 3777 0477 01       		.byte	0x1
 3778 0478 1302     		.2byte	0x213
 3779 047a 6B000000 		.4byte	0x6b
 3780 047e 99020000 		.4byte	.LLST18
 3781 0482 10       		.uleb128 0x10
 3782 0483 0A000000 		.4byte	.LVL46
 3783 0487 13010000 		.4byte	0x113
 3784 048b 0E       		.uleb128 0xe
 3785 048c 01       		.uleb128 0x1
 3786 048d 50       		.byte	0x50
ARM GAS  C:\Users\USUARIO\AppData\Local\Temp\cchqzDaB.s 			page 102


 3787 048e 01       		.uleb128 0x1
 3788 048f 45       		.byte	0x45
 3789 0490 00       		.byte	0
 3790 0491 00       		.byte	0
 3791 0492 11       		.uleb128 0x11
 3792 0493 56030000 		.4byte	.LASF40
 3793 0497 01       		.byte	0x1
 3794 0498 9901     		.2byte	0x199
 3795 049a 00000000 		.4byte	.LFB7
 3796 049e 18000000 		.4byte	.LFE7-.LFB7
 3797 04a2 01       		.uleb128 0x1
 3798 04a3 9C       		.byte	0x9c
 3799 04a4 FB040000 		.4byte	0x4fb
 3800 04a8 12       		.uleb128 0x12
 3801 04a9 AB070000 		.4byte	.LASF23
 3802 04ad 01       		.byte	0x1
 3803 04ae 9901     		.2byte	0x199
 3804 04b0 77000000 		.4byte	0x77
 3805 04b4 BA020000 		.4byte	.LLST19
 3806 04b8 13       		.uleb128 0x13
 3807 04b9 76616C00 		.ascii	"val\000"
 3808 04bd 01       		.byte	0x1
 3809 04be 9901     		.2byte	0x199
 3810 04c0 77000000 		.4byte	0x77
 3811 04c4 DB020000 		.4byte	.LLST20
 3812 04c8 0D       		.uleb128 0xd
 3813 04c9 0C000000 		.4byte	.LVL49
 3814 04cd 13010000 		.4byte	0x113
 3815 04d1 E4040000 		.4byte	0x4e4
 3816 04d5 0E       		.uleb128 0xe
 3817 04d6 01       		.uleb128 0x1
 3818 04d7 50       		.byte	0x50
 3819 04d8 02       		.uleb128 0x2
 3820 04d9 74       		.byte	0x74
 3821 04da 00       		.sleb128 0
 3822 04db 0E       		.uleb128 0xe
 3823 04dc 01       		.uleb128 0x1
 3824 04dd 51       		.byte	0x51
 3825 04de 04       		.uleb128 0x4
 3826 04df 75       		.byte	0x75
 3827 04e0 00       		.sleb128 0
 3828 04e1 38       		.byte	0x38
 3829 04e2 25       		.byte	0x25
 3830 04e3 00       		.byte	0
 3831 04e4 10       		.uleb128 0x10
 3832 04e5 16000000 		.4byte	.LVL50
 3833 04e9 13010000 		.4byte	0x113
 3834 04ed 0E       		.uleb128 0xe
 3835 04ee 01       		.uleb128 0x1
 3836 04ef 50       		.byte	0x50
 3837 04f0 02       		.uleb128 0x2
 3838 04f1 74       		.byte	0x74
 3839 04f2 01       		.sleb128 1
 3840 04f3 0E       		.uleb128 0xe
 3841 04f4 01       		.uleb128 0x1
 3842 04f5 51       		.byte	0x51
 3843 04f6 02       		.uleb128 0x2
ARM GAS  C:\Users\USUARIO\AppData\Local\Temp\cchqzDaB.s 			page 103


 3844 04f7 75       		.byte	0x75
 3845 04f8 00       		.sleb128 0
 3846 04f9 00       		.byte	0
 3847 04fa 00       		.byte	0
 3848 04fb 11       		.uleb128 0x11
 3849 04fc 56070000 		.4byte	.LASF41
 3850 0500 01       		.byte	0x1
 3851 0501 BF02     		.2byte	0x2bf
 3852 0503 00000000 		.4byte	.LFB45
 3853 0507 10000000 		.4byte	.LFE45-.LFB45
 3854 050b 01       		.uleb128 0x1
 3855 050c 9C       		.byte	0x9c
 3856 050d 3B050000 		.4byte	0x53b
 3857 0511 12       		.uleb128 0x12
 3858 0512 C9050000 		.4byte	.LASF36
 3859 0516 01       		.byte	0x1
 3860 0517 BF02     		.2byte	0x2bf
 3861 0519 6B000000 		.4byte	0x6b
 3862 051d FC020000 		.4byte	.LLST21
 3863 0521 12       		.uleb128 0x12
 3864 0522 51030000 		.4byte	.LASF42
 3865 0526 01       		.byte	0x1
 3866 0527 BF02     		.2byte	0x2bf
 3867 0529 77000000 		.4byte	0x77
 3868 052d 1D030000 		.4byte	.LLST22
 3869 0531 0F       		.uleb128 0xf
 3870 0532 0E000000 		.4byte	.LVL53
 3871 0536 92040000 		.4byte	0x492
 3872 053a 00       		.byte	0
 3873 053b 11       		.uleb128 0x11
 3874 053c BB030000 		.4byte	.LASF43
 3875 0540 01       		.byte	0x1
 3876 0541 EF02     		.2byte	0x2ef
 3877 0543 00000000 		.4byte	.LFB51
 3878 0547 10000000 		.4byte	.LFE51-.LFB51
 3879 054b 01       		.uleb128 0x1
 3880 054c 9C       		.byte	0x9c
 3881 054d 7B050000 		.4byte	0x57b
 3882 0551 12       		.uleb128 0x12
 3883 0552 C9050000 		.4byte	.LASF36
 3884 0556 01       		.byte	0x1
 3885 0557 EF02     		.2byte	0x2ef
 3886 0559 6B000000 		.4byte	0x6b
 3887 055d 3E030000 		.4byte	.LLST23
 3888 0561 12       		.uleb128 0x12
 3889 0562 51030000 		.4byte	.LASF42
 3890 0566 01       		.byte	0x1
 3891 0567 EF02     		.2byte	0x2ef
 3892 0569 77000000 		.4byte	0x77
 3893 056d 5F030000 		.4byte	.LLST24
 3894 0571 0F       		.uleb128 0xf
 3895 0572 0E000000 		.4byte	.LVL56
 3896 0576 92040000 		.4byte	0x492
 3897 057a 00       		.byte	0
 3898 057b 11       		.uleb128 0x11
 3899 057c 27010000 		.4byte	.LASF44
 3900 0580 01       		.byte	0x1
ARM GAS  C:\Users\USUARIO\AppData\Local\Temp\cchqzDaB.s 			page 104


 3901 0581 5703     		.2byte	0x357
 3902 0583 00000000 		.4byte	.LFB64
 3903 0587 10000000 		.4byte	.LFE64-.LFB64
 3904 058b 01       		.uleb128 0x1
 3905 058c 9C       		.byte	0x9c
 3906 058d BB050000 		.4byte	0x5bb
 3907 0591 12       		.uleb128 0x12
 3908 0592 C9050000 		.4byte	.LASF36
 3909 0596 01       		.byte	0x1
 3910 0597 5703     		.2byte	0x357
 3911 0599 6B000000 		.4byte	0x6b
 3912 059d 80030000 		.4byte	.LLST25
 3913 05a1 13       		.uleb128 0x13
 3914 05a2 70747200 		.ascii	"ptr\000"
 3915 05a6 01       		.byte	0x1
 3916 05a7 5703     		.2byte	0x357
 3917 05a9 77000000 		.4byte	0x77
 3918 05ad A1030000 		.4byte	.LLST26
 3919 05b1 0F       		.uleb128 0xf
 3920 05b2 0E000000 		.4byte	.LVL59
 3921 05b6 92040000 		.4byte	0x492
 3922 05ba 00       		.byte	0
 3923 05bb 11       		.uleb128 0x11
 3924 05bc 7C010000 		.4byte	.LASF45
 3925 05c0 01       		.byte	0x1
 3926 05c1 6F03     		.2byte	0x36f
 3927 05c3 00000000 		.4byte	.LFB67
 3928 05c7 10000000 		.4byte	.LFE67-.LFB67
 3929 05cb 01       		.uleb128 0x1
 3930 05cc 9C       		.byte	0x9c
 3931 05cd FB050000 		.4byte	0x5fb
 3932 05d1 12       		.uleb128 0x12
 3933 05d2 C9050000 		.4byte	.LASF36
 3934 05d6 01       		.byte	0x1
 3935 05d7 6F03     		.2byte	0x36f
 3936 05d9 6B000000 		.4byte	0x6b
 3937 05dd C2030000 		.4byte	.LLST27
 3938 05e1 13       		.uleb128 0x13
 3939 05e2 70747200 		.ascii	"ptr\000"
 3940 05e6 01       		.byte	0x1
 3941 05e7 6F03     		.2byte	0x36f
 3942 05e9 77000000 		.4byte	0x77
 3943 05ed E3030000 		.4byte	.LLST28
 3944 05f1 0F       		.uleb128 0xf
 3945 05f2 0E000000 		.4byte	.LVL62
 3946 05f6 92040000 		.4byte	0x492
 3947 05fa 00       		.byte	0
 3948 05fb 11       		.uleb128 0x11
 3949 05fc D0000000 		.4byte	.LASF46
 3950 0600 01       		.byte	0x1
 3951 0601 7F02     		.2byte	0x27f
 3952 0603 00000000 		.4byte	.LFB37
 3953 0607 12000000 		.4byte	.LFE37-.LFB37
 3954 060b 01       		.uleb128 0x1
 3955 060c 9C       		.byte	0x9c
 3956 060d 3B060000 		.4byte	0x63b
 3957 0611 12       		.uleb128 0x12
ARM GAS  C:\Users\USUARIO\AppData\Local\Temp\cchqzDaB.s 			page 105


 3958 0612 C9050000 		.4byte	.LASF36
 3959 0616 01       		.byte	0x1
 3960 0617 7F02     		.2byte	0x27f
 3961 0619 6B000000 		.4byte	0x6b
 3962 061d 04040000 		.4byte	.LLST29
 3963 0621 12       		.uleb128 0x12
 3964 0622 07010000 		.4byte	.LASF24
 3965 0626 01       		.byte	0x1
 3966 0627 7F02     		.2byte	0x27f
 3967 0629 6B000000 		.4byte	0x6b
 3968 062d 25040000 		.4byte	.LLST30
 3969 0631 0F       		.uleb128 0xf
 3970 0632 10000000 		.4byte	.LVL65
 3971 0636 13010000 		.4byte	0x113
 3972 063a 00       		.byte	0
 3973 063b 11       		.uleb128 0x11
 3974 063c A3040000 		.4byte	.LASF47
 3975 0640 01       		.byte	0x1
 3976 0641 8F02     		.2byte	0x28f
 3977 0643 00000000 		.4byte	.LFB39
 3978 0647 10000000 		.4byte	.LFE39-.LFB39
 3979 064b 01       		.uleb128 0x1
 3980 064c 9C       		.byte	0x9c
 3981 064d 7B060000 		.4byte	0x67b
 3982 0651 12       		.uleb128 0x12
 3983 0652 C9050000 		.4byte	.LASF36
 3984 0656 01       		.byte	0x1
 3985 0657 8F02     		.2byte	0x28f
 3986 0659 6B000000 		.4byte	0x6b
 3987 065d 46040000 		.4byte	.LLST31
 3988 0661 13       		.uleb128 0x13
 3989 0662 636D6400 		.ascii	"cmd\000"
 3990 0666 01       		.byte	0x1
 3991 0667 8F02     		.2byte	0x28f
 3992 0669 6B000000 		.4byte	0x6b
 3993 066d 67040000 		.4byte	.LLST32
 3994 0671 0F       		.uleb128 0xf
 3995 0672 0E000000 		.4byte	.LVL68
 3996 0676 13010000 		.4byte	0x113
 3997 067a 00       		.byte	0
 3998 067b 11       		.uleb128 0x11
 3999 067c 37070000 		.4byte	.LASF48
 4000 0680 01       		.byte	0x1
 4001 0681 9F02     		.2byte	0x29f
 4002 0683 00000000 		.4byte	.LFB41
 4003 0687 10000000 		.4byte	.LFE41-.LFB41
 4004 068b 01       		.uleb128 0x1
 4005 068c 9C       		.byte	0x9c
 4006 068d BA060000 		.4byte	0x6ba
 4007 0691 12       		.uleb128 0x12
 4008 0692 C9050000 		.4byte	.LASF36
 4009 0696 01       		.byte	0x1
 4010 0697 9F02     		.2byte	0x29f
 4011 0699 6B000000 		.4byte	0x6b
 4012 069d 88040000 		.4byte	.LLST33
 4013 06a1 13       		.uleb128 0x13
 4014 06a2 697200   		.ascii	"ir\000"
ARM GAS  C:\Users\USUARIO\AppData\Local\Temp\cchqzDaB.s 			page 106


 4015 06a5 01       		.byte	0x1
 4016 06a6 9F02     		.2byte	0x29f
 4017 06a8 6B000000 		.4byte	0x6b
 4018 06ac A9040000 		.4byte	.LLST34
 4019 06b0 0F       		.uleb128 0xf
 4020 06b1 0E000000 		.4byte	.LVL71
 4021 06b5 13010000 		.4byte	0x113
 4022 06b9 00       		.byte	0
 4023 06ba 11       		.uleb128 0x11
 4024 06bb 52000000 		.4byte	.LASF49
 4025 06bf 01       		.byte	0x1
 4026 06c0 B501     		.2byte	0x1b5
 4027 06c2 00000000 		.4byte	.LFB9
 4028 06c6 1E000000 		.4byte	.LFE9-.LFB9
 4029 06ca 01       		.uleb128 0x1
 4030 06cb 9C       		.byte	0x9c
 4031 06cc 24070000 		.4byte	0x724
 4032 06d0 12       		.uleb128 0x12
 4033 06d1 AB070000 		.4byte	.LASF23
 4034 06d5 01       		.byte	0x1
 4035 06d6 B501     		.2byte	0x1b5
 4036 06d8 77000000 		.4byte	0x77
 4037 06dc CA040000 		.4byte	.LLST35
 4038 06e0 12       		.uleb128 0x12
 4039 06e1 4B000000 		.4byte	.LASF31
 4040 06e5 01       		.byte	0x1
 4041 06e6 B501     		.2byte	0x1b5
 4042 06e8 C5020000 		.4byte	0x2c5
 4043 06ec EB040000 		.4byte	.LLST36
 4044 06f0 12       		.uleb128 0x12
 4045 06f1 51050000 		.4byte	.LASF50
 4046 06f5 01       		.byte	0x1
 4047 06f6 B501     		.2byte	0x1b5
 4048 06f8 77000000 		.4byte	0x77
 4049 06fc 09050000 		.4byte	.LLST37
 4050 0700 14       		.uleb128 0x14
 4051 0701 C5010000 		.4byte	.LASF30
 4052 0705 01       		.byte	0x1
 4053 0706 B701     		.2byte	0x1b7
 4054 0708 5D000000 		.4byte	0x5d
 4055 070c 2A050000 		.4byte	.LLST38
 4056 0710 10       		.uleb128 0x10
 4057 0711 16000000 		.4byte	.LVL75
 4058 0715 13010000 		.4byte	0x113
 4059 0719 0E       		.uleb128 0xe
 4060 071a 01       		.uleb128 0x1
 4061 071b 50       		.byte	0x50
 4062 071c 05       		.uleb128 0x5
 4063 071d 77       		.byte	0x77
 4064 071e 00       		.sleb128 0
 4065 071f 74       		.byte	0x74
 4066 0720 00       		.sleb128 0
 4067 0721 22       		.byte	0x22
 4068 0722 00       		.byte	0
 4069 0723 00       		.byte	0
 4070 0724 15       		.uleb128 0x15
 4071 0725 DA050000 		.4byte	.LASF78
ARM GAS  C:\Users\USUARIO\AppData\Local\Temp\cchqzDaB.s 			page 107


 4072 0729 01       		.byte	0x1
 4073 072a A3       		.byte	0xa3
 4074 072b 6B000000 		.4byte	0x6b
 4075 072f 00000000 		.4byte	.LFB2
 4076 0733 5C000000 		.4byte	.LFE2-.LFB2
 4077 0737 01       		.uleb128 0x1
 4078 0738 9C       		.byte	0x9c
 4079 0739 17080000 		.4byte	0x817
 4080 073d 0B       		.uleb128 0xb
 4081 073e AB070000 		.4byte	.LASF23
 4082 0742 01       		.byte	0x1
 4083 0743 A3       		.byte	0xa3
 4084 0744 77000000 		.4byte	0x77
 4085 0748 49050000 		.4byte	.LLST39
 4086 074c 16       		.uleb128 0x16
 4087 074d 64617400 		.ascii	"dat\000"
 4088 0751 01       		.byte	0x1
 4089 0752 A5       		.byte	0xa5
 4090 0753 83000000 		.4byte	0x83
 4091 0757 6A050000 		.4byte	.LLST40
 4092 075b 17       		.uleb128 0x17
 4093 075c BF010000 		.4byte	.LASF51
 4094 0760 01       		.byte	0x1
 4095 0761 A6       		.byte	0xa6
 4096 0762 83000000 		.4byte	0x83
 4097 0766 93050000 		.4byte	.LLST41
 4098 076a 0D       		.uleb128 0xd
 4099 076b 0C000000 		.4byte	.LVL79
 4100 076f E61B0000 		.4byte	0x1be6
 4101 0773 7D070000 		.4byte	0x77d
 4102 0777 0E       		.uleb128 0xe
 4103 0778 01       		.uleb128 0x1
 4104 0779 50       		.byte	0x50
 4105 077a 01       		.uleb128 0x1
 4106 077b 31       		.byte	0x31
 4107 077c 00       		.byte	0
 4108 077d 0F       		.uleb128 0xf
 4109 077e 10000000 		.4byte	.LVL80
 4110 0782 F11B0000 		.4byte	0x1bf1
 4111 0786 0F       		.uleb128 0xf
 4112 0787 1A000000 		.4byte	.LVL81
 4113 078b FC1B0000 		.4byte	0x1bfc
 4114 078f 0D       		.uleb128 0xd
 4115 0790 20000000 		.4byte	.LVL82
 4116 0794 071C0000 		.4byte	0x1c07
 4117 0798 A2070000 		.4byte	0x7a2
 4118 079c 0E       		.uleb128 0xe
 4119 079d 01       		.uleb128 0x1
 4120 079e 50       		.byte	0x50
 4121 079f 01       		.uleb128 0x1
 4122 07a0 3F       		.byte	0x3f
 4123 07a1 00       		.byte	0
 4124 07a2 0D       		.uleb128 0xd
 4125 07a3 26000000 		.4byte	.LVL83
 4126 07a7 071C0000 		.4byte	0x1c07
 4127 07ab B8070000 		.4byte	0x7b8
 4128 07af 0E       		.uleb128 0xe
ARM GAS  C:\Users\USUARIO\AppData\Local\Temp\cchqzDaB.s 			page 108


 4129 07b0 01       		.uleb128 0x1
 4130 07b1 50       		.byte	0x50
 4131 07b2 04       		.uleb128 0x4
 4132 07b3 75       		.byte	0x75
 4133 07b4 00       		.sleb128 0
 4134 07b5 38       		.byte	0x38
 4135 07b6 25       		.byte	0x25
 4136 07b7 00       		.byte	0
 4137 07b8 0D       		.uleb128 0xd
 4138 07b9 2C000000 		.4byte	.LVL84
 4139 07bd 071C0000 		.4byte	0x1c07
 4140 07c1 CC070000 		.4byte	0x7cc
 4141 07c5 0E       		.uleb128 0xe
 4142 07c6 01       		.uleb128 0x1
 4143 07c7 50       		.byte	0x50
 4144 07c8 02       		.uleb128 0x2
 4145 07c9 75       		.byte	0x75
 4146 07ca 00       		.sleb128 0
 4147 07cb 00       		.byte	0
 4148 07cc 0D       		.uleb128 0xd
 4149 07cd 32000000 		.4byte	.LVL85
 4150 07d1 071C0000 		.4byte	0x1c07
 4151 07d5 DF070000 		.4byte	0x7df
 4152 07d9 0E       		.uleb128 0xe
 4153 07da 01       		.uleb128 0x1
 4154 07db 50       		.byte	0x50
 4155 07dc 01       		.uleb128 0x1
 4156 07dd 30       		.byte	0x30
 4157 07de 00       		.byte	0
 4158 07df 0D       		.uleb128 0xd
 4159 07e0 3A000000 		.4byte	.LVL86
 4160 07e4 E61B0000 		.4byte	0x1be6
 4161 07e8 F2070000 		.4byte	0x7f2
 4162 07ec 0E       		.uleb128 0xe
 4163 07ed 01       		.uleb128 0x1
 4164 07ee 50       		.byte	0x50
 4165 07ef 01       		.uleb128 0x1
 4166 07f0 31       		.byte	0x31
 4167 07f1 00       		.byte	0
 4168 07f2 0F       		.uleb128 0xf
 4169 07f3 3E000000 		.4byte	.LVL87
 4170 07f7 F11B0000 		.4byte	0x1bf1
 4171 07fb 0F       		.uleb128 0xf
 4172 07fc 48000000 		.4byte	.LVL88
 4173 0800 121C0000 		.4byte	0x1c12
 4174 0804 0F       		.uleb128 0xf
 4175 0805 4E000000 		.4byte	.LVL90
 4176 0809 1D1C0000 		.4byte	0x1c1d
 4177 080d 0F       		.uleb128 0xf
 4178 080e 54000000 		.4byte	.LVL92
 4179 0812 121C0000 		.4byte	0x1c12
 4180 0816 00       		.byte	0
 4181 0817 11       		.uleb128 0x11
 4182 0818 3D040000 		.4byte	.LASF52
 4183 081c 01       		.byte	0x1
 4184 081d 6901     		.2byte	0x169
 4185 081f 00000000 		.4byte	.LFB4
ARM GAS  C:\Users\USUARIO\AppData\Local\Temp\cchqzDaB.s 			page 109


 4186 0823 1C000000 		.4byte	.LFE4-.LFB4
 4187 0827 01       		.uleb128 0x1
 4188 0828 9C       		.byte	0x9c
 4189 0829 71080000 		.4byte	0x871
 4190 082d 12       		.uleb128 0x12
 4191 082e AB070000 		.4byte	.LASF23
 4192 0832 01       		.byte	0x1
 4193 0833 6901     		.2byte	0x169
 4194 0835 77000000 		.4byte	0x77
 4195 0839 B1050000 		.4byte	.LLST42
 4196 083d 13       		.uleb128 0x13
 4197 083e 6D616300 		.ascii	"mac\000"
 4198 0842 01       		.byte	0x1
 4199 0843 6901     		.2byte	0x169
 4200 0845 C5020000 		.4byte	0x2c5
 4201 0849 D2050000 		.4byte	.LLST43
 4202 084d 14       		.uleb128 0x14
 4203 084e C5010000 		.4byte	.LASF30
 4204 0852 01       		.byte	0x1
 4205 0853 6B01     		.2byte	0x16b
 4206 0855 83000000 		.4byte	0x83
 4207 0859 F0050000 		.4byte	.LLST44
 4208 085d 10       		.uleb128 0x10
 4209 085e 12000000 		.4byte	.LVL97
 4210 0862 24070000 		.4byte	0x724
 4211 0866 0E       		.uleb128 0xe
 4212 0867 01       		.uleb128 0x1
 4213 0868 50       		.byte	0x50
 4214 0869 05       		.uleb128 0x5
 4215 086a 76       		.byte	0x76
 4216 086b 00       		.sleb128 0
 4217 086c 74       		.byte	0x74
 4218 086d 00       		.sleb128 0
 4219 086e 22       		.byte	0x22
 4220 086f 00       		.byte	0
 4221 0870 00       		.byte	0
 4222 0871 11       		.uleb128 0x11
 4223 0872 F3030000 		.4byte	.LASF53
 4224 0876 01       		.byte	0x1
 4225 0877 DD01     		.2byte	0x1dd
 4226 0879 00000000 		.4byte	.LFB12
 4227 087d 0C000000 		.4byte	.LFE12-.LFB12
 4228 0881 01       		.uleb128 0x1
 4229 0882 9C       		.byte	0x9c
 4230 0883 AE080000 		.4byte	0x8ae
 4231 0887 13       		.uleb128 0x13
 4232 0888 6D616300 		.ascii	"mac\000"
 4233 088c 01       		.byte	0x1
 4234 088d DD01     		.2byte	0x1dd
 4235 088f C5020000 		.4byte	0x2c5
 4236 0893 0F060000 		.4byte	.LLST45
 4237 0897 10       		.uleb128 0x10
 4238 0898 0A000000 		.4byte	.LVL101
 4239 089c 17080000 		.4byte	0x817
 4240 08a0 0E       		.uleb128 0xe
 4241 08a1 01       		.uleb128 0x1
 4242 08a2 50       		.byte	0x50
ARM GAS  C:\Users\USUARIO\AppData\Local\Temp\cchqzDaB.s 			page 110


 4243 08a3 01       		.uleb128 0x1
 4244 08a4 39       		.byte	0x39
 4245 08a5 0E       		.uleb128 0xe
 4246 08a6 01       		.uleb128 0x1
 4247 08a7 51       		.byte	0x51
 4248 08a8 03       		.uleb128 0x3
 4249 08a9 F3       		.byte	0xf3
 4250 08aa 01       		.uleb128 0x1
 4251 08ab 50       		.byte	0x50
 4252 08ac 00       		.byte	0
 4253 08ad 00       		.byte	0
 4254 08ae 18       		.uleb128 0x18
 4255 08af D5040000 		.4byte	.LASF54
 4256 08b3 01       		.byte	0x1
 4257 08b4 8601     		.2byte	0x186
 4258 08b6 83000000 		.4byte	0x83
 4259 08ba 00000000 		.4byte	.LFB6
 4260 08be 28000000 		.4byte	.LFE6-.LFB6
 4261 08c2 01       		.uleb128 0x1
 4262 08c3 9C       		.byte	0x9c
 4263 08c4 1A090000 		.4byte	0x91a
 4264 08c8 12       		.uleb128 0x12
 4265 08c9 AB070000 		.4byte	.LASF23
 4266 08cd 01       		.byte	0x1
 4267 08ce 8601     		.2byte	0x186
 4268 08d0 77000000 		.4byte	0x77
 4269 08d4 3B060000 		.4byte	.LLST46
 4270 08d8 19       		.uleb128 0x19
 4271 08d9 4B000000 		.4byte	.LASF31
 4272 08dd 01       		.byte	0x1
 4273 08de 8801     		.2byte	0x188
 4274 08e0 1A090000 		.4byte	0x91a
 4275 08e4 02       		.uleb128 0x2
 4276 08e5 91       		.byte	0x91
 4277 08e6 6C       		.sleb128 -20
 4278 08e7 14       		.uleb128 0x14
 4279 08e8 C5010000 		.4byte	.LASF30
 4280 08ec 01       		.byte	0x1
 4281 08ed 8901     		.2byte	0x189
 4282 08ef 5D000000 		.4byte	0x5d
 4283 08f3 5C060000 		.4byte	.LLST47
 4284 08f7 1A       		.uleb128 0x1a
 4285 08f8 697000   		.ascii	"ip\000"
 4286 08fb 01       		.byte	0x1
 4287 08fc 8A01     		.2byte	0x18a
 4288 08fe 2A090000 		.4byte	0x92a
 4289 0902 03       		.uleb128 0x3
 4290 0903 91       		.byte	0x91
 4291 0904 6C       		.sleb128 -20
 4292 0905 9F       		.byte	0x9f
 4293 0906 10       		.uleb128 0x10
 4294 0907 14000000 		.4byte	.LVL106
 4295 090b 24070000 		.4byte	0x724
 4296 090f 0E       		.uleb128 0xe
 4297 0910 01       		.uleb128 0x1
 4298 0911 50       		.byte	0x50
 4299 0912 05       		.uleb128 0x5
ARM GAS  C:\Users\USUARIO\AppData\Local\Temp\cchqzDaB.s 			page 111


 4300 0913 75       		.byte	0x75
 4301 0914 00       		.sleb128 0
 4302 0915 74       		.byte	0x74
 4303 0916 00       		.sleb128 0
 4304 0917 22       		.byte	0x22
 4305 0918 00       		.byte	0
 4306 0919 00       		.byte	0
 4307 091a 1B       		.uleb128 0x1b
 4308 091b 6B000000 		.4byte	0x6b
 4309 091f 2A090000 		.4byte	0x92a
 4310 0923 1C       		.uleb128 0x1c
 4311 0924 B7000000 		.4byte	0xb7
 4312 0928 03       		.byte	0x3
 4313 0929 00       		.byte	0
 4314 092a 05       		.uleb128 0x5
 4315 092b 04       		.byte	0x4
 4316 092c 83000000 		.4byte	0x83
 4317 0930 18       		.uleb128 0x18
 4318 0931 F3010000 		.4byte	.LASF55
 4319 0935 01       		.byte	0x1
 4320 0936 0102     		.2byte	0x201
 4321 0938 83000000 		.4byte	0x83
 4322 093c 00000000 		.4byte	.LFB18
 4323 0940 0A000000 		.4byte	.LFE18-.LFB18
 4324 0944 01       		.uleb128 0x1
 4325 0945 9C       		.byte	0x9c
 4326 0946 5A090000 		.4byte	0x95a
 4327 094a 10       		.uleb128 0x10
 4328 094b 08000000 		.4byte	.LVL108
 4329 094f AE080000 		.4byte	0x8ae
 4330 0953 0E       		.uleb128 0xe
 4331 0954 01       		.uleb128 0x1
 4332 0955 50       		.byte	0x50
 4333 0956 01       		.uleb128 0x1
 4334 0957 3F       		.byte	0x3f
 4335 0958 00       		.byte	0
 4336 0959 00       		.byte	0
 4337 095a 18       		.uleb128 0x18
 4338 095b B3050000 		.4byte	.LASF56
 4339 095f 01       		.byte	0x1
 4340 0960 9702     		.2byte	0x297
 4341 0962 6B000000 		.4byte	0x6b
 4342 0966 00000000 		.4byte	.LFB40
 4343 096a 10000000 		.4byte	.LFE40-.LFB40
 4344 096e 01       		.uleb128 0x1
 4345 096f 9C       		.byte	0x9c
 4346 0970 8E090000 		.4byte	0x98e
 4347 0974 12       		.uleb128 0x12
 4348 0975 C9050000 		.4byte	.LASF36
 4349 0979 01       		.byte	0x1
 4350 097a 9702     		.2byte	0x297
 4351 097c 6B000000 		.4byte	0x6b
 4352 0980 7B060000 		.4byte	.LLST48
 4353 0984 0F       		.uleb128 0xf
 4354 0985 0E000000 		.4byte	.LVL111
 4355 0989 24070000 		.4byte	0x724
 4356 098d 00       		.byte	0
ARM GAS  C:\Users\USUARIO\AppData\Local\Temp\cchqzDaB.s 			page 112


 4357 098e 18       		.uleb128 0x18
 4358 098f 66000000 		.4byte	.LASF57
 4359 0993 01       		.byte	0x1
 4360 0994 7F03     		.2byte	0x37f
 4361 0996 83000000 		.4byte	0x83
 4362 099a 00000000 		.4byte	.LFB69
 4363 099e 26000000 		.4byte	.LFE69-.LFB69
 4364 09a2 01       		.uleb128 0x1
 4365 09a3 9C       		.byte	0x9c
 4366 09a4 170A0000 		.4byte	0xa17
 4367 09a8 12       		.uleb128 0x12
 4368 09a9 C9050000 		.4byte	.LASF36
 4369 09ad 01       		.byte	0x1
 4370 09ae 7F03     		.2byte	0x37f
 4371 09b0 6B000000 		.4byte	0x6b
 4372 09b4 9C060000 		.4byte	.LLST49
 4373 09b8 13       		.uleb128 0x13
 4374 09b9 636D6400 		.ascii	"cmd\000"
 4375 09bd 01       		.byte	0x1
 4376 09be 7F03     		.2byte	0x37f
 4377 09c0 5D000000 		.4byte	0x5d
 4378 09c4 BD060000 		.4byte	.LLST50
 4379 09c8 14       		.uleb128 0x14
 4380 09c9 6F070000 		.4byte	.LASF58
 4381 09cd 01       		.byte	0x1
 4382 09ce 8103     		.2byte	0x381
 4383 09d0 83000000 		.4byte	0x83
 4384 09d4 DE060000 		.4byte	.LLST51
 4385 09d8 0D       		.uleb128 0xd
 4386 09d9 0A000000 		.4byte	.LVL115
 4387 09dd 3B060000 		.4byte	0x63b
 4388 09e1 F3090000 		.4byte	0x9f3
 4389 09e5 0E       		.uleb128 0xe
 4390 09e6 01       		.uleb128 0x1
 4391 09e7 50       		.byte	0x50
 4392 09e8 02       		.uleb128 0x2
 4393 09e9 75       		.byte	0x75
 4394 09ea 00       		.sleb128 0
 4395 09eb 0E       		.uleb128 0xe
 4396 09ec 01       		.uleb128 0x1
 4397 09ed 51       		.byte	0x51
 4398 09ee 03       		.uleb128 0x3
 4399 09ef F3       		.byte	0xf3
 4400 09f0 01       		.uleb128 0x1
 4401 09f1 51       		.byte	0x51
 4402 09f2 00       		.byte	0
 4403 09f3 0D       		.uleb128 0xd
 4404 09f4 16000000 		.4byte	.LVL118
 4405 09f8 281C0000 		.4byte	0x1c28
 4406 09fc 060A0000 		.4byte	0xa06
 4407 0a00 0E       		.uleb128 0xe
 4408 0a01 01       		.uleb128 0x1
 4409 0a02 50       		.byte	0x50
 4410 0a03 01       		.uleb128 0x1
 4411 0a04 31       		.byte	0x31
 4412 0a05 00       		.byte	0
 4413 0a06 10       		.uleb128 0x10
ARM GAS  C:\Users\USUARIO\AppData\Local\Temp\cchqzDaB.s 			page 113


 4414 0a07 1C000000 		.4byte	.LVL119
 4415 0a0b 5A090000 		.4byte	0x95a
 4416 0a0f 0E       		.uleb128 0xe
 4417 0a10 01       		.uleb128 0x1
 4418 0a11 50       		.byte	0x50
 4419 0a12 02       		.uleb128 0x2
 4420 0a13 75       		.byte	0x75
 4421 0a14 00       		.sleb128 0
 4422 0a15 00       		.byte	0
 4423 0a16 00       		.byte	0
 4424 0a17 18       		.uleb128 0x18
 4425 0a18 29000000 		.4byte	.LASF59
 4426 0a1c 01       		.byte	0x1
 4427 0a1d B702     		.2byte	0x2b7
 4428 0a1f 6B000000 		.4byte	0x6b
 4429 0a23 00000000 		.4byte	.LFB44
 4430 0a27 10000000 		.4byte	.LFE44-.LFB44
 4431 0a2b 01       		.uleb128 0x1
 4432 0a2c 9C       		.byte	0x9c
 4433 0a2d 4B0A0000 		.4byte	0xa4b
 4434 0a31 12       		.uleb128 0x12
 4435 0a32 C9050000 		.4byte	.LASF36
 4436 0a36 01       		.byte	0x1
 4437 0a37 B702     		.2byte	0x2b7
 4438 0a39 6B000000 		.4byte	0x6b
 4439 0a3d FD060000 		.4byte	.LLST52
 4440 0a41 0F       		.uleb128 0xf
 4441 0a42 0E000000 		.4byte	.LVL122
 4442 0a46 24070000 		.4byte	0x724
 4443 0a4a 00       		.byte	0
 4444 0a4b 18       		.uleb128 0x18
 4445 0a4c BA020000 		.4byte	.LASF60
 4446 0a50 01       		.byte	0x1
 4447 0a51 A401     		.2byte	0x1a4
 4448 0a53 77000000 		.4byte	0x77
 4449 0a57 00000000 		.4byte	.LFB8
 4450 0a5b 1C000000 		.4byte	.LFE8-.LFB8
 4451 0a5f 01       		.uleb128 0x1
 4452 0a60 9C       		.byte	0x9c
 4453 0a61 AA0A0000 		.4byte	0xaaa
 4454 0a65 12       		.uleb128 0x12
 4455 0a66 AB070000 		.4byte	.LASF23
 4456 0a6a 01       		.byte	0x1
 4457 0a6b A401     		.2byte	0x1a4
 4458 0a6d 77000000 		.4byte	0x77
 4459 0a71 1E070000 		.4byte	.LLST53
 4460 0a75 1D       		.uleb128 0x1d
 4461 0a76 76616C00 		.ascii	"val\000"
 4462 0a7a 01       		.byte	0x1
 4463 0a7b A601     		.2byte	0x1a6
 4464 0a7d 77000000 		.4byte	0x77
 4465 0a81 3F070000 		.4byte	.LLST54
 4466 0a85 0D       		.uleb128 0xd
 4467 0a86 08000000 		.4byte	.LVL124
 4468 0a8a 24070000 		.4byte	0x724
 4469 0a8e 990A0000 		.4byte	0xa99
 4470 0a92 0E       		.uleb128 0xe
ARM GAS  C:\Users\USUARIO\AppData\Local\Temp\cchqzDaB.s 			page 114


 4471 0a93 01       		.uleb128 0x1
 4472 0a94 50       		.byte	0x50
 4473 0a95 02       		.uleb128 0x2
 4474 0a96 75       		.byte	0x75
 4475 0a97 00       		.sleb128 0
 4476 0a98 00       		.byte	0
 4477 0a99 10       		.uleb128 0x10
 4478 0a9a 16000000 		.4byte	.LVL127
 4479 0a9e 24070000 		.4byte	0x724
 4480 0aa2 0E       		.uleb128 0xe
 4481 0aa3 01       		.uleb128 0x1
 4482 0aa4 50       		.byte	0x50
 4483 0aa5 02       		.uleb128 0x2
 4484 0aa6 75       		.byte	0x75
 4485 0aa7 01       		.sleb128 1
 4486 0aa8 00       		.byte	0
 4487 0aa9 00       		.byte	0
 4488 0aaa 18       		.uleb128 0x18
 4489 0aab AC000000 		.4byte	.LASF61
 4490 0aaf 01       		.byte	0x1
 4491 0ab0 6703     		.2byte	0x367
 4492 0ab2 77000000 		.4byte	0x77
 4493 0ab6 00000000 		.4byte	.LFB66
 4494 0aba 10000000 		.4byte	.LFE66-.LFB66
 4495 0abe 01       		.uleb128 0x1
 4496 0abf 9C       		.byte	0x9c
 4497 0ac0 DE0A0000 		.4byte	0xade
 4498 0ac4 12       		.uleb128 0x12
 4499 0ac5 C9050000 		.4byte	.LASF36
 4500 0ac9 01       		.byte	0x1
 4501 0aca 6703     		.2byte	0x367
 4502 0acc 6B000000 		.4byte	0x6b
 4503 0ad0 68070000 		.4byte	.LLST55
 4504 0ad4 0F       		.uleb128 0xf
 4505 0ad5 0E000000 		.4byte	.LVL131
 4506 0ad9 4B0A0000 		.4byte	0xa4b
 4507 0add 00       		.byte	0
 4508 0ade 18       		.uleb128 0x18
 4509 0adf 0B020000 		.4byte	.LASF62
 4510 0ae3 01       		.byte	0x1
 4511 0ae4 A803     		.2byte	0x3a8
 4512 0ae6 77000000 		.4byte	0x77
 4513 0aea 00000000 		.4byte	.LFB71
 4514 0aee 20000000 		.4byte	.LFE71-.LFB71
 4515 0af2 01       		.uleb128 0x1
 4516 0af3 9C       		.byte	0x9c
 4517 0af4 4D0B0000 		.4byte	0xb4d
 4518 0af8 12       		.uleb128 0x12
 4519 0af9 C9050000 		.4byte	.LASF36
 4520 0afd 01       		.byte	0x1
 4521 0afe A803     		.2byte	0x3a8
 4522 0b00 6B000000 		.4byte	0x6b
 4523 0b04 89070000 		.4byte	.LLST56
 4524 0b08 14       		.uleb128 0x14
 4525 0b09 77070000 		.4byte	.LASF63
 4526 0b0d 01       		.byte	0x1
 4527 0b0e AA03     		.2byte	0x3aa
ARM GAS  C:\Users\USUARIO\AppData\Local\Temp\cchqzDaB.s 			page 115


 4528 0b10 77000000 		.4byte	0x77
 4529 0b14 AA070000 		.4byte	.LLST57
 4530 0b18 14       		.uleb128 0x14
 4531 0b19 33030000 		.4byte	.LASF64
 4532 0b1d 01       		.byte	0x1
 4533 0b1e AA03     		.2byte	0x3aa
 4534 0b20 77000000 		.4byte	0x77
 4535 0b24 C9070000 		.4byte	.LLST58
 4536 0b28 0D       		.uleb128 0xd
 4537 0b29 0C000000 		.4byte	.LVL135
 4538 0b2d AA0A0000 		.4byte	0xaaa
 4539 0b31 3C0B0000 		.4byte	0xb3c
 4540 0b35 0E       		.uleb128 0xe
 4541 0b36 01       		.uleb128 0x1
 4542 0b37 50       		.byte	0x50
 4543 0b38 02       		.uleb128 0x2
 4544 0b39 76       		.byte	0x76
 4545 0b3a 00       		.sleb128 0
 4546 0b3b 00       		.byte	0
 4547 0b3c 10       		.uleb128 0x10
 4548 0b3d 16000000 		.4byte	.LVL137
 4549 0b41 AA0A0000 		.4byte	0xaaa
 4550 0b45 0E       		.uleb128 0xe
 4551 0b46 01       		.uleb128 0x1
 4552 0b47 50       		.byte	0x50
 4553 0b48 02       		.uleb128 0x2
 4554 0b49 76       		.byte	0x76
 4555 0b4a 00       		.sleb128 0
 4556 0b4b 00       		.byte	0
 4557 0b4c 00       		.byte	0
 4558 0b4d 18       		.uleb128 0x18
 4559 0b4e 67080000 		.4byte	.LASF65
 4560 0b52 01       		.byte	0x1
 4561 0b53 3F03     		.2byte	0x33f
 4562 0b55 77000000 		.4byte	0x77
 4563 0b59 00000000 		.4byte	.LFB61
 4564 0b5d 10000000 		.4byte	.LFE61-.LFB61
 4565 0b61 01       		.uleb128 0x1
 4566 0b62 9C       		.byte	0x9c
 4567 0b63 810B0000 		.4byte	0xb81
 4568 0b67 12       		.uleb128 0x12
 4569 0b68 C9050000 		.4byte	.LASF36
 4570 0b6c 01       		.byte	0x1
 4571 0b6d 3F03     		.2byte	0x33f
 4572 0b6f 6B000000 		.4byte	0x6b
 4573 0b73 E8070000 		.4byte	.LLST59
 4574 0b77 0F       		.uleb128 0xf
 4575 0b78 0E000000 		.4byte	.LVL141
 4576 0b7c 4B0A0000 		.4byte	0xa4b
 4577 0b80 00       		.byte	0
 4578 0b81 18       		.uleb128 0x18
 4579 0b82 E3000000 		.4byte	.LASF66
 4580 0b86 01       		.byte	0x1
 4581 0b87 9203     		.2byte	0x392
 4582 0b89 77000000 		.4byte	0x77
 4583 0b8d 00000000 		.4byte	.LFB70
 4584 0b91 20000000 		.4byte	.LFE70-.LFB70
ARM GAS  C:\Users\USUARIO\AppData\Local\Temp\cchqzDaB.s 			page 116


 4585 0b95 01       		.uleb128 0x1
 4586 0b96 9C       		.byte	0x9c
 4587 0b97 F00B0000 		.4byte	0xbf0
 4588 0b9b 12       		.uleb128 0x12
 4589 0b9c C9050000 		.4byte	.LASF36
 4590 0ba0 01       		.byte	0x1
 4591 0ba1 9203     		.2byte	0x392
 4592 0ba3 6B000000 		.4byte	0x6b
 4593 0ba7 09080000 		.4byte	.LLST60
 4594 0bab 14       		.uleb128 0x14
 4595 0bac 77070000 		.4byte	.LASF63
 4596 0bb0 01       		.byte	0x1
 4597 0bb1 9403     		.2byte	0x394
 4598 0bb3 77000000 		.4byte	0x77
 4599 0bb7 2A080000 		.4byte	.LLST61
 4600 0bbb 14       		.uleb128 0x14
 4601 0bbc 33030000 		.4byte	.LASF64
 4602 0bc0 01       		.byte	0x1
 4603 0bc1 9403     		.2byte	0x394
 4604 0bc3 77000000 		.4byte	0x77
 4605 0bc7 49080000 		.4byte	.LLST62
 4606 0bcb 0D       		.uleb128 0xd
 4607 0bcc 0C000000 		.4byte	.LVL145
 4608 0bd0 4D0B0000 		.4byte	0xb4d
 4609 0bd4 DF0B0000 		.4byte	0xbdf
 4610 0bd8 0E       		.uleb128 0xe
 4611 0bd9 01       		.uleb128 0x1
 4612 0bda 50       		.byte	0x50
 4613 0bdb 02       		.uleb128 0x2
 4614 0bdc 76       		.byte	0x76
 4615 0bdd 00       		.sleb128 0
 4616 0bde 00       		.byte	0
 4617 0bdf 10       		.uleb128 0x10
 4618 0be0 16000000 		.4byte	.LVL147
 4619 0be4 4D0B0000 		.4byte	0xb4d
 4620 0be8 0E       		.uleb128 0xe
 4621 0be9 01       		.uleb128 0x1
 4622 0bea 50       		.byte	0x50
 4623 0beb 02       		.uleb128 0x2
 4624 0bec 76       		.byte	0x76
 4625 0bed 00       		.sleb128 0
 4626 0bee 00       		.byte	0
 4627 0bef 00       		.byte	0
 4628 0bf0 18       		.uleb128 0x18
 4629 0bf1 B0070000 		.4byte	.LASF67
 4630 0bf5 01       		.byte	0x1
 4631 0bf6 5F03     		.2byte	0x35f
 4632 0bf8 77000000 		.4byte	0x77
 4633 0bfc 00000000 		.4byte	.LFB65
 4634 0c00 10000000 		.4byte	.LFE65-.LFB65
 4635 0c04 01       		.uleb128 0x1
 4636 0c05 9C       		.byte	0x9c
 4637 0c06 240C0000 		.4byte	0xc24
 4638 0c0a 12       		.uleb128 0x12
 4639 0c0b C9050000 		.4byte	.LASF36
 4640 0c0f 01       		.byte	0x1
 4641 0c10 5F03     		.2byte	0x35f
ARM GAS  C:\Users\USUARIO\AppData\Local\Temp\cchqzDaB.s 			page 117


 4642 0c12 6B000000 		.4byte	0x6b
 4643 0c16 68080000 		.4byte	.LLST63
 4644 0c1a 0F       		.uleb128 0xf
 4645 0c1b 0E000000 		.4byte	.LVL151
 4646 0c1f 4B0A0000 		.4byte	0xa4b
 4647 0c23 00       		.byte	0
 4648 0c24 11       		.uleb128 0x11
 4649 0c25 68060000 		.4byte	.LASF68
 4650 0c29 01       		.byte	0x1
 4651 0c2a C703     		.2byte	0x3c7
 4652 0c2c 00000000 		.4byte	.LFB72
 4653 0c30 60000000 		.4byte	.LFE72-.LFB72
 4654 0c34 01       		.uleb128 0x1
 4655 0c35 9C       		.byte	0x9c
 4656 0c36 510D0000 		.4byte	0xd51
 4657 0c3a 12       		.uleb128 0x12
 4658 0c3b C9050000 		.4byte	.LASF36
 4659 0c3f 01       		.byte	0x1
 4660 0c40 C703     		.2byte	0x3c7
 4661 0c42 6B000000 		.4byte	0x6b
 4662 0c46 89080000 		.4byte	.LLST64
 4663 0c4a 12       		.uleb128 0x12
 4664 0c4b CA020000 		.4byte	.LASF69
 4665 0c4f 01       		.byte	0x1
 4666 0c50 C703     		.2byte	0x3c7
 4667 0c52 77000000 		.4byte	0x77
 4668 0c56 AA080000 		.4byte	.LLST65
 4669 0c5a 12       		.uleb128 0x12
 4670 0c5b 4B000000 		.4byte	.LASF31
 4671 0c5f 01       		.byte	0x1
 4672 0c60 C703     		.2byte	0x3c7
 4673 0c62 C5020000 		.4byte	0x2c5
 4674 0c66 CB080000 		.4byte	.LLST66
 4675 0c6a 12       		.uleb128 0x12
 4676 0c6b 51050000 		.4byte	.LASF50
 4677 0c6f 01       		.byte	0x1
 4678 0c70 C703     		.2byte	0x3c7
 4679 0c72 77000000 		.4byte	0x77
 4680 0c76 F7080000 		.4byte	.LLST67
 4681 0c7a 14       		.uleb128 0x14
 4682 0c7b AB070000 		.4byte	.LASF23
 4683 0c7f 01       		.byte	0x1
 4684 0c80 C903     		.2byte	0x3c9
 4685 0c82 77000000 		.4byte	0x77
 4686 0c86 18090000 		.4byte	.LLST68
 4687 0c8a 14       		.uleb128 0x14
 4688 0c8b BA010000 		.4byte	.LASF70
 4689 0c8f 01       		.byte	0x1
 4690 0c90 CA03     		.2byte	0x3ca
 4691 0c92 77000000 		.4byte	0x77
 4692 0c96 62090000 		.4byte	.LLST69
 4693 0c9a 14       		.uleb128 0x14
 4694 0c9b FA050000 		.4byte	.LASF71
 4695 0c9f 01       		.byte	0x1
 4696 0ca0 CB03     		.2byte	0x3cb
 4697 0ca2 77000000 		.4byte	0x77
 4698 0ca6 90090000 		.4byte	.LLST70
ARM GAS  C:\Users\USUARIO\AppData\Local\Temp\cchqzDaB.s 			page 118


 4699 0caa 14       		.uleb128 0x14
 4700 0cab 85040000 		.4byte	.LASF27
 4701 0caf 01       		.byte	0x1
 4702 0cb0 CC03     		.2byte	0x3cc
 4703 0cb2 77000000 		.4byte	0x77
 4704 0cb6 B6090000 		.4byte	.LLST71
 4705 0cba 0D       		.uleb128 0xd
 4706 0cbb 10000000 		.4byte	.LVL153
 4707 0cbf F00B0000 		.4byte	0xbf0
 4708 0cc3 CE0C0000 		.4byte	0xcce
 4709 0cc7 0E       		.uleb128 0xe
 4710 0cc8 01       		.uleb128 0x1
 4711 0cc9 50       		.byte	0x50
 4712 0cca 02       		.uleb128 0x2
 4713 0ccb 77       		.byte	0x77
 4714 0ccc 00       		.sleb128 0
 4715 0ccd 00       		.byte	0
 4716 0cce 0D       		.uleb128 0xd
 4717 0ccf 36000000 		.4byte	.LVL159
 4718 0cd3 BA060000 		.4byte	0x6ba
 4719 0cd7 F70C0000 		.4byte	0xcf7
 4720 0cdb 0E       		.uleb128 0xe
 4721 0cdc 01       		.uleb128 0x1
 4722 0cdd 50       		.byte	0x50
 4723 0cde 0B       		.uleb128 0xb
 4724 0cdf 75       		.byte	0x75
 4725 0ce0 00       		.sleb128 0
 4726 0ce1 09       		.byte	0x9
 4727 0ce2 F9       		.byte	0xf9
 4728 0ce3 24       		.byte	0x24
 4729 0ce4 09       		.byte	0x9
 4730 0ce5 F9       		.byte	0xf9
 4731 0ce6 25       		.byte	0x25
 4732 0ce7 79       		.byte	0x79
 4733 0ce8 00       		.sleb128 0
 4734 0ce9 22       		.byte	0x22
 4735 0cea 0E       		.uleb128 0xe
 4736 0ceb 01       		.uleb128 0x1
 4737 0cec 51       		.byte	0x51
 4738 0ced 02       		.uleb128 0x2
 4739 0cee 78       		.byte	0x78
 4740 0cef 00       		.sleb128 0
 4741 0cf0 0E       		.uleb128 0xe
 4742 0cf1 01       		.uleb128 0x1
 4743 0cf2 52       		.byte	0x52
 4744 0cf3 02       		.uleb128 0x2
 4745 0cf4 74       		.byte	0x74
 4746 0cf5 00       		.sleb128 0
 4747 0cf6 00       		.byte	0
 4748 0cf7 0D       		.uleb128 0xd
 4749 0cf8 44000000 		.4byte	.LVL160
 4750 0cfc BA060000 		.4byte	0x6ba
 4751 0d00 1D0D0000 		.4byte	0xd1d
 4752 0d04 0E       		.uleb128 0xe
 4753 0d05 01       		.uleb128 0x1
 4754 0d06 50       		.byte	0x50
 4755 0d07 02       		.uleb128 0x2
ARM GAS  C:\Users\USUARIO\AppData\Local\Temp\cchqzDaB.s 			page 119


 4756 0d08 79       		.byte	0x79
 4757 0d09 00       		.sleb128 0
 4758 0d0a 0E       		.uleb128 0xe
 4759 0d0b 01       		.uleb128 0x1
 4760 0d0c 51       		.byte	0x51
 4761 0d0d 05       		.uleb128 0x5
 4762 0d0e 78       		.byte	0x78
 4763 0d0f 00       		.sleb128 0
 4764 0d10 74       		.byte	0x74
 4765 0d11 00       		.sleb128 0
 4766 0d12 22       		.byte	0x22
 4767 0d13 0E       		.uleb128 0xe
 4768 0d14 01       		.uleb128 0x1
 4769 0d15 52       		.byte	0x52
 4770 0d16 05       		.uleb128 0x5
 4771 0d17 76       		.byte	0x76
 4772 0d18 00       		.sleb128 0
 4773 0d19 74       		.byte	0x74
 4774 0d1a 00       		.sleb128 0
 4775 0d1b 1C       		.byte	0x1c
 4776 0d1c 00       		.byte	0
 4777 0d1d 0D       		.uleb128 0xd
 4778 0d1e 4E000000 		.4byte	.LVL162
 4779 0d22 BA060000 		.4byte	0x6ba
 4780 0d26 370D0000 		.4byte	0xd37
 4781 0d2a 0E       		.uleb128 0xe
 4782 0d2b 01       		.uleb128 0x1
 4783 0d2c 51       		.byte	0x51
 4784 0d2d 02       		.uleb128 0x2
 4785 0d2e 78       		.byte	0x78
 4786 0d2f 00       		.sleb128 0
 4787 0d30 0E       		.uleb128 0xe
 4788 0d31 01       		.uleb128 0x1
 4789 0d32 52       		.byte	0x52
 4790 0d33 02       		.uleb128 0x2
 4791 0d34 76       		.byte	0x76
 4792 0d35 00       		.sleb128 0
 4793 0d36 00       		.byte	0
 4794 0d37 10       		.uleb128 0x10
 4795 0d38 58000000 		.4byte	.LVL164
 4796 0d3c 7B050000 		.4byte	0x57b
 4797 0d40 0E       		.uleb128 0xe
 4798 0d41 01       		.uleb128 0x1
 4799 0d42 50       		.byte	0x50
 4800 0d43 02       		.uleb128 0x2
 4801 0d44 77       		.byte	0x77
 4802 0d45 00       		.sleb128 0
 4803 0d46 0E       		.uleb128 0xe
 4804 0d47 01       		.uleb128 0x1
 4805 0d48 51       		.byte	0x51
 4806 0d49 05       		.uleb128 0x5
 4807 0d4a 75       		.byte	0x75
 4808 0d4b 00       		.sleb128 0
 4809 0d4c 76       		.byte	0x76
 4810 0d4d 00       		.sleb128 0
 4811 0d4e 22       		.byte	0x22
 4812 0d4f 00       		.byte	0
ARM GAS  C:\Users\USUARIO\AppData\Local\Temp\cchqzDaB.s 			page 120


 4813 0d50 00       		.byte	0
 4814 0d51 18       		.uleb128 0x18
 4815 0d52 59040000 		.4byte	.LASF72
 4816 0d56 01       		.byte	0x1
 4817 0d57 7703     		.2byte	0x377
 4818 0d59 77000000 		.4byte	0x77
 4819 0d5d 00000000 		.4byte	.LFB68
 4820 0d61 10000000 		.4byte	.LFE68-.LFB68
 4821 0d65 01       		.uleb128 0x1
 4822 0d66 9C       		.byte	0x9c
 4823 0d67 850D0000 		.4byte	0xd85
 4824 0d6b 12       		.uleb128 0x12
 4825 0d6c C9050000 		.4byte	.LASF36
 4826 0d70 01       		.byte	0x1
 4827 0d71 7703     		.2byte	0x377
 4828 0d73 6B000000 		.4byte	0x6b
 4829 0d77 C9090000 		.4byte	.LLST72
 4830 0d7b 0F       		.uleb128 0xf
 4831 0d7c 0E000000 		.4byte	.LVL168
 4832 0d80 4B0A0000 		.4byte	0xa4b
 4833 0d84 00       		.byte	0
 4834 0d85 18       		.uleb128 0x18
 4835 0d86 1B080000 		.4byte	.LASF73
 4836 0d8a 01       		.byte	0x1
 4837 0d8b A702     		.2byte	0x2a7
 4838 0d8d 6B000000 		.4byte	0x6b
 4839 0d91 00000000 		.4byte	.LFB42
 4840 0d95 10000000 		.4byte	.LFE42-.LFB42
 4841 0d99 01       		.uleb128 0x1
 4842 0d9a 9C       		.byte	0x9c
 4843 0d9b B90D0000 		.4byte	0xdb9
 4844 0d9f 12       		.uleb128 0x12
 4845 0da0 C9050000 		.4byte	.LASF36
 4846 0da4 01       		.byte	0x1
 4847 0da5 A702     		.2byte	0x2a7
 4848 0da7 6B000000 		.4byte	0x6b
 4849 0dab EA090000 		.4byte	.LLST73
 4850 0daf 0F       		.uleb128 0xf
 4851 0db0 0E000000 		.4byte	.LVL171
 4852 0db4 24070000 		.4byte	0x724
 4853 0db8 00       		.byte	0
 4854 0db9 11       		.uleb128 0x11
 4855 0dba E3030000 		.4byte	.LASF74
 4856 0dbe 01       		.byte	0x1
 4857 0dbf 9405     		.2byte	0x594
 4858 0dc1 00000000 		.4byte	.LFB88
 4859 0dc5 44000000 		.4byte	.LFE88-.LFB88
 4860 0dc9 01       		.uleb128 0x1
 4861 0dca 9C       		.byte	0x9c
 4862 0dcb 750E0000 		.4byte	0xe75
 4863 0dcf 12       		.uleb128 0x12
 4864 0dd0 C9050000 		.4byte	.LASF36
 4865 0dd4 01       		.byte	0x1
 4866 0dd5 9405     		.2byte	0x594
 4867 0dd7 6B000000 		.4byte	0x6b
 4868 0ddb 0B0A0000 		.4byte	.LLST74
 4869 0ddf 1D       		.uleb128 0x1d
ARM GAS  C:\Users\USUARIO\AppData\Local\Temp\cchqzDaB.s 			page 121


 4870 0de0 697200   		.ascii	"ir\000"
 4871 0de3 01       		.byte	0x1
 4872 0de4 9605     		.2byte	0x596
 4873 0de6 6B000000 		.4byte	0x6b
 4874 0dea 2C0A0000 		.4byte	.LLST75
 4875 0dee 0F       		.uleb128 0xf
 4876 0def 0C000000 		.4byte	.LVL174
 4877 0df3 43030000 		.4byte	0x343
 4878 0df7 0D       		.uleb128 0xd
 4879 0df8 14000000 		.4byte	.LVL175
 4880 0dfc 8E090000 		.4byte	0x98e
 4881 0e00 110E0000 		.4byte	0xe11
 4882 0e04 0E       		.uleb128 0xe
 4883 0e05 01       		.uleb128 0x1
 4884 0e06 50       		.byte	0x50
 4885 0e07 02       		.uleb128 0x2
 4886 0e08 74       		.byte	0x74
 4887 0e09 00       		.sleb128 0
 4888 0e0a 0E       		.uleb128 0xe
 4889 0e0b 01       		.uleb128 0x1
 4890 0e0c 51       		.byte	0x51
 4891 0e0d 02       		.uleb128 0x2
 4892 0e0e 08       		.byte	0x8
 4893 0e0f 20       		.byte	0x20
 4894 0e10 00       		.byte	0
 4895 0e11 0D       		.uleb128 0xd
 4896 0e12 1A000000 		.4byte	.LVL176
 4897 0e16 850D0000 		.4byte	0xd85
 4898 0e1a 250E0000 		.4byte	0xe25
 4899 0e1e 0E       		.uleb128 0xe
 4900 0e1f 01       		.uleb128 0x1
 4901 0e20 50       		.byte	0x50
 4902 0e21 02       		.uleb128 0x2
 4903 0e22 74       		.byte	0x74
 4904 0e23 00       		.sleb128 0
 4905 0e24 00       		.byte	0
 4906 0e25 0D       		.uleb128 0xd
 4907 0e26 22000000 		.4byte	.LVL178
 4908 0e2a 281C0000 		.4byte	0x1c28
 4909 0e2e 380E0000 		.4byte	0xe38
 4910 0e32 0E       		.uleb128 0xe
 4911 0e33 01       		.uleb128 0x1
 4912 0e34 50       		.byte	0x50
 4913 0e35 01       		.uleb128 0x1
 4914 0e36 31       		.byte	0x31
 4915 0e37 00       		.byte	0
 4916 0e38 0D       		.uleb128 0xd
 4917 0e39 28000000 		.4byte	.LVL179
 4918 0e3d 850D0000 		.4byte	0xd85
 4919 0e41 4C0E0000 		.4byte	0xe4c
 4920 0e45 0E       		.uleb128 0xe
 4921 0e46 01       		.uleb128 0x1
 4922 0e47 50       		.byte	0x50
 4923 0e48 02       		.uleb128 0x2
 4924 0e49 74       		.byte	0x74
 4925 0e4a 00       		.sleb128 0
 4926 0e4b 00       		.byte	0
ARM GAS  C:\Users\USUARIO\AppData\Local\Temp\cchqzDaB.s 			page 122


 4927 0e4c 0D       		.uleb128 0xd
 4928 0e4d 36000000 		.4byte	.LVL181
 4929 0e51 7B060000 		.4byte	0x67b
 4930 0e55 650E0000 		.4byte	0xe65
 4931 0e59 0E       		.uleb128 0xe
 4932 0e5a 01       		.uleb128 0x1
 4933 0e5b 50       		.byte	0x50
 4934 0e5c 02       		.uleb128 0x2
 4935 0e5d 74       		.byte	0x74
 4936 0e5e 00       		.sleb128 0
 4937 0e5f 0E       		.uleb128 0xe
 4938 0e60 01       		.uleb128 0x1
 4939 0e61 51       		.byte	0x51
 4940 0e62 01       		.uleb128 0x1
 4941 0e63 40       		.byte	0x40
 4942 0e64 00       		.byte	0
 4943 0e65 10       		.uleb128 0x10
 4944 0e66 3C000000 		.4byte	.LVL182
 4945 0e6a 43030000 		.4byte	0x343
 4946 0e6e 0E       		.uleb128 0xe
 4947 0e6f 01       		.uleb128 0x1
 4948 0e70 50       		.byte	0x50
 4949 0e71 01       		.uleb128 0x1
 4950 0e72 30       		.byte	0x30
 4951 0e73 00       		.byte	0
 4952 0e74 00       		.byte	0
 4953 0e75 11       		.uleb128 0x11
 4954 0e76 4B010000 		.4byte	.LASF75
 4955 0e7a 01       		.byte	0x1
 4956 0e7b C301     		.2byte	0x1c3
 4957 0e7d 00000000 		.4byte	.LFB10
 4958 0e81 1E000000 		.4byte	.LFE10-.LFB10
 4959 0e85 01       		.uleb128 0x1
 4960 0e86 9C       		.byte	0x9c
 4961 0e87 DF0E0000 		.4byte	0xedf
 4962 0e8b 12       		.uleb128 0x12
 4963 0e8c AB070000 		.4byte	.LASF23
 4964 0e90 01       		.byte	0x1
 4965 0e91 C301     		.2byte	0x1c3
 4966 0e93 77000000 		.4byte	0x77
 4967 0e97 4A0A0000 		.4byte	.LLST76
 4968 0e9b 12       		.uleb128 0x12
 4969 0e9c 4B000000 		.4byte	.LASF31
 4970 0ea0 01       		.byte	0x1
 4971 0ea1 C301     		.2byte	0x1c3
 4972 0ea3 C5020000 		.4byte	0x2c5
 4973 0ea7 6B0A0000 		.4byte	.LLST77
 4974 0eab 12       		.uleb128 0x12
 4975 0eac 51050000 		.4byte	.LASF50
 4976 0eb0 01       		.byte	0x1
 4977 0eb1 C301     		.2byte	0x1c3
 4978 0eb3 77000000 		.4byte	0x77
 4979 0eb7 890A0000 		.4byte	.LLST78
 4980 0ebb 14       		.uleb128 0x14
 4981 0ebc C5010000 		.4byte	.LASF30
 4982 0ec0 01       		.byte	0x1
 4983 0ec1 C501     		.2byte	0x1c5
ARM GAS  C:\Users\USUARIO\AppData\Local\Temp\cchqzDaB.s 			page 123


 4984 0ec3 5D000000 		.4byte	0x5d
 4985 0ec7 AA0A0000 		.4byte	.LLST79
 4986 0ecb 10       		.uleb128 0x10
 4987 0ecc 14000000 		.4byte	.LVL186
 4988 0ed0 24070000 		.4byte	0x724
 4989 0ed4 0E       		.uleb128 0xe
 4990 0ed5 01       		.uleb128 0x1
 4991 0ed6 50       		.byte	0x50
 4992 0ed7 05       		.uleb128 0x5
 4993 0ed8 77       		.byte	0x77
 4994 0ed9 00       		.sleb128 0
 4995 0eda 74       		.byte	0x74
 4996 0edb 00       		.sleb128 0
 4997 0edc 22       		.byte	0x22
 4998 0edd 00       		.byte	0
 4999 0ede 00       		.byte	0
 5000 0edf 11       		.uleb128 0x11
 5001 0ee0 F2040000 		.4byte	.LASF76
 5002 0ee4 01       		.byte	0x1
 5003 0ee5 FF03     		.2byte	0x3ff
 5004 0ee7 00000000 		.4byte	.LFB73
 5005 0eeb 6C000000 		.4byte	.LFE73-.LFB73
 5006 0eef 01       		.uleb128 0x1
 5007 0ef0 9C       		.byte	0x9c
 5008 0ef1 1C100000 		.4byte	0x101c
 5009 0ef5 12       		.uleb128 0x12
 5010 0ef6 C9050000 		.4byte	.LASF36
 5011 0efa 01       		.byte	0x1
 5012 0efb FF03     		.2byte	0x3ff
 5013 0efd 6B000000 		.4byte	0x6b
 5014 0f01 C90A0000 		.4byte	.LLST80
 5015 0f05 12       		.uleb128 0x12
 5016 0f06 CA020000 		.4byte	.LASF69
 5017 0f0a 01       		.byte	0x1
 5018 0f0b FF03     		.2byte	0x3ff
 5019 0f0d 77000000 		.4byte	0x77
 5020 0f11 EA0A0000 		.4byte	.LLST81
 5021 0f15 12       		.uleb128 0x12
 5022 0f16 4B000000 		.4byte	.LASF31
 5023 0f1a 01       		.byte	0x1
 5024 0f1b FF03     		.2byte	0x3ff
 5025 0f1d C5020000 		.4byte	0x2c5
 5026 0f21 0B0B0000 		.4byte	.LLST82
 5027 0f25 12       		.uleb128 0x12
 5028 0f26 51050000 		.4byte	.LASF50
 5029 0f2a 01       		.byte	0x1
 5030 0f2b FF03     		.2byte	0x3ff
 5031 0f2d 77000000 		.4byte	0x77
 5032 0f31 370B0000 		.4byte	.LLST83
 5033 0f35 12       		.uleb128 0x12
 5034 0f36 45000000 		.4byte	.LASF77
 5035 0f3a 01       		.byte	0x1
 5036 0f3b FF03     		.2byte	0x3ff
 5037 0f3d 6B000000 		.4byte	0x6b
 5038 0f41 580B0000 		.4byte	.LLST84
 5039 0f45 14       		.uleb128 0x14
 5040 0f46 AB070000 		.4byte	.LASF23
ARM GAS  C:\Users\USUARIO\AppData\Local\Temp\cchqzDaB.s 			page 124


 5041 0f4a 01       		.byte	0x1
 5042 0f4b 0104     		.2byte	0x401
 5043 0f4d 77000000 		.4byte	0x77
 5044 0f51 780B0000 		.4byte	.LLST85
 5045 0f55 14       		.uleb128 0x14
 5046 0f56 BA010000 		.4byte	.LASF70
 5047 0f5a 01       		.byte	0x1
 5048 0f5b 0204     		.2byte	0x402
 5049 0f5d 77000000 		.4byte	0x77
 5050 0f61 C20B0000 		.4byte	.LLST86
 5051 0f65 14       		.uleb128 0x14
 5052 0f66 FA050000 		.4byte	.LASF71
 5053 0f6a 01       		.byte	0x1
 5054 0f6b 0304     		.2byte	0x403
 5055 0f6d 77000000 		.4byte	0x77
 5056 0f71 F00B0000 		.4byte	.LLST87
 5057 0f75 14       		.uleb128 0x14
 5058 0f76 85040000 		.4byte	.LASF27
 5059 0f7a 01       		.byte	0x1
 5060 0f7b 0404     		.2byte	0x404
 5061 0f7d 77000000 		.4byte	0x77
 5062 0f81 160C0000 		.4byte	.LLST88
 5063 0f85 0D       		.uleb128 0xd
 5064 0f86 10000000 		.4byte	.LVL189
 5065 0f8a 510D0000 		.4byte	0xd51
 5066 0f8e 990F0000 		.4byte	0xf99
 5067 0f92 0E       		.uleb128 0xe
 5068 0f93 01       		.uleb128 0x1
 5069 0f94 50       		.byte	0x50
 5070 0f95 02       		.uleb128 0x2
 5071 0f96 78       		.byte	0x78
 5072 0f97 00       		.sleb128 0
 5073 0f98 00       		.byte	0
 5074 0f99 0D       		.uleb128 0xd
 5075 0f9a 3A000000 		.4byte	.LVL195
 5076 0f9e 750E0000 		.4byte	0xe75
 5077 0fa2 C20F0000 		.4byte	0xfc2
 5078 0fa6 0E       		.uleb128 0xe
 5079 0fa7 01       		.uleb128 0x1
 5080 0fa8 50       		.byte	0x50
 5081 0fa9 0B       		.uleb128 0xb
 5082 0faa 75       		.byte	0x75
 5083 0fab 00       		.sleb128 0
 5084 0fac 09       		.byte	0x9
 5085 0fad F9       		.byte	0xf9
 5086 0fae 24       		.byte	0x24
 5087 0faf 09       		.byte	0x9
 5088 0fb0 F9       		.byte	0xf9
 5089 0fb1 25       		.byte	0x25
 5090 0fb2 79       		.byte	0x79
 5091 0fb3 00       		.sleb128 0
 5092 0fb4 22       		.byte	0x22
 5093 0fb5 0E       		.uleb128 0xe
 5094 0fb6 01       		.uleb128 0x1
 5095 0fb7 51       		.byte	0x51
 5096 0fb8 02       		.uleb128 0x2
 5097 0fb9 77       		.byte	0x77
ARM GAS  C:\Users\USUARIO\AppData\Local\Temp\cchqzDaB.s 			page 125


 5098 0fba 00       		.sleb128 0
 5099 0fbb 0E       		.uleb128 0xe
 5100 0fbc 01       		.uleb128 0x1
 5101 0fbd 52       		.byte	0x52
 5102 0fbe 02       		.uleb128 0x2
 5103 0fbf 74       		.byte	0x74
 5104 0fc0 00       		.sleb128 0
 5105 0fc1 00       		.byte	0
 5106 0fc2 0D       		.uleb128 0xd
 5107 0fc3 46000000 		.4byte	.LVL196
 5108 0fc7 750E0000 		.4byte	0xe75
 5109 0fcb E80F0000 		.4byte	0xfe8
 5110 0fcf 0E       		.uleb128 0xe
 5111 0fd0 01       		.uleb128 0x1
 5112 0fd1 50       		.byte	0x50
 5113 0fd2 02       		.uleb128 0x2
 5114 0fd3 79       		.byte	0x79
 5115 0fd4 00       		.sleb128 0
 5116 0fd5 0E       		.uleb128 0xe
 5117 0fd6 01       		.uleb128 0x1
 5118 0fd7 51       		.byte	0x51
 5119 0fd8 05       		.uleb128 0x5
 5120 0fd9 77       		.byte	0x77
 5121 0fda 00       		.sleb128 0
 5122 0fdb 74       		.byte	0x74
 5123 0fdc 00       		.sleb128 0
 5124 0fdd 22       		.byte	0x22
 5125 0fde 0E       		.uleb128 0xe
 5126 0fdf 01       		.uleb128 0x1
 5127 0fe0 52       		.byte	0x52
 5128 0fe1 05       		.uleb128 0x5
 5129 0fe2 76       		.byte	0x76
 5130 0fe3 00       		.sleb128 0
 5131 0fe4 74       		.byte	0x74
 5132 0fe5 00       		.sleb128 0
 5133 0fe6 1C       		.byte	0x1c
 5134 0fe7 00       		.byte	0
 5135 0fe8 0D       		.uleb128 0xd
 5136 0fe9 50000000 		.4byte	.LVL198
 5137 0fed 750E0000 		.4byte	0xe75
 5138 0ff1 02100000 		.4byte	0x1002
 5139 0ff5 0E       		.uleb128 0xe
 5140 0ff6 01       		.uleb128 0x1
 5141 0ff7 51       		.byte	0x51
 5142 0ff8 02       		.uleb128 0x2
 5143 0ff9 77       		.byte	0x77
 5144 0ffa 00       		.sleb128 0
 5145 0ffb 0E       		.uleb128 0xe
 5146 0ffc 01       		.uleb128 0x1
 5147 0ffd 52       		.byte	0x52
 5148 0ffe 02       		.uleb128 0x2
 5149 0fff 76       		.byte	0x76
 5150 1000 00       		.sleb128 0
 5151 1001 00       		.byte	0
 5152 1002 10       		.uleb128 0x10
 5153 1003 64000000 		.4byte	.LVL200
 5154 1007 BB050000 		.4byte	0x5bb
ARM GAS  C:\Users\USUARIO\AppData\Local\Temp\cchqzDaB.s 			page 126


 5155 100b 0E       		.uleb128 0xe
 5156 100c 01       		.uleb128 0x1
 5157 100d 50       		.byte	0x50
 5158 100e 02       		.uleb128 0x2
 5159 100f 78       		.byte	0x78
 5160 1010 00       		.sleb128 0
 5161 1011 0E       		.uleb128 0xe
 5162 1012 01       		.uleb128 0x1
 5163 1013 51       		.byte	0x51
 5164 1014 05       		.uleb128 0x5
 5165 1015 75       		.byte	0x75
 5166 1016 00       		.sleb128 0
 5167 1017 76       		.byte	0x76
 5168 1018 00       		.sleb128 0
 5169 1019 22       		.byte	0x22
 5170 101a 00       		.byte	0
 5171 101b 00       		.byte	0
 5172 101c 1E       		.uleb128 0x1e
 5173 101d 8D000000 		.4byte	.LASF79
 5174 1021 01       		.byte	0x1
 5175 1022 7F04     		.2byte	0x47f
 5176 1024 83000000 		.4byte	0x83
 5177 1028 00000000 		.4byte	.LFB76
 5178 102c AE000000 		.4byte	.LFE76-.LFB76
 5179 1030 01       		.uleb128 0x1
 5180 1031 9C       		.byte	0x9c
 5181 1032 A4100000 		.4byte	0x10a4
 5182 1036 12       		.uleb128 0x12
 5183 1037 CC040000 		.4byte	.LASF80
 5184 103b 01       		.byte	0x1
 5185 103c 7F04     		.2byte	0x47f
 5186 103e C4000000 		.4byte	0xc4
 5187 1042 290C0000 		.4byte	.LLST89
 5188 1046 14       		.uleb128 0x14
 5189 1047 C5010000 		.4byte	.LASF30
 5190 104b 01       		.byte	0x1
 5191 104c 8404     		.2byte	0x484
 5192 104e 5D000000 		.4byte	0x5d
 5193 1052 470C0000 		.4byte	.LLST90
 5194 1056 19       		.uleb128 0x19
 5195 1057 21010000 		.4byte	.LASF81
 5196 105b 01       		.byte	0x1
 5197 105c 8504     		.2byte	0x485
 5198 105e A4100000 		.4byte	0x10a4
 5199 1062 02       		.uleb128 0x2
 5200 1063 91       		.byte	0x91
 5201 1064 60       		.sleb128 -32
 5202 1065 1A       		.uleb128 0x1a
 5203 1066 697000   		.ascii	"ip\000"
 5204 1069 01       		.byte	0x1
 5205 106a 8604     		.2byte	0x486
 5206 106c 1A090000 		.4byte	0x91a
 5207 1070 02       		.uleb128 0x2
 5208 1071 91       		.byte	0x91
 5209 1072 5C       		.sleb128 -36
 5210 1073 14       		.uleb128 0x14
 5211 1074 A8020000 		.4byte	.LASF82
ARM GAS  C:\Users\USUARIO\AppData\Local\Temp\cchqzDaB.s 			page 127


 5212 1078 01       		.byte	0x1
 5213 1079 8704     		.2byte	0x487
 5214 107b 5D000000 		.4byte	0x5d
 5215 107f 870C0000 		.4byte	.LLST91
 5216 1083 14       		.uleb128 0x14
 5217 1084 EA020000 		.4byte	.LASF83
 5218 1088 01       		.byte	0x1
 5219 1089 8804     		.2byte	0x488
 5220 108b 5D000000 		.4byte	0x5d
 5221 108f A60C0000 		.4byte	.LLST92
 5222 1093 10       		.uleb128 0x10
 5223 1094 78000000 		.4byte	.LVL216
 5224 1098 331C0000 		.4byte	0x1c33
 5225 109c 0E       		.uleb128 0xe
 5226 109d 01       		.uleb128 0x1
 5227 109e 50       		.byte	0x50
 5228 109f 02       		.uleb128 0x2
 5229 10a0 76       		.byte	0x76
 5230 10a1 00       		.sleb128 0
 5231 10a2 00       		.byte	0
 5232 10a3 00       		.byte	0
 5233 10a4 1B       		.uleb128 0x1b
 5234 10a5 9D000000 		.4byte	0x9d
 5235 10a9 B4100000 		.4byte	0x10b4
 5236 10ad 1C       		.uleb128 0x1c
 5237 10ae B7000000 		.4byte	0xb7
 5238 10b2 04       		.byte	0x4
 5239 10b3 00       		.byte	0
 5240 10b4 1E       		.uleb128 0x1e
 5241 10b5 95030000 		.4byte	.LASF84
 5242 10b9 01       		.byte	0x1
 5243 10ba B404     		.2byte	0x4b4
 5244 10bc A4000000 		.4byte	0xa4
 5245 10c0 00000000 		.4byte	.LFB77
 5246 10c4 EE000000 		.4byte	.LFE77-.LFB77
 5247 10c8 01       		.uleb128 0x1
 5248 10c9 9C       		.byte	0x9c
 5249 10ca 1D110000 		.4byte	0x111d
 5250 10ce 12       		.uleb128 0x12
 5251 10cf B0020000 		.4byte	.LASF85
 5252 10d3 01       		.byte	0x1
 5253 10d4 B404     		.2byte	0x4b4
 5254 10d6 C4000000 		.4byte	0xc4
 5255 10da 0B0D0000 		.4byte	.LLST93
 5256 10de 1F       		.uleb128 0x1f
 5257 10df 6D616300 		.ascii	"mac\000"
 5258 10e3 01       		.byte	0x1
 5259 10e4 B404     		.2byte	0x4b4
 5260 10e6 C5020000 		.4byte	0x2c5
 5261 10ea 01       		.uleb128 0x1
 5262 10eb 51       		.byte	0x51
 5263 10ec 14       		.uleb128 0x14
 5264 10ed 21010000 		.4byte	.LASF81
 5265 10f1 01       		.byte	0x1
 5266 10f2 BC04     		.2byte	0x4bc
 5267 10f4 5D000000 		.4byte	0x5d
 5268 10f8 2C0D0000 		.4byte	.LLST94
ARM GAS  C:\Users\USUARIO\AppData\Local\Temp\cchqzDaB.s 			page 128


 5269 10fc 14       		.uleb128 0x14
 5270 10fd C5010000 		.4byte	.LASF30
 5271 1101 01       		.byte	0x1
 5272 1102 BD04     		.2byte	0x4bd
 5273 1104 5D000000 		.4byte	0x5d
 5274 1108 4B0D0000 		.4byte	.LLST95
 5275 110c 14       		.uleb128 0x14
 5276 110d D5010000 		.4byte	.LASF86
 5277 1111 01       		.byte	0x1
 5278 1112 BE04     		.2byte	0x4be
 5279 1114 A4000000 		.4byte	0xa4
 5280 1118 B90D0000 		.4byte	.LLST96
 5281 111c 00       		.byte	0
 5282 111d 20       		.uleb128 0x20
 5283 111e C1000000 		.4byte	.LASF88
 5284 1122 01       		.byte	0x1
 5285 1123 E104     		.2byte	0x4e1
 5286 1125 00000000 		.4byte	.LFB78
 5287 1129 62000000 		.4byte	.LFE78-.LFB78
 5288 112d 01       		.uleb128 0x1
 5289 112e 9C       		.byte	0x9c
 5290 112f 83110000 		.4byte	0x1183
 5291 1133 12       		.uleb128 0x12
 5292 1134 B0020000 		.4byte	.LASF85
 5293 1138 01       		.byte	0x1
 5294 1139 E104     		.2byte	0x4e1
 5295 113b BE000000 		.4byte	0xbe
 5296 113f EE0D0000 		.4byte	.LLST97
 5297 1143 1A       		.uleb128 0x1a
 5298 1144 6D616300 		.ascii	"mac\000"
 5299 1148 01       		.byte	0x1
 5300 1149 E304     		.2byte	0x4e3
 5301 114b 83110000 		.4byte	0x1183
 5302 114f 02       		.uleb128 0x2
 5303 1150 91       		.byte	0x91
 5304 1151 68       		.sleb128 -24
 5305 1152 14       		.uleb128 0x14
 5306 1153 21010000 		.4byte	.LASF81
 5307 1157 01       		.byte	0x1
 5308 1158 E404     		.2byte	0x4e4
 5309 115a 5D000000 		.4byte	0x5d
 5310 115e 0C0E0000 		.4byte	.LLST98
 5311 1162 14       		.uleb128 0x14
 5312 1163 C5010000 		.4byte	.LASF30
 5313 1167 01       		.byte	0x1
 5314 1168 E504     		.2byte	0x4e5
 5315 116a 5D000000 		.4byte	0x5d
 5316 116e 2B0E0000 		.4byte	.LLST99
 5317 1172 10       		.uleb128 0x10
 5318 1173 0C000000 		.4byte	.LVL236
 5319 1177 71080000 		.4byte	0x871
 5320 117b 0E       		.uleb128 0xe
 5321 117c 01       		.uleb128 0x1
 5322 117d 50       		.byte	0x50
 5323 117e 02       		.uleb128 0x2
 5324 117f 7D       		.byte	0x7d
 5325 1180 00       		.sleb128 0
ARM GAS  C:\Users\USUARIO\AppData\Local\Temp\cchqzDaB.s 			page 129


 5326 1181 00       		.byte	0
 5327 1182 00       		.byte	0
 5328 1183 1B       		.uleb128 0x1b
 5329 1184 6B000000 		.4byte	0x6b
 5330 1188 93110000 		.4byte	0x1193
 5331 118c 1C       		.uleb128 0x1c
 5332 118d B7000000 		.4byte	0xb7
 5333 1191 05       		.byte	0x5
 5334 1192 00       		.byte	0
 5335 1193 20       		.uleb128 0x20
 5336 1194 95050000 		.4byte	.LASF89
 5337 1198 01       		.byte	0x1
 5338 1199 FB04     		.2byte	0x4fb
 5339 119b 00000000 		.4byte	.LFB79
 5340 119f 7C000000 		.4byte	.LFE79-.LFB79
 5341 11a3 01       		.uleb128 0x1
 5342 11a4 9C       		.byte	0x9c
 5343 11a5 21120000 		.4byte	0x1221
 5344 11a9 12       		.uleb128 0x12
 5345 11aa CC040000 		.4byte	.LASF80
 5346 11ae 01       		.byte	0x1
 5347 11af FB04     		.2byte	0x4fb
 5348 11b1 BE000000 		.4byte	0xbe
 5349 11b5 810E0000 		.4byte	.LLST100
 5350 11b9 1A       		.uleb128 0x1a
 5351 11ba 697000   		.ascii	"ip\000"
 5352 11bd 01       		.byte	0x1
 5353 11be FD04     		.2byte	0x4fd
 5354 11c0 83000000 		.4byte	0x83
 5355 11c4 02       		.uleb128 0x2
 5356 11c5 91       		.byte	0x91
 5357 11c6 6C       		.sleb128 -20
 5358 11c7 14       		.uleb128 0x14
 5359 11c8 B3030000 		.4byte	.LASF90
 5360 11cc 01       		.byte	0x1
 5361 11cd FE04     		.2byte	0x4fe
 5362 11cf C5020000 		.4byte	0x2c5
 5363 11d3 AD0E0000 		.4byte	.LLST101
 5364 11d7 14       		.uleb128 0x14
 5365 11d8 C5010000 		.4byte	.LASF30
 5366 11dc 01       		.byte	0x1
 5367 11dd FF04     		.2byte	0x4ff
 5368 11df 5D000000 		.4byte	0x5d
 5369 11e3 CF0E0000 		.4byte	.LLST102
 5370 11e7 14       		.uleb128 0x14
 5371 11e8 21010000 		.4byte	.LASF81
 5372 11ec 01       		.byte	0x1
 5373 11ed 0005     		.2byte	0x500
 5374 11ef 5D000000 		.4byte	0x5d
 5375 11f3 4A0F0000 		.4byte	.LLST103
 5376 11f7 14       		.uleb128 0x14
 5377 11f8 AE050000 		.4byte	.LASF91
 5378 11fc 01       		.byte	0x1
 5379 11fd 0105     		.2byte	0x501
 5380 11ff 5D000000 		.4byte	0x5d
 5381 1203 690F0000 		.4byte	.LLST104
 5382 1207 14       		.uleb128 0x14
ARM GAS  C:\Users\USUARIO\AppData\Local\Temp\cchqzDaB.s 			page 130


 5383 1208 6F050000 		.4byte	.LASF92
 5384 120c 01       		.byte	0x1
 5385 120d 0105     		.2byte	0x501
 5386 120f 5D000000 		.4byte	0x5d
 5387 1213 960F0000 		.4byte	.LLST105
 5388 1217 0F       		.uleb128 0xf
 5389 1218 0A000000 		.4byte	.LVL245
 5390 121c 30090000 		.4byte	0x930
 5391 1220 00       		.byte	0
 5392 1221 1E       		.uleb128 0x1e
 5393 1222 09030000 		.4byte	.LASF93
 5394 1226 01       		.byte	0x1
 5395 1227 1E05     		.2byte	0x51e
 5396 1229 6B000000 		.4byte	0x6b
 5397 122d 00000000 		.4byte	.LFB80
 5398 1231 16000000 		.4byte	.LFE80-.LFB80
 5399 1235 01       		.uleb128 0x1
 5400 1236 9C       		.byte	0x9c
 5401 1237 6B120000 		.4byte	0x126b
 5402 123b 13       		.uleb128 0x13
 5403 123c 697000   		.ascii	"ip\000"
 5404 123f 01       		.byte	0x1
 5405 1240 1E05     		.2byte	0x51e
 5406 1242 83000000 		.4byte	0x83
 5407 1246 CE0F0000 		.4byte	.LLST106
 5408 124a 1D       		.uleb128 0x1d
 5409 124b 6F6B00   		.ascii	"ok\000"
 5410 124e 01       		.byte	0x1
 5411 124f 2005     		.2byte	0x520
 5412 1251 6B000000 		.4byte	0x6b
 5413 1255 07100000 		.4byte	.LLST107
 5414 1259 10       		.uleb128 0x10
 5415 125a 0E000000 		.4byte	.LVL268
 5416 125e 07030000 		.4byte	0x307
 5417 1262 0E       		.uleb128 0xe
 5418 1263 01       		.uleb128 0x1
 5419 1264 50       		.byte	0x50
 5420 1265 03       		.uleb128 0x3
 5421 1266 F3       		.byte	0xf3
 5422 1267 01       		.uleb128 0x1
 5423 1268 50       		.byte	0x50
 5424 1269 00       		.byte	0
 5425 126a 00       		.byte	0
 5426 126b 1E       		.uleb128 0x1e
 5427 126c 7A040000 		.4byte	.LASF94
 5428 1270 01       		.byte	0x1
 5429 1271 2B05     		.2byte	0x52b
 5430 1273 83000000 		.4byte	0x83
 5431 1277 00000000 		.4byte	.LFB81
 5432 127b 08000000 		.4byte	.LFE81-.LFB81
 5433 127f 01       		.uleb128 0x1
 5434 1280 9C       		.byte	0x9c
 5435 1281 8F120000 		.4byte	0x128f
 5436 1285 0F       		.uleb128 0xf
 5437 1286 06000000 		.4byte	.LVL271
 5438 128a 30090000 		.4byte	0x930
 5439 128e 00       		.byte	0
ARM GAS  C:\Users\USUARIO\AppData\Local\Temp\cchqzDaB.s 			page 131


 5440 128f 20       		.uleb128 0x20
 5441 1290 08060000 		.4byte	.LASF95
 5442 1294 01       		.byte	0x1
 5443 1295 3105     		.2byte	0x531
 5444 1297 00000000 		.4byte	.LFB82
 5445 129b 08000000 		.4byte	.LFE82-.LFB82
 5446 129f 01       		.uleb128 0x1
 5447 12a0 9C       		.byte	0x9c
 5448 12a1 C7120000 		.4byte	0x12c7
 5449 12a5 13       		.uleb128 0x13
 5450 12a6 6D616300 		.ascii	"mac\000"
 5451 12aa 01       		.byte	0x1
 5452 12ab 3105     		.2byte	0x531
 5453 12ad C5020000 		.4byte	0x2c5
 5454 12b1 3F100000 		.4byte	.LLST108
 5455 12b5 10       		.uleb128 0x10
 5456 12b6 06000000 		.4byte	.LVL273
 5457 12ba 20040000 		.4byte	0x420
 5458 12be 0E       		.uleb128 0xe
 5459 12bf 01       		.uleb128 0x1
 5460 12c0 50       		.byte	0x50
 5461 12c1 03       		.uleb128 0x3
 5462 12c2 F3       		.byte	0xf3
 5463 12c3 01       		.uleb128 0x1
 5464 12c4 50       		.byte	0x50
 5465 12c5 00       		.byte	0
 5466 12c6 00       		.byte	0
 5467 12c7 20       		.uleb128 0x20
 5468 12c8 4D040000 		.4byte	.LASF96
 5469 12cc 01       		.byte	0x1
 5470 12cd 3705     		.2byte	0x537
 5471 12cf 00000000 		.4byte	.LFB83
 5472 12d3 08000000 		.4byte	.LFE83-.LFB83
 5473 12d7 01       		.uleb128 0x1
 5474 12d8 9C       		.byte	0x9c
 5475 12d9 FF120000 		.4byte	0x12ff
 5476 12dd 13       		.uleb128 0x13
 5477 12de 6D616300 		.ascii	"mac\000"
 5478 12e2 01       		.byte	0x1
 5479 12e3 3705     		.2byte	0x537
 5480 12e5 C5020000 		.4byte	0x2c5
 5481 12e9 60100000 		.4byte	.LLST109
 5482 12ed 10       		.uleb128 0x10
 5483 12ee 06000000 		.4byte	.LVL275
 5484 12f2 71080000 		.4byte	0x871
 5485 12f6 0E       		.uleb128 0xe
 5486 12f7 01       		.uleb128 0x1
 5487 12f8 50       		.byte	0x50
 5488 12f9 03       		.uleb128 0x3
 5489 12fa F3       		.byte	0xf3
 5490 12fb 01       		.uleb128 0x1
 5491 12fc 50       		.byte	0x50
 5492 12fd 00       		.byte	0
 5493 12fe 00       		.byte	0
 5494 12ff 1E       		.uleb128 0x1e
 5495 1300 57080000 		.4byte	.LASF97
 5496 1304 01       		.byte	0x1
ARM GAS  C:\Users\USUARIO\AppData\Local\Temp\cchqzDaB.s 			page 132


 5497 1305 4105     		.2byte	0x541
 5498 1307 6B000000 		.4byte	0x6b
 5499 130b 00000000 		.4byte	.LFB84
 5500 130f 68000000 		.4byte	.LFE84-.LFB84
 5501 1313 01       		.uleb128 0x1
 5502 1314 9C       		.byte	0x9c
 5503 1315 B0130000 		.4byte	0x13b0
 5504 1319 12       		.uleb128 0x12
 5505 131a 71040000 		.4byte	.LASF18
 5506 131e 01       		.byte	0x1
 5507 131f 4105     		.2byte	0x541
 5508 1321 6B000000 		.4byte	0x6b
 5509 1325 81100000 		.4byte	.LLST110
 5510 1329 12       		.uleb128 0x12
 5511 132a 51030000 		.4byte	.LASF42
 5512 132e 01       		.byte	0x1
 5513 132f 4105     		.2byte	0x541
 5514 1331 77000000 		.4byte	0x77
 5515 1335 A2100000 		.4byte	.LLST111
 5516 1339 12       		.uleb128 0x12
 5517 133a 45000000 		.4byte	.LASF77
 5518 133e 01       		.byte	0x1
 5519 133f 4105     		.2byte	0x541
 5520 1341 6B000000 		.4byte	0x6b
 5521 1345 C3100000 		.4byte	.LLST112
 5522 1349 14       		.uleb128 0x14
 5523 134a C9050000 		.4byte	.LASF36
 5524 134e 01       		.byte	0x1
 5525 134f 4305     		.2byte	0x543
 5526 1351 6B000000 		.4byte	0x6b
 5527 1355 E4100000 		.4byte	.LLST113
 5528 1359 14       		.uleb128 0x14
 5529 135a C5010000 		.4byte	.LASF30
 5530 135e 01       		.byte	0x1
 5531 135f 4405     		.2byte	0x544
 5532 1361 5D000000 		.4byte	0x5d
 5533 1365 04110000 		.4byte	.LLST114
 5534 1369 0D       		.uleb128 0xd
 5535 136a 4E000000 		.4byte	.LVL284
 5536 136e FB040000 		.4byte	0x4fb
 5537 1372 7D130000 		.4byte	0x137d
 5538 1376 0E       		.uleb128 0xe
 5539 1377 01       		.uleb128 0x1
 5540 1378 50       		.byte	0x50
 5541 1379 02       		.uleb128 0x2
 5542 137a 74       		.byte	0x74
 5543 137b 00       		.sleb128 0
 5544 137c 00       		.byte	0
 5545 137d 0D       		.uleb128 0xd
 5546 137e 58000000 		.4byte	.LVL285
 5547 1382 FB050000 		.4byte	0x5fb
 5548 1386 9A130000 		.4byte	0x139a
 5549 138a 0E       		.uleb128 0xe
 5550 138b 01       		.uleb128 0x1
 5551 138c 50       		.byte	0x50
 5552 138d 02       		.uleb128 0x2
 5553 138e 74       		.byte	0x74
ARM GAS  C:\Users\USUARIO\AppData\Local\Temp\cchqzDaB.s 			page 133


 5554 138f 00       		.sleb128 0
 5555 1390 0E       		.uleb128 0xe
 5556 1391 01       		.uleb128 0x1
 5557 1392 51       		.byte	0x51
 5558 1393 05       		.uleb128 0x5
 5559 1394 75       		.byte	0x75
 5560 1395 00       		.sleb128 0
 5561 1396 76       		.byte	0x76
 5562 1397 00       		.sleb128 0
 5563 1398 21       		.byte	0x21
 5564 1399 00       		.byte	0
 5565 139a 10       		.uleb128 0x10
 5566 139b 60000000 		.4byte	.LVL286
 5567 139f 8E090000 		.4byte	0x98e
 5568 13a3 0E       		.uleb128 0xe
 5569 13a4 01       		.uleb128 0x1
 5570 13a5 50       		.byte	0x50
 5571 13a6 02       		.uleb128 0x2
 5572 13a7 74       		.byte	0x74
 5573 13a8 00       		.sleb128 0
 5574 13a9 0E       		.uleb128 0xe
 5575 13aa 01       		.uleb128 0x1
 5576 13ab 51       		.byte	0x51
 5577 13ac 01       		.uleb128 0x1
 5578 13ad 31       		.byte	0x31
 5579 13ae 00       		.byte	0
 5580 13af 00       		.byte	0
 5581 13b0 20       		.uleb128 0x20
 5582 13b1 D2030000 		.4byte	.LASF98
 5583 13b5 01       		.byte	0x1
 5584 13b6 6A05     		.2byte	0x56a
 5585 13b8 00000000 		.4byte	.LFB85
 5586 13bc 30000000 		.4byte	.LFE85-.LFB85
 5587 13c0 01       		.uleb128 0x1
 5588 13c1 9C       		.byte	0x9c
 5589 13c2 06140000 		.4byte	0x1406
 5590 13c6 12       		.uleb128 0x12
 5591 13c7 C9050000 		.4byte	.LASF36
 5592 13cb 01       		.byte	0x1
 5593 13cc 6A05     		.2byte	0x56a
 5594 13ce 6B000000 		.4byte	0x6b
 5595 13d2 23110000 		.4byte	.LLST115
 5596 13d6 0D       		.uleb128 0xd
 5597 13d7 20000000 		.4byte	.LVL290
 5598 13db 8E090000 		.4byte	0x98e
 5599 13df EF130000 		.4byte	0x13ef
 5600 13e3 0E       		.uleb128 0xe
 5601 13e4 01       		.uleb128 0x1
 5602 13e5 50       		.byte	0x50
 5603 13e6 02       		.uleb128 0x2
 5604 13e7 74       		.byte	0x74
 5605 13e8 00       		.sleb128 0
 5606 13e9 0E       		.uleb128 0xe
 5607 13ea 01       		.uleb128 0x1
 5608 13eb 51       		.byte	0x51
 5609 13ec 01       		.uleb128 0x1
 5610 13ed 40       		.byte	0x40
ARM GAS  C:\Users\USUARIO\AppData\Local\Temp\cchqzDaB.s 			page 134


 5611 13ee 00       		.byte	0
 5612 13ef 10       		.uleb128 0x10
 5613 13f0 28000000 		.4byte	.LVL291
 5614 13f4 7B060000 		.4byte	0x67b
 5615 13f8 0E       		.uleb128 0xe
 5616 13f9 01       		.uleb128 0x1
 5617 13fa 50       		.byte	0x50
 5618 13fb 02       		.uleb128 0x2
 5619 13fc 74       		.byte	0x74
 5620 13fd 00       		.sleb128 0
 5621 13fe 0E       		.uleb128 0xe
 5622 13ff 01       		.uleb128 0x1
 5623 1400 51       		.byte	0x51
 5624 1401 02       		.uleb128 0x2
 5625 1402 09       		.byte	0x9
 5626 1403 FF       		.byte	0xff
 5627 1404 00       		.byte	0
 5628 1405 00       		.byte	0
 5629 1406 20       		.uleb128 0x20
 5630 1407 72010000 		.4byte	.LASF99
 5631 140b 01       		.byte	0x1
 5632 140c 3504     		.2byte	0x435
 5633 140e 00000000 		.4byte	.LFB74
 5634 1412 6C000000 		.4byte	.LFE74-.LFB74
 5635 1416 01       		.uleb128 0x1
 5636 1417 9C       		.byte	0x9c
 5637 1418 56150000 		.4byte	0x1556
 5638 141c 13       		.uleb128 0x13
 5639 141d 6D616300 		.ascii	"mac\000"
 5640 1421 01       		.byte	0x1
 5641 1422 3504     		.2byte	0x435
 5642 1424 C5020000 		.4byte	0x2c5
 5643 1428 4F110000 		.4byte	.LLST116
 5644 142c 13       		.uleb128 0x13
 5645 142d 697000   		.ascii	"ip\000"
 5646 1430 01       		.byte	0x1
 5647 1431 3504     		.2byte	0x435
 5648 1433 83000000 		.4byte	0x83
 5649 1437 7B110000 		.4byte	.LLST117
 5650 143b 12       		.uleb128 0x12
 5651 143c 04020000 		.4byte	.LASF100
 5652 1440 01       		.byte	0x1
 5653 1441 3504     		.2byte	0x435
 5654 1443 83000000 		.4byte	0x83
 5655 1447 A7110000 		.4byte	.LLST118
 5656 144b 12       		.uleb128 0x12
 5657 144c 0C010000 		.4byte	.LASF101
 5658 1450 01       		.byte	0x1
 5659 1451 3504     		.2byte	0x435
 5660 1453 83000000 		.4byte	0x83
 5661 1457 D3110000 		.4byte	.LLST119
 5662 145b 14       		.uleb128 0x14
 5663 145c C5010000 		.4byte	.LASF30
 5664 1460 01       		.byte	0x1
 5665 1461 3C04     		.2byte	0x43c
 5666 1463 5D000000 		.4byte	0x5d
 5667 1467 FF110000 		.4byte	.LLST120
ARM GAS  C:\Users\USUARIO\AppData\Local\Temp\cchqzDaB.s 			page 135


 5668 146b 0D       		.uleb128 0xd
 5669 146c 12000000 		.4byte	.LVL295
 5670 1470 281C0000 		.4byte	0x1c28
 5671 1474 7F140000 		.4byte	0x147f
 5672 1478 0E       		.uleb128 0xe
 5673 1479 01       		.uleb128 0x1
 5674 147a 50       		.byte	0x50
 5675 147b 02       		.uleb128 0x2
 5676 147c 08       		.byte	0x8
 5677 147d FA       		.byte	0xfa
 5678 147e 00       		.byte	0
 5679 147f 0D       		.uleb128 0xd
 5680 1480 18000000 		.4byte	.LVL296
 5681 1484 BA010000 		.4byte	0x1ba
 5682 1488 93140000 		.4byte	0x1493
 5683 148c 0E       		.uleb128 0xe
 5684 148d 01       		.uleb128 0x1
 5685 148e 50       		.byte	0x50
 5686 148f 02       		.uleb128 0x2
 5687 1490 09       		.byte	0x9
 5688 1491 80       		.byte	0x80
 5689 1492 00       		.byte	0
 5690 1493 0D       		.uleb128 0xd
 5691 1494 1E000000 		.4byte	.LVL297
 5692 1498 281C0000 		.4byte	0x1c28
 5693 149c A6140000 		.4byte	0x14a6
 5694 14a0 0E       		.uleb128 0xe
 5695 14a1 01       		.uleb128 0x1
 5696 14a2 50       		.byte	0x50
 5697 14a3 01       		.uleb128 0x1
 5698 14a4 3A       		.byte	0x3a
 5699 14a5 00       		.byte	0
 5700 14a6 0D       		.uleb128 0xd
 5701 14a7 28000000 		.4byte	.LVL299
 5702 14ab B0130000 		.4byte	0x13b0
 5703 14af BA140000 		.4byte	0x14ba
 5704 14b3 0E       		.uleb128 0xe
 5705 14b4 01       		.uleb128 0x1
 5706 14b5 50       		.byte	0x50
 5707 14b6 02       		.uleb128 0x2
 5708 14b7 74       		.byte	0x74
 5709 14b8 00       		.sleb128 0
 5710 14b9 00       		.byte	0
 5711 14ba 0D       		.uleb128 0xd
 5712 14bb 34000000 		.4byte	.LVL301
 5713 14bf F0010000 		.4byte	0x1f0
 5714 14c3 CE140000 		.4byte	0x14ce
 5715 14c7 0E       		.uleb128 0xe
 5716 14c8 01       		.uleb128 0x1
 5717 14c9 50       		.byte	0x50
 5718 14ca 02       		.uleb128 0x2
 5719 14cb 08       		.byte	0x8
 5720 14cc 55       		.byte	0x55
 5721 14cd 00       		.byte	0
 5722 14ce 0D       		.uleb128 0xd
 5723 14cf 3A000000 		.4byte	.LVL302
 5724 14d3 26020000 		.4byte	0x226
ARM GAS  C:\Users\USUARIO\AppData\Local\Temp\cchqzDaB.s 			page 136


 5725 14d7 E2140000 		.4byte	0x14e2
 5726 14db 0E       		.uleb128 0xe
 5727 14dc 01       		.uleb128 0x1
 5728 14dd 50       		.byte	0x50
 5729 14de 02       		.uleb128 0x2
 5730 14df 08       		.byte	0x8
 5731 14e0 55       		.byte	0x55
 5732 14e1 00       		.byte	0
 5733 14e2 0D       		.uleb128 0xd
 5734 14e3 40000000 		.4byte	.LVL303
 5735 14e7 CB020000 		.4byte	0x2cb
 5736 14eb F6140000 		.4byte	0x14f6
 5737 14ef 0E       		.uleb128 0xe
 5738 14f0 01       		.uleb128 0x1
 5739 14f1 50       		.byte	0x50
 5740 14f2 02       		.uleb128 0x2
 5741 14f3 78       		.byte	0x78
 5742 14f4 00       		.sleb128 0
 5743 14f5 00       		.byte	0
 5744 14f6 0D       		.uleb128 0xd
 5745 14f7 46000000 		.4byte	.LVL304
 5746 14fb 43030000 		.4byte	0x343
 5747 14ff 0A150000 		.4byte	0x150a
 5748 1503 0E       		.uleb128 0xe
 5749 1504 01       		.uleb128 0x1
 5750 1505 50       		.byte	0x50
 5751 1506 02       		.uleb128 0x2
 5752 1507 75       		.byte	0x75
 5753 1508 00       		.sleb128 0
 5754 1509 00       		.byte	0
 5755 150a 0D       		.uleb128 0xd
 5756 150b 50000000 		.4byte	.LVL305
 5757 150f 20040000 		.4byte	0x420
 5758 1513 1E150000 		.4byte	0x151e
 5759 1517 0E       		.uleb128 0xe
 5760 1518 01       		.uleb128 0x1
 5761 1519 50       		.byte	0x50
 5762 151a 02       		.uleb128 0x2
 5763 151b 77       		.byte	0x77
 5764 151c 00       		.sleb128 0
 5765 151d 00       		.byte	0
 5766 151e 0D       		.uleb128 0xd
 5767 151f 56000000 		.4byte	.LVL306
 5768 1523 07030000 		.4byte	0x307
 5769 1527 32150000 		.4byte	0x1532
 5770 152b 0E       		.uleb128 0xe
 5771 152c 01       		.uleb128 0x1
 5772 152d 50       		.byte	0x50
 5773 152e 02       		.uleb128 0x2
 5774 152f 76       		.byte	0x76
 5775 1530 00       		.sleb128 0
 5776 1531 00       		.byte	0
 5777 1532 0D       		.uleb128 0xd
 5778 1533 5C000000 		.4byte	.LVL307
 5779 1537 5D040000 		.4byte	0x45d
 5780 153b 46150000 		.4byte	0x1546
 5781 153f 0E       		.uleb128 0xe
ARM GAS  C:\Users\USUARIO\AppData\Local\Temp\cchqzDaB.s 			page 137


 5782 1540 01       		.uleb128 0x1
 5783 1541 50       		.byte	0x50
 5784 1542 02       		.uleb128 0x2
 5785 1543 09       		.byte	0x9
 5786 1544 FF       		.byte	0xff
 5787 1545 00       		.byte	0
 5788 1546 10       		.uleb128 0x10
 5789 1547 62000000 		.4byte	.LVL308
 5790 154b 43030000 		.4byte	0x343
 5791 154f 0E       		.uleb128 0xe
 5792 1550 01       		.uleb128 0x1
 5793 1551 50       		.byte	0x50
 5794 1552 01       		.uleb128 0x1
 5795 1553 30       		.byte	0x30
 5796 1554 00       		.byte	0
 5797 1555 00       		.byte	0
 5798 1556 20       		.uleb128 0x20
 5799 1557 94010000 		.4byte	.LASF102
 5800 155b 01       		.byte	0x1
 5801 155c 5C04     		.2byte	0x45c
 5802 155e 00000000 		.4byte	.LFB75
 5803 1562 78000000 		.4byte	.LFE75-.LFB75
 5804 1566 01       		.uleb128 0x1
 5805 1567 9C       		.byte	0x9c
 5806 1568 3C160000 		.4byte	0x163c
 5807 156c 1D       		.uleb128 0x1d
 5808 156d 697000   		.ascii	"ip\000"
 5809 1570 01       		.byte	0x1
 5810 1571 5E04     		.2byte	0x45e
 5811 1573 83000000 		.4byte	0x83
 5812 1577 1E120000 		.4byte	.LLST121
 5813 157b 14       		.uleb128 0x14
 5814 157c 0C010000 		.4byte	.LASF101
 5815 1580 01       		.byte	0x1
 5816 1581 5F04     		.2byte	0x45f
 5817 1583 83000000 		.4byte	0x83
 5818 1587 3C120000 		.4byte	.LLST122
 5819 158b 1D       		.uleb128 0x1d
 5820 158c 73756200 		.ascii	"sub\000"
 5821 1590 01       		.byte	0x1
 5822 1591 6004     		.2byte	0x460
 5823 1593 83000000 		.4byte	0x83
 5824 1597 5A120000 		.4byte	.LLST123
 5825 159b 0F       		.uleb128 0xf
 5826 159c 0C000000 		.4byte	.LVL310
 5827 15a0 3E1C0000 		.4byte	0x1c3e
 5828 15a4 0D       		.uleb128 0xd
 5829 15a5 12000000 		.4byte	.LVL311
 5830 15a9 281C0000 		.4byte	0x1c28
 5831 15ad B7150000 		.4byte	0x15b7
 5832 15b1 0E       		.uleb128 0xe
 5833 15b2 01       		.uleb128 0x1
 5834 15b3 50       		.byte	0x50
 5835 15b4 01       		.uleb128 0x1
 5836 15b5 3A       		.byte	0x3a
 5837 15b6 00       		.byte	0
 5838 15b7 0D       		.uleb128 0xd
ARM GAS  C:\Users\USUARIO\AppData\Local\Temp\cchqzDaB.s 			page 138


 5839 15b8 1A000000 		.4byte	.LVL312
 5840 15bc B4100000 		.4byte	0x10b4
 5841 15c0 D7150000 		.4byte	0x15d7
 5842 15c4 0E       		.uleb128 0xe
 5843 15c5 01       		.uleb128 0x1
 5844 15c6 50       		.byte	0x50
 5845 15c7 05       		.uleb128 0x5
 5846 15c8 03       		.byte	0x3
 5847 15c9 00000000 		.4byte	.LC0
 5848 15cd 0E       		.uleb128 0xe
 5849 15ce 01       		.uleb128 0x1
 5850 15cf 51       		.byte	0x51
 5851 15d0 05       		.uleb128 0x5
 5852 15d1 03       		.byte	0x3
 5853 15d2 1C000000 		.4byte	.LANCHOR1+28
 5854 15d6 00       		.byte	0
 5855 15d7 0D       		.uleb128 0xd
 5856 15d8 3E000000 		.4byte	.LVL313
 5857 15dc 1C100000 		.4byte	0x101c
 5858 15e0 EE150000 		.4byte	0x15ee
 5859 15e4 0E       		.uleb128 0xe
 5860 15e5 01       		.uleb128 0x1
 5861 15e6 50       		.byte	0x50
 5862 15e7 05       		.uleb128 0x5
 5863 15e8 03       		.byte	0x3
 5864 15e9 24000000 		.4byte	.LC1
 5865 15ed 00       		.byte	0
 5866 15ee 0D       		.uleb128 0xd
 5867 15ef 46000000 		.4byte	.LVL316
 5868 15f3 1C100000 		.4byte	0x101c
 5869 15f7 05160000 		.4byte	0x1605
 5870 15fb 0E       		.uleb128 0xe
 5871 15fc 01       		.uleb128 0x1
 5872 15fd 50       		.byte	0x50
 5873 15fe 05       		.uleb128 0x5
 5874 15ff 03       		.byte	0x3
 5875 1600 34000000 		.4byte	.LC2
 5876 1604 00       		.byte	0
 5877 1605 0D       		.uleb128 0xd
 5878 1606 4E000000 		.4byte	.LVL319
 5879 160a 1C100000 		.4byte	0x101c
 5880 160e 1C160000 		.4byte	0x161c
 5881 1612 0E       		.uleb128 0xe
 5882 1613 01       		.uleb128 0x1
 5883 1614 50       		.byte	0x50
 5884 1615 05       		.uleb128 0x5
 5885 1616 03       		.byte	0x3
 5886 1617 44000000 		.4byte	.LC3
 5887 161b 00       		.byte	0
 5888 161c 10       		.uleb128 0x10
 5889 161d 5A000000 		.4byte	.LVL321
 5890 1621 06140000 		.4byte	0x1406
 5891 1625 0E       		.uleb128 0xe
 5892 1626 01       		.uleb128 0x1
 5893 1627 50       		.byte	0x50
 5894 1628 05       		.uleb128 0x5
 5895 1629 03       		.byte	0x3
ARM GAS  C:\Users\USUARIO\AppData\Local\Temp\cchqzDaB.s 			page 139


 5896 162a 1C000000 		.4byte	.LANCHOR1+28
 5897 162e 0E       		.uleb128 0xe
 5898 162f 01       		.uleb128 0x1
 5899 1630 51       		.byte	0x51
 5900 1631 02       		.uleb128 0x2
 5901 1632 74       		.byte	0x74
 5902 1633 00       		.sleb128 0
 5903 1634 0E       		.uleb128 0xe
 5904 1635 01       		.uleb128 0x1
 5905 1636 52       		.byte	0x52
 5906 1637 02       		.uleb128 0x2
 5907 1638 75       		.byte	0x75
 5908 1639 00       		.sleb128 0
 5909 163a 00       		.byte	0
 5910 163b 00       		.byte	0
 5911 163c 1E       		.uleb128 0x1e
 5912 163d 7D070000 		.4byte	.LASF103
 5913 1641 01       		.byte	0x1
 5914 1642 7C05     		.2byte	0x57c
 5915 1644 6B000000 		.4byte	0x6b
 5916 1648 00000000 		.4byte	.LFB86
 5917 164c 20000000 		.4byte	.LFE86-.LFB86
 5918 1650 01       		.uleb128 0x1
 5919 1651 9C       		.byte	0x9c
 5920 1652 AF160000 		.4byte	0x16af
 5921 1656 12       		.uleb128 0x12
 5922 1657 C9050000 		.4byte	.LASF36
 5923 165b 01       		.byte	0x1
 5924 165c 7C05     		.2byte	0x57c
 5925 165e 6B000000 		.4byte	0x6b
 5926 1662 78120000 		.4byte	.LLST124
 5927 1666 14       		.uleb128 0x14
 5928 1667 58050000 		.4byte	.LASF104
 5929 166b 01       		.byte	0x1
 5930 166c 7E05     		.2byte	0x57e
 5931 166e 6B000000 		.4byte	0x6b
 5932 1672 99120000 		.4byte	.LLST125
 5933 1676 0D       		.uleb128 0xd
 5934 1677 08000000 		.4byte	.LVL324
 5935 167b 170A0000 		.4byte	0xa17
 5936 167f 8A160000 		.4byte	0x168a
 5937 1683 0E       		.uleb128 0xe
 5938 1684 01       		.uleb128 0x1
 5939 1685 50       		.byte	0x50
 5940 1686 02       		.uleb128 0x2
 5941 1687 74       		.byte	0x74
 5942 1688 00       		.sleb128 0
 5943 1689 00       		.byte	0
 5944 168a 0D       		.uleb128 0xd
 5945 168b 12000000 		.4byte	.LVL326
 5946 168f B0130000 		.4byte	0x13b0
 5947 1693 9E160000 		.4byte	0x169e
 5948 1697 0E       		.uleb128 0xe
 5949 1698 01       		.uleb128 0x1
 5950 1699 50       		.byte	0x50
 5951 169a 02       		.uleb128 0x2
 5952 169b 74       		.byte	0x74
ARM GAS  C:\Users\USUARIO\AppData\Local\Temp\cchqzDaB.s 			page 140


 5953 169c 00       		.sleb128 0
 5954 169d 00       		.byte	0
 5955 169e 10       		.uleb128 0x10
 5956 169f 18000000 		.4byte	.LVL327
 5957 16a3 170A0000 		.4byte	0xa17
 5958 16a7 0E       		.uleb128 0xe
 5959 16a8 01       		.uleb128 0x1
 5960 16a9 50       		.byte	0x50
 5961 16aa 02       		.uleb128 0x2
 5962 16ab 74       		.byte	0x74
 5963 16ac 00       		.sleb128 0
 5964 16ad 00       		.byte	0
 5965 16ae 00       		.byte	0
 5966 16af 1E       		.uleb128 0x1e
 5967 16b0 3A030000 		.4byte	.LASF105
 5968 16b4 01       		.byte	0x1
 5969 16b5 8A05     		.2byte	0x58a
 5970 16b7 6B000000 		.4byte	0x6b
 5971 16bb 00000000 		.4byte	.LFB87
 5972 16bf 10000000 		.4byte	.LFE87-.LFB87
 5973 16c3 01       		.uleb128 0x1
 5974 16c4 9C       		.byte	0x9c
 5975 16c5 E3160000 		.4byte	0x16e3
 5976 16c9 12       		.uleb128 0x12
 5977 16ca C9050000 		.4byte	.LASF36
 5978 16ce 01       		.byte	0x1
 5979 16cf 8A05     		.2byte	0x58a
 5980 16d1 6B000000 		.4byte	0x6b
 5981 16d5 AC120000 		.4byte	.LLST126
 5982 16d9 0F       		.uleb128 0xf
 5983 16da 06000000 		.4byte	.LVL329
 5984 16de 170A0000 		.4byte	0xa17
 5985 16e2 00       		.byte	0
 5986 16e3 1E       		.uleb128 0x1e
 5987 16e4 D1020000 		.4byte	.LASF106
 5988 16e8 01       		.byte	0x1
 5989 16e9 C605     		.2byte	0x5c6
 5990 16eb 77000000 		.4byte	0x77
 5991 16ef 00000000 		.4byte	.LFB90
 5992 16f3 08000000 		.4byte	.LFE90-.LFB90
 5993 16f7 01       		.uleb128 0x1
 5994 16f8 9C       		.byte	0x9c
 5995 16f9 17170000 		.4byte	0x1717
 5996 16fd 12       		.uleb128 0x12
 5997 16fe C9050000 		.4byte	.LASF36
 5998 1702 01       		.byte	0x1
 5999 1703 C605     		.2byte	0x5c6
 6000 1705 6B000000 		.4byte	0x6b
 6001 1709 CD120000 		.4byte	.LLST127
 6002 170d 0F       		.uleb128 0xf
 6003 170e 06000000 		.4byte	.LVL331
 6004 1712 DE0A0000 		.4byte	0xade
 6005 1716 00       		.byte	0
 6006 1717 1E       		.uleb128 0x1e
 6007 1718 31050000 		.4byte	.LASF107
 6008 171c 01       		.byte	0x1
 6009 171d D005     		.2byte	0x5d0
ARM GAS  C:\Users\USUARIO\AppData\Local\Temp\cchqzDaB.s 			page 141


 6010 171f 6B000000 		.4byte	0x6b
 6011 1723 00000000 		.4byte	.LFB91
 6012 1727 0E000000 		.4byte	.LFE91-.LFB91
 6013 172b 01       		.uleb128 0x1
 6014 172c 9C       		.byte	0x9c
 6015 172d 56170000 		.4byte	0x1756
 6016 1731 12       		.uleb128 0x12
 6017 1732 51030000 		.4byte	.LASF42
 6018 1736 01       		.byte	0x1
 6019 1737 D005     		.2byte	0x5d0
 6020 1739 77000000 		.4byte	0x77
 6021 173d EE120000 		.4byte	.LLST128
 6022 1741 10       		.uleb128 0x10
 6023 1742 0C000000 		.4byte	.LVL334
 6024 1746 FF120000 		.4byte	0x12ff
 6025 174a 0E       		.uleb128 0xe
 6026 174b 01       		.uleb128 0x1
 6027 174c 50       		.byte	0x50
 6028 174d 01       		.uleb128 0x1
 6029 174e 31       		.byte	0x31
 6030 174f 0E       		.uleb128 0xe
 6031 1750 01       		.uleb128 0x1
 6032 1751 52       		.byte	0x52
 6033 1752 01       		.uleb128 0x1
 6034 1753 30       		.byte	0x30
 6035 1754 00       		.byte	0
 6036 1755 00       		.byte	0
 6037 1756 20       		.uleb128 0x20
 6038 1757 1F030000 		.4byte	.LASF108
 6039 175b 01       		.byte	0x1
 6040 175c D605     		.2byte	0x5d6
 6041 175e 00000000 		.4byte	.LFB92
 6042 1762 10000000 		.4byte	.LFE92-.LFB92
 6043 1766 01       		.uleb128 0x1
 6044 1767 9C       		.byte	0x9c
 6045 1768 8C170000 		.4byte	0x178c
 6046 176c 12       		.uleb128 0x12
 6047 176d C9050000 		.4byte	.LASF36
 6048 1771 01       		.byte	0x1
 6049 1772 D605     		.2byte	0x5d6
 6050 1774 6B000000 		.4byte	0x6b
 6051 1778 0F130000 		.4byte	.LLST129
 6052 177c 10       		.uleb128 0x10
 6053 177d 0C000000 		.4byte	.LVL336
 6054 1781 8E090000 		.4byte	0x98e
 6055 1785 0E       		.uleb128 0xe
 6056 1786 01       		.uleb128 0x1
 6057 1787 51       		.byte	0x51
 6058 1788 01       		.uleb128 0x1
 6059 1789 32       		.byte	0x32
 6060 178a 00       		.byte	0
 6061 178b 00       		.byte	0
 6062 178c 20       		.uleb128 0x20
 6063 178d 13040000 		.4byte	.LASF109
 6064 1791 01       		.byte	0x1
 6065 1792 E305     		.2byte	0x5e3
 6066 1794 00000000 		.4byte	.LFB93
ARM GAS  C:\Users\USUARIO\AppData\Local\Temp\cchqzDaB.s 			page 142


 6067 1798 1C000000 		.4byte	.LFE93-.LFB93
 6068 179c 01       		.uleb128 0x1
 6069 179d 9C       		.byte	0x9c
 6070 179e EA170000 		.4byte	0x17ea
 6071 17a2 12       		.uleb128 0x12
 6072 17a3 C9050000 		.4byte	.LASF36
 6073 17a7 01       		.byte	0x1
 6074 17a8 E305     		.2byte	0x5e3
 6075 17aa 6B000000 		.4byte	0x6b
 6076 17ae 3B130000 		.4byte	.LLST130
 6077 17b2 0D       		.uleb128 0xd
 6078 17b3 08000000 		.4byte	.LVL339
 6079 17b7 56170000 		.4byte	0x1756
 6080 17bb C6170000 		.4byte	0x17c6
 6081 17bf 0E       		.uleb128 0xe
 6082 17c0 01       		.uleb128 0x1
 6083 17c1 50       		.byte	0x50
 6084 17c2 02       		.uleb128 0x2
 6085 17c3 74       		.byte	0x74
 6086 17c4 00       		.sleb128 0
 6087 17c5 00       		.byte	0
 6088 17c6 0D       		.uleb128 0xd
 6089 17c7 10000000 		.4byte	.LVL340
 6090 17cb 281C0000 		.4byte	0x1c28
 6091 17cf D9170000 		.4byte	0x17d9
 6092 17d3 0E       		.uleb128 0xe
 6093 17d4 01       		.uleb128 0x1
 6094 17d5 50       		.byte	0x50
 6095 17d6 01       		.uleb128 0x1
 6096 17d7 31       		.byte	0x31
 6097 17d8 00       		.byte	0
 6098 17d9 10       		.uleb128 0x10
 6099 17da 16000000 		.4byte	.LVL341
 6100 17de AF160000 		.4byte	0x16af
 6101 17e2 0E       		.uleb128 0xe
 6102 17e3 01       		.uleb128 0x1
 6103 17e4 50       		.byte	0x50
 6104 17e5 02       		.uleb128 0x2
 6105 17e6 74       		.byte	0x74
 6106 17e7 00       		.sleb128 0
 6107 17e8 00       		.byte	0
 6108 17e9 00       		.byte	0
 6109 17ea 20       		.uleb128 0x20
 6110 17eb 74050000 		.4byte	.LASF110
 6111 17ef 01       		.byte	0x1
 6112 17f0 ED05     		.2byte	0x5ed
 6113 17f2 00000000 		.4byte	.LFB94
 6114 17f6 64000000 		.4byte	.LFE94-.LFB94
 6115 17fa 01       		.uleb128 0x1
 6116 17fb 9C       		.byte	0x9c
 6117 17fc F0180000 		.4byte	0x18f0
 6118 1800 12       		.uleb128 0x12
 6119 1801 C9050000 		.4byte	.LASF36
 6120 1805 01       		.byte	0x1
 6121 1806 ED05     		.2byte	0x5ed
 6122 1808 6B000000 		.4byte	0x6b
 6123 180c 5C130000 		.4byte	.LLST131
ARM GAS  C:\Users\USUARIO\AppData\Local\Temp\cchqzDaB.s 			page 143


 6124 1810 13       		.uleb128 0x13
 6125 1811 697000   		.ascii	"ip\000"
 6126 1814 01       		.byte	0x1
 6127 1815 ED05     		.2byte	0x5ed
 6128 1817 83000000 		.4byte	0x83
 6129 181b 88130000 		.4byte	.LLST132
 6130 181f 12       		.uleb128 0x12
 6131 1820 51030000 		.4byte	.LASF42
 6132 1824 01       		.byte	0x1
 6133 1825 ED05     		.2byte	0x5ed
 6134 1827 77000000 		.4byte	0x77
 6135 182b B4130000 		.4byte	.LLST133
 6136 182f 14       		.uleb128 0x14
 6137 1830 6F070000 		.4byte	.LASF58
 6138 1834 01       		.byte	0x1
 6139 1835 EF05     		.2byte	0x5ef
 6140 1837 83000000 		.4byte	0x83
 6141 183b E0130000 		.4byte	.LLST134
 6142 183f 1D       		.uleb128 0x1d
 6143 1840 697200   		.ascii	"ir\000"
 6144 1843 01       		.byte	0x1
 6145 1844 F005     		.2byte	0x5f0
 6146 1846 6B000000 		.4byte	0x6b
 6147 184a F3130000 		.4byte	.LLST135
 6148 184e 0D       		.uleb128 0xd
 6149 184f 12000000 		.4byte	.LVL343
 6150 1853 7F030000 		.4byte	0x37f
 6151 1857 69180000 		.4byte	0x1869
 6152 185b 0E       		.uleb128 0xe
 6153 185c 01       		.uleb128 0x1
 6154 185d 50       		.byte	0x50
 6155 185e 02       		.uleb128 0x2
 6156 185f 75       		.byte	0x75
 6157 1860 00       		.sleb128 0
 6158 1861 0E       		.uleb128 0xe
 6159 1862 01       		.uleb128 0x1
 6160 1863 51       		.byte	0x51
 6161 1864 03       		.uleb128 0x3
 6162 1865 F3       		.byte	0xf3
 6163 1866 01       		.uleb128 0x1
 6164 1867 51       		.byte	0x51
 6165 1868 00       		.byte	0
 6166 1869 0D       		.uleb128 0xd
 6167 186a 1A000000 		.4byte	.LVL344
 6168 186e 3B050000 		.4byte	0x53b
 6169 1872 83180000 		.4byte	0x1883
 6170 1876 0E       		.uleb128 0xe
 6171 1877 01       		.uleb128 0x1
 6172 1878 50       		.byte	0x50
 6173 1879 02       		.uleb128 0x2
 6174 187a 75       		.byte	0x75
 6175 187b 00       		.sleb128 0
 6176 187c 0E       		.uleb128 0xe
 6177 187d 01       		.uleb128 0x1
 6178 187e 51       		.byte	0x51
 6179 187f 02       		.uleb128 0x2
 6180 1880 76       		.byte	0x76
ARM GAS  C:\Users\USUARIO\AppData\Local\Temp\cchqzDaB.s 			page 144


 6181 1881 00       		.sleb128 0
 6182 1882 00       		.byte	0
 6183 1883 0F       		.uleb128 0xf
 6184 1884 22000000 		.4byte	.LVL345
 6185 1888 43030000 		.4byte	0x343
 6186 188c 0D       		.uleb128 0xd
 6187 188d 2A000000 		.4byte	.LVL346
 6188 1891 8E090000 		.4byte	0x98e
 6189 1895 A5180000 		.4byte	0x18a5
 6190 1899 0E       		.uleb128 0xe
 6191 189a 01       		.uleb128 0x1
 6192 189b 50       		.byte	0x50
 6193 189c 02       		.uleb128 0x2
 6194 189d 75       		.byte	0x75
 6195 189e 00       		.sleb128 0
 6196 189f 0E       		.uleb128 0xe
 6197 18a0 01       		.uleb128 0x1
 6198 18a1 51       		.byte	0x51
 6199 18a2 01       		.uleb128 0x1
 6200 18a3 34       		.byte	0x34
 6201 18a4 00       		.byte	0
 6202 18a5 0D       		.uleb128 0xd
 6203 18a6 32000000 		.4byte	.LVL348
 6204 18aa 281C0000 		.4byte	0x1c28
 6205 18ae B8180000 		.4byte	0x18b8
 6206 18b2 0E       		.uleb128 0xe
 6207 18b3 01       		.uleb128 0x1
 6208 18b4 50       		.byte	0x50
 6209 18b5 01       		.uleb128 0x1
 6210 18b6 31       		.byte	0x31
 6211 18b7 00       		.byte	0
 6212 18b8 0D       		.uleb128 0xd
 6213 18b9 3A000000 		.4byte	.LVL350
 6214 18bd 850D0000 		.4byte	0xd85
 6215 18c1 CC180000 		.4byte	0x18cc
 6216 18c5 0E       		.uleb128 0xe
 6217 18c6 01       		.uleb128 0x1
 6218 18c7 50       		.byte	0x50
 6219 18c8 02       		.uleb128 0x2
 6220 18c9 75       		.byte	0x75
 6221 18ca 00       		.sleb128 0
 6222 18cb 00       		.byte	0
 6223 18cc 0D       		.uleb128 0xd
 6224 18cd 4A000000 		.4byte	.LVL352
 6225 18d1 AF160000 		.4byte	0x16af
 6226 18d5 E0180000 		.4byte	0x18e0
 6227 18d9 0E       		.uleb128 0xe
 6228 18da 01       		.uleb128 0x1
 6229 18db 50       		.byte	0x50
 6230 18dc 02       		.uleb128 0x2
 6231 18dd 75       		.byte	0x75
 6232 18de 00       		.sleb128 0
 6233 18df 00       		.byte	0
 6234 18e0 10       		.uleb128 0x10
 6235 18e1 5A000000 		.4byte	.LVL353
 6236 18e5 43030000 		.4byte	0x343
 6237 18e9 0E       		.uleb128 0xe
ARM GAS  C:\Users\USUARIO\AppData\Local\Temp\cchqzDaB.s 			page 145


 6238 18ea 01       		.uleb128 0x1
 6239 18eb 50       		.byte	0x50
 6240 18ec 01       		.uleb128 0x1
 6241 18ed 30       		.byte	0x30
 6242 18ee 00       		.byte	0
 6243 18ef 00       		.byte	0
 6244 18f0 1E       		.uleb128 0x1e
 6245 18f1 91040000 		.4byte	.LASF111
 6246 18f5 01       		.byte	0x1
 6247 18f6 0806     		.2byte	0x608
 6248 18f8 6B000000 		.4byte	0x6b
 6249 18fc 00000000 		.4byte	.LFB95
 6250 1900 08000000 		.4byte	.LFE95-.LFB95
 6251 1904 01       		.uleb128 0x1
 6252 1905 9C       		.byte	0x9c
 6253 1906 24190000 		.4byte	0x1924
 6254 190a 12       		.uleb128 0x12
 6255 190b C9050000 		.4byte	.LASF36
 6256 190f 01       		.byte	0x1
 6257 1910 0806     		.2byte	0x608
 6258 1912 6B000000 		.4byte	0x6b
 6259 1916 06140000 		.4byte	.LLST136
 6260 191a 0F       		.uleb128 0xf
 6261 191b 06000000 		.4byte	.LVL356
 6262 191f AF160000 		.4byte	0x16af
 6263 1923 00       		.byte	0
 6264 1924 20       		.uleb128 0x20
 6265 1925 14060000 		.4byte	.LASF112
 6266 1929 01       		.byte	0x1
 6267 192a 0C06     		.2byte	0x60c
 6268 192c 00000000 		.4byte	.LFB96
 6269 1930 0A000000 		.4byte	.LFE96-.LFB96
 6270 1934 01       		.uleb128 0x1
 6271 1935 9C       		.byte	0x9c
 6272 1936 5A190000 		.4byte	0x195a
 6273 193a 12       		.uleb128 0x12
 6274 193b C9050000 		.4byte	.LASF36
 6275 193f 01       		.byte	0x1
 6276 1940 0C06     		.2byte	0x60c
 6277 1942 6B000000 		.4byte	0x6b
 6278 1946 27140000 		.4byte	.LLST137
 6279 194a 10       		.uleb128 0x10
 6280 194b 08000000 		.4byte	.LVL358
 6281 194f 8E090000 		.4byte	0x98e
 6282 1953 0E       		.uleb128 0xe
 6283 1954 01       		.uleb128 0x1
 6284 1955 51       		.byte	0x51
 6285 1956 01       		.uleb128 0x1
 6286 1957 38       		.byte	0x38
 6287 1958 00       		.byte	0
 6288 1959 00       		.byte	0
 6289 195a 1E       		.uleb128 0x1e
 6290 195b 5E010000 		.4byte	.LASF113
 6291 195f 01       		.byte	0x1
 6292 1960 1206     		.2byte	0x612
 6293 1962 77000000 		.4byte	0x77
 6294 1966 00000000 		.4byte	.LFB97
ARM GAS  C:\Users\USUARIO\AppData\Local\Temp\cchqzDaB.s 			page 146


 6295 196a 68000000 		.4byte	.LFE97-.LFB97
 6296 196e 01       		.uleb128 0x1
 6297 196f 9C       		.byte	0x9c
 6298 1970 461A0000 		.4byte	0x1a46
 6299 1974 12       		.uleb128 0x12
 6300 1975 C9050000 		.4byte	.LASF36
 6301 1979 01       		.byte	0x1
 6302 197a 1206     		.2byte	0x612
 6303 197c 6B000000 		.4byte	0x6b
 6304 1980 48140000 		.4byte	.LLST138
 6305 1984 12       		.uleb128 0x12
 6306 1985 4B000000 		.4byte	.LASF31
 6307 1989 01       		.byte	0x1
 6308 198a 1206     		.2byte	0x612
 6309 198c C5020000 		.4byte	0x2c5
 6310 1990 69140000 		.4byte	.LLST139
 6311 1994 13       		.uleb128 0x13
 6312 1995 6C656E00 		.ascii	"len\000"
 6313 1999 01       		.byte	0x1
 6314 199a 1206     		.2byte	0x612
 6315 199c 77000000 		.4byte	0x77
 6316 19a0 95140000 		.4byte	.LLST140
 6317 19a4 14       		.uleb128 0x14
 6318 19a5 6B010000 		.4byte	.LASF114
 6319 19a9 01       		.byte	0x1
 6320 19aa 1406     		.2byte	0x614
 6321 19ac 77000000 		.4byte	0x77
 6322 19b0 B6140000 		.4byte	.LLST141
 6323 19b4 14       		.uleb128 0x14
 6324 19b5 D0050000 		.4byte	.LASF115
 6325 19b9 01       		.byte	0x1
 6326 19ba 1506     		.2byte	0x615
 6327 19bc 77000000 		.4byte	0x77
 6328 19c0 D4140000 		.4byte	.LLST142
 6329 19c4 14       		.uleb128 0x14
 6330 19c5 58050000 		.4byte	.LASF104
 6331 19c9 01       		.byte	0x1
 6332 19ca 1606     		.2byte	0x616
 6333 19cc 6B000000 		.4byte	0x6b
 6334 19d0 F2140000 		.4byte	.LLST143
 6335 19d4 0D       		.uleb128 0xd
 6336 19d5 16000000 		.4byte	.LVL362
 6337 19d9 170A0000 		.4byte	0xa17
 6338 19dd E8190000 		.4byte	0x19e8
 6339 19e1 0E       		.uleb128 0xe
 6340 19e2 01       		.uleb128 0x1
 6341 19e3 50       		.byte	0x50
 6342 19e4 02       		.uleb128 0x2
 6343 19e5 74       		.byte	0x74
 6344 19e6 00       		.sleb128 0
 6345 19e7 00       		.byte	0
 6346 19e8 0D       		.uleb128 0xd
 6347 19e9 34000000 		.4byte	.LVL366
 6348 19ed 810B0000 		.4byte	0xb81
 6349 19f1 FC190000 		.4byte	0x19fc
 6350 19f5 0E       		.uleb128 0xe
 6351 19f6 01       		.uleb128 0x1
ARM GAS  C:\Users\USUARIO\AppData\Local\Temp\cchqzDaB.s 			page 147


 6352 19f7 50       		.byte	0x50
 6353 19f8 02       		.uleb128 0x2
 6354 19f9 74       		.byte	0x74
 6355 19fa 00       		.sleb128 0
 6356 19fb 00       		.byte	0
 6357 19fc 0D       		.uleb128 0xd
 6358 19fd 3C000000 		.4byte	.LVL368
 6359 1a01 170A0000 		.4byte	0xa17
 6360 1a05 101A0000 		.4byte	0x1a10
 6361 1a09 0E       		.uleb128 0xe
 6362 1a0a 01       		.uleb128 0x1
 6363 1a0b 50       		.byte	0x50
 6364 1a0c 02       		.uleb128 0x2
 6365 1a0d 74       		.byte	0x74
 6366 1a0e 00       		.sleb128 0
 6367 1a0f 00       		.byte	0
 6368 1a10 0D       		.uleb128 0xd
 6369 1a11 54000000 		.4byte	.LVL372
 6370 1a15 240C0000 		.4byte	0xc24
 6371 1a19 351A0000 		.4byte	0x1a35
 6372 1a1d 0E       		.uleb128 0xe
 6373 1a1e 01       		.uleb128 0x1
 6374 1a1f 50       		.byte	0x50
 6375 1a20 02       		.uleb128 0x2
 6376 1a21 74       		.byte	0x74
 6377 1a22 00       		.sleb128 0
 6378 1a23 0E       		.uleb128 0xe
 6379 1a24 01       		.uleb128 0x1
 6380 1a25 51       		.byte	0x51
 6381 1a26 01       		.uleb128 0x1
 6382 1a27 30       		.byte	0x30
 6383 1a28 0E       		.uleb128 0xe
 6384 1a29 01       		.uleb128 0x1
 6385 1a2a 52       		.byte	0x52
 6386 1a2b 02       		.uleb128 0x2
 6387 1a2c 77       		.byte	0x77
 6388 1a2d 00       		.sleb128 0
 6389 1a2e 0E       		.uleb128 0xe
 6390 1a2f 01       		.uleb128 0x1
 6391 1a30 53       		.byte	0x53
 6392 1a31 02       		.uleb128 0x2
 6393 1a32 75       		.byte	0x75
 6394 1a33 00       		.sleb128 0
 6395 1a34 00       		.byte	0
 6396 1a35 10       		.uleb128 0x10
 6397 1a36 5A000000 		.4byte	.LVL373
 6398 1a3a B90D0000 		.4byte	0xdb9
 6399 1a3e 0E       		.uleb128 0xe
 6400 1a3f 01       		.uleb128 0x1
 6401 1a40 50       		.byte	0x50
 6402 1a41 02       		.uleb128 0x2
 6403 1a42 74       		.byte	0x74
 6404 1a43 00       		.sleb128 0
 6405 1a44 00       		.byte	0
 6406 1a45 00       		.byte	0
 6407 1a46 1E       		.uleb128 0x1e
 6408 1a47 A3030000 		.4byte	.LASF116
ARM GAS  C:\Users\USUARIO\AppData\Local\Temp\cchqzDaB.s 			page 148


 6409 1a4b 01       		.byte	0x1
 6410 1a4c 3A06     		.2byte	0x63a
 6411 1a4e 77000000 		.4byte	0x77
 6412 1a52 00000000 		.4byte	.LFB98
 6413 1a56 34000000 		.4byte	.LFE98-.LFB98
 6414 1a5a 01       		.uleb128 0x1
 6415 1a5b 9C       		.byte	0x9c
 6416 1a5c F61A0000 		.4byte	0x1af6
 6417 1a60 12       		.uleb128 0x12
 6418 1a61 C9050000 		.4byte	.LASF36
 6419 1a65 01       		.byte	0x1
 6420 1a66 3A06     		.2byte	0x63a
 6421 1a68 6B000000 		.4byte	0x6b
 6422 1a6c 1B150000 		.4byte	.LLST144
 6423 1a70 12       		.uleb128 0x12
 6424 1a71 4B000000 		.4byte	.LASF31
 6425 1a75 01       		.byte	0x1
 6426 1a76 3A06     		.2byte	0x63a
 6427 1a78 C5020000 		.4byte	0x2c5
 6428 1a7c 3C150000 		.4byte	.LLST145
 6429 1a80 12       		.uleb128 0x12
 6430 1a81 51050000 		.4byte	.LASF50
 6431 1a85 01       		.byte	0x1
 6432 1a86 3A06     		.2byte	0x63a
 6433 1a88 77000000 		.4byte	0x77
 6434 1a8c 5A150000 		.4byte	.LLST146
 6435 1a90 14       		.uleb128 0x14
 6436 1a91 14080000 		.4byte	.LASF117
 6437 1a95 01       		.byte	0x1
 6438 1a96 3C06     		.2byte	0x63c
 6439 1a98 77000000 		.4byte	0x77
 6440 1a9c 7B150000 		.4byte	.LLST147
 6441 1aa0 0D       		.uleb128 0xd
 6442 1aa1 0E000000 		.4byte	.LVL378
 6443 1aa5 DE0A0000 		.4byte	0xade
 6444 1aa9 B41A0000 		.4byte	0x1ab4
 6445 1aad 0E       		.uleb128 0xe
 6446 1aae 01       		.uleb128 0x1
 6447 1aaf 50       		.byte	0x50
 6448 1ab0 02       		.uleb128 0x2
 6449 1ab1 75       		.byte	0x75
 6450 1ab2 00       		.sleb128 0
 6451 1ab3 00       		.byte	0
 6452 1ab4 0D       		.uleb128 0xd
 6453 1ab5 26000000 		.4byte	.LVL381
 6454 1ab9 DF0E0000 		.4byte	0xedf
 6455 1abd DF1A0000 		.4byte	0x1adf
 6456 1ac1 0E       		.uleb128 0xe
 6457 1ac2 01       		.uleb128 0x1
 6458 1ac3 50       		.byte	0x50
 6459 1ac4 02       		.uleb128 0x2
 6460 1ac5 75       		.byte	0x75
 6461 1ac6 00       		.sleb128 0
 6462 1ac7 0E       		.uleb128 0xe
 6463 1ac8 01       		.uleb128 0x1
 6464 1ac9 51       		.byte	0x51
 6465 1aca 01       		.uleb128 0x1
ARM GAS  C:\Users\USUARIO\AppData\Local\Temp\cchqzDaB.s 			page 149


 6466 1acb 30       		.byte	0x30
 6467 1acc 0E       		.uleb128 0xe
 6468 1acd 01       		.uleb128 0x1
 6469 1ace 52       		.byte	0x52
 6470 1acf 02       		.uleb128 0x2
 6471 1ad0 76       		.byte	0x76
 6472 1ad1 00       		.sleb128 0
 6473 1ad2 0E       		.uleb128 0xe
 6474 1ad3 01       		.uleb128 0x1
 6475 1ad4 53       		.byte	0x53
 6476 1ad5 02       		.uleb128 0x2
 6477 1ad6 74       		.byte	0x74
 6478 1ad7 00       		.sleb128 0
 6479 1ad8 0E       		.uleb128 0xe
 6480 1ad9 02       		.uleb128 0x2
 6481 1ada 7D       		.byte	0x7d
 6482 1adb 00       		.sleb128 0
 6483 1adc 01       		.uleb128 0x1
 6484 1add 30       		.byte	0x30
 6485 1ade 00       		.byte	0
 6486 1adf 10       		.uleb128 0x10
 6487 1ae0 2E000000 		.4byte	.LVL382
 6488 1ae4 8E090000 		.4byte	0x98e
 6489 1ae8 0E       		.uleb128 0xe
 6490 1ae9 01       		.uleb128 0x1
 6491 1aea 50       		.byte	0x50
 6492 1aeb 02       		.uleb128 0x2
 6493 1aec 75       		.byte	0x75
 6494 1aed 00       		.sleb128 0
 6495 1aee 0E       		.uleb128 0xe
 6496 1aef 01       		.uleb128 0x1
 6497 1af0 51       		.byte	0x51
 6498 1af1 02       		.uleb128 0x2
 6499 1af2 08       		.byte	0x8
 6500 1af3 40       		.byte	0x40
 6501 1af4 00       		.byte	0
 6502 1af5 00       		.byte	0
 6503 1af6 20       		.uleb128 0x20
 6504 1af7 E4040000 		.4byte	.LASF118
 6505 1afb 01       		.byte	0x1
 6506 1afc 5C06     		.2byte	0x65c
 6507 1afe 00000000 		.4byte	.LFB99
 6508 1b02 18000000 		.4byte	.LFE99-.LFB99
 6509 1b06 01       		.uleb128 0x1
 6510 1b07 9C       		.byte	0x9c
 6511 1b08 571B0000 		.4byte	0x1b57
 6512 1b0c 12       		.uleb128 0x12
 6513 1b0d C9050000 		.4byte	.LASF36
 6514 1b11 01       		.byte	0x1
 6515 1b12 5C06     		.2byte	0x65c
 6516 1b14 6B000000 		.4byte	0x6b
 6517 1b18 99150000 		.4byte	.LLST148
 6518 1b1c 13       		.uleb128 0x13
 6519 1b1d 73747200 		.ascii	"str\000"
 6520 1b21 01       		.byte	0x1
 6521 1b22 5C06     		.2byte	0x65c
 6522 1b24 C4000000 		.4byte	0xc4
ARM GAS  C:\Users\USUARIO\AppData\Local\Temp\cchqzDaB.s 			page 150


 6523 1b28 BA150000 		.4byte	.LLST149
 6524 1b2c 0D       		.uleb128 0xd
 6525 1b2d 0C000000 		.4byte	.LVL385
 6526 1b31 331C0000 		.4byte	0x1c33
 6527 1b35 401B0000 		.4byte	0x1b40
 6528 1b39 0E       		.uleb128 0xe
 6529 1b3a 01       		.uleb128 0x1
 6530 1b3b 50       		.byte	0x50
 6531 1b3c 02       		.uleb128 0x2
 6532 1b3d 74       		.byte	0x74
 6533 1b3e 00       		.sleb128 0
 6534 1b3f 00       		.byte	0
 6535 1b40 10       		.uleb128 0x10
 6536 1b41 16000000 		.4byte	.LVL386
 6537 1b45 5A190000 		.4byte	0x195a
 6538 1b49 0E       		.uleb128 0xe
 6539 1b4a 01       		.uleb128 0x1
 6540 1b4b 50       		.byte	0x50
 6541 1b4c 02       		.uleb128 0x2
 6542 1b4d 75       		.byte	0x75
 6543 1b4e 00       		.sleb128 0
 6544 1b4f 0E       		.uleb128 0xe
 6545 1b50 01       		.uleb128 0x1
 6546 1b51 51       		.byte	0x51
 6547 1b52 02       		.uleb128 0x2
 6548 1b53 74       		.byte	0x74
 6549 1b54 00       		.sleb128 0
 6550 1b55 00       		.byte	0
 6551 1b56 00       		.byte	0
 6552 1b57 1B       		.uleb128 0x1b
 6553 1b58 08010000 		.4byte	0x108
 6554 1b5c 671B0000 		.4byte	0x1b67
 6555 1b60 1C       		.uleb128 0x1c
 6556 1b61 B7000000 		.4byte	0xb7
 6557 1b65 03       		.byte	0x3
 6558 1b66 00       		.byte	0
 6559 1b67 21       		.uleb128 0x21
 6560 1b68 44060000 		.4byte	.LASF119
 6561 1b6c 01       		.byte	0x1
 6562 1b6d 39       		.byte	0x39
 6563 1b6e 571B0000 		.4byte	0x1b57
 6564 1b72 05       		.uleb128 0x5
 6565 1b73 03       		.byte	0x3
 6566 1b74 04000000 		.4byte	ETH0_SocketConfig
 6567 1b78 21       		.uleb128 0x21
 6568 1b79 12070000 		.4byte	.LASF120
 6569 1b7d 01       		.byte	0x1
 6570 1b7e 3A       		.byte	0x3a
 6571 1b7f 83000000 		.4byte	0x83
 6572 1b83 05       		.uleb128 0x5
 6573 1b84 03       		.byte	0x3
 6574 1b85 00000000 		.4byte	ETH0_SubnetMask
 6575 1b89 21       		.uleb128 0x21
 6576 1b8a 7C080000 		.4byte	.LASF121
 6577 1b8e 01       		.byte	0x1
 6578 1b8f 3C       		.byte	0x3c
 6579 1b90 83110000 		.4byte	0x1183
ARM GAS  C:\Users\USUARIO\AppData\Local\Temp\cchqzDaB.s 			page 151


 6580 1b94 05       		.uleb128 0x5
 6581 1b95 03       		.byte	0x3
 6582 1b96 1C000000 		.4byte	ETH0_MAC
 6583 1b9a 22       		.uleb128 0x22
 6584 1b9b 14010000 		.4byte	.LASF122
 6585 1b9f 01       		.byte	0x1
 6586 1ba0 2C       		.byte	0x2c
 6587 1ba1 6B000000 		.4byte	0x6b
 6588 1ba5 1B       		.uleb128 0x1b
 6589 1ba6 B51B0000 		.4byte	0x1bb5
 6590 1baa B51B0000 		.4byte	0x1bb5
 6591 1bae 1C       		.uleb128 0x1c
 6592 1baf B7000000 		.4byte	0xb7
 6593 1bb3 03       		.byte	0x3
 6594 1bb4 00       		.byte	0
 6595 1bb5 06       		.uleb128 0x6
 6596 1bb6 77000000 		.4byte	0x77
 6597 1bba 23       		.uleb128 0x23
 6598 1bbb 27060000 		.4byte	.LASF123
 6599 1bbf 01       		.byte	0x1
 6600 1bc0 36       		.byte	0x36
 6601 1bc1 CB1B0000 		.4byte	0x1bcb
 6602 1bc5 05       		.uleb128 0x5
 6603 1bc6 03       		.byte	0x3
 6604 1bc7 00000000 		.4byte	ETH0_SOCKET_TX_BASE
 6605 1bcb 06       		.uleb128 0x6
 6606 1bcc A51B0000 		.4byte	0x1ba5
 6607 1bd0 23       		.uleb128 0x23
 6608 1bd1 11050000 		.4byte	.LASF124
 6609 1bd5 01       		.byte	0x1
 6610 1bd6 37       		.byte	0x37
 6611 1bd7 E11B0000 		.4byte	0x1be1
 6612 1bdb 05       		.uleb128 0x5
 6613 1bdc 03       		.byte	0x3
 6614 1bdd 00000000 		.4byte	ETH0_SOCKET_RX_BASE
 6615 1be1 06       		.uleb128 0x6
 6616 1be2 A51B0000 		.4byte	0x1ba5
 6617 1be6 24       		.uleb128 0x24
 6618 1be7 CB010000 		.4byte	.LASF125
 6619 1beb CB010000 		.4byte	.LASF125
 6620 1bef 03       		.byte	0x3
 6621 1bf0 77       		.byte	0x77
 6622 1bf1 24       		.uleb128 0x24
 6623 1bf2 17000000 		.4byte	.LASF126
 6624 1bf6 17000000 		.4byte	.LASF126
 6625 1bfa 04       		.byte	0x4
 6626 1bfb 5C       		.byte	0x5c
 6627 1bfc 24       		.uleb128 0x24
 6628 1bfd 82030000 		.4byte	.LASF127
 6629 1c01 82030000 		.4byte	.LASF127
 6630 1c05 04       		.byte	0x4
 6631 1c06 64       		.byte	0x64
 6632 1c07 24       		.uleb128 0x24
 6633 1c08 84050000 		.4byte	.LASF128
 6634 1c0c 84050000 		.4byte	.LASF128
 6635 1c10 04       		.byte	0x4
 6636 1c11 5E       		.byte	0x5e
ARM GAS  C:\Users\USUARIO\AppData\Local\Temp\cchqzDaB.s 			page 152


 6637 1c12 24       		.uleb128 0x24
 6638 1c13 C9070000 		.4byte	.LASF129
 6639 1c17 C9070000 		.4byte	.LASF129
 6640 1c1b 04       		.byte	0x4
 6641 1c1c 62       		.byte	0x62
 6642 1c1d 24       		.uleb128 0x24
 6643 1c1e 5F050000 		.4byte	.LASF130
 6644 1c22 5F050000 		.4byte	.LASF130
 6645 1c26 04       		.byte	0x4
 6646 1c27 60       		.byte	0x60
 6647 1c28 24       		.uleb128 0x24
 6648 1c29 00000000 		.4byte	.LASF131
 6649 1c2d 00000000 		.4byte	.LASF131
 6650 1c31 03       		.byte	0x3
 6651 1c32 76       		.byte	0x76
 6652 1c33 24       		.uleb128 0x24
 6653 1c34 3E000000 		.4byte	.LASF132
 6654 1c38 3E000000 		.4byte	.LASF132
 6655 1c3c 05       		.byte	0x5
 6656 1c3d 21       		.byte	0x21
 6657 1c3e 24       		.uleb128 0x24
 6658 1c3f A3050000 		.4byte	.LASF133
 6659 1c43 A3050000 		.4byte	.LASF133
 6660 1c47 04       		.byte	0x4
 6661 1c48 4D       		.byte	0x4d
 6662 1c49 00       		.byte	0
 6663              		.section	.debug_abbrev,"",%progbits
 6664              	.Ldebug_abbrev0:
 6665 0000 01       		.uleb128 0x1
 6666 0001 11       		.uleb128 0x11
 6667 0002 01       		.byte	0x1
 6668 0003 25       		.uleb128 0x25
 6669 0004 0E       		.uleb128 0xe
 6670 0005 13       		.uleb128 0x13
 6671 0006 0B       		.uleb128 0xb
 6672 0007 03       		.uleb128 0x3
 6673 0008 0E       		.uleb128 0xe
 6674 0009 1B       		.uleb128 0x1b
 6675 000a 0E       		.uleb128 0xe
 6676 000b 55       		.uleb128 0x55
 6677 000c 17       		.uleb128 0x17
 6678 000d 11       		.uleb128 0x11
 6679 000e 01       		.uleb128 0x1
 6680 000f 10       		.uleb128 0x10
 6681 0010 17       		.uleb128 0x17
 6682 0011 00       		.byte	0
 6683 0012 00       		.byte	0
 6684 0013 02       		.uleb128 0x2
 6685 0014 24       		.uleb128 0x24
 6686 0015 00       		.byte	0
 6687 0016 0B       		.uleb128 0xb
 6688 0017 0B       		.uleb128 0xb
 6689 0018 3E       		.uleb128 0x3e
 6690 0019 0B       		.uleb128 0xb
 6691 001a 03       		.uleb128 0x3
 6692 001b 0E       		.uleb128 0xe
 6693 001c 00       		.byte	0
ARM GAS  C:\Users\USUARIO\AppData\Local\Temp\cchqzDaB.s 			page 153


 6694 001d 00       		.byte	0
 6695 001e 03       		.uleb128 0x3
 6696 001f 24       		.uleb128 0x24
 6697 0020 00       		.byte	0
 6698 0021 0B       		.uleb128 0xb
 6699 0022 0B       		.uleb128 0xb
 6700 0023 3E       		.uleb128 0x3e
 6701 0024 0B       		.uleb128 0xb
 6702 0025 03       		.uleb128 0x3
 6703 0026 08       		.uleb128 0x8
 6704 0027 00       		.byte	0
 6705 0028 00       		.byte	0
 6706 0029 04       		.uleb128 0x4
 6707 002a 16       		.uleb128 0x16
 6708 002b 00       		.byte	0
 6709 002c 03       		.uleb128 0x3
 6710 002d 0E       		.uleb128 0xe
 6711 002e 3A       		.uleb128 0x3a
 6712 002f 0B       		.uleb128 0xb
 6713 0030 3B       		.uleb128 0x3b
 6714 0031 05       		.uleb128 0x5
 6715 0032 49       		.uleb128 0x49
 6716 0033 13       		.uleb128 0x13
 6717 0034 00       		.byte	0
 6718 0035 00       		.byte	0
 6719 0036 05       		.uleb128 0x5
 6720 0037 0F       		.uleb128 0xf
 6721 0038 00       		.byte	0
 6722 0039 0B       		.uleb128 0xb
 6723 003a 0B       		.uleb128 0xb
 6724 003b 49       		.uleb128 0x49
 6725 003c 13       		.uleb128 0x13
 6726 003d 00       		.byte	0
 6727 003e 00       		.byte	0
 6728 003f 06       		.uleb128 0x6
 6729 0040 26       		.uleb128 0x26
 6730 0041 00       		.byte	0
 6731 0042 49       		.uleb128 0x49
 6732 0043 13       		.uleb128 0x13
 6733 0044 00       		.byte	0
 6734 0045 00       		.byte	0
 6735 0046 07       		.uleb128 0x7
 6736 0047 13       		.uleb128 0x13
 6737 0048 01       		.byte	0x1
 6738 0049 0B       		.uleb128 0xb
 6739 004a 0B       		.uleb128 0xb
 6740 004b 3A       		.uleb128 0x3a
 6741 004c 0B       		.uleb128 0xb
 6742 004d 3B       		.uleb128 0x3b
 6743 004e 0B       		.uleb128 0xb
 6744 004f 01       		.uleb128 0x1
 6745 0050 13       		.uleb128 0x13
 6746 0051 00       		.byte	0
 6747 0052 00       		.byte	0
 6748 0053 08       		.uleb128 0x8
 6749 0054 0D       		.uleb128 0xd
 6750 0055 00       		.byte	0
ARM GAS  C:\Users\USUARIO\AppData\Local\Temp\cchqzDaB.s 			page 154


 6751 0056 03       		.uleb128 0x3
 6752 0057 0E       		.uleb128 0xe
 6753 0058 3A       		.uleb128 0x3a
 6754 0059 0B       		.uleb128 0xb
 6755 005a 3B       		.uleb128 0x3b
 6756 005b 0B       		.uleb128 0xb
 6757 005c 49       		.uleb128 0x49
 6758 005d 13       		.uleb128 0x13
 6759 005e 38       		.uleb128 0x38
 6760 005f 0B       		.uleb128 0xb
 6761 0060 00       		.byte	0
 6762 0061 00       		.byte	0
 6763 0062 09       		.uleb128 0x9
 6764 0063 16       		.uleb128 0x16
 6765 0064 00       		.byte	0
 6766 0065 03       		.uleb128 0x3
 6767 0066 0E       		.uleb128 0xe
 6768 0067 3A       		.uleb128 0x3a
 6769 0068 0B       		.uleb128 0xb
 6770 0069 3B       		.uleb128 0x3b
 6771 006a 0B       		.uleb128 0xb
 6772 006b 49       		.uleb128 0x49
 6773 006c 13       		.uleb128 0x13
 6774 006d 00       		.byte	0
 6775 006e 00       		.byte	0
 6776 006f 0A       		.uleb128 0xa
 6777 0070 2E       		.uleb128 0x2e
 6778 0071 01       		.byte	0x1
 6779 0072 3F       		.uleb128 0x3f
 6780 0073 19       		.uleb128 0x19
 6781 0074 03       		.uleb128 0x3
 6782 0075 0E       		.uleb128 0xe
 6783 0076 3A       		.uleb128 0x3a
 6784 0077 0B       		.uleb128 0xb
 6785 0078 3B       		.uleb128 0x3b
 6786 0079 0B       		.uleb128 0xb
 6787 007a 27       		.uleb128 0x27
 6788 007b 19       		.uleb128 0x19
 6789 007c 11       		.uleb128 0x11
 6790 007d 01       		.uleb128 0x1
 6791 007e 12       		.uleb128 0x12
 6792 007f 06       		.uleb128 0x6
 6793 0080 40       		.uleb128 0x40
 6794 0081 18       		.uleb128 0x18
 6795 0082 9742     		.uleb128 0x2117
 6796 0084 19       		.uleb128 0x19
 6797 0085 01       		.uleb128 0x1
 6798 0086 13       		.uleb128 0x13
 6799 0087 00       		.byte	0
 6800 0088 00       		.byte	0
 6801 0089 0B       		.uleb128 0xb
 6802 008a 05       		.uleb128 0x5
 6803 008b 00       		.byte	0
 6804 008c 03       		.uleb128 0x3
 6805 008d 0E       		.uleb128 0xe
 6806 008e 3A       		.uleb128 0x3a
 6807 008f 0B       		.uleb128 0xb
ARM GAS  C:\Users\USUARIO\AppData\Local\Temp\cchqzDaB.s 			page 155


 6808 0090 3B       		.uleb128 0x3b
 6809 0091 0B       		.uleb128 0xb
 6810 0092 49       		.uleb128 0x49
 6811 0093 13       		.uleb128 0x13
 6812 0094 02       		.uleb128 0x2
 6813 0095 17       		.uleb128 0x17
 6814 0096 00       		.byte	0
 6815 0097 00       		.byte	0
 6816 0098 0C       		.uleb128 0xc
 6817 0099 05       		.uleb128 0x5
 6818 009a 00       		.byte	0
 6819 009b 03       		.uleb128 0x3
 6820 009c 08       		.uleb128 0x8
 6821 009d 3A       		.uleb128 0x3a
 6822 009e 0B       		.uleb128 0xb
 6823 009f 3B       		.uleb128 0x3b
 6824 00a0 0B       		.uleb128 0xb
 6825 00a1 49       		.uleb128 0x49
 6826 00a2 13       		.uleb128 0x13
 6827 00a3 02       		.uleb128 0x2
 6828 00a4 17       		.uleb128 0x17
 6829 00a5 00       		.byte	0
 6830 00a6 00       		.byte	0
 6831 00a7 0D       		.uleb128 0xd
 6832 00a8 898201   		.uleb128 0x4109
 6833 00ab 01       		.byte	0x1
 6834 00ac 11       		.uleb128 0x11
 6835 00ad 01       		.uleb128 0x1
 6836 00ae 31       		.uleb128 0x31
 6837 00af 13       		.uleb128 0x13
 6838 00b0 01       		.uleb128 0x1
 6839 00b1 13       		.uleb128 0x13
 6840 00b2 00       		.byte	0
 6841 00b3 00       		.byte	0
 6842 00b4 0E       		.uleb128 0xe
 6843 00b5 8A8201   		.uleb128 0x410a
 6844 00b8 00       		.byte	0
 6845 00b9 02       		.uleb128 0x2
 6846 00ba 18       		.uleb128 0x18
 6847 00bb 9142     		.uleb128 0x2111
 6848 00bd 18       		.uleb128 0x18
 6849 00be 00       		.byte	0
 6850 00bf 00       		.byte	0
 6851 00c0 0F       		.uleb128 0xf
 6852 00c1 898201   		.uleb128 0x4109
 6853 00c4 00       		.byte	0
 6854 00c5 11       		.uleb128 0x11
 6855 00c6 01       		.uleb128 0x1
 6856 00c7 31       		.uleb128 0x31
 6857 00c8 13       		.uleb128 0x13
 6858 00c9 00       		.byte	0
 6859 00ca 00       		.byte	0
 6860 00cb 10       		.uleb128 0x10
 6861 00cc 898201   		.uleb128 0x4109
 6862 00cf 01       		.byte	0x1
 6863 00d0 11       		.uleb128 0x11
 6864 00d1 01       		.uleb128 0x1
ARM GAS  C:\Users\USUARIO\AppData\Local\Temp\cchqzDaB.s 			page 156


 6865 00d2 31       		.uleb128 0x31
 6866 00d3 13       		.uleb128 0x13
 6867 00d4 00       		.byte	0
 6868 00d5 00       		.byte	0
 6869 00d6 11       		.uleb128 0x11
 6870 00d7 2E       		.uleb128 0x2e
 6871 00d8 01       		.byte	0x1
 6872 00d9 03       		.uleb128 0x3
 6873 00da 0E       		.uleb128 0xe
 6874 00db 3A       		.uleb128 0x3a
 6875 00dc 0B       		.uleb128 0xb
 6876 00dd 3B       		.uleb128 0x3b
 6877 00de 05       		.uleb128 0x5
 6878 00df 27       		.uleb128 0x27
 6879 00e0 19       		.uleb128 0x19
 6880 00e1 11       		.uleb128 0x11
 6881 00e2 01       		.uleb128 0x1
 6882 00e3 12       		.uleb128 0x12
 6883 00e4 06       		.uleb128 0x6
 6884 00e5 40       		.uleb128 0x40
 6885 00e6 18       		.uleb128 0x18
 6886 00e7 9742     		.uleb128 0x2117
 6887 00e9 19       		.uleb128 0x19
 6888 00ea 01       		.uleb128 0x1
 6889 00eb 13       		.uleb128 0x13
 6890 00ec 00       		.byte	0
 6891 00ed 00       		.byte	0
 6892 00ee 12       		.uleb128 0x12
 6893 00ef 05       		.uleb128 0x5
 6894 00f0 00       		.byte	0
 6895 00f1 03       		.uleb128 0x3
 6896 00f2 0E       		.uleb128 0xe
 6897 00f3 3A       		.uleb128 0x3a
 6898 00f4 0B       		.uleb128 0xb
 6899 00f5 3B       		.uleb128 0x3b
 6900 00f6 05       		.uleb128 0x5
 6901 00f7 49       		.uleb128 0x49
 6902 00f8 13       		.uleb128 0x13
 6903 00f9 02       		.uleb128 0x2
 6904 00fa 17       		.uleb128 0x17
 6905 00fb 00       		.byte	0
 6906 00fc 00       		.byte	0
 6907 00fd 13       		.uleb128 0x13
 6908 00fe 05       		.uleb128 0x5
 6909 00ff 00       		.byte	0
 6910 0100 03       		.uleb128 0x3
 6911 0101 08       		.uleb128 0x8
 6912 0102 3A       		.uleb128 0x3a
 6913 0103 0B       		.uleb128 0xb
 6914 0104 3B       		.uleb128 0x3b
 6915 0105 05       		.uleb128 0x5
 6916 0106 49       		.uleb128 0x49
 6917 0107 13       		.uleb128 0x13
 6918 0108 02       		.uleb128 0x2
 6919 0109 17       		.uleb128 0x17
 6920 010a 00       		.byte	0
 6921 010b 00       		.byte	0
ARM GAS  C:\Users\USUARIO\AppData\Local\Temp\cchqzDaB.s 			page 157


 6922 010c 14       		.uleb128 0x14
 6923 010d 34       		.uleb128 0x34
 6924 010e 00       		.byte	0
 6925 010f 03       		.uleb128 0x3
 6926 0110 0E       		.uleb128 0xe
 6927 0111 3A       		.uleb128 0x3a
 6928 0112 0B       		.uleb128 0xb
 6929 0113 3B       		.uleb128 0x3b
 6930 0114 05       		.uleb128 0x5
 6931 0115 49       		.uleb128 0x49
 6932 0116 13       		.uleb128 0x13
 6933 0117 02       		.uleb128 0x2
 6934 0118 17       		.uleb128 0x17
 6935 0119 00       		.byte	0
 6936 011a 00       		.byte	0
 6937 011b 15       		.uleb128 0x15
 6938 011c 2E       		.uleb128 0x2e
 6939 011d 01       		.byte	0x1
 6940 011e 3F       		.uleb128 0x3f
 6941 011f 19       		.uleb128 0x19
 6942 0120 03       		.uleb128 0x3
 6943 0121 0E       		.uleb128 0xe
 6944 0122 3A       		.uleb128 0x3a
 6945 0123 0B       		.uleb128 0xb
 6946 0124 3B       		.uleb128 0x3b
 6947 0125 0B       		.uleb128 0xb
 6948 0126 27       		.uleb128 0x27
 6949 0127 19       		.uleb128 0x19
 6950 0128 49       		.uleb128 0x49
 6951 0129 13       		.uleb128 0x13
 6952 012a 11       		.uleb128 0x11
 6953 012b 01       		.uleb128 0x1
 6954 012c 12       		.uleb128 0x12
 6955 012d 06       		.uleb128 0x6
 6956 012e 40       		.uleb128 0x40
 6957 012f 18       		.uleb128 0x18
 6958 0130 9742     		.uleb128 0x2117
 6959 0132 19       		.uleb128 0x19
 6960 0133 01       		.uleb128 0x1
 6961 0134 13       		.uleb128 0x13
 6962 0135 00       		.byte	0
 6963 0136 00       		.byte	0
 6964 0137 16       		.uleb128 0x16
 6965 0138 34       		.uleb128 0x34
 6966 0139 00       		.byte	0
 6967 013a 03       		.uleb128 0x3
 6968 013b 08       		.uleb128 0x8
 6969 013c 3A       		.uleb128 0x3a
 6970 013d 0B       		.uleb128 0xb
 6971 013e 3B       		.uleb128 0x3b
 6972 013f 0B       		.uleb128 0xb
 6973 0140 49       		.uleb128 0x49
 6974 0141 13       		.uleb128 0x13
 6975 0142 02       		.uleb128 0x2
 6976 0143 17       		.uleb128 0x17
 6977 0144 00       		.byte	0
 6978 0145 00       		.byte	0
ARM GAS  C:\Users\USUARIO\AppData\Local\Temp\cchqzDaB.s 			page 158


 6979 0146 17       		.uleb128 0x17
 6980 0147 34       		.uleb128 0x34
 6981 0148 00       		.byte	0
 6982 0149 03       		.uleb128 0x3
 6983 014a 0E       		.uleb128 0xe
 6984 014b 3A       		.uleb128 0x3a
 6985 014c 0B       		.uleb128 0xb
 6986 014d 3B       		.uleb128 0x3b
 6987 014e 0B       		.uleb128 0xb
 6988 014f 49       		.uleb128 0x49
 6989 0150 13       		.uleb128 0x13
 6990 0151 02       		.uleb128 0x2
 6991 0152 17       		.uleb128 0x17
 6992 0153 00       		.byte	0
 6993 0154 00       		.byte	0
 6994 0155 18       		.uleb128 0x18
 6995 0156 2E       		.uleb128 0x2e
 6996 0157 01       		.byte	0x1
 6997 0158 03       		.uleb128 0x3
 6998 0159 0E       		.uleb128 0xe
 6999 015a 3A       		.uleb128 0x3a
 7000 015b 0B       		.uleb128 0xb
 7001 015c 3B       		.uleb128 0x3b
 7002 015d 05       		.uleb128 0x5
 7003 015e 27       		.uleb128 0x27
 7004 015f 19       		.uleb128 0x19
 7005 0160 49       		.uleb128 0x49
 7006 0161 13       		.uleb128 0x13
 7007 0162 11       		.uleb128 0x11
 7008 0163 01       		.uleb128 0x1
 7009 0164 12       		.uleb128 0x12
 7010 0165 06       		.uleb128 0x6
 7011 0166 40       		.uleb128 0x40
 7012 0167 18       		.uleb128 0x18
 7013 0168 9742     		.uleb128 0x2117
 7014 016a 19       		.uleb128 0x19
 7015 016b 01       		.uleb128 0x1
 7016 016c 13       		.uleb128 0x13
 7017 016d 00       		.byte	0
 7018 016e 00       		.byte	0
 7019 016f 19       		.uleb128 0x19
 7020 0170 34       		.uleb128 0x34
 7021 0171 00       		.byte	0
 7022 0172 03       		.uleb128 0x3
 7023 0173 0E       		.uleb128 0xe
 7024 0174 3A       		.uleb128 0x3a
 7025 0175 0B       		.uleb128 0xb
 7026 0176 3B       		.uleb128 0x3b
 7027 0177 05       		.uleb128 0x5
 7028 0178 49       		.uleb128 0x49
 7029 0179 13       		.uleb128 0x13
 7030 017a 02       		.uleb128 0x2
 7031 017b 18       		.uleb128 0x18
 7032 017c 00       		.byte	0
 7033 017d 00       		.byte	0
 7034 017e 1A       		.uleb128 0x1a
 7035 017f 34       		.uleb128 0x34
ARM GAS  C:\Users\USUARIO\AppData\Local\Temp\cchqzDaB.s 			page 159


 7036 0180 00       		.byte	0
 7037 0181 03       		.uleb128 0x3
 7038 0182 08       		.uleb128 0x8
 7039 0183 3A       		.uleb128 0x3a
 7040 0184 0B       		.uleb128 0xb
 7041 0185 3B       		.uleb128 0x3b
 7042 0186 05       		.uleb128 0x5
 7043 0187 49       		.uleb128 0x49
 7044 0188 13       		.uleb128 0x13
 7045 0189 02       		.uleb128 0x2
 7046 018a 18       		.uleb128 0x18
 7047 018b 00       		.byte	0
 7048 018c 00       		.byte	0
 7049 018d 1B       		.uleb128 0x1b
 7050 018e 01       		.uleb128 0x1
 7051 018f 01       		.byte	0x1
 7052 0190 49       		.uleb128 0x49
 7053 0191 13       		.uleb128 0x13
 7054 0192 01       		.uleb128 0x1
 7055 0193 13       		.uleb128 0x13
 7056 0194 00       		.byte	0
 7057 0195 00       		.byte	0
 7058 0196 1C       		.uleb128 0x1c
 7059 0197 21       		.uleb128 0x21
 7060 0198 00       		.byte	0
 7061 0199 49       		.uleb128 0x49
 7062 019a 13       		.uleb128 0x13
 7063 019b 2F       		.uleb128 0x2f
 7064 019c 0B       		.uleb128 0xb
 7065 019d 00       		.byte	0
 7066 019e 00       		.byte	0
 7067 019f 1D       		.uleb128 0x1d
 7068 01a0 34       		.uleb128 0x34
 7069 01a1 00       		.byte	0
 7070 01a2 03       		.uleb128 0x3
 7071 01a3 08       		.uleb128 0x8
 7072 01a4 3A       		.uleb128 0x3a
 7073 01a5 0B       		.uleb128 0xb
 7074 01a6 3B       		.uleb128 0x3b
 7075 01a7 05       		.uleb128 0x5
 7076 01a8 49       		.uleb128 0x49
 7077 01a9 13       		.uleb128 0x13
 7078 01aa 02       		.uleb128 0x2
 7079 01ab 17       		.uleb128 0x17
 7080 01ac 00       		.byte	0
 7081 01ad 00       		.byte	0
 7082 01ae 1E       		.uleb128 0x1e
 7083 01af 2E       		.uleb128 0x2e
 7084 01b0 01       		.byte	0x1
 7085 01b1 3F       		.uleb128 0x3f
 7086 01b2 19       		.uleb128 0x19
 7087 01b3 03       		.uleb128 0x3
 7088 01b4 0E       		.uleb128 0xe
 7089 01b5 3A       		.uleb128 0x3a
 7090 01b6 0B       		.uleb128 0xb
 7091 01b7 3B       		.uleb128 0x3b
 7092 01b8 05       		.uleb128 0x5
ARM GAS  C:\Users\USUARIO\AppData\Local\Temp\cchqzDaB.s 			page 160


 7093 01b9 27       		.uleb128 0x27
 7094 01ba 19       		.uleb128 0x19
 7095 01bb 49       		.uleb128 0x49
 7096 01bc 13       		.uleb128 0x13
 7097 01bd 11       		.uleb128 0x11
 7098 01be 01       		.uleb128 0x1
 7099 01bf 12       		.uleb128 0x12
 7100 01c0 06       		.uleb128 0x6
 7101 01c1 40       		.uleb128 0x40
 7102 01c2 18       		.uleb128 0x18
 7103 01c3 9742     		.uleb128 0x2117
 7104 01c5 19       		.uleb128 0x19
 7105 01c6 01       		.uleb128 0x1
 7106 01c7 13       		.uleb128 0x13
 7107 01c8 00       		.byte	0
 7108 01c9 00       		.byte	0
 7109 01ca 1F       		.uleb128 0x1f
 7110 01cb 05       		.uleb128 0x5
 7111 01cc 00       		.byte	0
 7112 01cd 03       		.uleb128 0x3
 7113 01ce 08       		.uleb128 0x8
 7114 01cf 3A       		.uleb128 0x3a
 7115 01d0 0B       		.uleb128 0xb
 7116 01d1 3B       		.uleb128 0x3b
 7117 01d2 05       		.uleb128 0x5
 7118 01d3 49       		.uleb128 0x49
 7119 01d4 13       		.uleb128 0x13
 7120 01d5 02       		.uleb128 0x2
 7121 01d6 18       		.uleb128 0x18
 7122 01d7 00       		.byte	0
 7123 01d8 00       		.byte	0
 7124 01d9 20       		.uleb128 0x20
 7125 01da 2E       		.uleb128 0x2e
 7126 01db 01       		.byte	0x1
 7127 01dc 3F       		.uleb128 0x3f
 7128 01dd 19       		.uleb128 0x19
 7129 01de 03       		.uleb128 0x3
 7130 01df 0E       		.uleb128 0xe
 7131 01e0 3A       		.uleb128 0x3a
 7132 01e1 0B       		.uleb128 0xb
 7133 01e2 3B       		.uleb128 0x3b
 7134 01e3 05       		.uleb128 0x5
 7135 01e4 27       		.uleb128 0x27
 7136 01e5 19       		.uleb128 0x19
 7137 01e6 11       		.uleb128 0x11
 7138 01e7 01       		.uleb128 0x1
 7139 01e8 12       		.uleb128 0x12
 7140 01e9 06       		.uleb128 0x6
 7141 01ea 40       		.uleb128 0x40
 7142 01eb 18       		.uleb128 0x18
 7143 01ec 9742     		.uleb128 0x2117
 7144 01ee 19       		.uleb128 0x19
 7145 01ef 01       		.uleb128 0x1
 7146 01f0 13       		.uleb128 0x13
 7147 01f1 00       		.byte	0
 7148 01f2 00       		.byte	0
 7149 01f3 21       		.uleb128 0x21
ARM GAS  C:\Users\USUARIO\AppData\Local\Temp\cchqzDaB.s 			page 161


 7150 01f4 34       		.uleb128 0x34
 7151 01f5 00       		.byte	0
 7152 01f6 03       		.uleb128 0x3
 7153 01f7 0E       		.uleb128 0xe
 7154 01f8 3A       		.uleb128 0x3a
 7155 01f9 0B       		.uleb128 0xb
 7156 01fa 3B       		.uleb128 0x3b
 7157 01fb 0B       		.uleb128 0xb
 7158 01fc 49       		.uleb128 0x49
 7159 01fd 13       		.uleb128 0x13
 7160 01fe 02       		.uleb128 0x2
 7161 01ff 18       		.uleb128 0x18
 7162 0200 00       		.byte	0
 7163 0201 00       		.byte	0
 7164 0202 22       		.uleb128 0x22
 7165 0203 34       		.uleb128 0x34
 7166 0204 00       		.byte	0
 7167 0205 03       		.uleb128 0x3
 7168 0206 0E       		.uleb128 0xe
 7169 0207 3A       		.uleb128 0x3a
 7170 0208 0B       		.uleb128 0xb
 7171 0209 3B       		.uleb128 0x3b
 7172 020a 0B       		.uleb128 0xb
 7173 020b 49       		.uleb128 0x49
 7174 020c 13       		.uleb128 0x13
 7175 020d 3F       		.uleb128 0x3f
 7176 020e 19       		.uleb128 0x19
 7177 020f 3C       		.uleb128 0x3c
 7178 0210 19       		.uleb128 0x19
 7179 0211 00       		.byte	0
 7180 0212 00       		.byte	0
 7181 0213 23       		.uleb128 0x23
 7182 0214 34       		.uleb128 0x34
 7183 0215 00       		.byte	0
 7184 0216 03       		.uleb128 0x3
 7185 0217 0E       		.uleb128 0xe
 7186 0218 3A       		.uleb128 0x3a
 7187 0219 0B       		.uleb128 0xb
 7188 021a 3B       		.uleb128 0x3b
 7189 021b 0B       		.uleb128 0xb
 7190 021c 49       		.uleb128 0x49
 7191 021d 13       		.uleb128 0x13
 7192 021e 3F       		.uleb128 0x3f
 7193 021f 19       		.uleb128 0x19
 7194 0220 02       		.uleb128 0x2
 7195 0221 18       		.uleb128 0x18
 7196 0222 00       		.byte	0
 7197 0223 00       		.byte	0
 7198 0224 24       		.uleb128 0x24
 7199 0225 2E       		.uleb128 0x2e
 7200 0226 00       		.byte	0
 7201 0227 3F       		.uleb128 0x3f
 7202 0228 19       		.uleb128 0x19
 7203 0229 3C       		.uleb128 0x3c
 7204 022a 19       		.uleb128 0x19
 7205 022b 6E       		.uleb128 0x6e
 7206 022c 0E       		.uleb128 0xe
ARM GAS  C:\Users\USUARIO\AppData\Local\Temp\cchqzDaB.s 			page 162


 7207 022d 03       		.uleb128 0x3
 7208 022e 0E       		.uleb128 0xe
 7209 022f 3A       		.uleb128 0x3a
 7210 0230 0B       		.uleb128 0xb
 7211 0231 3B       		.uleb128 0x3b
 7212 0232 0B       		.uleb128 0xb
 7213 0233 00       		.byte	0
 7214 0234 00       		.byte	0
 7215 0235 00       		.byte	0
 7216              		.section	.debug_loc,"",%progbits
 7217              	.Ldebug_loc0:
 7218              	.LLST0:
 7219 0000 00000000 		.4byte	.LVL0
 7220 0004 08000000 		.4byte	.LVL1
 7221 0008 0100     		.2byte	0x1
 7222 000a 50       		.byte	0x50
 7223 000b 08000000 		.4byte	.LVL1
 7224 000f 36000000 		.4byte	.LFE1
 7225 0013 0400     		.2byte	0x4
 7226 0015 F3       		.byte	0xf3
 7227 0016 01       		.uleb128 0x1
 7228 0017 50       		.byte	0x50
 7229 0018 9F       		.byte	0x9f
 7230 0019 00000000 		.4byte	0
 7231 001d 00000000 		.4byte	0
 7232              	.LLST1:
 7233 0021 00000000 		.4byte	.LVL0
 7234 0025 08000000 		.4byte	.LVL1
 7235 0029 0100     		.2byte	0x1
 7236 002b 51       		.byte	0x51
 7237 002c 08000000 		.4byte	.LVL1
 7238 0030 36000000 		.4byte	.LFE1
 7239 0034 0400     		.2byte	0x4
 7240 0036 F3       		.byte	0xf3
 7241 0037 01       		.uleb128 0x1
 7242 0038 51       		.byte	0x51
 7243 0039 9F       		.byte	0x9f
 7244 003a 00000000 		.4byte	0
 7245 003e 00000000 		.4byte	0
 7246              	.LLST2:
 7247 0042 00000000 		.4byte	.LVL9
 7248 0046 06000000 		.4byte	.LVL10
 7249 004a 0100     		.2byte	0x1
 7250 004c 50       		.byte	0x50
 7251 004d 06000000 		.4byte	.LVL10
 7252 0051 0C000000 		.4byte	.LFE19
 7253 0055 0400     		.2byte	0x4
 7254 0057 F3       		.byte	0xf3
 7255 0058 01       		.uleb128 0x1
 7256 0059 50       		.byte	0x50
 7257 005a 9F       		.byte	0x9f
 7258 005b 00000000 		.4byte	0
 7259 005f 00000000 		.4byte	0
 7260              	.LLST3:
 7261 0063 00000000 		.4byte	.LVL12
 7262 0067 06000000 		.4byte	.LVL13
 7263 006b 0100     		.2byte	0x1
ARM GAS  C:\Users\USUARIO\AppData\Local\Temp\cchqzDaB.s 			page 163


 7264 006d 50       		.byte	0x50
 7265 006e 06000000 		.4byte	.LVL13
 7266 0072 0C000000 		.4byte	.LFE31
 7267 0076 0400     		.2byte	0x4
 7268 0078 F3       		.byte	0xf3
 7269 0079 01       		.uleb128 0x1
 7270 007a 50       		.byte	0x50
 7271 007b 9F       		.byte	0x9f
 7272 007c 00000000 		.4byte	0
 7273 0080 00000000 		.4byte	0
 7274              	.LLST4:
 7275 0084 00000000 		.4byte	.LVL15
 7276 0088 06000000 		.4byte	.LVL16
 7277 008c 0100     		.2byte	0x1
 7278 008e 50       		.byte	0x50
 7279 008f 06000000 		.4byte	.LVL16
 7280 0093 0C000000 		.4byte	.LFE29
 7281 0097 0400     		.2byte	0x4
 7282 0099 F3       		.byte	0xf3
 7283 009a 01       		.uleb128 0x1
 7284 009b 50       		.byte	0x50
 7285 009c 9F       		.byte	0x9f
 7286 009d 00000000 		.4byte	0
 7287 00a1 00000000 		.4byte	0
 7288              	.LLST5:
 7289 00a5 00000000 		.4byte	.LVL18
 7290 00a9 0C000000 		.4byte	.LVL20
 7291 00ad 0100     		.2byte	0x1
 7292 00af 50       		.byte	0x50
 7293 00b0 0C000000 		.4byte	.LVL20
 7294 00b4 22000000 		.4byte	.LFE5
 7295 00b8 0400     		.2byte	0x4
 7296 00ba F3       		.byte	0xf3
 7297 00bb 01       		.uleb128 0x1
 7298 00bc 50       		.byte	0x50
 7299 00bd 9F       		.byte	0x9f
 7300 00be 00000000 		.4byte	0
 7301 00c2 00000000 		.4byte	0
 7302              	.LLST6:
 7303 00c6 00000000 		.4byte	.LVL18
 7304 00ca 0C000000 		.4byte	.LVL20
 7305 00ce 0100     		.2byte	0x1
 7306 00d0 51       		.byte	0x51
 7307 00d1 0C000000 		.4byte	.LVL20
 7308 00d5 10000000 		.4byte	.LVL21
 7309 00d9 0200     		.2byte	0x2
 7310 00db 91       		.byte	0x91
 7311 00dc 6C       		.sleb128 -20
 7312 00dd 10000000 		.4byte	.LVL21
 7313 00e1 17000000 		.4byte	.LVL22-1
 7314 00e5 0200     		.2byte	0x2
 7315 00e7 73       		.byte	0x73
 7316 00e8 00       		.sleb128 0
 7317 00e9 17000000 		.4byte	.LVL22-1
 7318 00ed 22000000 		.4byte	.LFE5
 7319 00f1 0200     		.2byte	0x2
 7320 00f3 91       		.byte	0x91
ARM GAS  C:\Users\USUARIO\AppData\Local\Temp\cchqzDaB.s 			page 164


 7321 00f4 6C       		.sleb128 -20
 7322 00f5 00000000 		.4byte	0
 7323 00f9 00000000 		.4byte	0
 7324              	.LLST7:
 7325 00fd 08000000 		.4byte	.LVL19
 7326 0101 0C000000 		.4byte	.LVL20
 7327 0105 0200     		.2byte	0x2
 7328 0107 30       		.byte	0x30
 7329 0108 9F       		.byte	0x9f
 7330 0109 0C000000 		.4byte	.LVL20
 7331 010d 22000000 		.4byte	.LFE5
 7332 0111 0100     		.2byte	0x1
 7333 0113 54       		.byte	0x54
 7334 0114 00000000 		.4byte	0
 7335 0118 00000000 		.4byte	0
 7336              	.LLST8:
 7337 011c 08000000 		.4byte	.LVL19
 7338 0120 10000000 		.4byte	.LVL21
 7339 0124 0300     		.2byte	0x3
 7340 0126 91       		.byte	0x91
 7341 0127 6C       		.sleb128 -20
 7342 0128 9F       		.byte	0x9f
 7343 0129 10000000 		.4byte	.LVL21
 7344 012d 17000000 		.4byte	.LVL22-1
 7345 0131 0100     		.2byte	0x1
 7346 0133 53       		.byte	0x53
 7347 0134 17000000 		.4byte	.LVL22-1
 7348 0138 22000000 		.4byte	.LFE5
 7349 013c 0300     		.2byte	0x3
 7350 013e 91       		.byte	0x91
 7351 013f 6C       		.sleb128 -20
 7352 0140 9F       		.byte	0x9f
 7353 0141 00000000 		.4byte	0
 7354 0145 00000000 		.4byte	0
 7355              	.LLST9:
 7356 0149 00000000 		.4byte	.LVL24
 7357 014d 06000000 		.4byte	.LVL25
 7358 0151 0100     		.2byte	0x1
 7359 0153 50       		.byte	0x50
 7360 0154 06000000 		.4byte	.LVL25
 7361 0158 09000000 		.4byte	.LVL26-1
 7362 015c 0100     		.2byte	0x1
 7363 015e 51       		.byte	0x51
 7364 015f 09000000 		.4byte	.LVL26-1
 7365 0163 0C000000 		.4byte	.LFE13
 7366 0167 0400     		.2byte	0x4
 7367 0169 F3       		.byte	0xf3
 7368 016a 01       		.uleb128 0x1
 7369 016b 50       		.byte	0x50
 7370 016c 9F       		.byte	0x9f
 7371 016d 00000000 		.4byte	0
 7372 0171 00000000 		.4byte	0
 7373              	.LLST10:
 7374 0175 00000000 		.4byte	.LVL27
 7375 0179 06000000 		.4byte	.LVL28
 7376 017d 0100     		.2byte	0x1
 7377 017f 50       		.byte	0x50
ARM GAS  C:\Users\USUARIO\AppData\Local\Temp\cchqzDaB.s 			page 165


 7378 0180 06000000 		.4byte	.LVL28
 7379 0184 09000000 		.4byte	.LVL29-1
 7380 0188 0100     		.2byte	0x1
 7381 018a 51       		.byte	0x51
 7382 018b 09000000 		.4byte	.LVL29-1
 7383 018f 0C000000 		.4byte	.LFE17
 7384 0193 0400     		.2byte	0x4
 7385 0195 F3       		.byte	0xf3
 7386 0196 01       		.uleb128 0x1
 7387 0197 50       		.byte	0x50
 7388 0198 9F       		.byte	0x9f
 7389 0199 00000000 		.4byte	0
 7390 019d 00000000 		.4byte	0
 7391              	.LLST11:
 7392 01a1 00000000 		.4byte	.LVL30
 7393 01a5 06000000 		.4byte	.LVL31
 7394 01a9 0100     		.2byte	0x1
 7395 01ab 50       		.byte	0x50
 7396 01ac 06000000 		.4byte	.LVL31
 7397 01b0 09000000 		.4byte	.LVL32-1
 7398 01b4 0100     		.2byte	0x1
 7399 01b6 51       		.byte	0x51
 7400 01b7 09000000 		.4byte	.LVL32-1
 7401 01bb 0C000000 		.4byte	.LFE15
 7402 01bf 0400     		.2byte	0x4
 7403 01c1 F3       		.byte	0xf3
 7404 01c2 01       		.uleb128 0x1
 7405 01c3 50       		.byte	0x50
 7406 01c4 9F       		.byte	0x9f
 7407 01c5 00000000 		.4byte	0
 7408 01c9 00000000 		.4byte	0
 7409              	.LLST12:
 7410 01cd 00000000 		.4byte	.LVL33
 7411 01d1 04000000 		.4byte	.LVL34
 7412 01d5 0100     		.2byte	0x1
 7413 01d7 50       		.byte	0x50
 7414 01d8 04000000 		.4byte	.LVL34
 7415 01dc 10000000 		.4byte	.LFE49
 7416 01e0 0400     		.2byte	0x4
 7417 01e2 F3       		.byte	0xf3
 7418 01e3 01       		.uleb128 0x1
 7419 01e4 50       		.byte	0x50
 7420 01e5 9F       		.byte	0x9f
 7421 01e6 00000000 		.4byte	0
 7422 01ea 00000000 		.4byte	0
 7423              	.LLST13:
 7424 01ee 00000000 		.4byte	.LVL33
 7425 01f2 0D000000 		.4byte	.LVL35-1
 7426 01f6 0100     		.2byte	0x1
 7427 01f8 51       		.byte	0x51
 7428 01f9 0D000000 		.4byte	.LVL35-1
 7429 01fd 10000000 		.4byte	.LFE49
 7430 0201 0400     		.2byte	0x4
 7431 0203 F3       		.byte	0xf3
 7432 0204 01       		.uleb128 0x1
 7433 0205 51       		.byte	0x51
 7434 0206 9F       		.byte	0x9f
ARM GAS  C:\Users\USUARIO\AppData\Local\Temp\cchqzDaB.s 			page 166


 7435 0207 00000000 		.4byte	0
 7436 020b 00000000 		.4byte	0
 7437              	.LLST14:
 7438 020f 00000000 		.4byte	.LVL36
 7439 0213 0A000000 		.4byte	.LVL38
 7440 0217 0100     		.2byte	0x1
 7441 0219 50       		.byte	0x50
 7442 021a 0A000000 		.4byte	.LVL38
 7443 021e 1C000000 		.4byte	.LFE3
 7444 0222 0400     		.2byte	0x4
 7445 0224 F3       		.byte	0xf3
 7446 0225 01       		.uleb128 0x1
 7447 0226 50       		.byte	0x50
 7448 0227 9F       		.byte	0x9f
 7449 0228 00000000 		.4byte	0
 7450 022c 00000000 		.4byte	0
 7451              	.LLST15:
 7452 0230 00000000 		.4byte	.LVL36
 7453 0234 0A000000 		.4byte	.LVL38
 7454 0238 0100     		.2byte	0x1
 7455 023a 51       		.byte	0x51
 7456 023b 0A000000 		.4byte	.LVL38
 7457 023f 1C000000 		.4byte	.LFE3
 7458 0243 0100     		.2byte	0x1
 7459 0245 55       		.byte	0x55
 7460 0246 00000000 		.4byte	0
 7461 024a 00000000 		.4byte	0
 7462              	.LLST16:
 7463 024e 06000000 		.4byte	.LVL37
 7464 0252 0A000000 		.4byte	.LVL38
 7465 0256 0200     		.2byte	0x2
 7466 0258 30       		.byte	0x30
 7467 0259 9F       		.byte	0x9f
 7468 025a 0A000000 		.4byte	.LVL38
 7469 025e 1C000000 		.4byte	.LFE3
 7470 0262 0100     		.2byte	0x1
 7471 0264 54       		.byte	0x54
 7472 0265 00000000 		.4byte	0
 7473 0269 00000000 		.4byte	0
 7474              	.LLST17:
 7475 026d 00000000 		.4byte	.LVL41
 7476 0271 06000000 		.4byte	.LVL42
 7477 0275 0100     		.2byte	0x1
 7478 0277 50       		.byte	0x50
 7479 0278 06000000 		.4byte	.LVL42
 7480 027c 09000000 		.4byte	.LVL43-1
 7481 0280 0100     		.2byte	0x1
 7482 0282 51       		.byte	0x51
 7483 0283 09000000 		.4byte	.LVL43-1
 7484 0287 0C000000 		.4byte	.LFE11
 7485 028b 0400     		.2byte	0x4
 7486 028d F3       		.byte	0xf3
 7487 028e 01       		.uleb128 0x1
 7488 028f 50       		.byte	0x50
 7489 0290 9F       		.byte	0x9f
 7490 0291 00000000 		.4byte	0
 7491 0295 00000000 		.4byte	0
ARM GAS  C:\Users\USUARIO\AppData\Local\Temp\cchqzDaB.s 			page 167


 7492              	.LLST18:
 7493 0299 00000000 		.4byte	.LVL44
 7494 029d 06000000 		.4byte	.LVL45
 7495 02a1 0100     		.2byte	0x1
 7496 02a3 50       		.byte	0x50
 7497 02a4 06000000 		.4byte	.LVL45
 7498 02a8 0C000000 		.4byte	.LFE21
 7499 02ac 0400     		.2byte	0x4
 7500 02ae F3       		.byte	0xf3
 7501 02af 01       		.uleb128 0x1
 7502 02b0 50       		.byte	0x50
 7503 02b1 9F       		.byte	0x9f
 7504 02b2 00000000 		.4byte	0
 7505 02b6 00000000 		.4byte	0
 7506              	.LLST19:
 7507 02ba 00000000 		.4byte	.LVL47
 7508 02be 0B000000 		.4byte	.LVL49-1
 7509 02c2 0100     		.2byte	0x1
 7510 02c4 50       		.byte	0x50
 7511 02c5 0B000000 		.4byte	.LVL49-1
 7512 02c9 18000000 		.4byte	.LFE7
 7513 02cd 0400     		.2byte	0x4
 7514 02cf F3       		.byte	0xf3
 7515 02d0 01       		.uleb128 0x1
 7516 02d1 50       		.byte	0x50
 7517 02d2 9F       		.byte	0x9f
 7518 02d3 00000000 		.4byte	0
 7519 02d7 00000000 		.4byte	0
 7520              	.LLST20:
 7521 02db 00000000 		.4byte	.LVL47
 7522 02df 08000000 		.4byte	.LVL48
 7523 02e3 0100     		.2byte	0x1
 7524 02e5 51       		.byte	0x51
 7525 02e6 08000000 		.4byte	.LVL48
 7526 02ea 18000000 		.4byte	.LFE7
 7527 02ee 0400     		.2byte	0x4
 7528 02f0 F3       		.byte	0xf3
 7529 02f1 01       		.uleb128 0x1
 7530 02f2 51       		.byte	0x51
 7531 02f3 9F       		.byte	0x9f
 7532 02f4 00000000 		.4byte	0
 7533 02f8 00000000 		.4byte	0
 7534              	.LLST21:
 7535 02fc 00000000 		.4byte	.LVL51
 7536 0300 04000000 		.4byte	.LVL52
 7537 0304 0100     		.2byte	0x1
 7538 0306 50       		.byte	0x50
 7539 0307 04000000 		.4byte	.LVL52
 7540 030b 10000000 		.4byte	.LFE45
 7541 030f 0400     		.2byte	0x4
 7542 0311 F3       		.byte	0xf3
 7543 0312 01       		.uleb128 0x1
 7544 0313 50       		.byte	0x50
 7545 0314 9F       		.byte	0x9f
 7546 0315 00000000 		.4byte	0
 7547 0319 00000000 		.4byte	0
 7548              	.LLST22:
ARM GAS  C:\Users\USUARIO\AppData\Local\Temp\cchqzDaB.s 			page 168


 7549 031d 00000000 		.4byte	.LVL51
 7550 0321 0D000000 		.4byte	.LVL53-1
 7551 0325 0100     		.2byte	0x1
 7552 0327 51       		.byte	0x51
 7553 0328 0D000000 		.4byte	.LVL53-1
 7554 032c 10000000 		.4byte	.LFE45
 7555 0330 0400     		.2byte	0x4
 7556 0332 F3       		.byte	0xf3
 7557 0333 01       		.uleb128 0x1
 7558 0334 51       		.byte	0x51
 7559 0335 9F       		.byte	0x9f
 7560 0336 00000000 		.4byte	0
 7561 033a 00000000 		.4byte	0
 7562              	.LLST23:
 7563 033e 00000000 		.4byte	.LVL54
 7564 0342 04000000 		.4byte	.LVL55
 7565 0346 0100     		.2byte	0x1
 7566 0348 50       		.byte	0x50
 7567 0349 04000000 		.4byte	.LVL55
 7568 034d 10000000 		.4byte	.LFE51
 7569 0351 0400     		.2byte	0x4
 7570 0353 F3       		.byte	0xf3
 7571 0354 01       		.uleb128 0x1
 7572 0355 50       		.byte	0x50
 7573 0356 9F       		.byte	0x9f
 7574 0357 00000000 		.4byte	0
 7575 035b 00000000 		.4byte	0
 7576              	.LLST24:
 7577 035f 00000000 		.4byte	.LVL54
 7578 0363 0D000000 		.4byte	.LVL56-1
 7579 0367 0100     		.2byte	0x1
 7580 0369 51       		.byte	0x51
 7581 036a 0D000000 		.4byte	.LVL56-1
 7582 036e 10000000 		.4byte	.LFE51
 7583 0372 0400     		.2byte	0x4
 7584 0374 F3       		.byte	0xf3
 7585 0375 01       		.uleb128 0x1
 7586 0376 51       		.byte	0x51
 7587 0377 9F       		.byte	0x9f
 7588 0378 00000000 		.4byte	0
 7589 037c 00000000 		.4byte	0
 7590              	.LLST25:
 7591 0380 00000000 		.4byte	.LVL57
 7592 0384 04000000 		.4byte	.LVL58
 7593 0388 0100     		.2byte	0x1
 7594 038a 50       		.byte	0x50
 7595 038b 04000000 		.4byte	.LVL58
 7596 038f 10000000 		.4byte	.LFE64
 7597 0393 0400     		.2byte	0x4
 7598 0395 F3       		.byte	0xf3
 7599 0396 01       		.uleb128 0x1
 7600 0397 50       		.byte	0x50
 7601 0398 9F       		.byte	0x9f
 7602 0399 00000000 		.4byte	0
 7603 039d 00000000 		.4byte	0
 7604              	.LLST26:
 7605 03a1 00000000 		.4byte	.LVL57
ARM GAS  C:\Users\USUARIO\AppData\Local\Temp\cchqzDaB.s 			page 169


 7606 03a5 0D000000 		.4byte	.LVL59-1
 7607 03a9 0100     		.2byte	0x1
 7608 03ab 51       		.byte	0x51
 7609 03ac 0D000000 		.4byte	.LVL59-1
 7610 03b0 10000000 		.4byte	.LFE64
 7611 03b4 0400     		.2byte	0x4
 7612 03b6 F3       		.byte	0xf3
 7613 03b7 01       		.uleb128 0x1
 7614 03b8 51       		.byte	0x51
 7615 03b9 9F       		.byte	0x9f
 7616 03ba 00000000 		.4byte	0
 7617 03be 00000000 		.4byte	0
 7618              	.LLST27:
 7619 03c2 00000000 		.4byte	.LVL60
 7620 03c6 04000000 		.4byte	.LVL61
 7621 03ca 0100     		.2byte	0x1
 7622 03cc 50       		.byte	0x50
 7623 03cd 04000000 		.4byte	.LVL61
 7624 03d1 10000000 		.4byte	.LFE67
 7625 03d5 0400     		.2byte	0x4
 7626 03d7 F3       		.byte	0xf3
 7627 03d8 01       		.uleb128 0x1
 7628 03d9 50       		.byte	0x50
 7629 03da 9F       		.byte	0x9f
 7630 03db 00000000 		.4byte	0
 7631 03df 00000000 		.4byte	0
 7632              	.LLST28:
 7633 03e3 00000000 		.4byte	.LVL60
 7634 03e7 0D000000 		.4byte	.LVL62-1
 7635 03eb 0100     		.2byte	0x1
 7636 03ed 51       		.byte	0x51
 7637 03ee 0D000000 		.4byte	.LVL62-1
 7638 03f2 10000000 		.4byte	.LFE67
 7639 03f6 0400     		.2byte	0x4
 7640 03f8 F3       		.byte	0xf3
 7641 03f9 01       		.uleb128 0x1
 7642 03fa 51       		.byte	0x51
 7643 03fb 9F       		.byte	0x9f
 7644 03fc 00000000 		.4byte	0
 7645 0400 00000000 		.4byte	0
 7646              	.LLST29:
 7647 0404 00000000 		.4byte	.LVL63
 7648 0408 04000000 		.4byte	.LVL64
 7649 040c 0100     		.2byte	0x1
 7650 040e 50       		.byte	0x50
 7651 040f 04000000 		.4byte	.LVL64
 7652 0413 12000000 		.4byte	.LFE37
 7653 0417 0400     		.2byte	0x4
 7654 0419 F3       		.byte	0xf3
 7655 041a 01       		.uleb128 0x1
 7656 041b 50       		.byte	0x50
 7657 041c 9F       		.byte	0x9f
 7658 041d 00000000 		.4byte	0
 7659 0421 00000000 		.4byte	0
 7660              	.LLST30:
 7661 0425 00000000 		.4byte	.LVL63
 7662 0429 0F000000 		.4byte	.LVL65-1
ARM GAS  C:\Users\USUARIO\AppData\Local\Temp\cchqzDaB.s 			page 170


 7663 042d 0100     		.2byte	0x1
 7664 042f 51       		.byte	0x51
 7665 0430 0F000000 		.4byte	.LVL65-1
 7666 0434 12000000 		.4byte	.LFE37
 7667 0438 0400     		.2byte	0x4
 7668 043a F3       		.byte	0xf3
 7669 043b 01       		.uleb128 0x1
 7670 043c 51       		.byte	0x51
 7671 043d 9F       		.byte	0x9f
 7672 043e 00000000 		.4byte	0
 7673 0442 00000000 		.4byte	0
 7674              	.LLST31:
 7675 0446 00000000 		.4byte	.LVL66
 7676 044a 04000000 		.4byte	.LVL67
 7677 044e 0100     		.2byte	0x1
 7678 0450 50       		.byte	0x50
 7679 0451 04000000 		.4byte	.LVL67
 7680 0455 10000000 		.4byte	.LFE39
 7681 0459 0400     		.2byte	0x4
 7682 045b F3       		.byte	0xf3
 7683 045c 01       		.uleb128 0x1
 7684 045d 50       		.byte	0x50
 7685 045e 9F       		.byte	0x9f
 7686 045f 00000000 		.4byte	0
 7687 0463 00000000 		.4byte	0
 7688              	.LLST32:
 7689 0467 00000000 		.4byte	.LVL66
 7690 046b 0D000000 		.4byte	.LVL68-1
 7691 046f 0100     		.2byte	0x1
 7692 0471 51       		.byte	0x51
 7693 0472 0D000000 		.4byte	.LVL68-1
 7694 0476 10000000 		.4byte	.LFE39
 7695 047a 0400     		.2byte	0x4
 7696 047c F3       		.byte	0xf3
 7697 047d 01       		.uleb128 0x1
 7698 047e 51       		.byte	0x51
 7699 047f 9F       		.byte	0x9f
 7700 0480 00000000 		.4byte	0
 7701 0484 00000000 		.4byte	0
 7702              	.LLST33:
 7703 0488 00000000 		.4byte	.LVL69
 7704 048c 04000000 		.4byte	.LVL70
 7705 0490 0100     		.2byte	0x1
 7706 0492 50       		.byte	0x50
 7707 0493 04000000 		.4byte	.LVL70
 7708 0497 10000000 		.4byte	.LFE41
 7709 049b 0400     		.2byte	0x4
 7710 049d F3       		.byte	0xf3
 7711 049e 01       		.uleb128 0x1
 7712 049f 50       		.byte	0x50
 7713 04a0 9F       		.byte	0x9f
 7714 04a1 00000000 		.4byte	0
 7715 04a5 00000000 		.4byte	0
 7716              	.LLST34:
 7717 04a9 00000000 		.4byte	.LVL69
 7718 04ad 0D000000 		.4byte	.LVL71-1
 7719 04b1 0100     		.2byte	0x1
ARM GAS  C:\Users\USUARIO\AppData\Local\Temp\cchqzDaB.s 			page 171


 7720 04b3 51       		.byte	0x51
 7721 04b4 0D000000 		.4byte	.LVL71-1
 7722 04b8 10000000 		.4byte	.LFE41
 7723 04bc 0400     		.2byte	0x4
 7724 04be F3       		.byte	0xf3
 7725 04bf 01       		.uleb128 0x1
 7726 04c0 51       		.byte	0x51
 7727 04c1 9F       		.byte	0x9f
 7728 04c2 00000000 		.4byte	0
 7729 04c6 00000000 		.4byte	0
 7730              	.LLST35:
 7731 04ca 00000000 		.4byte	.LVL72
 7732 04ce 0C000000 		.4byte	.LVL74
 7733 04d2 0100     		.2byte	0x1
 7734 04d4 50       		.byte	0x50
 7735 04d5 0C000000 		.4byte	.LVL74
 7736 04d9 1E000000 		.4byte	.LFE9
 7737 04dd 0400     		.2byte	0x4
 7738 04df F3       		.byte	0xf3
 7739 04e0 01       		.uleb128 0x1
 7740 04e1 50       		.byte	0x50
 7741 04e2 9F       		.byte	0x9f
 7742 04e3 00000000 		.4byte	0
 7743 04e7 00000000 		.4byte	0
 7744              	.LLST36:
 7745 04eb 00000000 		.4byte	.LVL72
 7746 04ef 0C000000 		.4byte	.LVL74
 7747 04f3 0100     		.2byte	0x1
 7748 04f5 51       		.byte	0x51
 7749 04f6 0C000000 		.4byte	.LVL74
 7750 04fa 1E000000 		.4byte	.LFE9
 7751 04fe 0100     		.2byte	0x1
 7752 0500 56       		.byte	0x56
 7753 0501 00000000 		.4byte	0
 7754 0505 00000000 		.4byte	0
 7755              	.LLST37:
 7756 0509 00000000 		.4byte	.LVL72
 7757 050d 0C000000 		.4byte	.LVL74
 7758 0511 0100     		.2byte	0x1
 7759 0513 52       		.byte	0x52
 7760 0514 0C000000 		.4byte	.LVL74
 7761 0518 1E000000 		.4byte	.LFE9
 7762 051c 0400     		.2byte	0x4
 7763 051e F3       		.byte	0xf3
 7764 051f 01       		.uleb128 0x1
 7765 0520 52       		.byte	0x52
 7766 0521 9F       		.byte	0x9f
 7767 0522 00000000 		.4byte	0
 7768 0526 00000000 		.4byte	0
 7769              	.LLST38:
 7770 052a 08000000 		.4byte	.LVL73
 7771 052e 0C000000 		.4byte	.LVL74
 7772 0532 0200     		.2byte	0x2
 7773 0534 30       		.byte	0x30
 7774 0535 9F       		.byte	0x9f
 7775 0536 0C000000 		.4byte	.LVL74
 7776 053a 1E000000 		.4byte	.LFE9
ARM GAS  C:\Users\USUARIO\AppData\Local\Temp\cchqzDaB.s 			page 172


 7777 053e 0100     		.2byte	0x1
 7778 0540 54       		.byte	0x54
 7779 0541 00000000 		.4byte	0
 7780 0545 00000000 		.4byte	0
 7781              	.LLST39:
 7782 0549 00000000 		.4byte	.LVL77
 7783 054d 06000000 		.4byte	.LVL78
 7784 0551 0100     		.2byte	0x1
 7785 0553 50       		.byte	0x50
 7786 0554 06000000 		.4byte	.LVL78
 7787 0558 5C000000 		.4byte	.LFE2
 7788 055c 0400     		.2byte	0x4
 7789 055e F3       		.byte	0xf3
 7790 055f 01       		.uleb128 0x1
 7791 0560 50       		.byte	0x50
 7792 0561 9F       		.byte	0x9f
 7793 0562 00000000 		.4byte	0
 7794 0566 00000000 		.4byte	0
 7795              	.LLST40:
 7796 056a 4A000000 		.4byte	.LVL89
 7797 056e 50000000 		.4byte	.LVL91
 7798 0572 0100     		.2byte	0x1
 7799 0574 54       		.byte	0x54
 7800 0575 50000000 		.4byte	.LVL91
 7801 0579 53000000 		.4byte	.LVL92-1
 7802 057d 0100     		.2byte	0x1
 7803 057f 50       		.byte	0x50
 7804 0580 53000000 		.4byte	.LVL92-1
 7805 0584 5C000000 		.4byte	.LFE2
 7806 0588 0100     		.2byte	0x1
 7807 058a 54       		.byte	0x54
 7808 058b 00000000 		.4byte	0
 7809 058f 00000000 		.4byte	0
 7810              	.LLST41:
 7811 0593 48000000 		.4byte	.LVL88
 7812 0597 4D000000 		.4byte	.LVL90-1
 7813 059b 0100     		.2byte	0x1
 7814 059d 50       		.byte	0x50
 7815 059e 54000000 		.4byte	.LVL92
 7816 05a2 5A000000 		.4byte	.LVL93
 7817 05a6 0100     		.2byte	0x1
 7818 05a8 50       		.byte	0x50
 7819 05a9 00000000 		.4byte	0
 7820 05ad 00000000 		.4byte	0
 7821              	.LLST42:
 7822 05b1 00000000 		.4byte	.LVL94
 7823 05b5 0A000000 		.4byte	.LVL96
 7824 05b9 0100     		.2byte	0x1
 7825 05bb 50       		.byte	0x50
 7826 05bc 0A000000 		.4byte	.LVL96
 7827 05c0 1C000000 		.4byte	.LFE4
 7828 05c4 0400     		.2byte	0x4
 7829 05c6 F3       		.byte	0xf3
 7830 05c7 01       		.uleb128 0x1
 7831 05c8 50       		.byte	0x50
 7832 05c9 9F       		.byte	0x9f
 7833 05ca 00000000 		.4byte	0
ARM GAS  C:\Users\USUARIO\AppData\Local\Temp\cchqzDaB.s 			page 173


 7834 05ce 00000000 		.4byte	0
 7835              	.LLST43:
 7836 05d2 00000000 		.4byte	.LVL94
 7837 05d6 0A000000 		.4byte	.LVL96
 7838 05da 0100     		.2byte	0x1
 7839 05dc 51       		.byte	0x51
 7840 05dd 0A000000 		.4byte	.LVL96
 7841 05e1 1C000000 		.4byte	.LFE4
 7842 05e5 0100     		.2byte	0x1
 7843 05e7 55       		.byte	0x55
 7844 05e8 00000000 		.4byte	0
 7845 05ec 00000000 		.4byte	0
 7846              	.LLST44:
 7847 05f0 06000000 		.4byte	.LVL95
 7848 05f4 0A000000 		.4byte	.LVL96
 7849 05f8 0200     		.2byte	0x2
 7850 05fa 30       		.byte	0x30
 7851 05fb 9F       		.byte	0x9f
 7852 05fc 0A000000 		.4byte	.LVL96
 7853 0600 1C000000 		.4byte	.LFE4
 7854 0604 0100     		.2byte	0x1
 7855 0606 54       		.byte	0x54
 7856 0607 00000000 		.4byte	0
 7857 060b 00000000 		.4byte	0
 7858              	.LLST45:
 7859 060f 00000000 		.4byte	.LVL99
 7860 0613 06000000 		.4byte	.LVL100
 7861 0617 0100     		.2byte	0x1
 7862 0619 50       		.byte	0x50
 7863 061a 06000000 		.4byte	.LVL100
 7864 061e 09000000 		.4byte	.LVL101-1
 7865 0622 0100     		.2byte	0x1
 7866 0624 51       		.byte	0x51
 7867 0625 09000000 		.4byte	.LVL101-1
 7868 0629 0C000000 		.4byte	.LFE12
 7869 062d 0400     		.2byte	0x4
 7870 062f F3       		.byte	0xf3
 7871 0630 01       		.uleb128 0x1
 7872 0631 50       		.byte	0x50
 7873 0632 9F       		.byte	0x9f
 7874 0633 00000000 		.4byte	0
 7875 0637 00000000 		.4byte	0
 7876              	.LLST46:
 7877 063b 00000000 		.4byte	.LVL102
 7878 063f 0C000000 		.4byte	.LVL105
 7879 0643 0100     		.2byte	0x1
 7880 0645 50       		.byte	0x50
 7881 0646 0C000000 		.4byte	.LVL105
 7882 064a 28000000 		.4byte	.LFE6
 7883 064e 0400     		.2byte	0x4
 7884 0650 F3       		.byte	0xf3
 7885 0651 01       		.uleb128 0x1
 7886 0652 50       		.byte	0x50
 7887 0653 9F       		.byte	0x9f
 7888 0654 00000000 		.4byte	0
 7889 0658 00000000 		.4byte	0
 7890              	.LLST47:
ARM GAS  C:\Users\USUARIO\AppData\Local\Temp\cchqzDaB.s 			page 174


 7891 065c 0A000000 		.4byte	.LVL104
 7892 0660 0C000000 		.4byte	.LVL105
 7893 0664 0200     		.2byte	0x2
 7894 0666 30       		.byte	0x30
 7895 0667 9F       		.byte	0x9f
 7896 0668 0C000000 		.4byte	.LVL105
 7897 066c 28000000 		.4byte	.LFE6
 7898 0670 0100     		.2byte	0x1
 7899 0672 54       		.byte	0x54
 7900 0673 00000000 		.4byte	0
 7901 0677 00000000 		.4byte	0
 7902              	.LLST48:
 7903 067b 00000000 		.4byte	.LVL109
 7904 067f 04000000 		.4byte	.LVL110
 7905 0683 0100     		.2byte	0x1
 7906 0685 50       		.byte	0x50
 7907 0686 04000000 		.4byte	.LVL110
 7908 068a 10000000 		.4byte	.LFE40
 7909 068e 0400     		.2byte	0x4
 7910 0690 F3       		.byte	0xf3
 7911 0691 01       		.uleb128 0x1
 7912 0692 50       		.byte	0x50
 7913 0693 9F       		.byte	0x9f
 7914 0694 00000000 		.4byte	0
 7915 0698 00000000 		.4byte	0
 7916              	.LLST49:
 7917 069c 00000000 		.4byte	.LVL112
 7918 06a0 09000000 		.4byte	.LVL115-1
 7919 06a4 0100     		.2byte	0x1
 7920 06a6 50       		.byte	0x50
 7921 06a7 09000000 		.4byte	.LVL115-1
 7922 06ab 26000000 		.4byte	.LFE69
 7923 06af 0400     		.2byte	0x4
 7924 06b1 F3       		.byte	0xf3
 7925 06b2 01       		.uleb128 0x1
 7926 06b3 50       		.byte	0x50
 7927 06b4 9F       		.byte	0x9f
 7928 06b5 00000000 		.4byte	0
 7929 06b9 00000000 		.4byte	0
 7930              	.LLST50:
 7931 06bd 00000000 		.4byte	.LVL112
 7932 06c1 06000000 		.4byte	.LVL114
 7933 06c5 0100     		.2byte	0x1
 7934 06c7 51       		.byte	0x51
 7935 06c8 06000000 		.4byte	.LVL114
 7936 06cc 26000000 		.4byte	.LFE69
 7937 06d0 0400     		.2byte	0x4
 7938 06d2 F3       		.byte	0xf3
 7939 06d3 01       		.uleb128 0x1
 7940 06d4 51       		.byte	0x51
 7941 06d5 9F       		.byte	0x9f
 7942 06d6 00000000 		.4byte	0
 7943 06da 00000000 		.4byte	0
 7944              	.LLST51:
 7945 06de 04000000 		.4byte	.LVL113
 7946 06e2 0E000000 		.4byte	.LVL116
 7947 06e6 0200     		.2byte	0x2
ARM GAS  C:\Users\USUARIO\AppData\Local\Temp\cchqzDaB.s 			page 175


 7948 06e8 30       		.byte	0x30
 7949 06e9 9F       		.byte	0x9f
 7950 06ea 0E000000 		.4byte	.LVL116
 7951 06ee 26000000 		.4byte	.LFE69
 7952 06f2 0100     		.2byte	0x1
 7953 06f4 54       		.byte	0x54
 7954 06f5 00000000 		.4byte	0
 7955 06f9 00000000 		.4byte	0
 7956              	.LLST52:
 7957 06fd 00000000 		.4byte	.LVL120
 7958 0701 04000000 		.4byte	.LVL121
 7959 0705 0100     		.2byte	0x1
 7960 0707 50       		.byte	0x50
 7961 0708 04000000 		.4byte	.LVL121
 7962 070c 10000000 		.4byte	.LFE44
 7963 0710 0400     		.2byte	0x4
 7964 0712 F3       		.byte	0xf3
 7965 0713 01       		.uleb128 0x1
 7966 0714 50       		.byte	0x50
 7967 0715 9F       		.byte	0x9f
 7968 0716 00000000 		.4byte	0
 7969 071a 00000000 		.4byte	0
 7970              	.LLST53:
 7971 071e 00000000 		.4byte	.LVL123
 7972 0722 07000000 		.4byte	.LVL124-1
 7973 0726 0100     		.2byte	0x1
 7974 0728 50       		.byte	0x50
 7975 0729 07000000 		.4byte	.LVL124-1
 7976 072d 1C000000 		.4byte	.LFE8
 7977 0731 0400     		.2byte	0x4
 7978 0733 F3       		.byte	0xf3
 7979 0734 01       		.uleb128 0x1
 7980 0735 50       		.byte	0x50
 7981 0736 9F       		.byte	0x9f
 7982 0737 00000000 		.4byte	0
 7983 073b 00000000 		.4byte	0
 7984              	.LLST54:
 7985 073f 0A000000 		.4byte	.LVL125
 7986 0743 0E000000 		.4byte	.LVL126
 7987 0747 0100     		.2byte	0x1
 7988 0749 50       		.byte	0x50
 7989 074a 0E000000 		.4byte	.LVL126
 7990 074e 18000000 		.4byte	.LVL128
 7991 0752 0100     		.2byte	0x1
 7992 0754 54       		.byte	0x54
 7993 0755 18000000 		.4byte	.LVL128
 7994 0759 1C000000 		.4byte	.LFE8
 7995 075d 0100     		.2byte	0x1
 7996 075f 50       		.byte	0x50
 7997 0760 00000000 		.4byte	0
 7998 0764 00000000 		.4byte	0
 7999              	.LLST55:
 8000 0768 00000000 		.4byte	.LVL129
 8001 076c 04000000 		.4byte	.LVL130
 8002 0770 0100     		.2byte	0x1
 8003 0772 50       		.byte	0x50
 8004 0773 04000000 		.4byte	.LVL130
ARM GAS  C:\Users\USUARIO\AppData\Local\Temp\cchqzDaB.s 			page 176


 8005 0777 10000000 		.4byte	.LFE66
 8006 077b 0400     		.2byte	0x4
 8007 077d F3       		.byte	0xf3
 8008 077e 01       		.uleb128 0x1
 8009 077f 50       		.byte	0x50
 8010 0780 9F       		.byte	0x9f
 8011 0781 00000000 		.4byte	0
 8012 0785 00000000 		.4byte	0
 8013              	.LLST56:
 8014 0789 00000000 		.4byte	.LVL132
 8015 078d 06000000 		.4byte	.LVL134
 8016 0791 0100     		.2byte	0x1
 8017 0793 50       		.byte	0x50
 8018 0794 06000000 		.4byte	.LVL134
 8019 0798 20000000 		.4byte	.LFE71
 8020 079c 0400     		.2byte	0x4
 8021 079e F3       		.byte	0xf3
 8022 079f 01       		.uleb128 0x1
 8023 07a0 50       		.byte	0x50
 8024 07a1 9F       		.byte	0x9f
 8025 07a2 00000000 		.4byte	0
 8026 07a6 00000000 		.4byte	0
 8027              	.LLST57:
 8028 07aa 04000000 		.4byte	.LVL133
 8029 07ae 06000000 		.4byte	.LVL134
 8030 07b2 0200     		.2byte	0x2
 8031 07b4 30       		.byte	0x30
 8032 07b5 9F       		.byte	0x9f
 8033 07b6 0C000000 		.4byte	.LVL135
 8034 07ba 12000000 		.4byte	.LVL136
 8035 07be 0100     		.2byte	0x1
 8036 07c0 50       		.byte	0x50
 8037 07c1 00000000 		.4byte	0
 8038 07c5 00000000 		.4byte	0
 8039              	.LLST58:
 8040 07c9 04000000 		.4byte	.LVL133
 8041 07cd 06000000 		.4byte	.LVL134
 8042 07d1 0200     		.2byte	0x2
 8043 07d3 30       		.byte	0x30
 8044 07d4 9F       		.byte	0x9f
 8045 07d5 06000000 		.4byte	.LVL134
 8046 07d9 20000000 		.4byte	.LFE71
 8047 07dd 0100     		.2byte	0x1
 8048 07df 55       		.byte	0x55
 8049 07e0 00000000 		.4byte	0
 8050 07e4 00000000 		.4byte	0
 8051              	.LLST59:
 8052 07e8 00000000 		.4byte	.LVL139
 8053 07ec 04000000 		.4byte	.LVL140
 8054 07f0 0100     		.2byte	0x1
 8055 07f2 50       		.byte	0x50
 8056 07f3 04000000 		.4byte	.LVL140
 8057 07f7 10000000 		.4byte	.LFE61
 8058 07fb 0400     		.2byte	0x4
 8059 07fd F3       		.byte	0xf3
 8060 07fe 01       		.uleb128 0x1
 8061 07ff 50       		.byte	0x50
ARM GAS  C:\Users\USUARIO\AppData\Local\Temp\cchqzDaB.s 			page 177


 8062 0800 9F       		.byte	0x9f
 8063 0801 00000000 		.4byte	0
 8064 0805 00000000 		.4byte	0
 8065              	.LLST60:
 8066 0809 00000000 		.4byte	.LVL142
 8067 080d 06000000 		.4byte	.LVL144
 8068 0811 0100     		.2byte	0x1
 8069 0813 50       		.byte	0x50
 8070 0814 06000000 		.4byte	.LVL144
 8071 0818 20000000 		.4byte	.LFE70
 8072 081c 0400     		.2byte	0x4
 8073 081e F3       		.byte	0xf3
 8074 081f 01       		.uleb128 0x1
 8075 0820 50       		.byte	0x50
 8076 0821 9F       		.byte	0x9f
 8077 0822 00000000 		.4byte	0
 8078 0826 00000000 		.4byte	0
 8079              	.LLST61:
 8080 082a 04000000 		.4byte	.LVL143
 8081 082e 06000000 		.4byte	.LVL144
 8082 0832 0200     		.2byte	0x2
 8083 0834 30       		.byte	0x30
 8084 0835 9F       		.byte	0x9f
 8085 0836 0C000000 		.4byte	.LVL145
 8086 083a 12000000 		.4byte	.LVL146
 8087 083e 0100     		.2byte	0x1
 8088 0840 50       		.byte	0x50
 8089 0841 00000000 		.4byte	0
 8090 0845 00000000 		.4byte	0
 8091              	.LLST62:
 8092 0849 04000000 		.4byte	.LVL143
 8093 084d 06000000 		.4byte	.LVL144
 8094 0851 0200     		.2byte	0x2
 8095 0853 30       		.byte	0x30
 8096 0854 9F       		.byte	0x9f
 8097 0855 06000000 		.4byte	.LVL144
 8098 0859 20000000 		.4byte	.LFE70
 8099 085d 0100     		.2byte	0x1
 8100 085f 55       		.byte	0x55
 8101 0860 00000000 		.4byte	0
 8102 0864 00000000 		.4byte	0
 8103              	.LLST63:
 8104 0868 00000000 		.4byte	.LVL149
 8105 086c 04000000 		.4byte	.LVL150
 8106 0870 0100     		.2byte	0x1
 8107 0872 50       		.byte	0x50
 8108 0873 04000000 		.4byte	.LVL150
 8109 0877 10000000 		.4byte	.LFE65
 8110 087b 0400     		.2byte	0x4
 8111 087d F3       		.byte	0xf3
 8112 087e 01       		.uleb128 0x1
 8113 087f 50       		.byte	0x50
 8114 0880 9F       		.byte	0x9f
 8115 0881 00000000 		.4byte	0
 8116 0885 00000000 		.4byte	0
 8117              	.LLST64:
 8118 0889 00000000 		.4byte	.LVL152
ARM GAS  C:\Users\USUARIO\AppData\Local\Temp\cchqzDaB.s 			page 178


 8119 088d 0F000000 		.4byte	.LVL153-1
 8120 0891 0100     		.2byte	0x1
 8121 0893 50       		.byte	0x50
 8122 0894 0F000000 		.4byte	.LVL153-1
 8123 0898 60000000 		.4byte	.LFE72
 8124 089c 0400     		.2byte	0x4
 8125 089e F3       		.byte	0xf3
 8126 089f 01       		.uleb128 0x1
 8127 08a0 50       		.byte	0x50
 8128 08a1 9F       		.byte	0x9f
 8129 08a2 00000000 		.4byte	0
 8130 08a6 00000000 		.4byte	0
 8131              	.LLST65:
 8132 08aa 00000000 		.4byte	.LVL152
 8133 08ae 0F000000 		.4byte	.LVL153-1
 8134 08b2 0100     		.2byte	0x1
 8135 08b4 51       		.byte	0x51
 8136 08b5 0F000000 		.4byte	.LVL153-1
 8137 08b9 60000000 		.4byte	.LFE72
 8138 08bd 0400     		.2byte	0x4
 8139 08bf F3       		.byte	0xf3
 8140 08c0 01       		.uleb128 0x1
 8141 08c1 51       		.byte	0x51
 8142 08c2 9F       		.byte	0x9f
 8143 08c3 00000000 		.4byte	0
 8144 08c7 00000000 		.4byte	0
 8145              	.LLST66:
 8146 08cb 00000000 		.4byte	.LVL152
 8147 08cf 0F000000 		.4byte	.LVL153-1
 8148 08d3 0100     		.2byte	0x1
 8149 08d5 52       		.byte	0x52
 8150 08d6 0F000000 		.4byte	.LVL153-1
 8151 08da 5C000000 		.4byte	.LVL165
 8152 08de 0100     		.2byte	0x1
 8153 08e0 58       		.byte	0x58
 8154 08e1 5C000000 		.4byte	.LVL165
 8155 08e5 60000000 		.4byte	.LFE72
 8156 08e9 0400     		.2byte	0x4
 8157 08eb F3       		.byte	0xf3
 8158 08ec 01       		.uleb128 0x1
 8159 08ed 52       		.byte	0x52
 8160 08ee 9F       		.byte	0x9f
 8161 08ef 00000000 		.4byte	0
 8162 08f3 00000000 		.4byte	0
 8163              	.LLST67:
 8164 08f7 00000000 		.4byte	.LVL152
 8165 08fb 0F000000 		.4byte	.LVL153-1
 8166 08ff 0100     		.2byte	0x1
 8167 0901 53       		.byte	0x53
 8168 0902 0F000000 		.4byte	.LVL153-1
 8169 0906 60000000 		.4byte	.LFE72
 8170 090a 0400     		.2byte	0x4
 8171 090c F3       		.byte	0xf3
 8172 090d 01       		.uleb128 0x1
 8173 090e 53       		.byte	0x53
 8174 090f 9F       		.byte	0x9f
 8175 0910 00000000 		.4byte	0
ARM GAS  C:\Users\USUARIO\AppData\Local\Temp\cchqzDaB.s 			page 179


 8176 0914 00000000 		.4byte	0
 8177              	.LLST68:
 8178 0918 24000000 		.4byte	.LVL156
 8179 091c 35000000 		.4byte	.LVL159-1
 8180 0920 0100     		.2byte	0x1
 8181 0922 50       		.byte	0x50
 8182 0923 35000000 		.4byte	.LVL159-1
 8183 0927 46000000 		.4byte	.LVL161
 8184 092b 0C00     		.2byte	0xc
 8185 092d 75       		.byte	0x75
 8186 092e 00       		.sleb128 0
 8187 092f 09       		.byte	0x9
 8188 0930 F9       		.byte	0xf9
 8189 0931 24       		.byte	0x24
 8190 0932 09       		.byte	0x9
 8191 0933 F9       		.byte	0xf9
 8192 0934 25       		.byte	0x25
 8193 0935 79       		.byte	0x79
 8194 0936 00       		.sleb128 0
 8195 0937 22       		.byte	0x22
 8196 0938 9F       		.byte	0x9f
 8197 0939 46000000 		.4byte	.LVL161
 8198 093d 4D000000 		.4byte	.LVL162-1
 8199 0941 0100     		.2byte	0x1
 8200 0943 50       		.byte	0x50
 8201 0944 4D000000 		.4byte	.LVL162-1
 8202 0948 5C000000 		.4byte	.LVL165
 8203 094c 0C00     		.2byte	0xc
 8204 094e 75       		.byte	0x75
 8205 094f 00       		.sleb128 0
 8206 0950 09       		.byte	0x9
 8207 0951 F9       		.byte	0xf9
 8208 0952 24       		.byte	0x24
 8209 0953 09       		.byte	0x9
 8210 0954 F9       		.byte	0xf9
 8211 0955 25       		.byte	0x25
 8212 0956 79       		.byte	0x79
 8213 0957 00       		.sleb128 0
 8214 0958 22       		.byte	0x22
 8215 0959 9F       		.byte	0x9f
 8216 095a 00000000 		.4byte	0
 8217 095e 00000000 		.4byte	0
 8218              	.LLST69:
 8219 0962 14000000 		.4byte	.LVL154
 8220 0966 50000000 		.4byte	.LVL163
 8221 096a 0100     		.2byte	0x1
 8222 096c 55       		.byte	0x55
 8223 096d 50000000 		.4byte	.LVL163
 8224 0971 57000000 		.4byte	.LVL164-1
 8225 0975 0100     		.2byte	0x1
 8226 0977 51       		.byte	0x51
 8227 0978 57000000 		.4byte	.LVL164-1
 8228 097c 5C000000 		.4byte	.LVL165
 8229 0980 0600     		.2byte	0x6
 8230 0982 75       		.byte	0x75
 8231 0983 00       		.sleb128 0
 8232 0984 76       		.byte	0x76
ARM GAS  C:\Users\USUARIO\AppData\Local\Temp\cchqzDaB.s 			page 180


 8233 0985 00       		.sleb128 0
 8234 0986 22       		.byte	0x22
 8235 0987 9F       		.byte	0x9f
 8236 0988 00000000 		.4byte	0
 8237 098c 00000000 		.4byte	0
 8238              	.LLST70:
 8239 0990 18000000 		.4byte	.LVL155
 8240 0994 28000000 		.4byte	.LVL157
 8241 0998 0100     		.2byte	0x1
 8242 099a 54       		.byte	0x54
 8243 099b 28000000 		.4byte	.LVL157
 8244 099f 5C000000 		.4byte	.LVL165
 8245 09a3 0900     		.2byte	0x9
 8246 09a5 75       		.byte	0x75
 8247 09a6 00       		.sleb128 0
 8248 09a7 09       		.byte	0x9
 8249 09a8 F9       		.byte	0xf9
 8250 09a9 24       		.byte	0x24
 8251 09aa 09       		.byte	0x9
 8252 09ab F9       		.byte	0xf9
 8253 09ac 25       		.byte	0x25
 8254 09ad 9F       		.byte	0x9f
 8255 09ae 00000000 		.4byte	0
 8256 09b2 00000000 		.4byte	0
 8257              	.LLST71:
 8258 09b6 2A000000 		.4byte	.LVL158
 8259 09ba 5C000000 		.4byte	.LVL165
 8260 09be 0100     		.2byte	0x1
 8261 09c0 54       		.byte	0x54
 8262 09c1 00000000 		.4byte	0
 8263 09c5 00000000 		.4byte	0
 8264              	.LLST72:
 8265 09c9 00000000 		.4byte	.LVL166
 8266 09cd 04000000 		.4byte	.LVL167
 8267 09d1 0100     		.2byte	0x1
 8268 09d3 50       		.byte	0x50
 8269 09d4 04000000 		.4byte	.LVL167
 8270 09d8 10000000 		.4byte	.LFE68
 8271 09dc 0400     		.2byte	0x4
 8272 09de F3       		.byte	0xf3
 8273 09df 01       		.uleb128 0x1
 8274 09e0 50       		.byte	0x50
 8275 09e1 9F       		.byte	0x9f
 8276 09e2 00000000 		.4byte	0
 8277 09e6 00000000 		.4byte	0
 8278              	.LLST73:
 8279 09ea 00000000 		.4byte	.LVL169
 8280 09ee 04000000 		.4byte	.LVL170
 8281 09f2 0100     		.2byte	0x1
 8282 09f4 50       		.byte	0x50
 8283 09f5 04000000 		.4byte	.LVL170
 8284 09f9 10000000 		.4byte	.LFE42
 8285 09fd 0400     		.2byte	0x4
 8286 09ff F3       		.byte	0xf3
 8287 0a00 01       		.uleb128 0x1
 8288 0a01 50       		.byte	0x50
 8289 0a02 9F       		.byte	0x9f
ARM GAS  C:\Users\USUARIO\AppData\Local\Temp\cchqzDaB.s 			page 181


 8290 0a03 00000000 		.4byte	0
 8291 0a07 00000000 		.4byte	0
 8292              	.LLST74:
 8293 0a0b 00000000 		.4byte	.LVL172
 8294 0a0f 08000000 		.4byte	.LVL173
 8295 0a13 0100     		.2byte	0x1
 8296 0a15 50       		.byte	0x50
 8297 0a16 08000000 		.4byte	.LVL173
 8298 0a1a 44000000 		.4byte	.LFE88
 8299 0a1e 0400     		.2byte	0x4
 8300 0a20 F3       		.byte	0xf3
 8301 0a21 01       		.uleb128 0x1
 8302 0a22 50       		.byte	0x50
 8303 0a23 9F       		.byte	0x9f
 8304 0a24 00000000 		.4byte	0
 8305 0a28 00000000 		.4byte	0
 8306              	.LLST75:
 8307 0a2c 1A000000 		.4byte	.LVL176
 8308 0a30 1E000000 		.4byte	.LVL177
 8309 0a34 0100     		.2byte	0x1
 8310 0a36 50       		.byte	0x50
 8311 0a37 28000000 		.4byte	.LVL179
 8312 0a3b 32000000 		.4byte	.LVL180
 8313 0a3f 0100     		.2byte	0x1
 8314 0a41 50       		.byte	0x50
 8315 0a42 00000000 		.4byte	0
 8316 0a46 00000000 		.4byte	0
 8317              	.LLST76:
 8318 0a4a 00000000 		.4byte	.LVL183
 8319 0a4e 0C000000 		.4byte	.LVL185
 8320 0a52 0100     		.2byte	0x1
 8321 0a54 50       		.byte	0x50
 8322 0a55 0C000000 		.4byte	.LVL185
 8323 0a59 1E000000 		.4byte	.LFE10
 8324 0a5d 0400     		.2byte	0x4
 8325 0a5f F3       		.byte	0xf3
 8326 0a60 01       		.uleb128 0x1
 8327 0a61 50       		.byte	0x50
 8328 0a62 9F       		.byte	0x9f
 8329 0a63 00000000 		.4byte	0
 8330 0a67 00000000 		.4byte	0
 8331              	.LLST77:
 8332 0a6b 00000000 		.4byte	.LVL183
 8333 0a6f 0C000000 		.4byte	.LVL185
 8334 0a73 0100     		.2byte	0x1
 8335 0a75 51       		.byte	0x51
 8336 0a76 0C000000 		.4byte	.LVL185
 8337 0a7a 1E000000 		.4byte	.LFE10
 8338 0a7e 0100     		.2byte	0x1
 8339 0a80 56       		.byte	0x56
 8340 0a81 00000000 		.4byte	0
 8341 0a85 00000000 		.4byte	0
 8342              	.LLST78:
 8343 0a89 00000000 		.4byte	.LVL183
 8344 0a8d 0C000000 		.4byte	.LVL185
 8345 0a91 0100     		.2byte	0x1
 8346 0a93 52       		.byte	0x52
ARM GAS  C:\Users\USUARIO\AppData\Local\Temp\cchqzDaB.s 			page 182


 8347 0a94 0C000000 		.4byte	.LVL185
 8348 0a98 1E000000 		.4byte	.LFE10
 8349 0a9c 0400     		.2byte	0x4
 8350 0a9e F3       		.byte	0xf3
 8351 0a9f 01       		.uleb128 0x1
 8352 0aa0 52       		.byte	0x52
 8353 0aa1 9F       		.byte	0x9f
 8354 0aa2 00000000 		.4byte	0
 8355 0aa6 00000000 		.4byte	0
 8356              	.LLST79:
 8357 0aaa 08000000 		.4byte	.LVL184
 8358 0aae 0C000000 		.4byte	.LVL185
 8359 0ab2 0200     		.2byte	0x2
 8360 0ab4 30       		.byte	0x30
 8361 0ab5 9F       		.byte	0x9f
 8362 0ab6 0C000000 		.4byte	.LVL185
 8363 0aba 1E000000 		.4byte	.LFE10
 8364 0abe 0100     		.2byte	0x1
 8365 0ac0 54       		.byte	0x54
 8366 0ac1 00000000 		.4byte	0
 8367 0ac5 00000000 		.4byte	0
 8368              	.LLST80:
 8369 0ac9 00000000 		.4byte	.LVL188
 8370 0acd 0F000000 		.4byte	.LVL189-1
 8371 0ad1 0100     		.2byte	0x1
 8372 0ad3 50       		.byte	0x50
 8373 0ad4 0F000000 		.4byte	.LVL189-1
 8374 0ad8 6C000000 		.4byte	.LFE73
 8375 0adc 0400     		.2byte	0x4
 8376 0ade F3       		.byte	0xf3
 8377 0adf 01       		.uleb128 0x1
 8378 0ae0 50       		.byte	0x50
 8379 0ae1 9F       		.byte	0x9f
 8380 0ae2 00000000 		.4byte	0
 8381 0ae6 00000000 		.4byte	0
 8382              	.LLST81:
 8383 0aea 00000000 		.4byte	.LVL188
 8384 0aee 0F000000 		.4byte	.LVL189-1
 8385 0af2 0100     		.2byte	0x1
 8386 0af4 51       		.byte	0x51
 8387 0af5 0F000000 		.4byte	.LVL189-1
 8388 0af9 6C000000 		.4byte	.LFE73
 8389 0afd 0400     		.2byte	0x4
 8390 0aff F3       		.byte	0xf3
 8391 0b00 01       		.uleb128 0x1
 8392 0b01 51       		.byte	0x51
 8393 0b02 9F       		.byte	0x9f
 8394 0b03 00000000 		.4byte	0
 8395 0b07 00000000 		.4byte	0
 8396              	.LLST82:
 8397 0b0b 00000000 		.4byte	.LVL188
 8398 0b0f 0F000000 		.4byte	.LVL189-1
 8399 0b13 0100     		.2byte	0x1
 8400 0b15 52       		.byte	0x52
 8401 0b16 0F000000 		.4byte	.LVL189-1
 8402 0b1a 68000000 		.4byte	.LVL201
 8403 0b1e 0100     		.2byte	0x1
ARM GAS  C:\Users\USUARIO\AppData\Local\Temp\cchqzDaB.s 			page 183


 8404 0b20 57       		.byte	0x57
 8405 0b21 68000000 		.4byte	.LVL201
 8406 0b25 6C000000 		.4byte	.LFE73
 8407 0b29 0400     		.2byte	0x4
 8408 0b2b F3       		.byte	0xf3
 8409 0b2c 01       		.uleb128 0x1
 8410 0b2d 52       		.byte	0x52
 8411 0b2e 9F       		.byte	0x9f
 8412 0b2f 00000000 		.4byte	0
 8413 0b33 00000000 		.4byte	0
 8414              	.LLST83:
 8415 0b37 00000000 		.4byte	.LVL188
 8416 0b3b 0F000000 		.4byte	.LVL189-1
 8417 0b3f 0100     		.2byte	0x1
 8418 0b41 53       		.byte	0x53
 8419 0b42 0F000000 		.4byte	.LVL189-1
 8420 0b46 6C000000 		.4byte	.LFE73
 8421 0b4a 0400     		.2byte	0x4
 8422 0b4c F3       		.byte	0xf3
 8423 0b4d 01       		.uleb128 0x1
 8424 0b4e 53       		.byte	0x53
 8425 0b4f 9F       		.byte	0x9f
 8426 0b50 00000000 		.4byte	0
 8427 0b54 00000000 		.4byte	0
 8428              	.LLST84:
 8429 0b58 00000000 		.4byte	.LVL188
 8430 0b5c 68000000 		.4byte	.LVL201
 8431 0b60 0200     		.2byte	0x2
 8432 0b62 91       		.byte	0x91
 8433 0b63 00       		.sleb128 0
 8434 0b64 68000000 		.4byte	.LVL201
 8435 0b68 6C000000 		.4byte	.LFE73
 8436 0b6c 0200     		.2byte	0x2
 8437 0b6e 7D       		.byte	0x7d
 8438 0b6f 00       		.sleb128 0
 8439 0b70 00000000 		.4byte	0
 8440 0b74 00000000 		.4byte	0
 8441              	.LLST85:
 8442 0b78 28000000 		.4byte	.LVL192
 8443 0b7c 39000000 		.4byte	.LVL195-1
 8444 0b80 0100     		.2byte	0x1
 8445 0b82 50       		.byte	0x50
 8446 0b83 39000000 		.4byte	.LVL195-1
 8447 0b87 48000000 		.4byte	.LVL197
 8448 0b8b 0C00     		.2byte	0xc
 8449 0b8d 75       		.byte	0x75
 8450 0b8e 00       		.sleb128 0
 8451 0b8f 09       		.byte	0x9
 8452 0b90 F9       		.byte	0xf9
 8453 0b91 24       		.byte	0x24
 8454 0b92 09       		.byte	0x9
 8455 0b93 F9       		.byte	0xf9
 8456 0b94 25       		.byte	0x25
 8457 0b95 79       		.byte	0x79
 8458 0b96 00       		.sleb128 0
 8459 0b97 22       		.byte	0x22
 8460 0b98 9F       		.byte	0x9f
ARM GAS  C:\Users\USUARIO\AppData\Local\Temp\cchqzDaB.s 			page 184


 8461 0b99 48000000 		.4byte	.LVL197
 8462 0b9d 4F000000 		.4byte	.LVL198-1
 8463 0ba1 0100     		.2byte	0x1
 8464 0ba3 50       		.byte	0x50
 8465 0ba4 4F000000 		.4byte	.LVL198-1
 8466 0ba8 68000000 		.4byte	.LVL201
 8467 0bac 0C00     		.2byte	0xc
 8468 0bae 75       		.byte	0x75
 8469 0baf 00       		.sleb128 0
 8470 0bb0 09       		.byte	0x9
 8471 0bb1 F9       		.byte	0xf9
 8472 0bb2 24       		.byte	0x24
 8473 0bb3 09       		.byte	0x9
 8474 0bb4 F9       		.byte	0xf9
 8475 0bb5 25       		.byte	0x25
 8476 0bb6 79       		.byte	0x79
 8477 0bb7 00       		.sleb128 0
 8478 0bb8 22       		.byte	0x22
 8479 0bb9 9F       		.byte	0x9f
 8480 0bba 00000000 		.4byte	0
 8481 0bbe 00000000 		.4byte	0
 8482              	.LLST86:
 8483 0bc2 14000000 		.4byte	.LVL190
 8484 0bc6 5C000000 		.4byte	.LVL199
 8485 0bca 0100     		.2byte	0x1
 8486 0bcc 55       		.byte	0x55
 8487 0bcd 5C000000 		.4byte	.LVL199
 8488 0bd1 63000000 		.4byte	.LVL200-1
 8489 0bd5 0100     		.2byte	0x1
 8490 0bd7 51       		.byte	0x51
 8491 0bd8 63000000 		.4byte	.LVL200-1
 8492 0bdc 64000000 		.4byte	.LVL200
 8493 0be0 0600     		.2byte	0x6
 8494 0be2 75       		.byte	0x75
 8495 0be3 00       		.sleb128 0
 8496 0be4 76       		.byte	0x76
 8497 0be5 00       		.sleb128 0
 8498 0be6 22       		.byte	0x22
 8499 0be7 9F       		.byte	0x9f
 8500 0be8 00000000 		.4byte	0
 8501 0bec 00000000 		.4byte	0
 8502              	.LLST87:
 8503 0bf0 18000000 		.4byte	.LVL191
 8504 0bf4 2C000000 		.4byte	.LVL193
 8505 0bf8 0100     		.2byte	0x1
 8506 0bfa 54       		.byte	0x54
 8507 0bfb 2C000000 		.4byte	.LVL193
 8508 0bff 68000000 		.4byte	.LVL201
 8509 0c03 0900     		.2byte	0x9
 8510 0c05 75       		.byte	0x75
 8511 0c06 00       		.sleb128 0
 8512 0c07 09       		.byte	0x9
 8513 0c08 F9       		.byte	0xf9
 8514 0c09 24       		.byte	0x24
 8515 0c0a 09       		.byte	0x9
 8516 0c0b F9       		.byte	0xf9
 8517 0c0c 25       		.byte	0x25
ARM GAS  C:\Users\USUARIO\AppData\Local\Temp\cchqzDaB.s 			page 185


 8518 0c0d 9F       		.byte	0x9f
 8519 0c0e 00000000 		.4byte	0
 8520 0c12 00000000 		.4byte	0
 8521              	.LLST88:
 8522 0c16 2E000000 		.4byte	.LVL194
 8523 0c1a 68000000 		.4byte	.LVL201
 8524 0c1e 0100     		.2byte	0x1
 8525 0c20 54       		.byte	0x54
 8526 0c21 00000000 		.4byte	0
 8527 0c25 00000000 		.4byte	0
 8528              	.LLST89:
 8529 0c29 00000000 		.4byte	.LVL202
 8530 0c2d 0E000000 		.4byte	.LVL204
 8531 0c31 0100     		.2byte	0x1
 8532 0c33 50       		.byte	0x50
 8533 0c34 0E000000 		.4byte	.LVL204
 8534 0c38 AE000000 		.4byte	.LFE76
 8535 0c3c 0100     		.2byte	0x1
 8536 0c3e 56       		.byte	0x56
 8537 0c3f 00000000 		.4byte	0
 8538 0c43 00000000 		.4byte	0
 8539              	.LLST90:
 8540 0c47 06000000 		.4byte	.LVL203
 8541 0c4b 0E000000 		.4byte	.LVL204
 8542 0c4f 0200     		.2byte	0x2
 8543 0c51 30       		.byte	0x30
 8544 0c52 9F       		.byte	0x9f
 8545 0c53 0E000000 		.4byte	.LVL204
 8546 0c57 2E000000 		.4byte	.LVL207
 8547 0c5b 0100     		.2byte	0x1
 8548 0c5d 51       		.byte	0x51
 8549 0c5e 2E000000 		.4byte	.LVL207
 8550 0c62 A0000000 		.4byte	.LVL217
 8551 0c66 0100     		.2byte	0x1
 8552 0c68 55       		.byte	0x55
 8553 0c69 A0000000 		.4byte	.LVL217
 8554 0c6d A6000000 		.4byte	.LVL218
 8555 0c71 0100     		.2byte	0x1
 8556 0c73 51       		.byte	0x51
 8557 0c74 A6000000 		.4byte	.LVL218
 8558 0c78 AE000000 		.4byte	.LFE76
 8559 0c7c 0100     		.2byte	0x1
 8560 0c7e 55       		.byte	0x55
 8561 0c7f 00000000 		.4byte	0
 8562 0c83 00000000 		.4byte	0
 8563              	.LLST91:
 8564 0c87 06000000 		.4byte	.LVL203
 8565 0c8b 0E000000 		.4byte	.LVL204
 8566 0c8f 0200     		.2byte	0x2
 8567 0c91 30       		.byte	0x30
 8568 0c92 9F       		.byte	0x9f
 8569 0c93 0E000000 		.4byte	.LVL204
 8570 0c97 AE000000 		.4byte	.LFE76
 8571 0c9b 0100     		.2byte	0x1
 8572 0c9d 54       		.byte	0x54
 8573 0c9e 00000000 		.4byte	0
 8574 0ca2 00000000 		.4byte	0
ARM GAS  C:\Users\USUARIO\AppData\Local\Temp\cchqzDaB.s 			page 186


 8575              	.LLST92:
 8576 0ca6 06000000 		.4byte	.LVL203
 8577 0caa 0E000000 		.4byte	.LVL204
 8578 0cae 0200     		.2byte	0x2
 8579 0cb0 30       		.byte	0x30
 8580 0cb1 9F       		.byte	0x9f
 8581 0cb2 0E000000 		.4byte	.LVL204
 8582 0cb6 1E000000 		.4byte	.LVL205
 8583 0cba 0100     		.2byte	0x1
 8584 0cbc 57       		.byte	0x57
 8585 0cbd 1E000000 		.4byte	.LVL205
 8586 0cc1 28000000 		.4byte	.LVL206
 8587 0cc5 0300     		.2byte	0x3
 8588 0cc7 77       		.byte	0x77
 8589 0cc8 01       		.sleb128 1
 8590 0cc9 9F       		.byte	0x9f
 8591 0cca 28000000 		.4byte	.LVL206
 8592 0cce 36000000 		.4byte	.LVL208
 8593 0cd2 0100     		.2byte	0x1
 8594 0cd4 57       		.byte	0x57
 8595 0cd5 3C000000 		.4byte	.LVL209
 8596 0cd9 44000000 		.4byte	.LVL210
 8597 0cdd 0200     		.2byte	0x2
 8598 0cdf 30       		.byte	0x30
 8599 0ce0 9F       		.byte	0x9f
 8600 0ce1 44000000 		.4byte	.LVL210
 8601 0ce5 68000000 		.4byte	.LVL212
 8602 0ce9 0100     		.2byte	0x1
 8603 0ceb 51       		.byte	0x51
 8604 0cec 68000000 		.4byte	.LVL212
 8605 0cf0 6C000000 		.4byte	.LVL214
 8606 0cf4 0200     		.2byte	0x2
 8607 0cf6 30       		.byte	0x30
 8608 0cf7 9F       		.byte	0x9f
 8609 0cf8 6C000000 		.4byte	.LVL214
 8610 0cfc AE000000 		.4byte	.LFE76
 8611 0d00 0100     		.2byte	0x1
 8612 0d02 57       		.byte	0x57
 8613 0d03 00000000 		.4byte	0
 8614 0d07 00000000 		.4byte	0
 8615              	.LLST93:
 8616 0d0b 00000000 		.4byte	.LVL219
 8617 0d0f EA000000 		.4byte	.LVL233
 8618 0d13 0100     		.2byte	0x1
 8619 0d15 50       		.byte	0x50
 8620 0d16 EA000000 		.4byte	.LVL233
 8621 0d1a EE000000 		.4byte	.LFE77
 8622 0d1e 0400     		.2byte	0x4
 8623 0d20 F3       		.byte	0xf3
 8624 0d21 01       		.uleb128 0x1
 8625 0d22 50       		.byte	0x50
 8626 0d23 9F       		.byte	0x9f
 8627 0d24 00000000 		.4byte	0
 8628 0d28 00000000 		.4byte	0
 8629              	.LLST94:
 8630 0d2c 04000000 		.4byte	.LVL220
 8631 0d30 0C000000 		.4byte	.LVL221
ARM GAS  C:\Users\USUARIO\AppData\Local\Temp\cchqzDaB.s 			page 187


 8632 0d34 0200     		.2byte	0x2
 8633 0d36 30       		.byte	0x30
 8634 0d37 9F       		.byte	0x9f
 8635 0d38 0C000000 		.4byte	.LVL221
 8636 0d3c EE000000 		.4byte	.LFE77
 8637 0d40 0100     		.2byte	0x1
 8638 0d42 54       		.byte	0x54
 8639 0d43 00000000 		.4byte	0
 8640 0d47 00000000 		.4byte	0
 8641              	.LLST95:
 8642 0d4b 04000000 		.4byte	.LVL220
 8643 0d4f 0C000000 		.4byte	.LVL221
 8644 0d53 0200     		.2byte	0x2
 8645 0d55 30       		.byte	0x30
 8646 0d56 9F       		.byte	0x9f
 8647 0d57 0C000000 		.4byte	.LVL221
 8648 0d5b 5A000000 		.4byte	.LVL222
 8649 0d5f 0100     		.2byte	0x1
 8650 0d61 55       		.byte	0x55
 8651 0d62 5A000000 		.4byte	.LVL222
 8652 0d66 BA000000 		.4byte	.LVL223
 8653 0d6a 0100     		.2byte	0x1
 8654 0d6c 5C       		.byte	0x5c
 8655 0d6d BA000000 		.4byte	.LVL223
 8656 0d71 C0000000 		.4byte	.LVL224
 8657 0d75 0100     		.2byte	0x1
 8658 0d77 53       		.byte	0x53
 8659 0d78 C0000000 		.4byte	.LVL224
 8660 0d7c CC000000 		.4byte	.LVL226
 8661 0d80 0300     		.2byte	0x3
 8662 0d82 75       		.byte	0x75
 8663 0d83 02       		.sleb128 2
 8664 0d84 9F       		.byte	0x9f
 8665 0d85 CC000000 		.4byte	.LVL226
 8666 0d89 D2000000 		.4byte	.LVL228
 8667 0d8d 0100     		.2byte	0x1
 8668 0d8f 55       		.byte	0x55
 8669 0d90 D2000000 		.4byte	.LVL228
 8670 0d94 D8000000 		.4byte	.LVL230
 8671 0d98 0100     		.2byte	0x1
 8672 0d9a 5C       		.byte	0x5c
 8673 0d9b D8000000 		.4byte	.LVL230
 8674 0d9f DA000000 		.4byte	.LVL231
 8675 0da3 0100     		.2byte	0x1
 8676 0da5 53       		.byte	0x53
 8677 0da6 DA000000 		.4byte	.LVL231
 8678 0daa EE000000 		.4byte	.LFE77
 8679 0dae 0100     		.2byte	0x1
 8680 0db0 55       		.byte	0x55
 8681 0db1 00000000 		.4byte	0
 8682 0db5 00000000 		.4byte	0
 8683              	.LLST96:
 8684 0db9 04000000 		.4byte	.LVL220
 8685 0dbd 0C000000 		.4byte	.LVL221
 8686 0dc1 0200     		.2byte	0x2
 8687 0dc3 30       		.byte	0x30
 8688 0dc4 9F       		.byte	0x9f
ARM GAS  C:\Users\USUARIO\AppData\Local\Temp\cchqzDaB.s 			page 188


 8689 0dc5 0C000000 		.4byte	.LVL221
 8690 0dc9 D0000000 		.4byte	.LVL227
 8691 0dcd 0100     		.2byte	0x1
 8692 0dcf 56       		.byte	0x56
 8693 0dd0 D2000000 		.4byte	.LVL228
 8694 0dd4 D6000000 		.4byte	.LVL229
 8695 0dd8 0100     		.2byte	0x1
 8696 0dda 56       		.byte	0x56
 8697 0ddb D8000000 		.4byte	.LVL230
 8698 0ddf EE000000 		.4byte	.LFE77
 8699 0de3 0100     		.2byte	0x1
 8700 0de5 56       		.byte	0x56
 8701 0de6 00000000 		.4byte	0
 8702 0dea 00000000 		.4byte	0
 8703              	.LLST97:
 8704 0dee 00000000 		.4byte	.LVL234
 8705 0df2 08000000 		.4byte	.LVL235
 8706 0df6 0100     		.2byte	0x1
 8707 0df8 50       		.byte	0x50
 8708 0df9 08000000 		.4byte	.LVL235
 8709 0dfd 62000000 		.4byte	.LFE78
 8710 0e01 0100     		.2byte	0x1
 8711 0e03 54       		.byte	0x54
 8712 0e04 00000000 		.4byte	0
 8713 0e08 00000000 		.4byte	0
 8714              	.LLST98:
 8715 0e0c 0C000000 		.4byte	.LVL236
 8716 0e10 12000000 		.4byte	.LVL237
 8717 0e14 0200     		.2byte	0x2
 8718 0e16 30       		.byte	0x30
 8719 0e17 9F       		.byte	0x9f
 8720 0e18 12000000 		.4byte	.LVL237
 8721 0e1c 62000000 		.4byte	.LFE78
 8722 0e20 0100     		.2byte	0x1
 8723 0e22 52       		.byte	0x52
 8724 0e23 00000000 		.4byte	0
 8725 0e27 00000000 		.4byte	0
 8726              	.LLST99:
 8727 0e2b 0C000000 		.4byte	.LVL236
 8728 0e2f 12000000 		.4byte	.LVL237
 8729 0e33 0200     		.2byte	0x2
 8730 0e35 30       		.byte	0x30
 8731 0e36 9F       		.byte	0x9f
 8732 0e37 12000000 		.4byte	.LVL237
 8733 0e3b 14000000 		.4byte	.LVL238
 8734 0e3f 0100     		.2byte	0x1
 8735 0e41 51       		.byte	0x51
 8736 0e42 14000000 		.4byte	.LVL238
 8737 0e46 2E000000 		.4byte	.LVL239
 8738 0e4a 0100     		.2byte	0x1
 8739 0e4c 55       		.byte	0x55
 8740 0e4d 2E000000 		.4byte	.LVL239
 8741 0e51 4C000000 		.4byte	.LVL240
 8742 0e55 0100     		.2byte	0x1
 8743 0e57 50       		.byte	0x50
 8744 0e58 4C000000 		.4byte	.LVL240
 8745 0e5c 52000000 		.4byte	.LVL241
ARM GAS  C:\Users\USUARIO\AppData\Local\Temp\cchqzDaB.s 			page 189


 8746 0e60 0100     		.2byte	0x1
 8747 0e62 51       		.byte	0x51
 8748 0e63 52000000 		.4byte	.LVL241
 8749 0e67 58000000 		.4byte	.LVL242
 8750 0e6b 0100     		.2byte	0x1
 8751 0e6d 50       		.byte	0x50
 8752 0e6e 58000000 		.4byte	.LVL242
 8753 0e72 62000000 		.4byte	.LFE78
 8754 0e76 0100     		.2byte	0x1
 8755 0e78 51       		.byte	0x51
 8756 0e79 00000000 		.4byte	0
 8757 0e7d 00000000 		.4byte	0
 8758              	.LLST100:
 8759 0e81 00000000 		.4byte	.LVL244
 8760 0e85 09000000 		.4byte	.LVL245-1
 8761 0e89 0100     		.2byte	0x1
 8762 0e8b 50       		.byte	0x50
 8763 0e8c 09000000 		.4byte	.LVL245-1
 8764 0e90 74000000 		.4byte	.LVL265
 8765 0e94 0100     		.2byte	0x1
 8766 0e96 54       		.byte	0x54
 8767 0e97 74000000 		.4byte	.LVL265
 8768 0e9b 7C000000 		.4byte	.LFE79
 8769 0e9f 0400     		.2byte	0x4
 8770 0ea1 F3       		.byte	0xf3
 8771 0ea2 01       		.uleb128 0x1
 8772 0ea3 50       		.byte	0x50
 8773 0ea4 9F       		.byte	0x9f
 8774 0ea5 00000000 		.4byte	0
 8775 0ea9 00000000 		.4byte	0
 8776              	.LLST101:
 8777 0ead 0C000000 		.4byte	.LVL246
 8778 0eb1 74000000 		.4byte	.LVL265
 8779 0eb5 0300     		.2byte	0x3
 8780 0eb7 91       		.byte	0x91
 8781 0eb8 6C       		.sleb128 -20
 8782 0eb9 9F       		.byte	0x9f
 8783 0eba 74000000 		.4byte	.LVL265
 8784 0ebe 7C000000 		.4byte	.LFE79
 8785 0ec2 0300     		.2byte	0x3
 8786 0ec4 7D       		.byte	0x7d
 8787 0ec5 6C       		.sleb128 -20
 8788 0ec6 9F       		.byte	0x9f
 8789 0ec7 00000000 		.4byte	0
 8790 0ecb 00000000 		.4byte	0
 8791              	.LLST102:
 8792 0ecf 0C000000 		.4byte	.LVL246
 8793 0ed3 12000000 		.4byte	.LVL247
 8794 0ed7 0200     		.2byte	0x2
 8795 0ed9 30       		.byte	0x30
 8796 0eda 9F       		.byte	0x9f
 8797 0edb 12000000 		.4byte	.LVL247
 8798 0edf 2E000000 		.4byte	.LVL250
 8799 0ee3 0100     		.2byte	0x1
 8800 0ee5 52       		.byte	0x52
 8801 0ee6 2E000000 		.4byte	.LVL250
 8802 0eea 34000000 		.4byte	.LVL252
ARM GAS  C:\Users\USUARIO\AppData\Local\Temp\cchqzDaB.s 			page 190


 8803 0eee 0300     		.2byte	0x3
 8804 0ef0 72       		.byte	0x72
 8805 0ef1 01       		.sleb128 1
 8806 0ef2 9F       		.byte	0x9f
 8807 0ef3 34000000 		.4byte	.LVL252
 8808 0ef7 4C000000 		.4byte	.LVL254
 8809 0efb 0100     		.2byte	0x1
 8810 0efd 52       		.byte	0x52
 8811 0efe 4C000000 		.4byte	.LVL254
 8812 0f02 52000000 		.4byte	.LVL256
 8813 0f06 0300     		.2byte	0x3
 8814 0f08 72       		.byte	0x72
 8815 0f09 01       		.sleb128 1
 8816 0f0a 9F       		.byte	0x9f
 8817 0f0b 52000000 		.4byte	.LVL256
 8818 0f0f 54000000 		.4byte	.LVL257
 8819 0f13 0100     		.2byte	0x1
 8820 0f15 52       		.byte	0x52
 8821 0f16 54000000 		.4byte	.LVL257
 8822 0f1a 5E000000 		.4byte	.LVL259
 8823 0f1e 0100     		.2byte	0x1
 8824 0f20 50       		.byte	0x50
 8825 0f21 5E000000 		.4byte	.LVL259
 8826 0f25 64000000 		.4byte	.LVL261
 8827 0f29 0100     		.2byte	0x1
 8828 0f2b 52       		.byte	0x52
 8829 0f2c 64000000 		.4byte	.LVL261
 8830 0f30 6A000000 		.4byte	.LVL263
 8831 0f34 0100     		.2byte	0x1
 8832 0f36 50       		.byte	0x50
 8833 0f37 6A000000 		.4byte	.LVL263
 8834 0f3b 7C000000 		.4byte	.LFE79
 8835 0f3f 0100     		.2byte	0x1
 8836 0f41 52       		.byte	0x52
 8837 0f42 00000000 		.4byte	0
 8838 0f46 00000000 		.4byte	0
 8839              	.LLST103:
 8840 0f4a 0C000000 		.4byte	.LVL246
 8841 0f4e 12000000 		.4byte	.LVL247
 8842 0f52 0200     		.2byte	0x2
 8843 0f54 30       		.byte	0x30
 8844 0f55 9F       		.byte	0x9f
 8845 0f56 12000000 		.4byte	.LVL247
 8846 0f5a 7C000000 		.4byte	.LFE79
 8847 0f5e 0100     		.2byte	0x1
 8848 0f60 51       		.byte	0x51
 8849 0f61 00000000 		.4byte	0
 8850 0f65 00000000 		.4byte	0
 8851              	.LLST104:
 8852 0f69 1A000000 		.4byte	.LVL248
 8853 0f6d 56000000 		.4byte	.LVL258
 8854 0f71 0100     		.2byte	0x1
 8855 0f73 53       		.byte	0x53
 8856 0f74 56000000 		.4byte	.LVL258
 8857 0f78 60000000 		.4byte	.LVL260
 8858 0f7c 0300     		.2byte	0x3
 8859 0f7e 73       		.byte	0x73
ARM GAS  C:\Users\USUARIO\AppData\Local\Temp\cchqzDaB.s 			page 191


 8860 0f7f 50       		.sleb128 -48
 8861 0f80 9F       		.byte	0x9f
 8862 0f81 64000000 		.4byte	.LVL261
 8863 0f85 66000000 		.4byte	.LVL262
 8864 0f89 0300     		.2byte	0x3
 8865 0f8b 73       		.byte	0x73
 8866 0f8c 50       		.sleb128 -48
 8867 0f8d 9F       		.byte	0x9f
 8868 0f8e 00000000 		.4byte	0
 8869 0f92 00000000 		.4byte	0
 8870              	.LLST105:
 8871 0f96 26000000 		.4byte	.LVL249
 8872 0f9a 30000000 		.4byte	.LVL251
 8873 0f9e 0100     		.2byte	0x1
 8874 0fa0 50       		.byte	0x50
 8875 0fa1 30000000 		.4byte	.LVL251
 8876 0fa5 34000000 		.4byte	.LVL252
 8877 0fa9 0300     		.2byte	0x3
 8878 0fab 70       		.byte	0x70
 8879 0fac 50       		.sleb128 -48
 8880 0fad 9F       		.byte	0x9f
 8881 0fae 44000000 		.4byte	.LVL253
 8882 0fb2 4E000000 		.4byte	.LVL255
 8883 0fb6 0100     		.2byte	0x1
 8884 0fb8 50       		.byte	0x50
 8885 0fb9 4E000000 		.4byte	.LVL255
 8886 0fbd 52000000 		.4byte	.LVL256
 8887 0fc1 0300     		.2byte	0x3
 8888 0fc3 70       		.byte	0x70
 8889 0fc4 50       		.sleb128 -48
 8890 0fc5 9F       		.byte	0x9f
 8891 0fc6 00000000 		.4byte	0
 8892 0fca 00000000 		.4byte	0
 8893              	.LLST106:
 8894 0fce 00000000 		.4byte	.LVL266
 8895 0fd2 0D000000 		.4byte	.LVL268-1
 8896 0fd6 0100     		.2byte	0x1
 8897 0fd8 50       		.byte	0x50
 8898 0fd9 0D000000 		.4byte	.LVL268-1
 8899 0fdd 12000000 		.4byte	.LVL269
 8900 0fe1 0400     		.2byte	0x4
 8901 0fe3 F3       		.byte	0xf3
 8902 0fe4 01       		.uleb128 0x1
 8903 0fe5 50       		.byte	0x50
 8904 0fe6 9F       		.byte	0x9f
 8905 0fe7 12000000 		.4byte	.LVL269
 8906 0feb 14000000 		.4byte	.LVL270
 8907 0fef 0100     		.2byte	0x1
 8908 0ff1 50       		.byte	0x50
 8909 0ff2 14000000 		.4byte	.LVL270
 8910 0ff6 16000000 		.4byte	.LFE80
 8911 0ffa 0300     		.2byte	0x3
 8912 0ffc 73       		.byte	0x73
 8913 0ffd 01       		.sleb128 1
 8914 0ffe 9F       		.byte	0x9f
 8915 0fff 00000000 		.4byte	0
 8916 1003 00000000 		.4byte	0
ARM GAS  C:\Users\USUARIO\AppData\Local\Temp\cchqzDaB.s 			page 192


 8917              	.LLST107:
 8918 1007 02000000 		.4byte	.LVL267
 8919 100b 0E000000 		.4byte	.LVL268
 8920 100f 0200     		.2byte	0x2
 8921 1011 30       		.byte	0x30
 8922 1012 9F       		.byte	0x9f
 8923 1013 0E000000 		.4byte	.LVL268
 8924 1017 12000000 		.4byte	.LVL269
 8925 101b 0300     		.2byte	0x3
 8926 101d 09       		.byte	0x9
 8927 101e FF       		.byte	0xff
 8928 101f 9F       		.byte	0x9f
 8929 1020 12000000 		.4byte	.LVL269
 8930 1024 14000000 		.4byte	.LVL270
 8931 1028 0200     		.2byte	0x2
 8932 102a 30       		.byte	0x30
 8933 102b 9F       		.byte	0x9f
 8934 102c 14000000 		.4byte	.LVL270
 8935 1030 16000000 		.4byte	.LFE80
 8936 1034 0100     		.2byte	0x1
 8937 1036 50       		.byte	0x50
 8938 1037 00000000 		.4byte	0
 8939 103b 00000000 		.4byte	0
 8940              	.LLST108:
 8941 103f 00000000 		.4byte	.LVL272
 8942 1043 05000000 		.4byte	.LVL273-1
 8943 1047 0100     		.2byte	0x1
 8944 1049 50       		.byte	0x50
 8945 104a 05000000 		.4byte	.LVL273-1
 8946 104e 08000000 		.4byte	.LFE82
 8947 1052 0400     		.2byte	0x4
 8948 1054 F3       		.byte	0xf3
 8949 1055 01       		.uleb128 0x1
 8950 1056 50       		.byte	0x50
 8951 1057 9F       		.byte	0x9f
 8952 1058 00000000 		.4byte	0
 8953 105c 00000000 		.4byte	0
 8954              	.LLST109:
 8955 1060 00000000 		.4byte	.LVL274
 8956 1064 05000000 		.4byte	.LVL275-1
 8957 1068 0100     		.2byte	0x1
 8958 106a 50       		.byte	0x50
 8959 106b 05000000 		.4byte	.LVL275-1
 8960 106f 08000000 		.4byte	.LFE83
 8961 1073 0400     		.2byte	0x4
 8962 1075 F3       		.byte	0xf3
 8963 1076 01       		.uleb128 0x1
 8964 1077 50       		.byte	0x50
 8965 1078 9F       		.byte	0x9f
 8966 1079 00000000 		.4byte	0
 8967 107d 00000000 		.4byte	0
 8968              	.LLST110:
 8969 1081 00000000 		.4byte	.LVL276
 8970 1085 34000000 		.4byte	.LVL281
 8971 1089 0100     		.2byte	0x1
 8972 108b 50       		.byte	0x50
 8973 108c 34000000 		.4byte	.LVL281
ARM GAS  C:\Users\USUARIO\AppData\Local\Temp\cchqzDaB.s 			page 193


 8974 1090 68000000 		.4byte	.LFE84
 8975 1094 0400     		.2byte	0x4
 8976 1096 F3       		.byte	0xf3
 8977 1097 01       		.uleb128 0x1
 8978 1098 50       		.byte	0x50
 8979 1099 9F       		.byte	0x9f
 8980 109a 00000000 		.4byte	0
 8981 109e 00000000 		.4byte	0
 8982              	.LLST111:
 8983 10a2 00000000 		.4byte	.LVL276
 8984 10a6 4D000000 		.4byte	.LVL284-1
 8985 10aa 0100     		.2byte	0x1
 8986 10ac 51       		.byte	0x51
 8987 10ad 4D000000 		.4byte	.LVL284-1
 8988 10b1 68000000 		.4byte	.LFE84
 8989 10b5 0400     		.2byte	0x4
 8990 10b7 F3       		.byte	0xf3
 8991 10b8 01       		.uleb128 0x1
 8992 10b9 51       		.byte	0x51
 8993 10ba 9F       		.byte	0x9f
 8994 10bb 00000000 		.4byte	0
 8995 10bf 00000000 		.4byte	0
 8996              	.LLST112:
 8997 10c3 00000000 		.4byte	.LVL276
 8998 10c7 36000000 		.4byte	.LVL282
 8999 10cb 0100     		.2byte	0x1
 9000 10cd 52       		.byte	0x52
 9001 10ce 36000000 		.4byte	.LVL282
 9002 10d2 68000000 		.4byte	.LFE84
 9003 10d6 0400     		.2byte	0x4
 9004 10d8 F3       		.byte	0xf3
 9005 10d9 01       		.uleb128 0x1
 9006 10da 52       		.byte	0x52
 9007 10db 9F       		.byte	0x9f
 9008 10dc 00000000 		.4byte	0
 9009 10e0 00000000 		.4byte	0
 9010              	.LLST113:
 9011 10e4 02000000 		.4byte	.LVL277
 9012 10e8 08000000 		.4byte	.LVL278
 9013 10ec 0300     		.2byte	0x3
 9014 10ee 09       		.byte	0x9
 9015 10ef FF       		.byte	0xff
 9016 10f0 9F       		.byte	0x9f
 9017 10f1 08000000 		.4byte	.LVL278
 9018 10f5 64000000 		.4byte	.LVL287
 9019 10f9 0100     		.2byte	0x1
 9020 10fb 54       		.byte	0x54
 9021 10fc 00000000 		.4byte	0
 9022 1100 00000000 		.4byte	0
 9023              	.LLST114:
 9024 1104 02000000 		.4byte	.LVL277
 9025 1108 08000000 		.4byte	.LVL278
 9026 110c 0200     		.2byte	0x2
 9027 110e 30       		.byte	0x30
 9028 110f 9F       		.byte	0x9f
 9029 1110 08000000 		.4byte	.LVL278
 9030 1114 38000000 		.4byte	.LVL283
ARM GAS  C:\Users\USUARIO\AppData\Local\Temp\cchqzDaB.s 			page 194


 9031 1118 0100     		.2byte	0x1
 9032 111a 53       		.byte	0x53
 9033 111b 00000000 		.4byte	0
 9034 111f 00000000 		.4byte	0
 9035              	.LLST115:
 9036 1123 00000000 		.4byte	.LVL288
 9037 1127 14000000 		.4byte	.LVL289
 9038 112b 0100     		.2byte	0x1
 9039 112d 50       		.byte	0x50
 9040 112e 14000000 		.4byte	.LVL289
 9041 1132 2A000000 		.4byte	.LVL292
 9042 1136 0400     		.2byte	0x4
 9043 1138 F3       		.byte	0xf3
 9044 1139 01       		.uleb128 0x1
 9045 113a 50       		.byte	0x50
 9046 113b 9F       		.byte	0x9f
 9047 113c 2A000000 		.4byte	.LVL292
 9048 1140 30000000 		.4byte	.LFE85
 9049 1144 0100     		.2byte	0x1
 9050 1146 50       		.byte	0x50
 9051 1147 00000000 		.4byte	0
 9052 114b 00000000 		.4byte	0
 9053              	.LLST116:
 9054 114f 00000000 		.4byte	.LVL293
 9055 1153 0E000000 		.4byte	.LVL294
 9056 1157 0100     		.2byte	0x1
 9057 1159 50       		.byte	0x50
 9058 115a 0E000000 		.4byte	.LVL294
 9059 115e 66000000 		.4byte	.LVL309
 9060 1162 0100     		.2byte	0x1
 9061 1164 57       		.byte	0x57
 9062 1165 66000000 		.4byte	.LVL309
 9063 1169 6C000000 		.4byte	.LFE74
 9064 116d 0400     		.2byte	0x4
 9065 116f F3       		.byte	0xf3
 9066 1170 01       		.uleb128 0x1
 9067 1171 50       		.byte	0x50
 9068 1172 9F       		.byte	0x9f
 9069 1173 00000000 		.4byte	0
 9070 1177 00000000 		.4byte	0
 9071              	.LLST117:
 9072 117b 00000000 		.4byte	.LVL293
 9073 117f 11000000 		.4byte	.LVL295-1
 9074 1183 0100     		.2byte	0x1
 9075 1185 51       		.byte	0x51
 9076 1186 11000000 		.4byte	.LVL295-1
 9077 118a 66000000 		.4byte	.LVL309
 9078 118e 0100     		.2byte	0x1
 9079 1190 56       		.byte	0x56
 9080 1191 66000000 		.4byte	.LVL309
 9081 1195 6C000000 		.4byte	.LFE74
 9082 1199 0400     		.2byte	0x4
 9083 119b F3       		.byte	0xf3
 9084 119c 01       		.uleb128 0x1
 9085 119d 51       		.byte	0x51
 9086 119e 9F       		.byte	0x9f
 9087 119f 00000000 		.4byte	0
ARM GAS  C:\Users\USUARIO\AppData\Local\Temp\cchqzDaB.s 			page 195


 9088 11a3 00000000 		.4byte	0
 9089              	.LLST118:
 9090 11a7 00000000 		.4byte	.LVL293
 9091 11ab 11000000 		.4byte	.LVL295-1
 9092 11af 0100     		.2byte	0x1
 9093 11b1 52       		.byte	0x52
 9094 11b2 11000000 		.4byte	.LVL295-1
 9095 11b6 66000000 		.4byte	.LVL309
 9096 11ba 0100     		.2byte	0x1
 9097 11bc 55       		.byte	0x55
 9098 11bd 66000000 		.4byte	.LVL309
 9099 11c1 6C000000 		.4byte	.LFE74
 9100 11c5 0400     		.2byte	0x4
 9101 11c7 F3       		.byte	0xf3
 9102 11c8 01       		.uleb128 0x1
 9103 11c9 52       		.byte	0x52
 9104 11ca 9F       		.byte	0x9f
 9105 11cb 00000000 		.4byte	0
 9106 11cf 00000000 		.4byte	0
 9107              	.LLST119:
 9108 11d3 00000000 		.4byte	.LVL293
 9109 11d7 11000000 		.4byte	.LVL295-1
 9110 11db 0100     		.2byte	0x1
 9111 11dd 53       		.byte	0x53
 9112 11de 11000000 		.4byte	.LVL295-1
 9113 11e2 66000000 		.4byte	.LVL309
 9114 11e6 0100     		.2byte	0x1
 9115 11e8 58       		.byte	0x58
 9116 11e9 66000000 		.4byte	.LVL309
 9117 11ed 6C000000 		.4byte	.LFE74
 9118 11f1 0400     		.2byte	0x4
 9119 11f3 F3       		.byte	0xf3
 9120 11f4 01       		.uleb128 0x1
 9121 11f5 53       		.byte	0x53
 9122 11f6 9F       		.byte	0x9f
 9123 11f7 00000000 		.4byte	0
 9124 11fb 00000000 		.4byte	0
 9125              	.LLST120:
 9126 11ff 1E000000 		.4byte	.LVL297
 9127 1203 22000000 		.4byte	.LVL298
 9128 1207 0200     		.2byte	0x2
 9129 1209 30       		.byte	0x30
 9130 120a 9F       		.byte	0x9f
 9131 120b 22000000 		.4byte	.LVL298
 9132 120f 66000000 		.4byte	.LVL309
 9133 1213 0100     		.2byte	0x1
 9134 1215 54       		.byte	0x54
 9135 1216 00000000 		.4byte	0
 9136 121a 00000000 		.4byte	0
 9137              	.LLST121:
 9138 121e 40000000 		.4byte	.LVL314
 9139 1222 42000000 		.4byte	.LVL315
 9140 1226 0100     		.2byte	0x1
 9141 1228 50       		.byte	0x50
 9142 1229 42000000 		.4byte	.LVL315
 9143 122d 5C000000 		.4byte	.LVL322
 9144 1231 0100     		.2byte	0x1
ARM GAS  C:\Users\USUARIO\AppData\Local\Temp\cchqzDaB.s 			page 196


 9145 1233 54       		.byte	0x54
 9146 1234 00000000 		.4byte	0
 9147 1238 00000000 		.4byte	0
 9148              	.LLST122:
 9149 123c 4E000000 		.4byte	.LVL319
 9150 1240 56000000 		.4byte	.LVL320
 9151 1244 0100     		.2byte	0x1
 9152 1246 50       		.byte	0x50
 9153 1247 56000000 		.4byte	.LVL320
 9154 124b 59000000 		.4byte	.LVL321-1
 9155 124f 0100     		.2byte	0x1
 9156 1251 53       		.byte	0x53
 9157 1252 00000000 		.4byte	0
 9158 1256 00000000 		.4byte	0
 9159              	.LLST123:
 9160 125a 48000000 		.4byte	.LVL317
 9161 125e 4A000000 		.4byte	.LVL318
 9162 1262 0100     		.2byte	0x1
 9163 1264 50       		.byte	0x50
 9164 1265 4A000000 		.4byte	.LVL318
 9165 1269 5C000000 		.4byte	.LVL322
 9166 126d 0100     		.2byte	0x1
 9167 126f 55       		.byte	0x55
 9168 1270 00000000 		.4byte	0
 9169 1274 00000000 		.4byte	0
 9170              	.LLST124:
 9171 1278 00000000 		.4byte	.LVL323
 9172 127c 07000000 		.4byte	.LVL324-1
 9173 1280 0100     		.2byte	0x1
 9174 1282 50       		.byte	0x50
 9175 1283 07000000 		.4byte	.LVL324-1
 9176 1287 20000000 		.4byte	.LFE86
 9177 128b 0400     		.2byte	0x4
 9178 128d F3       		.byte	0xf3
 9179 128e 01       		.uleb128 0x1
 9180 128f 50       		.byte	0x50
 9181 1290 9F       		.byte	0x9f
 9182 1291 00000000 		.4byte	0
 9183 1295 00000000 		.4byte	0
 9184              	.LLST125:
 9185 1299 08000000 		.4byte	.LVL324
 9186 129d 0E000000 		.4byte	.LVL325
 9187 12a1 0100     		.2byte	0x1
 9188 12a3 50       		.byte	0x50
 9189 12a4 00000000 		.4byte	0
 9190 12a8 00000000 		.4byte	0
 9191              	.LLST126:
 9192 12ac 00000000 		.4byte	.LVL328
 9193 12b0 05000000 		.4byte	.LVL329-1
 9194 12b4 0100     		.2byte	0x1
 9195 12b6 50       		.byte	0x50
 9196 12b7 05000000 		.4byte	.LVL329-1
 9197 12bb 10000000 		.4byte	.LFE87
 9198 12bf 0400     		.2byte	0x4
 9199 12c1 F3       		.byte	0xf3
 9200 12c2 01       		.uleb128 0x1
 9201 12c3 50       		.byte	0x50
ARM GAS  C:\Users\USUARIO\AppData\Local\Temp\cchqzDaB.s 			page 197


 9202 12c4 9F       		.byte	0x9f
 9203 12c5 00000000 		.4byte	0
 9204 12c9 00000000 		.4byte	0
 9205              	.LLST127:
 9206 12cd 00000000 		.4byte	.LVL330
 9207 12d1 05000000 		.4byte	.LVL331-1
 9208 12d5 0100     		.2byte	0x1
 9209 12d7 50       		.byte	0x50
 9210 12d8 05000000 		.4byte	.LVL331-1
 9211 12dc 08000000 		.4byte	.LFE90
 9212 12e0 0400     		.2byte	0x4
 9213 12e2 F3       		.byte	0xf3
 9214 12e3 01       		.uleb128 0x1
 9215 12e4 50       		.byte	0x50
 9216 12e5 9F       		.byte	0x9f
 9217 12e6 00000000 		.4byte	0
 9218 12ea 00000000 		.4byte	0
 9219              	.LLST128:
 9220 12ee 00000000 		.4byte	.LVL332
 9221 12f2 08000000 		.4byte	.LVL333
 9222 12f6 0100     		.2byte	0x1
 9223 12f8 50       		.byte	0x50
 9224 12f9 08000000 		.4byte	.LVL333
 9225 12fd 0E000000 		.4byte	.LFE91
 9226 1301 0400     		.2byte	0x4
 9227 1303 F3       		.byte	0xf3
 9228 1304 01       		.uleb128 0x1
 9229 1305 50       		.byte	0x50
 9230 1306 9F       		.byte	0x9f
 9231 1307 00000000 		.4byte	0
 9232 130b 00000000 		.4byte	0
 9233              	.LLST129:
 9234 130f 00000000 		.4byte	.LVL335
 9235 1313 0B000000 		.4byte	.LVL336-1
 9236 1317 0100     		.2byte	0x1
 9237 1319 50       		.byte	0x50
 9238 131a 0B000000 		.4byte	.LVL336-1
 9239 131e 0E000000 		.4byte	.LVL337
 9240 1322 0400     		.2byte	0x4
 9241 1324 F3       		.byte	0xf3
 9242 1325 01       		.uleb128 0x1
 9243 1326 50       		.byte	0x50
 9244 1327 9F       		.byte	0x9f
 9245 1328 0E000000 		.4byte	.LVL337
 9246 132c 10000000 		.4byte	.LFE92
 9247 1330 0100     		.2byte	0x1
 9248 1332 50       		.byte	0x50
 9249 1333 00000000 		.4byte	0
 9250 1337 00000000 		.4byte	0
 9251              	.LLST130:
 9252 133b 00000000 		.4byte	.LVL338
 9253 133f 07000000 		.4byte	.LVL339-1
 9254 1343 0100     		.2byte	0x1
 9255 1345 50       		.byte	0x50
 9256 1346 07000000 		.4byte	.LVL339-1
 9257 134a 1C000000 		.4byte	.LFE93
 9258 134e 0400     		.2byte	0x4
ARM GAS  C:\Users\USUARIO\AppData\Local\Temp\cchqzDaB.s 			page 198


 9259 1350 F3       		.byte	0xf3
 9260 1351 01       		.uleb128 0x1
 9261 1352 50       		.byte	0x50
 9262 1353 9F       		.byte	0x9f
 9263 1354 00000000 		.4byte	0
 9264 1358 00000000 		.4byte	0
 9265              	.LLST131:
 9266 135c 00000000 		.4byte	.LVL342
 9267 1360 11000000 		.4byte	.LVL343-1
 9268 1364 0100     		.2byte	0x1
 9269 1366 50       		.byte	0x50
 9270 1367 11000000 		.4byte	.LVL343-1
 9271 136b 5C000000 		.4byte	.LVL354
 9272 136f 0400     		.2byte	0x4
 9273 1371 F3       		.byte	0xf3
 9274 1372 01       		.uleb128 0x1
 9275 1373 50       		.byte	0x50
 9276 1374 9F       		.byte	0x9f
 9277 1375 5C000000 		.4byte	.LVL354
 9278 1379 64000000 		.4byte	.LFE94
 9279 137d 0100     		.2byte	0x1
 9280 137f 50       		.byte	0x50
 9281 1380 00000000 		.4byte	0
 9282 1384 00000000 		.4byte	0
 9283              	.LLST132:
 9284 1388 00000000 		.4byte	.LVL342
 9285 138c 11000000 		.4byte	.LVL343-1
 9286 1390 0100     		.2byte	0x1
 9287 1392 51       		.byte	0x51
 9288 1393 11000000 		.4byte	.LVL343-1
 9289 1397 5C000000 		.4byte	.LVL354
 9290 139b 0400     		.2byte	0x4
 9291 139d F3       		.byte	0xf3
 9292 139e 01       		.uleb128 0x1
 9293 139f 51       		.byte	0x51
 9294 13a0 9F       		.byte	0x9f
 9295 13a1 5C000000 		.4byte	.LVL354
 9296 13a5 64000000 		.4byte	.LFE94
 9297 13a9 0100     		.2byte	0x1
 9298 13ab 51       		.byte	0x51
 9299 13ac 00000000 		.4byte	0
 9300 13b0 00000000 		.4byte	0
 9301              	.LLST133:
 9302 13b4 00000000 		.4byte	.LVL342
 9303 13b8 11000000 		.4byte	.LVL343-1
 9304 13bc 0100     		.2byte	0x1
 9305 13be 52       		.byte	0x52
 9306 13bf 11000000 		.4byte	.LVL343-1
 9307 13c3 5C000000 		.4byte	.LVL354
 9308 13c7 0400     		.2byte	0x4
 9309 13c9 F3       		.byte	0xf3
 9310 13ca 01       		.uleb128 0x1
 9311 13cb 52       		.byte	0x52
 9312 13cc 9F       		.byte	0x9f
 9313 13cd 5C000000 		.4byte	.LVL354
 9314 13d1 64000000 		.4byte	.LFE94
 9315 13d5 0100     		.2byte	0x1
ARM GAS  C:\Users\USUARIO\AppData\Local\Temp\cchqzDaB.s 			page 199


 9316 13d7 52       		.byte	0x52
 9317 13d8 00000000 		.4byte	0
 9318 13dc 00000000 		.4byte	0
 9319              	.LLST134:
 9320 13e0 2C000000 		.4byte	.LVL347
 9321 13e4 5C000000 		.4byte	.LVL354
 9322 13e8 0100     		.2byte	0x1
 9323 13ea 54       		.byte	0x54
 9324 13eb 00000000 		.4byte	0
 9325 13ef 00000000 		.4byte	0
 9326              	.LLST135:
 9327 13f3 3A000000 		.4byte	.LVL350
 9328 13f7 44000000 		.4byte	.LVL351
 9329 13fb 0100     		.2byte	0x1
 9330 13fd 50       		.byte	0x50
 9331 13fe 00000000 		.4byte	0
 9332 1402 00000000 		.4byte	0
 9333              	.LLST136:
 9334 1406 00000000 		.4byte	.LVL355
 9335 140a 05000000 		.4byte	.LVL356-1
 9336 140e 0100     		.2byte	0x1
 9337 1410 50       		.byte	0x50
 9338 1411 05000000 		.4byte	.LVL356-1
 9339 1415 08000000 		.4byte	.LFE95
 9340 1419 0400     		.2byte	0x4
 9341 141b F3       		.byte	0xf3
 9342 141c 01       		.uleb128 0x1
 9343 141d 50       		.byte	0x50
 9344 141e 9F       		.byte	0x9f
 9345 141f 00000000 		.4byte	0
 9346 1423 00000000 		.4byte	0
 9347              	.LLST137:
 9348 1427 00000000 		.4byte	.LVL357
 9349 142b 07000000 		.4byte	.LVL358-1
 9350 142f 0100     		.2byte	0x1
 9351 1431 50       		.byte	0x50
 9352 1432 07000000 		.4byte	.LVL358-1
 9353 1436 0A000000 		.4byte	.LFE96
 9354 143a 0400     		.2byte	0x4
 9355 143c F3       		.byte	0xf3
 9356 143d 01       		.uleb128 0x1
 9357 143e 50       		.byte	0x50
 9358 143f 9F       		.byte	0x9f
 9359 1440 00000000 		.4byte	0
 9360 1444 00000000 		.4byte	0
 9361              	.LLST138:
 9362 1448 00000000 		.4byte	.LVL359
 9363 144c 15000000 		.4byte	.LVL362-1
 9364 1450 0100     		.2byte	0x1
 9365 1452 50       		.byte	0x50
 9366 1453 15000000 		.4byte	.LVL362-1
 9367 1457 68000000 		.4byte	.LFE97
 9368 145b 0400     		.2byte	0x4
 9369 145d F3       		.byte	0xf3
 9370 145e 01       		.uleb128 0x1
 9371 145f 50       		.byte	0x50
 9372 1460 9F       		.byte	0x9f
ARM GAS  C:\Users\USUARIO\AppData\Local\Temp\cchqzDaB.s 			page 200


 9373 1461 00000000 		.4byte	0
 9374 1465 00000000 		.4byte	0
 9375              	.LLST139:
 9376 1469 00000000 		.4byte	.LVL359
 9377 146d 15000000 		.4byte	.LVL362-1
 9378 1471 0100     		.2byte	0x1
 9379 1473 51       		.byte	0x51
 9380 1474 15000000 		.4byte	.LVL362-1
 9381 1478 62000000 		.4byte	.LVL376
 9382 147c 0100     		.2byte	0x1
 9383 147e 57       		.byte	0x57
 9384 147f 62000000 		.4byte	.LVL376
 9385 1483 68000000 		.4byte	.LFE97
 9386 1487 0400     		.2byte	0x4
 9387 1489 F3       		.byte	0xf3
 9388 148a 01       		.uleb128 0x1
 9389 148b 51       		.byte	0x51
 9390 148c 9F       		.byte	0x9f
 9391 148d 00000000 		.4byte	0
 9392 1491 00000000 		.4byte	0
 9393              	.LLST140:
 9394 1495 00000000 		.4byte	.LVL359
 9395 1499 10000000 		.4byte	.LVL360
 9396 149d 0100     		.2byte	0x1
 9397 149f 52       		.byte	0x52
 9398 14a0 10000000 		.4byte	.LVL360
 9399 14a4 68000000 		.4byte	.LFE97
 9400 14a8 0400     		.2byte	0x4
 9401 14aa F3       		.byte	0xf3
 9402 14ab 01       		.uleb128 0x1
 9403 14ac 52       		.byte	0x52
 9404 14ad 9F       		.byte	0x9f
 9405 14ae 00000000 		.4byte	0
 9406 14b2 00000000 		.4byte	0
 9407              	.LLST141:
 9408 14b6 12000000 		.4byte	.LVL361
 9409 14ba 2C000000 		.4byte	.LVL363
 9410 14be 0100     		.2byte	0x1
 9411 14c0 55       		.byte	0x55
 9412 14c1 2E000000 		.4byte	.LVL364
 9413 14c5 62000000 		.4byte	.LVL376
 9414 14c9 0100     		.2byte	0x1
 9415 14cb 55       		.byte	0x55
 9416 14cc 00000000 		.4byte	0
 9417 14d0 00000000 		.4byte	0
 9418              	.LLST142:
 9419 14d4 2E000000 		.4byte	.LVL364
 9420 14d8 3E000000 		.4byte	.LVL369
 9421 14dc 0100     		.2byte	0x1
 9422 14de 56       		.byte	0x56
 9423 14df 40000000 		.4byte	.LVL370
 9424 14e3 5C000000 		.4byte	.LVL374
 9425 14e7 0100     		.2byte	0x1
 9426 14e9 56       		.byte	0x56
 9427 14ea 00000000 		.4byte	0
 9428 14ee 00000000 		.4byte	0
 9429              	.LLST143:
ARM GAS  C:\Users\USUARIO\AppData\Local\Temp\cchqzDaB.s 			page 201


 9430 14f2 16000000 		.4byte	.LVL362
 9431 14f6 30000000 		.4byte	.LVL365
 9432 14fa 0100     		.2byte	0x1
 9433 14fc 50       		.byte	0x50
 9434 14fd 3C000000 		.4byte	.LVL368
 9435 1501 50000000 		.4byte	.LVL371
 9436 1505 0100     		.2byte	0x1
 9437 1507 50       		.byte	0x50
 9438 1508 5C000000 		.4byte	.LVL374
 9439 150c 5E000000 		.4byte	.LVL375
 9440 1510 0100     		.2byte	0x1
 9441 1512 50       		.byte	0x50
 9442 1513 00000000 		.4byte	0
 9443 1517 00000000 		.4byte	0
 9444              	.LLST144:
 9445 151b 00000000 		.4byte	.LVL377
 9446 151f 0D000000 		.4byte	.LVL378-1
 9447 1523 0100     		.2byte	0x1
 9448 1525 50       		.byte	0x50
 9449 1526 0D000000 		.4byte	.LVL378-1
 9450 152a 34000000 		.4byte	.LFE98
 9451 152e 0400     		.2byte	0x4
 9452 1530 F3       		.byte	0xf3
 9453 1531 01       		.uleb128 0x1
 9454 1532 50       		.byte	0x50
 9455 1533 9F       		.byte	0x9f
 9456 1534 00000000 		.4byte	0
 9457 1538 00000000 		.4byte	0
 9458              	.LLST145:
 9459 153c 00000000 		.4byte	.LVL377
 9460 1540 0D000000 		.4byte	.LVL378-1
 9461 1544 0100     		.2byte	0x1
 9462 1546 51       		.byte	0x51
 9463 1547 0D000000 		.4byte	.LVL378-1
 9464 154b 34000000 		.4byte	.LFE98
 9465 154f 0100     		.2byte	0x1
 9466 1551 56       		.byte	0x56
 9467 1552 00000000 		.4byte	0
 9468 1556 00000000 		.4byte	0
 9469              	.LLST146:
 9470 155a 00000000 		.4byte	.LVL377
 9471 155e 0D000000 		.4byte	.LVL378-1
 9472 1562 0100     		.2byte	0x1
 9473 1564 52       		.byte	0x52
 9474 1565 0D000000 		.4byte	.LVL378-1
 9475 1569 34000000 		.4byte	.LFE98
 9476 156d 0400     		.2byte	0x4
 9477 156f F3       		.byte	0xf3
 9478 1570 01       		.uleb128 0x1
 9479 1571 52       		.byte	0x52
 9480 1572 9F       		.byte	0x9f
 9481 1573 00000000 		.4byte	0
 9482 1577 00000000 		.4byte	0
 9483              	.LLST147:
 9484 157b 0E000000 		.4byte	.LVL378
 9485 157f 14000000 		.4byte	.LVL379
 9486 1583 0100     		.2byte	0x1
ARM GAS  C:\Users\USUARIO\AppData\Local\Temp\cchqzDaB.s 			page 202


 9487 1585 50       		.byte	0x50
 9488 1586 16000000 		.4byte	.LVL380
 9489 158a 34000000 		.4byte	.LFE98
 9490 158e 0100     		.2byte	0x1
 9491 1590 54       		.byte	0x54
 9492 1591 00000000 		.4byte	0
 9493 1595 00000000 		.4byte	0
 9494              	.LLST148:
 9495 1599 00000000 		.4byte	.LVL383
 9496 159d 08000000 		.4byte	.LVL384
 9497 15a1 0100     		.2byte	0x1
 9498 15a3 50       		.byte	0x50
 9499 15a4 08000000 		.4byte	.LVL384
 9500 15a8 18000000 		.4byte	.LFE99
 9501 15ac 0400     		.2byte	0x4
 9502 15ae F3       		.byte	0xf3
 9503 15af 01       		.uleb128 0x1
 9504 15b0 50       		.byte	0x50
 9505 15b1 9F       		.byte	0x9f
 9506 15b2 00000000 		.4byte	0
 9507 15b6 00000000 		.4byte	0
 9508              	.LLST149:
 9509 15ba 00000000 		.4byte	.LVL383
 9510 15be 0B000000 		.4byte	.LVL385-1
 9511 15c2 0100     		.2byte	0x1
 9512 15c4 51       		.byte	0x51
 9513 15c5 0B000000 		.4byte	.LVL385-1
 9514 15c9 18000000 		.4byte	.LFE99
 9515 15cd 0100     		.2byte	0x1
 9516 15cf 54       		.byte	0x54
 9517 15d0 00000000 		.4byte	0
 9518 15d4 00000000 		.4byte	0
 9519              		.section	.debug_aranges,"",%progbits
 9520 0000 1C020000 		.4byte	0x21c
 9521 0004 0200     		.2byte	0x2
 9522 0006 00000000 		.4byte	.Ldebug_info0
 9523 000a 04       		.byte	0x4
 9524 000b 00       		.byte	0
 9525 000c 0000     		.2byte	0
 9526 000e 0000     		.2byte	0
 9527 0010 00000000 		.4byte	.LFB1
 9528 0014 36000000 		.4byte	.LFE1-.LFB1
 9529 0018 00000000 		.4byte	.LFB19
 9530 001c 0C000000 		.4byte	.LFE19-.LFB19
 9531 0020 00000000 		.4byte	.LFB31
 9532 0024 0C000000 		.4byte	.LFE31-.LFB31
 9533 0028 00000000 		.4byte	.LFB29
 9534 002c 0C000000 		.4byte	.LFE29-.LFB29
 9535 0030 00000000 		.4byte	.LFB5
 9536 0034 22000000 		.4byte	.LFE5-.LFB5
 9537 0038 00000000 		.4byte	.LFB13
 9538 003c 0C000000 		.4byte	.LFE13-.LFB13
 9539 0040 00000000 		.4byte	.LFB17
 9540 0044 0C000000 		.4byte	.LFE17-.LFB17
 9541 0048 00000000 		.4byte	.LFB15
 9542 004c 0C000000 		.4byte	.LFE15-.LFB15
 9543 0050 00000000 		.4byte	.LFB49
ARM GAS  C:\Users\USUARIO\AppData\Local\Temp\cchqzDaB.s 			page 203


 9544 0054 10000000 		.4byte	.LFE49-.LFB49
 9545 0058 00000000 		.4byte	.LFB3
 9546 005c 1C000000 		.4byte	.LFE3-.LFB3
 9547 0060 00000000 		.4byte	.LFB11
 9548 0064 0C000000 		.4byte	.LFE11-.LFB11
 9549 0068 00000000 		.4byte	.LFB21
 9550 006c 0C000000 		.4byte	.LFE21-.LFB21
 9551 0070 00000000 		.4byte	.LFB7
 9552 0074 18000000 		.4byte	.LFE7-.LFB7
 9553 0078 00000000 		.4byte	.LFB45
 9554 007c 10000000 		.4byte	.LFE45-.LFB45
 9555 0080 00000000 		.4byte	.LFB51
 9556 0084 10000000 		.4byte	.LFE51-.LFB51
 9557 0088 00000000 		.4byte	.LFB64
 9558 008c 10000000 		.4byte	.LFE64-.LFB64
 9559 0090 00000000 		.4byte	.LFB67
 9560 0094 10000000 		.4byte	.LFE67-.LFB67
 9561 0098 00000000 		.4byte	.LFB37
 9562 009c 12000000 		.4byte	.LFE37-.LFB37
 9563 00a0 00000000 		.4byte	.LFB39
 9564 00a4 10000000 		.4byte	.LFE39-.LFB39
 9565 00a8 00000000 		.4byte	.LFB41
 9566 00ac 10000000 		.4byte	.LFE41-.LFB41
 9567 00b0 00000000 		.4byte	.LFB9
 9568 00b4 1E000000 		.4byte	.LFE9-.LFB9
 9569 00b8 00000000 		.4byte	.LFB2
 9570 00bc 5C000000 		.4byte	.LFE2-.LFB2
 9571 00c0 00000000 		.4byte	.LFB4
 9572 00c4 1C000000 		.4byte	.LFE4-.LFB4
 9573 00c8 00000000 		.4byte	.LFB12
 9574 00cc 0C000000 		.4byte	.LFE12-.LFB12
 9575 00d0 00000000 		.4byte	.LFB6
 9576 00d4 28000000 		.4byte	.LFE6-.LFB6
 9577 00d8 00000000 		.4byte	.LFB18
 9578 00dc 0A000000 		.4byte	.LFE18-.LFB18
 9579 00e0 00000000 		.4byte	.LFB40
 9580 00e4 10000000 		.4byte	.LFE40-.LFB40
 9581 00e8 00000000 		.4byte	.LFB69
 9582 00ec 26000000 		.4byte	.LFE69-.LFB69
 9583 00f0 00000000 		.4byte	.LFB44
 9584 00f4 10000000 		.4byte	.LFE44-.LFB44
 9585 00f8 00000000 		.4byte	.LFB8
 9586 00fc 1C000000 		.4byte	.LFE8-.LFB8
 9587 0100 00000000 		.4byte	.LFB66
 9588 0104 10000000 		.4byte	.LFE66-.LFB66
 9589 0108 00000000 		.4byte	.LFB71
 9590 010c 20000000 		.4byte	.LFE71-.LFB71
 9591 0110 00000000 		.4byte	.LFB61
 9592 0114 10000000 		.4byte	.LFE61-.LFB61
 9593 0118 00000000 		.4byte	.LFB70
 9594 011c 20000000 		.4byte	.LFE70-.LFB70
 9595 0120 00000000 		.4byte	.LFB65
 9596 0124 10000000 		.4byte	.LFE65-.LFB65
 9597 0128 00000000 		.4byte	.LFB72
 9598 012c 60000000 		.4byte	.LFE72-.LFB72
 9599 0130 00000000 		.4byte	.LFB68
 9600 0134 10000000 		.4byte	.LFE68-.LFB68
ARM GAS  C:\Users\USUARIO\AppData\Local\Temp\cchqzDaB.s 			page 204


 9601 0138 00000000 		.4byte	.LFB42
 9602 013c 10000000 		.4byte	.LFE42-.LFB42
 9603 0140 00000000 		.4byte	.LFB88
 9604 0144 44000000 		.4byte	.LFE88-.LFB88
 9605 0148 00000000 		.4byte	.LFB10
 9606 014c 1E000000 		.4byte	.LFE10-.LFB10
 9607 0150 00000000 		.4byte	.LFB73
 9608 0154 6C000000 		.4byte	.LFE73-.LFB73
 9609 0158 00000000 		.4byte	.LFB76
 9610 015c AE000000 		.4byte	.LFE76-.LFB76
 9611 0160 00000000 		.4byte	.LFB77
 9612 0164 EE000000 		.4byte	.LFE77-.LFB77
 9613 0168 00000000 		.4byte	.LFB78
 9614 016c 62000000 		.4byte	.LFE78-.LFB78
 9615 0170 00000000 		.4byte	.LFB79
 9616 0174 7C000000 		.4byte	.LFE79-.LFB79
 9617 0178 00000000 		.4byte	.LFB80
 9618 017c 16000000 		.4byte	.LFE80-.LFB80
 9619 0180 00000000 		.4byte	.LFB81
 9620 0184 08000000 		.4byte	.LFE81-.LFB81
 9621 0188 00000000 		.4byte	.LFB82
 9622 018c 08000000 		.4byte	.LFE82-.LFB82
 9623 0190 00000000 		.4byte	.LFB83
 9624 0194 08000000 		.4byte	.LFE83-.LFB83
 9625 0198 00000000 		.4byte	.LFB84
 9626 019c 68000000 		.4byte	.LFE84-.LFB84
 9627 01a0 00000000 		.4byte	.LFB85
 9628 01a4 30000000 		.4byte	.LFE85-.LFB85
 9629 01a8 00000000 		.4byte	.LFB74
 9630 01ac 6C000000 		.4byte	.LFE74-.LFB74
 9631 01b0 00000000 		.4byte	.LFB75
 9632 01b4 78000000 		.4byte	.LFE75-.LFB75
 9633 01b8 00000000 		.4byte	.LFB86
 9634 01bc 20000000 		.4byte	.LFE86-.LFB86
 9635 01c0 00000000 		.4byte	.LFB87
 9636 01c4 10000000 		.4byte	.LFE87-.LFB87
 9637 01c8 00000000 		.4byte	.LFB90
 9638 01cc 08000000 		.4byte	.LFE90-.LFB90
 9639 01d0 00000000 		.4byte	.LFB91
 9640 01d4 0E000000 		.4byte	.LFE91-.LFB91
 9641 01d8 00000000 		.4byte	.LFB92
 9642 01dc 10000000 		.4byte	.LFE92-.LFB92
 9643 01e0 00000000 		.4byte	.LFB93
 9644 01e4 1C000000 		.4byte	.LFE93-.LFB93
 9645 01e8 00000000 		.4byte	.LFB94
 9646 01ec 64000000 		.4byte	.LFE94-.LFB94
 9647 01f0 00000000 		.4byte	.LFB95
 9648 01f4 08000000 		.4byte	.LFE95-.LFB95
 9649 01f8 00000000 		.4byte	.LFB96
 9650 01fc 0A000000 		.4byte	.LFE96-.LFB96
 9651 0200 00000000 		.4byte	.LFB97
 9652 0204 68000000 		.4byte	.LFE97-.LFB97
 9653 0208 00000000 		.4byte	.LFB98
 9654 020c 34000000 		.4byte	.LFE98-.LFB98
 9655 0210 00000000 		.4byte	.LFB99
 9656 0214 18000000 		.4byte	.LFE99-.LFB99
 9657 0218 00000000 		.4byte	0
ARM GAS  C:\Users\USUARIO\AppData\Local\Temp\cchqzDaB.s 			page 205


 9658 021c 00000000 		.4byte	0
 9659              		.section	.debug_ranges,"",%progbits
 9660              	.Ldebug_ranges0:
 9661 0000 00000000 		.4byte	.LFB1
 9662 0004 36000000 		.4byte	.LFE1
 9663 0008 00000000 		.4byte	.LFB19
 9664 000c 0C000000 		.4byte	.LFE19
 9665 0010 00000000 		.4byte	.LFB31
 9666 0014 0C000000 		.4byte	.LFE31
 9667 0018 00000000 		.4byte	.LFB29
 9668 001c 0C000000 		.4byte	.LFE29
 9669 0020 00000000 		.4byte	.LFB5
 9670 0024 22000000 		.4byte	.LFE5
 9671 0028 00000000 		.4byte	.LFB13
 9672 002c 0C000000 		.4byte	.LFE13
 9673 0030 00000000 		.4byte	.LFB17
 9674 0034 0C000000 		.4byte	.LFE17
 9675 0038 00000000 		.4byte	.LFB15
 9676 003c 0C000000 		.4byte	.LFE15
 9677 0040 00000000 		.4byte	.LFB49
 9678 0044 10000000 		.4byte	.LFE49
 9679 0048 00000000 		.4byte	.LFB3
 9680 004c 1C000000 		.4byte	.LFE3
 9681 0050 00000000 		.4byte	.LFB11
 9682 0054 0C000000 		.4byte	.LFE11
 9683 0058 00000000 		.4byte	.LFB21
 9684 005c 0C000000 		.4byte	.LFE21
 9685 0060 00000000 		.4byte	.LFB7
 9686 0064 18000000 		.4byte	.LFE7
 9687 0068 00000000 		.4byte	.LFB45
 9688 006c 10000000 		.4byte	.LFE45
 9689 0070 00000000 		.4byte	.LFB51
 9690 0074 10000000 		.4byte	.LFE51
 9691 0078 00000000 		.4byte	.LFB64
 9692 007c 10000000 		.4byte	.LFE64
 9693 0080 00000000 		.4byte	.LFB67
 9694 0084 10000000 		.4byte	.LFE67
 9695 0088 00000000 		.4byte	.LFB37
 9696 008c 12000000 		.4byte	.LFE37
 9697 0090 00000000 		.4byte	.LFB39
 9698 0094 10000000 		.4byte	.LFE39
 9699 0098 00000000 		.4byte	.LFB41
 9700 009c 10000000 		.4byte	.LFE41
 9701 00a0 00000000 		.4byte	.LFB9
 9702 00a4 1E000000 		.4byte	.LFE9
 9703 00a8 00000000 		.4byte	.LFB2
 9704 00ac 5C000000 		.4byte	.LFE2
 9705 00b0 00000000 		.4byte	.LFB4
 9706 00b4 1C000000 		.4byte	.LFE4
 9707 00b8 00000000 		.4byte	.LFB12
 9708 00bc 0C000000 		.4byte	.LFE12
 9709 00c0 00000000 		.4byte	.LFB6
 9710 00c4 28000000 		.4byte	.LFE6
 9711 00c8 00000000 		.4byte	.LFB18
 9712 00cc 0A000000 		.4byte	.LFE18
 9713 00d0 00000000 		.4byte	.LFB40
 9714 00d4 10000000 		.4byte	.LFE40
ARM GAS  C:\Users\USUARIO\AppData\Local\Temp\cchqzDaB.s 			page 206


 9715 00d8 00000000 		.4byte	.LFB69
 9716 00dc 26000000 		.4byte	.LFE69
 9717 00e0 00000000 		.4byte	.LFB44
 9718 00e4 10000000 		.4byte	.LFE44
 9719 00e8 00000000 		.4byte	.LFB8
 9720 00ec 1C000000 		.4byte	.LFE8
 9721 00f0 00000000 		.4byte	.LFB66
 9722 00f4 10000000 		.4byte	.LFE66
 9723 00f8 00000000 		.4byte	.LFB71
 9724 00fc 20000000 		.4byte	.LFE71
 9725 0100 00000000 		.4byte	.LFB61
 9726 0104 10000000 		.4byte	.LFE61
 9727 0108 00000000 		.4byte	.LFB70
 9728 010c 20000000 		.4byte	.LFE70
 9729 0110 00000000 		.4byte	.LFB65
 9730 0114 10000000 		.4byte	.LFE65
 9731 0118 00000000 		.4byte	.LFB72
 9732 011c 60000000 		.4byte	.LFE72
 9733 0120 00000000 		.4byte	.LFB68
 9734 0124 10000000 		.4byte	.LFE68
 9735 0128 00000000 		.4byte	.LFB42
 9736 012c 10000000 		.4byte	.LFE42
 9737 0130 00000000 		.4byte	.LFB88
 9738 0134 44000000 		.4byte	.LFE88
 9739 0138 00000000 		.4byte	.LFB10
 9740 013c 1E000000 		.4byte	.LFE10
 9741 0140 00000000 		.4byte	.LFB73
 9742 0144 6C000000 		.4byte	.LFE73
 9743 0148 00000000 		.4byte	.LFB76
 9744 014c AE000000 		.4byte	.LFE76
 9745 0150 00000000 		.4byte	.LFB77
 9746 0154 EE000000 		.4byte	.LFE77
 9747 0158 00000000 		.4byte	.LFB78
 9748 015c 62000000 		.4byte	.LFE78
 9749 0160 00000000 		.4byte	.LFB79
 9750 0164 7C000000 		.4byte	.LFE79
 9751 0168 00000000 		.4byte	.LFB80
 9752 016c 16000000 		.4byte	.LFE80
 9753 0170 00000000 		.4byte	.LFB81
 9754 0174 08000000 		.4byte	.LFE81
 9755 0178 00000000 		.4byte	.LFB82
 9756 017c 08000000 		.4byte	.LFE82
 9757 0180 00000000 		.4byte	.LFB83
 9758 0184 08000000 		.4byte	.LFE83
 9759 0188 00000000 		.4byte	.LFB84
 9760 018c 68000000 		.4byte	.LFE84
 9761 0190 00000000 		.4byte	.LFB85
 9762 0194 30000000 		.4byte	.LFE85
 9763 0198 00000000 		.4byte	.LFB74
 9764 019c 6C000000 		.4byte	.LFE74
 9765 01a0 00000000 		.4byte	.LFB75
 9766 01a4 78000000 		.4byte	.LFE75
 9767 01a8 00000000 		.4byte	.LFB86
 9768 01ac 20000000 		.4byte	.LFE86
 9769 01b0 00000000 		.4byte	.LFB87
 9770 01b4 10000000 		.4byte	.LFE87
 9771 01b8 00000000 		.4byte	.LFB90
ARM GAS  C:\Users\USUARIO\AppData\Local\Temp\cchqzDaB.s 			page 207


 9772 01bc 08000000 		.4byte	.LFE90
 9773 01c0 00000000 		.4byte	.LFB91
 9774 01c4 0E000000 		.4byte	.LFE91
 9775 01c8 00000000 		.4byte	.LFB92
 9776 01cc 10000000 		.4byte	.LFE92
 9777 01d0 00000000 		.4byte	.LFB93
 9778 01d4 1C000000 		.4byte	.LFE93
 9779 01d8 00000000 		.4byte	.LFB94
 9780 01dc 64000000 		.4byte	.LFE94
 9781 01e0 00000000 		.4byte	.LFB95
 9782 01e4 08000000 		.4byte	.LFE95
 9783 01e8 00000000 		.4byte	.LFB96
 9784 01ec 0A000000 		.4byte	.LFE96
 9785 01f0 00000000 		.4byte	.LFB97
 9786 01f4 68000000 		.4byte	.LFE97
 9787 01f8 00000000 		.4byte	.LFB98
 9788 01fc 34000000 		.4byte	.LFE98
 9789 0200 00000000 		.4byte	.LFB99
 9790 0204 18000000 		.4byte	.LFE99
 9791 0208 00000000 		.4byte	0
 9792 020c 00000000 		.4byte	0
 9793              		.section	.debug_line,"",%progbits
 9794              	.Ldebug_line0:
 9795 0000 BA070000 		.section	.debug_str,"MS",%progbits,1
 9795      0200CA00 
 9795      00000201 
 9795      FB0E0D00 
 9795      01010101 
 9796              	.LASF131:
 9797 0000 43794465 		.ascii	"CyDelay\000"
 9797      6C617900 
 9798              	.LASF87:
 9799 0008 45544830 		.ascii	"ETH0_W51_Write\000"
 9799      5F573531 
 9799      5F577269 
 9799      746500
 9800              	.LASF126:
 9801 0017 53504930 		.ascii	"SPI0_ReadTxStatus\000"
 9801      5F526561 
 9801      64547853 
 9801      74617475 
 9801      7300
 9802              	.LASF59:
 9803 0029 45544830 		.ascii	"ETH0_GetSocketStatus\000"
 9803      5F476574 
 9803      536F636B 
 9803      65745374 
 9803      61747573 
 9804              	.LASF132:
 9805 003e 7374726C 		.ascii	"strlen\000"
 9805      656E00
 9806              	.LASF77:
 9807 0045 666C6167 		.ascii	"flags\000"
 9807      7300
 9808              	.LASF31:
 9809 004b 62756666 		.ascii	"buffer\000"
 9809      657200
ARM GAS  C:\Users\USUARIO\AppData\Local\Temp\cchqzDaB.s 			page 208


 9810              	.LASF49:
 9811 0052 45544830 		.ascii	"ETH0_W51_WriteBlock\000"
 9811      5F573531 
 9811      5F577269 
 9811      7465426C 
 9811      6F636B00 
 9812              	.LASF57:
 9813 0066 45544830 		.ascii	"ETH0_ExecuteSocketCommand\000"
 9813      5F457865 
 9813      63757465 
 9813      536F636B 
 9813      6574436F 
 9814              	.LASF8:
 9815 0080 756E7369 		.ascii	"unsigned int\000"
 9815      676E6564 
 9815      20696E74 
 9815      00
 9816              	.LASF79:
 9817 008d 45544830 		.ascii	"ETH0_ParseIP\000"
 9817      5F506172 
 9817      73654950 
 9817      00
 9818              	.LASF26:
 9819 009a 45544830 		.ascii	"ETH0_SetTxMemSize\000"
 9819      5F536574 
 9819      54784D65 
 9819      6D53697A 
 9819      6500
 9820              	.LASF61:
 9821 00ac 45544830 		.ascii	"ETH0_GetSocketRxSize\000"
 9821      5F476574 
 9821      536F636B 
 9821      65745278 
 9821      53697A65 
 9822              	.LASF88:
 9823 00c1 45544830 		.ascii	"ETH0_StringMAC\000"
 9823      5F537472 
 9823      696E674D 
 9823      414300
 9824              	.LASF46:
 9825 00d0 45544830 		.ascii	"ETH0_SetSocketMode\000"
 9825      5F536574 
 9825      536F636B 
 9825      65744D6F 
 9825      646500
 9826              	.LASF66:
 9827 00e3 45544830 		.ascii	"ETH0_GetTxFreeSize\000"
 9827      5F476574 
 9827      54784672 
 9827      65655369 
 9827      7A6500
 9828              	.LASF33:
 9829 00f6 45544830 		.ascii	"ETH0_SetSourceIP\000"
 9829      5F536574 
 9829      536F7572 
 9829      63654950 
 9829      00
ARM GAS  C:\Users\USUARIO\AppData\Local\Temp\cchqzDaB.s 			page 209


 9830              	.LASF24:
 9831 0107 6D6F6465 		.ascii	"mode\000"
 9831      00
 9832              	.LASF101:
 9833 010c 67617465 		.ascii	"gateway\000"
 9833      77617900 
 9834              	.LASF122:
 9835 0114 53504930 		.ascii	"SPI0_initVar\000"
 9835      5F696E69 
 9835      74566172 
 9835      00
 9836              	.LASF81:
 9837 0121 64696769 		.ascii	"digit\000"
 9837      7400
 9838              	.LASF44:
 9839 0127 45544830 		.ascii	"ETH0_SetSocketTxWritePtr\000"
 9839      5F536574 
 9839      536F636B 
 9839      65745478 
 9839      57726974 
 9840              	.LASF21:
 9841 0140 53657276 		.ascii	"ServerFlag\000"
 9841      6572466C 
 9841      616700
 9842              	.LASF75:
 9843 014b 45544830 		.ascii	"ETH0_W51_ReadBlock\000"
 9843      5F573531 
 9843      5F526561 
 9843      64426C6F 
 9843      636B00
 9844              	.LASF113:
 9845 015e 45544830 		.ascii	"ETH0_TcpSend\000"
 9845      5F546370 
 9845      53656E64 
 9845      00
 9846              	.LASF114:
 9847 016b 54785369 		.ascii	"TxSize\000"
 9847      7A6500
 9848              	.LASF99:
 9849 0172 45544830 		.ascii	"ETH0_Init\000"
 9849      5F496E69 
 9849      7400
 9850              	.LASF45:
 9851 017c 45544830 		.ascii	"ETH0_SetSocketRxReadPtr\000"
 9851      5F536574 
 9851      536F636B 
 9851      65745278 
 9851      52656164 
 9852              	.LASF102:
 9853 0194 45544830 		.ascii	"ETH0_Start\000"
 9853      5F537461 
 9853      727400
 9854              	.LASF35:
 9855 019f 45544830 		.ascii	"ETH0_SetSocketDestIP\000"
 9855      5F536574 
 9855      536F636B 
 9855      65744465 
ARM GAS  C:\Users\USUARIO\AppData\Local\Temp\cchqzDaB.s 			page 210


 9855      73744950 
 9856              	.LASF12:
 9857 01b4 666C6F61 		.ascii	"float\000"
 9857      7400
 9858              	.LASF70:
 9859 01ba 62617365 		.ascii	"base\000"
 9859      00
 9860              	.LASF51:
 9861 01bf 636F756E 		.ascii	"count\000"
 9861      7400
 9862              	.LASF30:
 9863 01c5 696E6465 		.ascii	"index\000"
 9863      7800
 9864              	.LASF125:
 9865 01cb 43794465 		.ascii	"CyDelayUs\000"
 9865      6C617955 
 9865      7300
 9866              	.LASF86:
 9867 01d5 72657375 		.ascii	"result\000"
 9867      6C7400
 9868              	.LASF7:
 9869 01dc 6C6F6E67 		.ascii	"long long unsigned int\000"
 9869      206C6F6E 
 9869      6720756E 
 9869      7369676E 
 9869      65642069 
 9870              	.LASF55:
 9871 01f3 45544830 		.ascii	"ETH0_GetSourceIP\000"
 9871      5F476574 
 9871      536F7572 
 9871      63654950 
 9871      00
 9872              	.LASF100:
 9873 0204 7375626E 		.ascii	"subnet\000"
 9873      657400
 9874              	.LASF62:
 9875 020b 45544830 		.ascii	"ETH0_GetRxSize\000"
 9875      5F476574 
 9875      52785369 
 9875      7A6500
 9876              	.LASF134:
 9877 021a 474E5520 		.ascii	"GNU C11 5.4.1 20160609 (release) [ARM/embedded-5-br"
 9877      43313120 
 9877      352E342E 
 9877      31203230 
 9877      31363036 
 9878 024d 616E6368 		.ascii	"anch revision 237715] -mcpu=cortex-m3 -mthumb -g -O"
 9878      20726576 
 9878      6973696F 
 9878      6E203233 
 9878      37373135 
 9879 0280 67202D66 		.ascii	"g -ffunction-sections -ffat-lto-objects\000"
 9879      66756E63 
 9879      74696F6E 
 9879      2D736563 
 9879      74696F6E 
 9880              	.LASF82:
ARM GAS  C:\Users\USUARIO\AppData\Local\Temp\cchqzDaB.s 			page 211


 9881 02a8 636F756E 		.ascii	"counter\000"
 9881      74657200 
 9882              	.LASF85:
 9883 02b0 6D616353 		.ascii	"macString\000"
 9883      7472696E 
 9883      6700
 9884              	.LASF60:
 9885 02ba 45544830 		.ascii	"ETH0_W51_Read16\000"
 9885      5F573531 
 9885      5F526561 
 9885      64313600 
 9886              	.LASF69:
 9887 02ca 6F666673 		.ascii	"offset\000"
 9887      657400
 9888              	.LASF106:
 9889 02d1 45544830 		.ascii	"ETH0_SocketRxDataWaiting\000"
 9889      5F536F63 
 9889      6B657452 
 9889      78446174 
 9889      61576169 
 9890              	.LASF83:
 9891 02ea 64696E64 		.ascii	"dindex\000"
 9891      657800
 9892              	.LASF25:
 9893 02f1 45544830 		.ascii	"ETH0_SetMode\000"
 9893      5F536574 
 9893      4D6F6465 
 9893      00
 9894              	.LASF20:
 9895 02fe 536F7572 		.ascii	"SourcePort\000"
 9895      6365506F 
 9895      727400
 9896              	.LASF93:
 9897 0309 45544830 		.ascii	"ETH0_SetIP\000"
 9897      5F536574 
 9897      495000
 9898              	.LASF39:
 9899 0314 45544830 		.ascii	"ETH0_SetIR\000"
 9899      5F536574 
 9899      495200
 9900              	.LASF108:
 9901 031f 45544830 		.ascii	"ETH0_TcpStartServer\000"
 9901      5F546370 
 9901      53746172 
 9901      74536572 
 9901      76657200 
 9902              	.LASF64:
 9903 0333 7365636F 		.ascii	"second\000"
 9903      6E6400
 9904              	.LASF105:
 9905 033a 45544830 		.ascii	"ETH0_SocketEstablished\000"
 9905      5F536F63 
 9905      6B657445 
 9905      73746162 
 9905      6C697368 
 9906              	.LASF42:
 9907 0351 706F7274 		.ascii	"port\000"
ARM GAS  C:\Users\USUARIO\AppData\Local\Temp\cchqzDaB.s 			page 212


 9907      00
 9908              	.LASF40:
 9909 0356 45544830 		.ascii	"ETH0_W51_Write16\000"
 9909      5F573531 
 9909      5F577269 
 9909      74653136 
 9909      00
 9910              	.LASF14:
 9911 0367 63686172 		.ascii	"char\000"
 9911      00
 9912              	.LASF29:
 9913 036c 45544830 		.ascii	"ETH0_W51_SetIP\000"
 9913      5F573531 
 9913      5F536574 
 9913      495000
 9914              	.LASF10:
 9915 037b 75696E74 		.ascii	"uint16\000"
 9915      313600
 9916              	.LASF127:
 9917 0382 53504930 		.ascii	"SPI0_ClearRxBuffer\000"
 9917      5F436C65 
 9917      61725278 
 9917      42756666 
 9917      657200
 9918              	.LASF84:
 9919 0395 45544830 		.ascii	"ETH0_ParseMAC\000"
 9919      5F506172 
 9919      73654D41 
 9919      4300
 9920              	.LASF116:
 9921 03a3 45544830 		.ascii	"ETH0_TcpReceive\000"
 9921      5F546370 
 9921      52656365 
 9921      69766500 
 9922              	.LASF90:
 9923 03b3 69704279 		.ascii	"ipBytes\000"
 9923      74657300 
 9924              	.LASF43:
 9925 03bb 45544830 		.ascii	"ETH0_SetSocketDestPort\000"
 9925      5F536574 
 9925      536F636B 
 9925      65744465 
 9925      7374506F 
 9926              	.LASF98:
 9927 03d2 45544830 		.ascii	"ETH0_SocketClose\000"
 9927      5F536F63 
 9927      6B657443 
 9927      6C6F7365 
 9927      00
 9928              	.LASF74:
 9929 03e3 45544830 		.ascii	"ETH0_SocketSend\000"
 9929      5F536F63 
 9929      6B657453 
 9929      656E6400 
 9930              	.LASF53:
 9931 03f3 45544830 		.ascii	"ETH0_GetSourceMAC\000"
 9931      5F476574 
ARM GAS  C:\Users\USUARIO\AppData\Local\Temp\cchqzDaB.s 			page 213


 9931      536F7572 
 9931      63654D41 
 9931      4300
 9932              	.LASF6:
 9933 0405 6C6F6E67 		.ascii	"long long int\000"
 9933      206C6F6E 
 9933      6720696E 
 9933      7400
 9934              	.LASF109:
 9935 0413 45544830 		.ascii	"ETH0_TcpStartServerWait\000"
 9935      5F546370 
 9935      53746172 
 9935      74536572 
 9935      76657257 
 9936              	.LASF28:
 9937 042b 45544830 		.ascii	"ETH0_SetRxMemSize\000"
 9937      5F536574 
 9937      52784D65 
 9937      6D53697A 
 9937      6500
 9938              	.LASF52:
 9939 043d 45544830 		.ascii	"ETH0_W51_GetMAC\000"
 9939      5F573531 
 9939      5F476574 
 9939      4D414300 
 9940              	.LASF96:
 9941 044d 45544830 		.ascii	"ETH0_GetMAC\000"
 9941      5F476574 
 9941      4D414300 
 9942              	.LASF72:
 9943 0459 45544830 		.ascii	"ETH0_GetSocketRxReadPtr\000"
 9943      5F476574 
 9943      536F636B 
 9943      65745278 
 9943      52656164 
 9944              	.LASF18:
 9945 0471 50726F74 		.ascii	"Protocol\000"
 9945      6F636F6C 
 9945      00
 9946              	.LASF94:
 9947 047a 45544830 		.ascii	"ETH0_GetIP\000"
 9947      5F476574 
 9947      495000
 9948              	.LASF27:
 9949 0485 73697A65 		.ascii	"size\000"
 9949      00
 9950              	.LASF11:
 9951 048a 75696E74 		.ascii	"uint32\000"
 9951      333200
 9952              	.LASF111:
 9953 0491 45544830 		.ascii	"ETH0_TcpConnected\000"
 9953      5F546370 
 9953      436F6E6E 
 9953      65637465 
 9953      6400
 9954              	.LASF47:
 9955 04a3 45544830 		.ascii	"ETH0_SetSocketCommand\000"
ARM GAS  C:\Users\USUARIO\AppData\Local\Temp\cchqzDaB.s 			page 214


 9955      5F536574 
 9955      536F636B 
 9955      6574436F 
 9955      6D6D616E 
 9956              	.LASF34:
 9957 04b9 45544830 		.ascii	"ETH0_SetSubnetMask\000"
 9957      5F536574 
 9957      5375626E 
 9957      65744D61 
 9957      736B00
 9958              	.LASF80:
 9959 04cc 69705374 		.ascii	"ipString\000"
 9959      72696E67 
 9959      00
 9960              	.LASF54:
 9961 04d5 45544830 		.ascii	"ETH0_W51_GetIP\000"
 9961      5F573531 
 9961      5F476574 
 9961      495000
 9962              	.LASF118:
 9963 04e4 45544830 		.ascii	"ETH0_TcpPrint\000"
 9963      5F546370 
 9963      5072696E 
 9963      7400
 9964              	.LASF76:
 9965 04f2 45544830 		.ascii	"ETH0_ProcessRxData\000"
 9965      5F50726F 
 9965      63657373 
 9965      52784461 
 9965      746100
 9966              	.LASF16:
 9967 0505 6C6F6E67 		.ascii	"long double\000"
 9967      20646F75 
 9967      626C6500 
 9968              	.LASF124:
 9969 0511 45544830 		.ascii	"ETH0_SOCKET_RX_BASE\000"
 9969      5F534F43 
 9969      4B45545F 
 9969      52585F42 
 9969      41534500 
 9970              	.LASF22:
 9971 0525 45544830 		.ascii	"ETH0_SOCKET\000"
 9971      5F534F43 
 9971      4B455400 
 9972              	.LASF107:
 9973 0531 45544830 		.ascii	"ETH0_TcpOpen\000"
 9973      5F546370 
 9973      4F70656E 
 9973      00
 9974              	.LASF2:
 9975 053e 73686F72 		.ascii	"short int\000"
 9975      7420696E 
 9975      7400
 9976              	.LASF4:
 9977 0548 6C6F6E67 		.ascii	"long int\000"
 9977      20696E74 
 9977      00
ARM GAS  C:\Users\USUARIO\AppData\Local\Temp\cchqzDaB.s 			page 215


 9978              	.LASF50:
 9979 0551 6C656E67 		.ascii	"length\000"
 9979      746800
 9980              	.LASF104:
 9981 0558 73746174 		.ascii	"status\000"
 9981      757300
 9982              	.LASF130:
 9983 055f 53504930 		.ascii	"SPI0_ReadRxData\000"
 9983      5F526561 
 9983      64527844 
 9983      61746100 
 9984              	.LASF92:
 9985 056f 74656D70 		.ascii	"temp\000"
 9985      00
 9986              	.LASF110:
 9987 0574 45544830 		.ascii	"ETH0_TcpConnect\000"
 9987      5F546370 
 9987      436F6E6E 
 9987      65637400 
 9988              	.LASF128:
 9989 0584 53504930 		.ascii	"SPI0_WriteTxData\000"
 9989      5F577269 
 9989      74655478 
 9989      44617461 
 9989      00
 9990              	.LASF89:
 9991 0595 45544830 		.ascii	"ETH0_StringIP\000"
 9991      5F537472 
 9991      696E6749 
 9991      5000
 9992              	.LASF133:
 9993 05a3 53504930 		.ascii	"SPI0_Start\000"
 9993      5F537461 
 9993      727400
 9994              	.LASF91:
 9995 05ae 776F726B 		.ascii	"work\000"
 9995      00
 9996              	.LASF56:
 9997 05b3 45544830 		.ascii	"ETH0_GetSocketCommand\000"
 9997      5F476574 
 9997      536F636B 
 9997      6574436F 
 9997      6D6D616E 
 9998              	.LASF36:
 9999 05c9 736F636B 		.ascii	"socket\000"
 9999      657400
 10000              	.LASF115:
 10001 05d0 46726565 		.ascii	"FreeSpace\000"
 10001      53706163 
 10001      6500
 10002              	.LASF78:
 10003 05da 45544830 		.ascii	"ETH0_W51_Read\000"
 10003      5F573531 
 10003      5F526561 
 10003      6400
 10004              	.LASF38:
 10005 05e8 45544830 		.ascii	"ETH0_SetSourceMAC\000"
ARM GAS  C:\Users\USUARIO\AppData\Local\Temp\cchqzDaB.s 			page 216


 10005      5F536574 
 10005      536F7572 
 10005      63654D41 
 10005      4300
 10006              	.LASF71:
 10007 05fa 506F696E 		.ascii	"PointerOffset\000"
 10007      7465724F 
 10007      66667365 
 10007      7400
 10008              	.LASF95:
 10009 0608 45544830 		.ascii	"ETH0_SetMAC\000"
 10009      5F536574 
 10009      4D414300 
 10010              	.LASF112:
 10011 0614 45544830 		.ascii	"ETH0_TcpDisconnect\000"
 10011      5F546370 
 10011      44697363 
 10011      6F6E6E65 
 10011      637400
 10012              	.LASF123:
 10013 0627 45544830 		.ascii	"ETH0_SOCKET_TX_BASE\000"
 10013      5F534F43 
 10013      4B45545F 
 10013      54585F42 
 10013      41534500 
 10014              	.LASF17:
 10015 063b 73697A65 		.ascii	"sizetype\000"
 10015      74797065 
 10015      00
 10016              	.LASF119:
 10017 0644 45544830 		.ascii	"ETH0_SocketConfig\000"
 10017      5F536F63 
 10017      6B657443 
 10017      6F6E6669 
 10017      6700
 10018              	.LASF5:
 10019 0656 6C6F6E67 		.ascii	"long unsigned int\000"
 10019      20756E73 
 10019      69676E65 
 10019      6420696E 
 10019      7400
 10020              	.LASF68:
 10021 0668 45544830 		.ascii	"ETH0_ProcessTxData\000"
 10021      5F50726F 
 10021      63657373 
 10021      54784461 
 10021      746100
 10022              	.LASF136:
 10023 067b 443A5C4C 		.ascii	"D:\\Laboratorio\\Camara Climatica\\2021\\Camara Cli"
 10023      61626F72 
 10023      61746F72 
 10023      696F5C43 
 10023      616D6172 
 10024 06aa 6D617469 		.ascii	"matica Peltier Touch Asemp Zomac SAS 256L #0045886X"
 10024      63612050 
 10024      656C7469 
 10024      65722054 
ARM GAS  C:\Users\USUARIO\AppData\Local\Temp\cchqzDaB.s 			page 217


 10024      6F756368 
 10025 06dd 58204F50 		.ascii	"X OP2021161\\Firmware Psoc\\LCD2\\CamaraClimatica.c"
 10025      32303231 
 10025      3136315C 
 10025      4669726D 
 10025      77617265 
 10026 070d 7964736E 		.ascii	"ydsn\000"
 10026      00
 10027              	.LASF120:
 10028 0712 45544830 		.ascii	"ETH0_SubnetMask\000"
 10028      5F537562 
 10028      6E65744D 
 10028      61736B00 
 10029              	.LASF19:
 10030 0722 536F636B 		.ascii	"SocketFlags\000"
 10030      6574466C 
 10030      61677300 
 10031              	.LASF15:
 10032 072e 63797374 		.ascii	"cystatus\000"
 10032      61747573 
 10032      00
 10033              	.LASF48:
 10034 0737 45544830 		.ascii	"ETH0_SetSocketIR\000"
 10034      5F536574 
 10034      536F636B 
 10034      65744952 
 10034      00
 10035              	.LASF1:
 10036 0748 756E7369 		.ascii	"unsigned char\000"
 10036      676E6564 
 10036      20636861 
 10036      7200
 10037              	.LASF41:
 10038 0756 45544830 		.ascii	"ETH0_SetSocketSourcePort\000"
 10038      5F536574 
 10038      536F636B 
 10038      6574536F 
 10038      75726365 
 10039              	.LASF58:
 10040 076f 74696D65 		.ascii	"timeout\000"
 10040      6F757400 
 10041              	.LASF63:
 10042 0777 66697273 		.ascii	"first\000"
 10042      7400
 10043              	.LASF103:
 10044 077d 45544830 		.ascii	"ETH0_SocketProcessConnections\000"
 10044      5F536F63 
 10044      6B657450 
 10044      726F6365 
 10044      7373436F 
 10045              	.LASF37:
 10046 079b 45544830 		.ascii	"ETH0_W51_SetMAC\000"
 10046      5F573531 
 10046      5F536574 
 10046      4D414300 
 10047              	.LASF23:
 10048 07ab 61646472 		.ascii	"addr\000"
ARM GAS  C:\Users\USUARIO\AppData\Local\Temp\cchqzDaB.s 			page 218


 10048      00
 10049              	.LASF67:
 10050 07b0 45544830 		.ascii	"ETH0_GetSocketTxWritePtr\000"
 10050      5F476574 
 10050      536F636B 
 10050      65745478 
 10050      57726974 
 10051              	.LASF129:
 10052 07c9 53504930 		.ascii	"SPI0_GetRxBufferSize\000"
 10052      5F476574 
 10052      52784275 
 10052      66666572 
 10052      53697A65 
 10053              	.LASF0:
 10054 07de 7369676E 		.ascii	"signed char\000"
 10054      65642063 
 10054      68617200 
 10055              	.LASF3:
 10056 07ea 73686F72 		.ascii	"short unsigned int\000"
 10056      7420756E 
 10056      7369676E 
 10056      65642069 
 10056      6E7400
 10057              	.LASF32:
 10058 07fd 45544830 		.ascii	"ETH0_SetGatewayAddress\000"
 10058      5F536574 
 10058      47617465 
 10058      77617941 
 10058      64647265 
 10059              	.LASF117:
 10060 0814 52785369 		.ascii	"RxSize\000"
 10060      7A6500
 10061              	.LASF73:
 10062 081b 45544830 		.ascii	"ETH0_GetSocketIR\000"
 10062      5F476574 
 10062      536F636B 
 10062      65744952 
 10062      00
 10063              	.LASF9:
 10064 082c 75696E74 		.ascii	"uint8\000"
 10064      3800
 10065              	.LASF13:
 10066 0832 646F7562 		.ascii	"double\000"
 10066      6C6500
 10067              	.LASF135:
 10068 0839 47656E65 		.ascii	"Generated_Source\\PSoC5\\ETH0.c\000"
 10068      72617465 
 10068      645F536F 
 10068      75726365 
 10068      5C50536F 
 10069              	.LASF97:
 10070 0857 45544830 		.ascii	"ETH0_SocketOpen\000"
 10070      5F536F63 
 10070      6B65744F 
 10070      70656E00 
 10071              	.LASF65:
 10072 0867 45544830 		.ascii	"ETH0_GetSocketTxFree\000"
ARM GAS  C:\Users\USUARIO\AppData\Local\Temp\cchqzDaB.s 			page 219


 10072      5F476574 
 10072      536F636B 
 10072      65745478 
 10072      46726565 
 10073              	.LASF121:
 10074 087c 45544830 		.ascii	"ETH0_MAC\000"
 10074      5F4D4143 
 10074      00
 10075              		.ident	"GCC: (GNU Tools for ARM Embedded Processors) 5.4.1 20160609 (release) [ARM/embedded-5-bran
