ARM GAS  C:\Users\USUARIO\AppData\Local\Temp\ccWuTYF0.s 			page 1


   1              		.syntax unified
   2              		.cpu cortex-m3
   3              		.fpu softvfp
   4              		.eabi_attribute 20, 1
   5              		.eabi_attribute 21, 1
   6              		.eabi_attribute 23, 3
   7              		.eabi_attribute 24, 1
   8              		.eabi_attribute 25, 1
   9              		.eabi_attribute 26, 1
  10              		.eabi_attribute 30, 1
  11              		.eabi_attribute 34, 1
  12              		.eabi_attribute 18, 4
  13              		.thumb
  14              		.syntax unified
  15              		.file	"funciones.c"
  16              		.text
  17              	.Ltext0:
  18              		.cfi_sections	.debug_frame
  19              		.global	__aeabi_f2iz
  20              		.global	__aeabi_i2f
  21              		.global	__aeabi_fsub
  22              		.global	__aeabi_fmul
  23              		.global	__aeabi_f2uiz
  24              		.section	.text.extraeDecimal,"ax",%progbits
  25              		.align	2
  26              		.global	extraeDecimal
  27              		.thumb
  28              		.thumb_func
  29              		.type	extraeDecimal, %function
  30              	extraeDecimal:
  31              	.LFB64:
  32              		.file 1 "funciones.c"
   1:funciones.c   **** /* ========================================
   2:funciones.c   ****  *
   3:funciones.c   ****  * Copyright YOUR COMPANY, THE YEAR
   4:funciones.c   ****  * All Rights Reserved
   5:funciones.c   ****  * UNPUBLISHED, LICENSED SOFTWARE.
   6:funciones.c   ****  *
   7:funciones.c   ****  * CONFIDENTIAL AND PROPRIETARY INFORMATION
   8:funciones.c   ****  * WHICH IS THE PROPERTY OF your company.
   9:funciones.c   ****  *
  10:funciones.c   ****  * ========================================
  11:funciones.c   **** */
  12:funciones.c   **** #include "funciones.h"
  13:funciones.c   **** #include "removeOffsetNoise.h"
  14:funciones.c   **** #include "getResistance.h"
  15:funciones.c   **** #include "MyServer.h"
  16:funciones.c   **** #include <stdlib.h>
  17:funciones.c   **** #include <stdio.h>
  18:funciones.c   **** 
  19:funciones.c   **** 
  20:funciones.c   **** int8 Regular[12]={0,3,3,6,1,4,6,2,5,0,3,5};
  21:funciones.c   **** int8 Bisiesto[12]={0,3,4,0,2,5,0,3,6,1,4,6};
  22:funciones.c   **** 
  23:funciones.c   **** int8 prueba[80];
  24:funciones.c   **** short Humidificar=0,flagHumedad=0,humidificador=0,desconectoTemperatura=OFF,desconectoHumedad=OFF,f
  25:funciones.c   **** uint8 f,T1Humedad,T2Humedad,T3Humedad,T1,T2,T3,tDisplay=0;
ARM GAS  C:\Users\USUARIO\AppData\Local\Temp\ccWuTYF0.s 			page 2


  26:funciones.c   **** uint16 tdehumidificador,thumidificador,tllenado,data=0,data2=0,datacount=0,pwm2=0,tlevel=0,tlevelH=
  27:funciones.c   **** float RH2,Tam,Humedad,humedadDisplay=0.0,minH=0.0,maxH=0.0;
  28:funciones.c   **** float promedioH[80];
  29:funciones.c   **** float promedioTa[80];
  30:funciones.c   **** 
  31:funciones.c   **** int16 offset;
  32:funciones.c   **** int16 coldJnTemp;
  33:funciones.c   **** int32 tcColdJnuVolt;
  34:funciones.c   **** int32 hotJnCount;
  35:funciones.c   **** int32 filHotJnCount;
  36:funciones.c   **** int32 tcHotJnuVolt;
  37:funciones.c   **** int32 tcuVolt;
  38:funciones.c   **** int32 tcTemp;
  39:funciones.c   **** char displayStr[100];	
  40:funciones.c   **** char Str[100];
  41:funciones.c   **** char Str2[100];
  42:funciones.c   **** uint8 first = 0;  
  43:funciones.c   **** uint8_t i,n,PantallaPrincipal,Programa,Opcion2,Derivativo,Integral,MediaMovil,MediaMovil2,Tciclo,Aj
  44:funciones.c   **** uint16 ctr,SetpointH,SetpointHAnt,derivativo_ant,contador;
  45:funciones.c   **** float Setpoint,SetpointAnt;
  46:funciones.c   **** uint32_t output,tGrafica;
  47:funciones.c   **** short flagButton0,flagButton1,flagButton2,flagButton3,dibujo,pulsoAumentar,pulsoDisminuir,flagBorra
  48:funciones.c   **** short estadoCR2,estadoCR3,inicioControlT,inicioControlH;
  49:funciones.c   **** float valor,pendiente,Ganancia,GananciaIn,vacio,pwmPeltier;
  50:funciones.c   **** int32  Temperature2;
  51:funciones.c   **** 
  52:funciones.c   **** #define RX_BUFFER_SIZE  10
  53:funciones.c   **** char Rx_Buffer[RX_BUFFER_SIZE+1];
  54:funciones.c   **** char Rx_Buffer2[RX_BUFFER_SIZE+1];
  55:funciones.c   **** uint8 RX_Wr_Index=0;
  56:funciones.c   **** uint8 RX_Rd_Index=0;
  57:funciones.c   **** uint8 RX_Counter=0;
  58:funciones.c   **** 
  59:funciones.c   **** char Rx_Buffer3[RX_BUFFER_SIZE+1];
  60:funciones.c   **** char Rx_Buffer4[RX_BUFFER_SIZE+1];
  61:funciones.c   **** uint8 RX_Wr_Index2=0;
  62:funciones.c   **** uint8 RX_Rd_Index2=0;
  63:funciones.c   **** uint8 RX_Counter2=0;
  64:funciones.c   **** 
  65:funciones.c   **** uint8 i2cbuf[4];
  66:funciones.c   **** uint16 pwm1=0;
  67:funciones.c   **** uint8 Dato2,Dato3,Dato_Exitoso,Dato_Exitoso2,Menu,MenuAntt,MenuAnt,Menu2,MenuAntt2,z,TipoClave,Segm
  68:funciones.c   **** uint8 Dia,Mes,Year,Hora,Minuto,Segundo,dow;
  69:funciones.c   **** short Inicio,Inicio2,EstadoPaso,entro,GuardaEEPROM,rampa,Minutos,Horas,flagTemperatura,x1,x10,x100,
  70:funciones.c   **** uint8 Password[4];
  71:funciones.c   **** uint8 tiempo_esterilizacion,y,hEst,mEst,hEstp,mEstp,hEstpAnt,mEstpAnt,Segmento,conteo;
  72:funciones.c   **** uint16 tiemporeset,TiempoControl,tiemporecta,tiemposetpoint,tinicio,tiempocalentamiento,tiempoup,ti
  73:funciones.c   **** short mensaje,Lectura2,flag_setpoint,flag_tiempocalentamiento,Lectura,flagup,flagdn,flagRampa,flag_
  74:funciones.c   **** short Finalizo,conteoPregunta,grafica,imprime,Infinito,flagControlT,flagControlH,Controlando,flag_c
  75:funciones.c   **** float X[2]={0.0,0.0};
  76:funciones.c   **** float Temperatura,Temperatura2,Aumento,PendienteActual,DifPendiente,TempeInicial,Pendiente,Temperat
  77:funciones.c   **** float error,Potencia,TpulsoMax,TpulsoMax2,Tpulsomin,Tpulsomin2;
  78:funciones.c   **** uint16 TiempoActual,MinutosActual,HorasActual,Tiempo,TiempoRampa,tPregunta;
  79:funciones.c   **** uint8 dataReady = 0u,GananciaR;
  80:funciones.c   **** uint16 result;
  81:funciones.c   **** float Prom,Prom2,V0,V1,Temperature;
  82:funciones.c   **** uint8 YearTx=0,MesTx=0,DiaTx=0,HoraTx=0,MinutoTx=0,dowTx=0;
ARM GAS  C:\Users\USUARIO\AppData\Local\Temp\ccWuTYF0.s 			page 3


  83:funciones.c   **** 
  84:funciones.c   **** int32 rtdRes[2];
  85:funciones.c   **** int32 rtdTemp[2];
  86:funciones.c   **** int32 vRef,filt;
  87:funciones.c   **** uint8 i,l,h,entero;
  88:funciones.c   **** uint8 ll,hh;
  89:funciones.c   **** int32 decTemp[2];
  90:funciones.c   **** uint16 decTemplf,decTemphf;
  91:funciones.c   **** int32 fracTemp[2];
  92:funciones.c   **** uint16 adcReading,presmV;
  93:funciones.c   **** uint32 lm35,tmp;
  94:funciones.c   **** float presion,Temporal,presionHorno,Tam;
  95:funciones.c   **** uint8 i;
  96:funciones.c   **** uint8 l2,h2,k,kk,tEnvioUSB,tmuestreoUSB,tmuestreoUSB_ant,controlH,controlT,controlR;
  97:funciones.c   **** float promedio2[20];
  98:funciones.c   **** 
  99:funciones.c   **** float promedioT1[90];
 100:funciones.c   **** float promedioT2[90];
 101:funciones.c   **** float promediolm35[20];
 102:funciones.c   **** 
 103:funciones.c   **** uint8 extraeDecimal(float data){
  33              		.loc 1 103 0
  34              		.cfi_startproc
  35              		@ args = 0, pretend = 0, frame = 0
  36              		@ frame_needed = 0, uses_anonymous_args = 0
  37              	.LVL0:
  38 0000 10B5     		push	{r4, lr}
  39              		.cfi_def_cfa_offset 8
  40              		.cfi_offset 4, -8
  41              		.cfi_offset 14, -4
  42 0002 0446     		mov	r4, r0
  43              	.LVL1:
 104:funciones.c   ****    float entero=0;
 105:funciones.c   ****    float tmp=0.0;
 106:funciones.c   ****    
 107:funciones.c   ****    entero=(int8)data;
  44              		.loc 1 107 0
  45 0004 FFF7FEFF 		bl	__aeabi_f2iz
  46              	.LVL2:
  47 0008 40B2     		sxtb	r0, r0
  48 000a FFF7FEFF 		bl	__aeabi_i2f
  49              	.LVL3:
 108:funciones.c   ****    tmp=(data-entero)*10;
  50              		.loc 1 108 0
  51 000e 0146     		mov	r1, r0
  52 0010 2046     		mov	r0, r4
  53              	.LVL4:
  54 0012 FFF7FEFF 		bl	__aeabi_fsub
  55              	.LVL5:
  56 0016 0349     		ldr	r1, .L3
  57 0018 FFF7FEFF 		bl	__aeabi_fmul
  58              	.LVL6:
 109:funciones.c   ****    return (uint8)tmp;
  59              		.loc 1 109 0
  60 001c FFF7FEFF 		bl	__aeabi_f2uiz
  61              	.LVL7:
 110:funciones.c   **** }
ARM GAS  C:\Users\USUARIO\AppData\Local\Temp\ccWuTYF0.s 			page 4


  62              		.loc 1 110 0
  63 0020 C0B2     		uxtb	r0, r0
  64 0022 10BD     		pop	{r4, pc}
  65              	.LVL8:
  66              	.L4:
  67              		.align	2
  68              	.L3:
  69 0024 00002041 		.word	1092616192
  70              		.cfi_endproc
  71              	.LFE64:
  72              		.size	extraeDecimal, .-extraeDecimal
  73              		.section	.text.extraeDecimal2,"ax",%progbits
  74              		.align	2
  75              		.global	extraeDecimal2
  76              		.thumb
  77              		.thumb_func
  78              		.type	extraeDecimal2, %function
  79              	extraeDecimal2:
  80              	.LFB65:
 111:funciones.c   **** 
 112:funciones.c   **** float extraeDecimal2(float data){
  81              		.loc 1 112 0
  82              		.cfi_startproc
  83              		@ args = 0, pretend = 0, frame = 0
  84              		@ frame_needed = 0, uses_anonymous_args = 0
  85              	.LVL9:
  86 0000 10B5     		push	{r4, lr}
  87              		.cfi_def_cfa_offset 8
  88              		.cfi_offset 4, -8
  89              		.cfi_offset 14, -4
  90 0002 0446     		mov	r4, r0
  91              	.LVL10:
 113:funciones.c   ****    float entero=0;
 114:funciones.c   ****    float tmp=0.0;
 115:funciones.c   ****    
 116:funciones.c   ****    entero=(int8)data;
  92              		.loc 1 116 0
  93 0004 FFF7FEFF 		bl	__aeabi_f2iz
  94              	.LVL11:
  95 0008 40B2     		sxtb	r0, r0
  96 000a FFF7FEFF 		bl	__aeabi_i2f
  97              	.LVL12:
 117:funciones.c   ****    tmp=(data-entero);
  98              		.loc 1 117 0
  99 000e 0146     		mov	r1, r0
 100 0010 2046     		mov	r0, r4
 101              	.LVL13:
 102 0012 FFF7FEFF 		bl	__aeabi_fsub
 103              	.LVL14:
 118:funciones.c   ****    return tmp;
 119:funciones.c   **** }
 104              		.loc 1 119 0
 105 0016 10BD     		pop	{r4, pc}
 106              		.cfi_endproc
 107              	.LFE65:
 108              		.size	extraeDecimal2, .-extraeDecimal2
 109              		.global	__aeabi_ui2f
ARM GAS  C:\Users\USUARIO\AppData\Local\Temp\ccWuTYF0.s 			page 5


 110              		.global	__aeabi_fdiv
 111              		.section	.text.inttofloat,"ax",%progbits
 112              		.align	2
 113              		.global	inttofloat
 114              		.thumb
 115              		.thumb_func
 116              		.type	inttofloat, %function
 117              	inttofloat:
 118              	.LFB66:
 120:funciones.c   **** 
 121:funciones.c   **** float inttofloat(uint8 decimal){
 119              		.loc 1 121 0
 120              		.cfi_startproc
 121              		@ args = 0, pretend = 0, frame = 0
 122              		@ frame_needed = 0, uses_anonymous_args = 0
 123              	.LVL15:
 124 0000 08B5     		push	{r3, lr}
 125              		.cfi_def_cfa_offset 8
 126              		.cfi_offset 3, -8
 127              		.cfi_offset 14, -4
 122:funciones.c   ****    float tmp;
 123:funciones.c   ****    tmp=decimal;
 128              		.loc 1 123 0
 129 0002 FFF7FEFF 		bl	__aeabi_ui2f
 130              	.LVL16:
 124:funciones.c   ****    return tmp/10;
 131              		.loc 1 124 0
 132 0006 0249     		ldr	r1, .L9
 133 0008 FFF7FEFF 		bl	__aeabi_fdiv
 134              	.LVL17:
 125:funciones.c   **** }
 135              		.loc 1 125 0
 136 000c 08BD     		pop	{r3, pc}
 137              	.L10:
 138 000e 00BF     		.align	2
 139              	.L9:
 140 0010 00002041 		.word	1092616192
 141              		.cfi_endproc
 142              	.LFE66:
 143              		.size	inttofloat, .-inttofloat
 144              		.section	.text.convert8,"ax",%progbits
 145              		.align	2
 146              		.global	convert8
 147              		.thumb
 148              		.thumb_func
 149              		.type	convert8, %function
 150              	convert8:
 151              	.LFB67:
 126:funciones.c   **** 
 127:funciones.c   **** uint8 convert8(uint16 data,uint8 nible){
 152              		.loc 1 127 0
 153              		.cfi_startproc
 154              		@ args = 0, pretend = 0, frame = 0
 155              		@ frame_needed = 0, uses_anonymous_args = 0
 156              		@ link register save eliminated.
 157              	.LVL18:
 128:funciones.c   ****     uint8 dato=0;
ARM GAS  C:\Users\USUARIO\AppData\Local\Temp\ccWuTYF0.s 			page 6


 129:funciones.c   ****     if(nible==0){
 158              		.loc 1 129 0
 159 0000 09B9     		cbnz	r1, .L12
 130:funciones.c   ****         dato=(uint8)data;   
 160              		.loc 1 130 0
 161 0002 C0B2     		uxtb	r0, r0
 162              	.LVL19:
 163 0004 7047     		bx	lr
 164              	.LVL20:
 165              	.L12:
 131:funciones.c   ****     }else if(nible==1){
 166              		.loc 1 131 0
 167 0006 0129     		cmp	r1, #1
 168 0008 01D1     		bne	.L14
 132:funciones.c   ****         dato=data>>8;
 169              		.loc 1 132 0
 170 000a 000A     		lsrs	r0, r0, #8
 171              	.LVL21:
 172 000c 7047     		bx	lr
 173              	.LVL22:
 174              	.L14:
 128:funciones.c   ****     if(nible==0){
 175              		.loc 1 128 0
 176 000e 0020     		movs	r0, #0
 177              	.LVL23:
 133:funciones.c   ****     }
 134:funciones.c   ****     return dato;
 135:funciones.c   **** }
 178              		.loc 1 135 0
 179 0010 7047     		bx	lr
 180              		.cfi_endproc
 181              	.LFE67:
 182              		.size	convert8, .-convert8
 183 0012 00BF     		.section	.text.convert16,"ax",%progbits
 184              		.align	2
 185              		.global	convert16
 186              		.thumb
 187              		.thumb_func
 188              		.type	convert16, %function
 189              	convert16:
 190              	.LFB68:
 136:funciones.c   **** 
 137:funciones.c   **** uint16 convert16(uint8 nibleh,uint8 niblel){
 191              		.loc 1 137 0
 192              		.cfi_startproc
 193              		@ args = 0, pretend = 0, frame = 0
 194              		@ frame_needed = 0, uses_anonymous_args = 0
 195              		@ link register save eliminated.
 196              	.LVL24:
 138:funciones.c   ****     uint16 temp,var;
 139:funciones.c   ****     temp=(uint16)nibleh;
 140:funciones.c   ****     var=temp<<8 | (uint16)niblel;
 141:funciones.c   ****     return var;
 142:funciones.c   **** }
 197              		.loc 1 142 0
 198 0000 41EA0020 		orr	r0, r1, r0, lsl #8
 199              	.LVL25:
ARM GAS  C:\Users\USUARIO\AppData\Local\Temp\ccWuTYF0.s 			page 7


 200 0004 7047     		bx	lr
 201              		.cfi_endproc
 202              	.LFE68:
 203              		.size	convert16, .-convert16
 204              		.global	__aeabi_fadd
 205              		.global	__aeabi_fcmpgt
 206              		.global	__aeabi_f2d
 207              		.global	__aeabi_dcmplt
 208 0006 00BF     		.section	.text.LeeEEPROM,"ax",%progbits
 209              		.align	2
 210              		.global	LeeEEPROM
 211              		.thumb
 212              		.thumb_func
 213              		.type	LeeEEPROM, %function
 214              	LeeEEPROM:
 215              	.LFB69:
 143:funciones.c   **** 
 144:funciones.c   **** void LeeEEPROM(){
 216              		.loc 1 144 0
 217              		.cfi_startproc
 218              		@ args = 0, pretend = 0, frame = 0
 219              		@ frame_needed = 0, uses_anonymous_args = 0
 220 0000 2DE9F041 		push	{r4, r5, r6, r7, r8, lr}
 221              		.cfi_def_cfa_offset 24
 222              		.cfi_offset 4, -24
 223              		.cfi_offset 5, -20
 224              		.cfi_offset 6, -16
 225              		.cfi_offset 7, -12
 226              		.cfi_offset 8, -8
 227              		.cfi_offset 14, -4
 145:funciones.c   ****    mEstp=EEPROM_ReadByte(0);CyDelay(5);  
 228              		.loc 1 145 0
 229 0004 0020     		movs	r0, #0
 230 0006 FFF7FEFF 		bl	EEPROM_ReadByte
 231              	.LVL26:
 232 000a C04B     		ldr	r3, .L28
 233 000c 1870     		strb	r0, [r3]
 234 000e 0520     		movs	r0, #5
 235 0010 FFF7FEFF 		bl	CyDelay
 236              	.LVL27:
 146:funciones.c   ****    hEstp=EEPROM_ReadByte(1);CyDelay(5);  
 237              		.loc 1 146 0
 238 0014 0120     		movs	r0, #1
 239 0016 FFF7FEFF 		bl	EEPROM_ReadByte
 240              	.LVL28:
 241 001a BD4B     		ldr	r3, .L28+4
 242 001c 1870     		strb	r0, [r3]
 243 001e 0520     		movs	r0, #5
 244 0020 FFF7FEFF 		bl	CyDelay
 245              	.LVL29:
 147:funciones.c   ****    
 148:funciones.c   ****    entero=EEPROM_ReadByte(2);CyDelay(5);  
 246              		.loc 1 148 0
 247 0024 0220     		movs	r0, #2
 248 0026 FFF7FEFF 		bl	EEPROM_ReadByte
 249              	.LVL30:
 250 002a BA4E     		ldr	r6, .L28+8
ARM GAS  C:\Users\USUARIO\AppData\Local\Temp\ccWuTYF0.s 			page 8


 251 002c 3070     		strb	r0, [r6]
 252 002e 0520     		movs	r0, #5
 253 0030 FFF7FEFF 		bl	CyDelay
 254              	.LVL31:
 149:funciones.c   ****    Temporal=EEPROM_ReadByte(3);CyDelay(5);  
 255              		.loc 1 149 0
 256 0034 0320     		movs	r0, #3
 257 0036 FFF7FEFF 		bl	EEPROM_ReadByte
 258              	.LVL32:
 259 003a B74C     		ldr	r4, .L28+12
 260 003c FFF7FEFF 		bl	__aeabi_ui2f
 261              	.LVL33:
 262 0040 2060     		str	r0, [r4]	@ float
 263 0042 0520     		movs	r0, #5
 264 0044 FFF7FEFF 		bl	CyDelay
 265              	.LVL34:
 150:funciones.c   ****    Temporal=Temporal/10.0;
 266              		.loc 1 150 0
 267 0048 B449     		ldr	r1, .L28+16
 268 004a 2068     		ldr	r0, [r4]	@ float
 269 004c FFF7FEFF 		bl	__aeabi_fdiv
 270              	.LVL35:
 271 0050 0546     		mov	r5, r0
 272 0052 2060     		str	r0, [r4]	@ float
 151:funciones.c   ****    Setpoint=entero+Temporal;  
 273              		.loc 1 151 0
 274 0054 3078     		ldrb	r0, [r6]	@ zero_extendqisi2
 275 0056 FFF7FEFF 		bl	__aeabi_i2f
 276              	.LVL36:
 277 005a 2946     		mov	r1, r5
 278 005c FFF7FEFF 		bl	__aeabi_fadd
 279              	.LVL37:
 280 0060 AF4B     		ldr	r3, .L28+20
 281 0062 1860     		str	r0, [r3]	@ float
 152:funciones.c   ****    
 153:funciones.c   ****    SetpointH=EEPROM_ReadByte(4);
 282              		.loc 1 153 0
 283 0064 0420     		movs	r0, #4
 284 0066 FFF7FEFF 		bl	EEPROM_ReadByte
 285              	.LVL38:
 286 006a AE4B     		ldr	r3, .L28+24
 287 006c 1880     		strh	r0, [r3]	@ movhi
 154:funciones.c   ****    CyDelay(5);   
 288              		.loc 1 154 0
 289 006e 0520     		movs	r0, #5
 290 0070 FFF7FEFF 		bl	CyDelay
 291              	.LVL39:
 155:funciones.c   **** 
 156:funciones.c   ****    tDefrost=convert16(EEPROM_ReadByte(6),EEPROM_ReadByte(5));
 292              		.loc 1 156 0
 293 0074 0620     		movs	r0, #6
 294 0076 FFF7FEFF 		bl	EEPROM_ReadByte
 295              	.LVL40:
 296 007a 0446     		mov	r4, r0
 297 007c 0520     		movs	r0, #5
 298 007e FFF7FEFF 		bl	EEPROM_ReadByte
 299              	.LVL41:
ARM GAS  C:\Users\USUARIO\AppData\Local\Temp\ccWuTYF0.s 			page 9


 300 0082 0146     		mov	r1, r0
 301 0084 2046     		mov	r0, r4
 302 0086 FFF7FEFF 		bl	convert16
 303              	.LVL42:
 304 008a A74C     		ldr	r4, .L28+28
 305 008c 2080     		strh	r0, [r4]	@ movhi
 157:funciones.c   ****    CyDelay(5);   
 306              		.loc 1 157 0
 307 008e 0520     		movs	r0, #5
 308 0090 FFF7FEFF 		bl	CyDelay
 309              	.LVL43:
 158:funciones.c   ****    tCongela=convert16(EEPROM_ReadByte(8),EEPROM_ReadByte(7));
 310              		.loc 1 158 0
 311 0094 0820     		movs	r0, #8
 312 0096 FFF7FEFF 		bl	EEPROM_ReadByte
 313              	.LVL44:
 314 009a 0546     		mov	r5, r0
 315 009c 0720     		movs	r0, #7
 316 009e FFF7FEFF 		bl	EEPROM_ReadByte
 317              	.LVL45:
 318 00a2 0146     		mov	r1, r0
 319 00a4 2846     		mov	r0, r5
 320 00a6 FFF7FEFF 		bl	convert16
 321              	.LVL46:
 322 00aa 6080     		strh	r0, [r4, #2]	@ movhi
 159:funciones.c   ****    CyDelay(5);   
 323              		.loc 1 159 0
 324 00ac 0520     		movs	r0, #5
 325 00ae FFF7FEFF 		bl	CyDelay
 326              	.LVL47:
 160:funciones.c   ****    tDisplay=EEPROM_ReadByte(9);CyDelay(5);  
 327              		.loc 1 160 0
 328 00b2 0920     		movs	r0, #9
 329 00b4 FFF7FEFF 		bl	EEPROM_ReadByte
 330              	.LVL48:
 331 00b8 2071     		strb	r0, [r4, #4]
 332 00ba 0520     		movs	r0, #5
 333 00bc FFF7FEFF 		bl	CyDelay
 334              	.LVL49:
 161:funciones.c   ****    Password[0]=EEPROM_ReadByte(10);CyDelay(5);  
 335              		.loc 1 161 0
 336 00c0 0A20     		movs	r0, #10
 337 00c2 FFF7FEFF 		bl	EEPROM_ReadByte
 338              	.LVL50:
 339 00c6 994C     		ldr	r4, .L28+32
 340 00c8 2070     		strb	r0, [r4]
 341 00ca 0520     		movs	r0, #5
 342 00cc FFF7FEFF 		bl	CyDelay
 343              	.LVL51:
 162:funciones.c   ****    Password[1]=EEPROM_ReadByte(11);CyDelay(5);  
 344              		.loc 1 162 0
 345 00d0 0B20     		movs	r0, #11
 346 00d2 FFF7FEFF 		bl	EEPROM_ReadByte
 347              	.LVL52:
 348 00d6 6070     		strb	r0, [r4, #1]
 349 00d8 0520     		movs	r0, #5
 350 00da FFF7FEFF 		bl	CyDelay
ARM GAS  C:\Users\USUARIO\AppData\Local\Temp\ccWuTYF0.s 			page 10


 351              	.LVL53:
 163:funciones.c   ****    Password[2]=EEPROM_ReadByte(12);CyDelay(5);  
 352              		.loc 1 163 0
 353 00de 0C20     		movs	r0, #12
 354 00e0 FFF7FEFF 		bl	EEPROM_ReadByte
 355              	.LVL54:
 356 00e4 A070     		strb	r0, [r4, #2]
 357 00e6 0520     		movs	r0, #5
 358 00e8 FFF7FEFF 		bl	CyDelay
 359              	.LVL55:
 164:funciones.c   ****    Password[3]=EEPROM_ReadByte(13);CyDelay(5);  
 360              		.loc 1 164 0
 361 00ec 0D20     		movs	r0, #13
 362 00ee FFF7FEFF 		bl	EEPROM_ReadByte
 363              	.LVL56:
 364 00f2 E070     		strb	r0, [r4, #3]
 365 00f4 0520     		movs	r0, #5
 366 00f6 FFF7FEFF 		bl	CyDelay
 367              	.LVL57:
 165:funciones.c   ****    
 166:funciones.c   ****    Ganancia=EEPROM_ReadByte(30);CyDelay(5);  
 368              		.loc 1 166 0
 369 00fa 1E20     		movs	r0, #30
 370 00fc FFF7FEFF 		bl	EEPROM_ReadByte
 371              	.LVL58:
 372 0100 FFF7FEFF 		bl	__aeabi_ui2f
 373              	.LVL59:
 374 0104 8A4B     		ldr	r3, .L28+36
 375 0106 1860     		str	r0, [r3]	@ float
 376 0108 0520     		movs	r0, #5
 377 010a FFF7FEFF 		bl	CyDelay
 378              	.LVL60:
 167:funciones.c   ****    Derivativo=EEPROM_ReadByte(31);CyDelay(5);  
 379              		.loc 1 167 0
 380 010e 1F20     		movs	r0, #31
 381 0110 FFF7FEFF 		bl	EEPROM_ReadByte
 382              	.LVL61:
 383 0114 874B     		ldr	r3, .L28+40
 384 0116 1870     		strb	r0, [r3]
 385 0118 0520     		movs	r0, #5
 386 011a FFF7FEFF 		bl	CyDelay
 387              	.LVL62:
 168:funciones.c   ****    Integral=EEPROM_ReadByte(32);CyDelay(5);  
 388              		.loc 1 168 0
 389 011e 2020     		movs	r0, #32
 390 0120 FFF7FEFF 		bl	EEPROM_ReadByte
 391              	.LVL63:
 392 0124 844B     		ldr	r3, .L28+44
 393 0126 1870     		strb	r0, [r3]
 394 0128 0520     		movs	r0, #5
 395 012a FFF7FEFF 		bl	CyDelay
 396              	.LVL64:
 169:funciones.c   ****    Tciclo=EEPROM_ReadByte(33);CyDelay(5);  
 397              		.loc 1 169 0
 398 012e 2120     		movs	r0, #33
 399 0130 FFF7FEFF 		bl	EEPROM_ReadByte
 400              	.LVL65:
ARM GAS  C:\Users\USUARIO\AppData\Local\Temp\ccWuTYF0.s 			page 11


 401 0134 814B     		ldr	r3, .L28+48
 402 0136 1870     		strb	r0, [r3]
 403 0138 0520     		movs	r0, #5
 404 013a FFF7FEFF 		bl	CyDelay
 405              	.LVL66:
 170:funciones.c   ****    Ajuste=EEPROM_ReadByte(34);CyDelay(5);  
 406              		.loc 1 170 0
 407 013e 2220     		movs	r0, #34
 408 0140 FFF7FEFF 		bl	EEPROM_ReadByte
 409              	.LVL67:
 410 0144 7E4B     		ldr	r3, .L28+52
 411 0146 1870     		strb	r0, [r3]
 412 0148 0520     		movs	r0, #5
 413 014a FFF7FEFF 		bl	CyDelay
 414              	.LVL68:
 171:funciones.c   ****    Ajusten=EEPROM_ReadByte(35);CyDelay(5);  
 415              		.loc 1 171 0
 416 014e 2320     		movs	r0, #35
 417 0150 FFF7FEFF 		bl	EEPROM_ReadByte
 418              	.LVL69:
 419 0154 7B4B     		ldr	r3, .L28+56
 420 0156 1870     		strb	r0, [r3]
 421 0158 0520     		movs	r0, #5
 422 015a FFF7FEFF 		bl	CyDelay
 423              	.LVL70:
 172:funciones.c   ****    MediaMovil=EEPROM_ReadByte(36);CyDelay(5);  
 424              		.loc 1 172 0
 425 015e 2420     		movs	r0, #36
 426 0160 FFF7FEFF 		bl	EEPROM_ReadByte
 427              	.LVL71:
 428 0164 784B     		ldr	r3, .L28+60
 429 0166 1870     		strb	r0, [r3]
 430 0168 0520     		movs	r0, #5
 431 016a FFF7FEFF 		bl	CyDelay
 432              	.LVL72:
 173:funciones.c   ****    Ajuste2=EEPROM_ReadByte(37);CyDelay(5);
 433              		.loc 1 173 0
 434 016e 2520     		movs	r0, #37
 435 0170 FFF7FEFF 		bl	EEPROM_ReadByte
 436              	.LVL73:
 437 0174 754B     		ldr	r3, .L28+64
 438 0176 1870     		strb	r0, [r3]
 439 0178 0520     		movs	r0, #5
 440 017a FFF7FEFF 		bl	CyDelay
 441              	.LVL74:
 174:funciones.c   ****    Ajusten2=EEPROM_ReadByte(38);CyDelay(5);
 442              		.loc 1 174 0
 443 017e 2620     		movs	r0, #38
 444 0180 FFF7FEFF 		bl	EEPROM_ReadByte
 445              	.LVL75:
 446 0184 724B     		ldr	r3, .L28+68
 447 0186 1870     		strb	r0, [r3]
 448 0188 0520     		movs	r0, #5
 449 018a FFF7FEFF 		bl	CyDelay
 450              	.LVL76:
 175:funciones.c   ****    MediaMovil2=EEPROM_ReadByte(39);CyDelay(5);  
 451              		.loc 1 175 0
ARM GAS  C:\Users\USUARIO\AppData\Local\Temp\ccWuTYF0.s 			page 12


 452 018e 2720     		movs	r0, #39
 453 0190 FFF7FEFF 		bl	EEPROM_ReadByte
 454              	.LVL77:
 455 0194 6F4B     		ldr	r3, .L28+72
 456 0196 1870     		strb	r0, [r3]
 457 0198 0520     		movs	r0, #5
 458 019a FFF7FEFF 		bl	CyDelay
 459              	.LVL78:
 176:funciones.c   ****    tmuestreoUSB=EEPROM_ReadByte(40);CyDelay(5);
 460              		.loc 1 176 0
 461 019e 2820     		movs	r0, #40
 462 01a0 FFF7FEFF 		bl	EEPROM_ReadByte
 463              	.LVL79:
 464 01a4 6C4B     		ldr	r3, .L28+76
 465 01a6 1870     		strb	r0, [r3]
 466 01a8 0520     		movs	r0, #5
 467 01aa FFF7FEFF 		bl	CyDelay
 468              	.LVL80:
 177:funciones.c   ****    controlT=EEPROM_ReadByte(41);CyDelay(5);
 469              		.loc 1 177 0
 470 01ae 2920     		movs	r0, #41
 471 01b0 FFF7FEFF 		bl	EEPROM_ReadByte
 472              	.LVL81:
 473 01b4 694B     		ldr	r3, .L28+80
 474 01b6 1870     		strb	r0, [r3]
 475 01b8 0520     		movs	r0, #5
 476 01ba FFF7FEFF 		bl	CyDelay
 477              	.LVL82:
 178:funciones.c   ****    controlH=EEPROM_ReadByte(42);CyDelay(5);
 478              		.loc 1 178 0
 479 01be 2A20     		movs	r0, #42
 480 01c0 FFF7FEFF 		bl	EEPROM_ReadByte
 481              	.LVL83:
 482 01c4 664B     		ldr	r3, .L28+84
 483 01c6 1870     		strb	r0, [r3]
 484 01c8 0520     		movs	r0, #5
 485 01ca FFF7FEFF 		bl	CyDelay
 486              	.LVL84:
 179:funciones.c   ****    controlR=EEPROM_ReadByte(43);CyDelay(5);
 487              		.loc 1 179 0
 488 01ce 2B20     		movs	r0, #43
 489 01d0 FFF7FEFF 		bl	EEPROM_ReadByte
 490              	.LVL85:
 491 01d4 634B     		ldr	r3, .L28+88
 492 01d6 1870     		strb	r0, [r3]
 493 01d8 0520     		movs	r0, #5
 494 01da FFF7FEFF 		bl	CyDelay
 495              	.LVL86:
 180:funciones.c   ****    T1Humedad=EEPROM_ReadByte(44);CyDelay(5);
 496              		.loc 1 180 0
 497 01de 2C20     		movs	r0, #44
 498 01e0 FFF7FEFF 		bl	EEPROM_ReadByte
 499              	.LVL87:
 500 01e4 604B     		ldr	r3, .L28+92
 501 01e6 1870     		strb	r0, [r3]
 502 01e8 0520     		movs	r0, #5
 503 01ea FFF7FEFF 		bl	CyDelay
ARM GAS  C:\Users\USUARIO\AppData\Local\Temp\ccWuTYF0.s 			page 13


 504              	.LVL88:
 181:funciones.c   ****    T2Humedad=EEPROM_ReadByte(45);CyDelay(5);
 505              		.loc 1 181 0
 506 01ee 2D20     		movs	r0, #45
 507 01f0 FFF7FEFF 		bl	EEPROM_ReadByte
 508              	.LVL89:
 509 01f4 5D4B     		ldr	r3, .L28+96
 510 01f6 1870     		strb	r0, [r3]
 511 01f8 0520     		movs	r0, #5
 512 01fa FFF7FEFF 		bl	CyDelay
 513              	.LVL90:
 182:funciones.c   ****    T3Humedad=EEPROM_ReadByte(46);CyDelay(5);
 514              		.loc 1 182 0
 515 01fe 2E20     		movs	r0, #46
 516 0200 FFF7FEFF 		bl	EEPROM_ReadByte
 517              	.LVL91:
 518 0204 5A4B     		ldr	r3, .L28+100
 519 0206 1870     		strb	r0, [r3]
 520 0208 0520     		movs	r0, #5
 521 020a FFF7FEFF 		bl	CyDelay
 522              	.LVL92:
 183:funciones.c   ****    IP[0]=EEPROM_ReadByte(47);CyDelay(5);
 523              		.loc 1 183 0
 524 020e 2F20     		movs	r0, #47
 525 0210 FFF7FEFF 		bl	EEPROM_ReadByte
 526              	.LVL93:
 527 0214 574C     		ldr	r4, .L28+104
 528 0216 2070     		strb	r0, [r4]
 529 0218 0520     		movs	r0, #5
 530 021a FFF7FEFF 		bl	CyDelay
 531              	.LVL94:
 184:funciones.c   ****    IP[1]=EEPROM_ReadByte(48);CyDelay(5);
 532              		.loc 1 184 0
 533 021e 3020     		movs	r0, #48
 534 0220 FFF7FEFF 		bl	EEPROM_ReadByte
 535              	.LVL95:
 536 0224 6070     		strb	r0, [r4, #1]
 537 0226 0520     		movs	r0, #5
 538 0228 FFF7FEFF 		bl	CyDelay
 539              	.LVL96:
 185:funciones.c   ****    IP[2]=EEPROM_ReadByte(49);CyDelay(5);
 540              		.loc 1 185 0
 541 022c 3120     		movs	r0, #49
 542 022e FFF7FEFF 		bl	EEPROM_ReadByte
 543              	.LVL97:
 544 0232 A070     		strb	r0, [r4, #2]
 545 0234 0520     		movs	r0, #5
 546 0236 FFF7FEFF 		bl	CyDelay
 547              	.LVL98:
 186:funciones.c   ****    IP[3]=EEPROM_ReadByte(50);CyDelay(5);
 548              		.loc 1 186 0
 549 023a 3220     		movs	r0, #50
 550 023c FFF7FEFF 		bl	EEPROM_ReadByte
 551              	.LVL99:
 552 0240 E070     		strb	r0, [r4, #3]
 553 0242 0520     		movs	r0, #5
 554 0244 FFF7FEFF 		bl	CyDelay
ARM GAS  C:\Users\USUARIO\AppData\Local\Temp\ccWuTYF0.s 			page 14


 555              	.LVL100:
 187:funciones.c   ****    Gateway[0]=EEPROM_ReadByte(51);CyDelay(5);
 556              		.loc 1 187 0
 557 0248 3320     		movs	r0, #51
 558 024a FFF7FEFF 		bl	EEPROM_ReadByte
 559              	.LVL101:
 560 024e 4A4C     		ldr	r4, .L28+108
 561 0250 2070     		strb	r0, [r4]
 562 0252 0520     		movs	r0, #5
 563 0254 FFF7FEFF 		bl	CyDelay
 564              	.LVL102:
 188:funciones.c   ****    Gateway[1]=EEPROM_ReadByte(52);CyDelay(5);
 565              		.loc 1 188 0
 566 0258 3420     		movs	r0, #52
 567 025a FFF7FEFF 		bl	EEPROM_ReadByte
 568              	.LVL103:
 569 025e 6070     		strb	r0, [r4, #1]
 570 0260 0520     		movs	r0, #5
 571 0262 FFF7FEFF 		bl	CyDelay
 572              	.LVL104:
 189:funciones.c   ****    Gateway[2]=EEPROM_ReadByte(53);CyDelay(5);
 573              		.loc 1 189 0
 574 0266 3520     		movs	r0, #53
 575 0268 FFF7FEFF 		bl	EEPROM_ReadByte
 576              	.LVL105:
 577 026c A070     		strb	r0, [r4, #2]
 578 026e 0520     		movs	r0, #5
 579 0270 FFF7FEFF 		bl	CyDelay
 580              	.LVL106:
 190:funciones.c   ****    Gateway[3]=EEPROM_ReadByte(54);CyDelay(5);
 581              		.loc 1 190 0
 582 0274 3620     		movs	r0, #54
 583 0276 FFF7FEFF 		bl	EEPROM_ReadByte
 584              	.LVL107:
 585 027a E070     		strb	r0, [r4, #3]
 586 027c 0520     		movs	r0, #5
 587 027e FFF7FEFF 		bl	CyDelay
 588              	.LVL108:
 191:funciones.c   ****    Subnet[0]=EEPROM_ReadByte(55);CyDelay(5);
 589              		.loc 1 191 0
 590 0282 3720     		movs	r0, #55
 591 0284 FFF7FEFF 		bl	EEPROM_ReadByte
 592              	.LVL109:
 593 0288 3C4C     		ldr	r4, .L28+112
 594 028a 2070     		strb	r0, [r4]
 595 028c 0520     		movs	r0, #5
 596 028e FFF7FEFF 		bl	CyDelay
 597              	.LVL110:
 192:funciones.c   ****    Subnet[1]=EEPROM_ReadByte(56);CyDelay(5);
 598              		.loc 1 192 0
 599 0292 3820     		movs	r0, #56
 600 0294 FFF7FEFF 		bl	EEPROM_ReadByte
 601              	.LVL111:
 602 0298 6070     		strb	r0, [r4, #1]
 603 029a 0520     		movs	r0, #5
 604 029c FFF7FEFF 		bl	CyDelay
 605              	.LVL112:
ARM GAS  C:\Users\USUARIO\AppData\Local\Temp\ccWuTYF0.s 			page 15


 193:funciones.c   ****    Subnet[2]=EEPROM_ReadByte(57);CyDelay(5);
 606              		.loc 1 193 0
 607 02a0 3920     		movs	r0, #57
 608 02a2 FFF7FEFF 		bl	EEPROM_ReadByte
 609              	.LVL113:
 610 02a6 A070     		strb	r0, [r4, #2]
 611 02a8 0520     		movs	r0, #5
 612 02aa FFF7FEFF 		bl	CyDelay
 613              	.LVL114:
 194:funciones.c   ****    Subnet[3]=EEPROM_ReadByte(58);CyDelay(5);
 614              		.loc 1 194 0
 615 02ae 3A20     		movs	r0, #58
 616 02b0 FFF7FEFF 		bl	EEPROM_ReadByte
 617              	.LVL115:
 618 02b4 E070     		strb	r0, [r4, #3]
 619 02b6 0520     		movs	r0, #5
 620 02b8 FFF7FEFF 		bl	CyDelay
 621              	.LVL116:
 195:funciones.c   ****    MAC[0]=EEPROM_ReadByte(59);CyDelay(5);
 622              		.loc 1 195 0
 623 02bc 3B20     		movs	r0, #59
 624 02be FFF7FEFF 		bl	EEPROM_ReadByte
 625              	.LVL117:
 626 02c2 2F4C     		ldr	r4, .L28+116
 627 02c4 2070     		strb	r0, [r4]
 628 02c6 0520     		movs	r0, #5
 629 02c8 FFF7FEFF 		bl	CyDelay
 630              	.LVL118:
 196:funciones.c   ****    MAC[1]=EEPROM_ReadByte(60);CyDelay(5);
 631              		.loc 1 196 0
 632 02cc 3C20     		movs	r0, #60
 633 02ce FFF7FEFF 		bl	EEPROM_ReadByte
 634              	.LVL119:
 635 02d2 6070     		strb	r0, [r4, #1]
 636 02d4 0520     		movs	r0, #5
 637 02d6 FFF7FEFF 		bl	CyDelay
 638              	.LVL120:
 197:funciones.c   ****    MAC[2]=EEPROM_ReadByte(61);CyDelay(5);
 639              		.loc 1 197 0
 640 02da 3D20     		movs	r0, #61
 641 02dc FFF7FEFF 		bl	EEPROM_ReadByte
 642              	.LVL121:
 643 02e0 A070     		strb	r0, [r4, #2]
 644 02e2 0520     		movs	r0, #5
 645 02e4 FFF7FEFF 		bl	CyDelay
 646              	.LVL122:
 198:funciones.c   ****    MAC[3]=EEPROM_ReadByte(62);CyDelay(5);
 647              		.loc 1 198 0
 648 02e8 3E20     		movs	r0, #62
 649 02ea FFF7FEFF 		bl	EEPROM_ReadByte
 650              	.LVL123:
 651 02ee E070     		strb	r0, [r4, #3]
 652 02f0 0520     		movs	r0, #5
 653 02f2 FFF7FEFF 		bl	CyDelay
 654              	.LVL124:
 199:funciones.c   ****    MAC[4]=EEPROM_ReadByte(63);CyDelay(5);
 655              		.loc 1 199 0
ARM GAS  C:\Users\USUARIO\AppData\Local\Temp\ccWuTYF0.s 			page 16


 656 02f6 3F20     		movs	r0, #63
 657 02f8 FFF7FEFF 		bl	EEPROM_ReadByte
 658              	.LVL125:
 659 02fc 2071     		strb	r0, [r4, #4]
 660 02fe 0520     		movs	r0, #5
 661 0300 FFF7FEFF 		bl	CyDelay
 662              	.LVL126:
 200:funciones.c   ****    //MAC[5]=EEPROM_ReadByte(64);CyDelay(5);
 201:funciones.c   ****     for(i=0;i<3;i++){
 663              		.loc 1 201 0
 664 0304 0022     		movs	r2, #0
 665 0306 1F4B     		ldr	r3, .L28+120
 666 0308 1A70     		strb	r2, [r3]
 667 030a 0CE1     		b	.L17
 668              	.L29:
 669              		.align	2
 670              	.L28:
 671 030c 00000000 		.word	mEstp
 672 0310 00000000 		.word	hEstp
 673 0314 00000000 		.word	entero
 674 0318 00000000 		.word	Temporal
 675 031c 00002041 		.word	1092616192
 676 0320 00000000 		.word	Setpoint
 677 0324 00000000 		.word	SetpointH
 678 0328 00000000 		.word	.LANCHOR0
 679 032c 00000000 		.word	Password
 680 0330 00000000 		.word	Ganancia
 681 0334 00000000 		.word	Derivativo
 682 0338 00000000 		.word	Integral
 683 033c 00000000 		.word	Tciclo
 684 0340 00000000 		.word	Ajuste
 685 0344 00000000 		.word	Ajusten
 686 0348 00000000 		.word	MediaMovil
 687 034c 00000000 		.word	Ajuste2
 688 0350 00000000 		.word	Ajusten2
 689 0354 00000000 		.word	MediaMovil2
 690 0358 00000000 		.word	tmuestreoUSB
 691 035c 00000000 		.word	controlT
 692 0360 00000000 		.word	controlH
 693 0364 00000000 		.word	controlR
 694 0368 00000000 		.word	T1Humedad
 695 036c 00000000 		.word	T2Humedad
 696 0370 00000000 		.word	T3Humedad
 697 0374 00000000 		.word	IP
 698 0378 00000000 		.word	Gateway
 699 037c 00000000 		.word	Subnet
 700 0380 00000000 		.word	MAC
 701 0384 00000000 		.word	i
 702              	.L18:
 202:funciones.c   ****         calib[i].patron1=EEPROM_ReadByte(64+(i*12))+inttofloat(EEPROM_ReadByte(65+(i*12)));CyDelay(
 703              		.loc 1 202 0 discriminator 3
 704 0388 05EB4503 		add	r3, r5, r5, lsl #1
 705 038c 9800     		lsls	r0, r3, #2
 706 038e 4030     		adds	r0, r0, #64
 707 0390 80B2     		uxth	r0, r0
 708 0392 FFF7FEFF 		bl	EEPROM_ReadByte
 709              	.LVL127:
ARM GAS  C:\Users\USUARIO\AppData\Local\Temp\ccWuTYF0.s 			page 17


 710 0396 0746     		mov	r7, r0
 711 0398 BD4C     		ldr	r4, .L30+8
 712 039a 2378     		ldrb	r3, [r4]	@ zero_extendqisi2
 713 039c 03EB4303 		add	r3, r3, r3, lsl #1
 714 03a0 9800     		lsls	r0, r3, #2
 715 03a2 4130     		adds	r0, r0, #65
 716 03a4 80B2     		uxth	r0, r0
 717 03a6 FFF7FEFF 		bl	EEPROM_ReadByte
 718              	.LVL128:
 719 03aa FFF7FEFF 		bl	inttofloat
 720              	.LVL129:
 721 03ae 0646     		mov	r6, r0
 722 03b0 3846     		mov	r0, r7
 723 03b2 FFF7FEFF 		bl	__aeabi_i2f
 724              	.LVL130:
 725 03b6 3146     		mov	r1, r6
 726 03b8 FFF7FEFF 		bl	__aeabi_fadd
 727              	.LVL131:
 728 03bc B54E     		ldr	r6, .L30+12
 729 03be 05EB4505 		add	r5, r5, r5, lsl #1
 730 03c2 2B01     		lsls	r3, r5, #4
 731 03c4 3344     		add	r3, r3, r6
 732 03c6 9861     		str	r0, [r3, #24]	@ float
 733 03c8 0520     		movs	r0, #5
 734 03ca FFF7FEFF 		bl	CyDelay
 735              	.LVL132:
 203:funciones.c   ****         calib[i].patron2=EEPROM_ReadByte(66+(i*12))+inttofloat(EEPROM_ReadByte(67+(i*12)));CyDelay(
 736              		.loc 1 203 0 discriminator 3
 737 03ce 2578     		ldrb	r5, [r4]	@ zero_extendqisi2
 738 03d0 05EB4503 		add	r3, r5, r5, lsl #1
 739 03d4 9800     		lsls	r0, r3, #2
 740 03d6 4230     		adds	r0, r0, #66
 741 03d8 80B2     		uxth	r0, r0
 742 03da FFF7FEFF 		bl	EEPROM_ReadByte
 743              	.LVL133:
 744 03de 0746     		mov	r7, r0
 745 03e0 2378     		ldrb	r3, [r4]	@ zero_extendqisi2
 746 03e2 03EB4303 		add	r3, r3, r3, lsl #1
 747 03e6 9800     		lsls	r0, r3, #2
 748 03e8 4330     		adds	r0, r0, #67
 749 03ea 80B2     		uxth	r0, r0
 750 03ec FFF7FEFF 		bl	EEPROM_ReadByte
 751              	.LVL134:
 752 03f0 FFF7FEFF 		bl	inttofloat
 753              	.LVL135:
 754 03f4 8046     		mov	r8, r0
 755 03f6 3846     		mov	r0, r7
 756 03f8 FFF7FEFF 		bl	__aeabi_i2f
 757              	.LVL136:
 758 03fc 4146     		mov	r1, r8
 759 03fe FFF7FEFF 		bl	__aeabi_fadd
 760              	.LVL137:
 761 0402 05EB4505 		add	r5, r5, r5, lsl #1
 762 0406 2B01     		lsls	r3, r5, #4
 763 0408 3344     		add	r3, r3, r6
 764 040a D861     		str	r0, [r3, #28]	@ float
 765 040c 0520     		movs	r0, #5
ARM GAS  C:\Users\USUARIO\AppData\Local\Temp\ccWuTYF0.s 			page 18


 766 040e FFF7FEFF 		bl	CyDelay
 767              	.LVL138:
 204:funciones.c   ****         calib[i].patron3=EEPROM_ReadByte(68+(i*12))+inttofloat(EEPROM_ReadByte(69+(i*12)));CyDelay(
 768              		.loc 1 204 0 discriminator 3
 769 0412 2578     		ldrb	r5, [r4]	@ zero_extendqisi2
 770 0414 05EB4503 		add	r3, r5, r5, lsl #1
 771 0418 9800     		lsls	r0, r3, #2
 772 041a 4430     		adds	r0, r0, #68
 773 041c 80B2     		uxth	r0, r0
 774 041e FFF7FEFF 		bl	EEPROM_ReadByte
 775              	.LVL139:
 776 0422 0746     		mov	r7, r0
 777 0424 2378     		ldrb	r3, [r4]	@ zero_extendqisi2
 778 0426 03EB4303 		add	r3, r3, r3, lsl #1
 779 042a 9800     		lsls	r0, r3, #2
 780 042c 4530     		adds	r0, r0, #69
 781 042e 80B2     		uxth	r0, r0
 782 0430 FFF7FEFF 		bl	EEPROM_ReadByte
 783              	.LVL140:
 784 0434 FFF7FEFF 		bl	inttofloat
 785              	.LVL141:
 786 0438 8046     		mov	r8, r0
 787 043a 3846     		mov	r0, r7
 788 043c FFF7FEFF 		bl	__aeabi_i2f
 789              	.LVL142:
 790 0440 4146     		mov	r1, r8
 791 0442 FFF7FEFF 		bl	__aeabi_fadd
 792              	.LVL143:
 793 0446 05EB4505 		add	r5, r5, r5, lsl #1
 794 044a 2B01     		lsls	r3, r5, #4
 795 044c 3344     		add	r3, r3, r6
 796 044e 1862     		str	r0, [r3, #32]	@ float
 797 0450 0520     		movs	r0, #5
 798 0452 FFF7FEFF 		bl	CyDelay
 799              	.LVL144:
 205:funciones.c   ****         calib[i].control1=EEPROM_ReadByte(70+(i*12))+inttofloat(EEPROM_ReadByte(71+(i*12)));CyDelay
 800              		.loc 1 205 0 discriminator 3
 801 0456 2578     		ldrb	r5, [r4]	@ zero_extendqisi2
 802 0458 05EB4503 		add	r3, r5, r5, lsl #1
 803 045c 9800     		lsls	r0, r3, #2
 804 045e 4630     		adds	r0, r0, #70
 805 0460 80B2     		uxth	r0, r0
 806 0462 FFF7FEFF 		bl	EEPROM_ReadByte
 807              	.LVL145:
 808 0466 0746     		mov	r7, r0
 809 0468 2378     		ldrb	r3, [r4]	@ zero_extendqisi2
 810 046a 03EB4303 		add	r3, r3, r3, lsl #1
 811 046e 9800     		lsls	r0, r3, #2
 812 0470 4730     		adds	r0, r0, #71
 813 0472 80B2     		uxth	r0, r0
 814 0474 FFF7FEFF 		bl	EEPROM_ReadByte
 815              	.LVL146:
 816 0478 FFF7FEFF 		bl	inttofloat
 817              	.LVL147:
 818 047c 8046     		mov	r8, r0
 819 047e 3846     		mov	r0, r7
 820 0480 FFF7FEFF 		bl	__aeabi_i2f
ARM GAS  C:\Users\USUARIO\AppData\Local\Temp\ccWuTYF0.s 			page 19


 821              	.LVL148:
 822 0484 4146     		mov	r1, r8
 823 0486 FFF7FEFF 		bl	__aeabi_fadd
 824              	.LVL149:
 825 048a 05EB4505 		add	r5, r5, r5, lsl #1
 826 048e 2B01     		lsls	r3, r5, #4
 827 0490 F050     		str	r0, [r6, r3]	@ float
 828 0492 0520     		movs	r0, #5
 829 0494 FFF7FEFF 		bl	CyDelay
 830              	.LVL150:
 206:funciones.c   ****         calib[i].control2=EEPROM_ReadByte(72+(i*12))+inttofloat(EEPROM_ReadByte(73+(i*12)));CyDelay
 831              		.loc 1 206 0 discriminator 3
 832 0498 2578     		ldrb	r5, [r4]	@ zero_extendqisi2
 833 049a 05EB4503 		add	r3, r5, r5, lsl #1
 834 049e 9800     		lsls	r0, r3, #2
 835 04a0 4830     		adds	r0, r0, #72
 836 04a2 80B2     		uxth	r0, r0
 837 04a4 FFF7FEFF 		bl	EEPROM_ReadByte
 838              	.LVL151:
 839 04a8 0746     		mov	r7, r0
 840 04aa 2378     		ldrb	r3, [r4]	@ zero_extendqisi2
 841 04ac 03EB4303 		add	r3, r3, r3, lsl #1
 842 04b0 9800     		lsls	r0, r3, #2
 843 04b2 4930     		adds	r0, r0, #73
 844 04b4 80B2     		uxth	r0, r0
 845 04b6 FFF7FEFF 		bl	EEPROM_ReadByte
 846              	.LVL152:
 847 04ba FFF7FEFF 		bl	inttofloat
 848              	.LVL153:
 849 04be 8046     		mov	r8, r0
 850 04c0 3846     		mov	r0, r7
 851 04c2 FFF7FEFF 		bl	__aeabi_i2f
 852              	.LVL154:
 853 04c6 4146     		mov	r1, r8
 854 04c8 FFF7FEFF 		bl	__aeabi_fadd
 855              	.LVL155:
 856 04cc 05EB4505 		add	r5, r5, r5, lsl #1
 857 04d0 2B01     		lsls	r3, r5, #4
 858 04d2 3344     		add	r3, r3, r6
 859 04d4 5860     		str	r0, [r3, #4]	@ float
 860 04d6 0520     		movs	r0, #5
 861 04d8 FFF7FEFF 		bl	CyDelay
 862              	.LVL156:
 207:funciones.c   ****         calib[i].control3=EEPROM_ReadByte(74+(i*12))+inttofloat(EEPROM_ReadByte(75+(i*12)));CyDelay
 863              		.loc 1 207 0 discriminator 3
 864 04dc 2578     		ldrb	r5, [r4]	@ zero_extendqisi2
 865 04de 05EB4503 		add	r3, r5, r5, lsl #1
 866 04e2 9800     		lsls	r0, r3, #2
 867 04e4 4A30     		adds	r0, r0, #74
 868 04e6 80B2     		uxth	r0, r0
 869 04e8 FFF7FEFF 		bl	EEPROM_ReadByte
 870              	.LVL157:
 871 04ec 0746     		mov	r7, r0
 872 04ee 2378     		ldrb	r3, [r4]	@ zero_extendqisi2
 873 04f0 03EB4303 		add	r3, r3, r3, lsl #1
 874 04f4 9800     		lsls	r0, r3, #2
 875 04f6 4B30     		adds	r0, r0, #75
ARM GAS  C:\Users\USUARIO\AppData\Local\Temp\ccWuTYF0.s 			page 20


 876 04f8 80B2     		uxth	r0, r0
 877 04fa FFF7FEFF 		bl	EEPROM_ReadByte
 878              	.LVL158:
 879 04fe FFF7FEFF 		bl	inttofloat
 880              	.LVL159:
 881 0502 8046     		mov	r8, r0
 882 0504 3846     		mov	r0, r7
 883 0506 FFF7FEFF 		bl	__aeabi_i2f
 884              	.LVL160:
 885 050a 4146     		mov	r1, r8
 886 050c FFF7FEFF 		bl	__aeabi_fadd
 887              	.LVL161:
 888 0510 05EB4505 		add	r5, r5, r5, lsl #1
 889 0514 2B01     		lsls	r3, r5, #4
 890 0516 1E44     		add	r6, r6, r3
 891 0518 B060     		str	r0, [r6, #8]	@ float
 892 051a 0520     		movs	r0, #5
 893 051c FFF7FEFF 		bl	CyDelay
 894              	.LVL162:
 201:funciones.c   ****         calib[i].patron1=EEPROM_ReadByte(64+(i*12))+inttofloat(EEPROM_ReadByte(65+(i*12)));CyDelay(
 895              		.loc 1 201 0 discriminator 3
 896 0520 2378     		ldrb	r3, [r4]	@ zero_extendqisi2
 897 0522 0133     		adds	r3, r3, #1
 898 0524 2370     		strb	r3, [r4]
 899              	.L17:
 201:funciones.c   ****         calib[i].patron1=EEPROM_ReadByte(64+(i*12))+inttofloat(EEPROM_ReadByte(65+(i*12)));CyDelay(
 900              		.loc 1 201 0 is_stmt 0 discriminator 1
 901 0526 5A4B     		ldr	r3, .L30+8
 902 0528 1D78     		ldrb	r5, [r3]	@ zero_extendqisi2
 903 052a 022D     		cmp	r5, #2
 904 052c 7FF62CAF 		bls	.L18
 208:funciones.c   ****     }   
 209:funciones.c   ****    GananciaR=Ganancia;
 905              		.loc 1 209 0 is_stmt 1
 906 0530 594B     		ldr	r3, .L30+16
 907 0532 1868     		ldr	r0, [r3]	@ float
 908 0534 FFF7FEFF 		bl	__aeabi_f2uiz
 909              	.LVL163:
 910 0538 584B     		ldr	r3, .L30+20
 911 053a 1870     		strb	r0, [r3]
 210:funciones.c   ****    
 211:funciones.c   ****    for(i=0;i<20;i++){//Lee valores almacenados de ciclos personalizados
 912              		.loc 1 211 0
 913 053c 0022     		movs	r2, #0
 914 053e 544B     		ldr	r3, .L30+8
 915 0540 1A70     		strb	r2, [r3]
 916 0542 98E0     		b	.L19
 917              	.L26:
 212:funciones.c   ****       rampas[i].TemperaturaInt=EEPROM_ReadByte(100+(i*6)); 
 918              		.loc 1 212 0
 919 0544 04EB4403 		add	r3, r4, r4, lsl #1
 920 0548 5800     		lsls	r0, r3, #1
 921 054a 6430     		adds	r0, r0, #100
 922 054c 80B2     		uxth	r0, r0
 923 054e FFF7FEFF 		bl	EEPROM_ReadByte
 924              	.LVL164:
 925 0552 534D     		ldr	r5, .L30+24
ARM GAS  C:\Users\USUARIO\AppData\Local\Temp\ccWuTYF0.s 			page 21


 926 0554 04EB4404 		add	r4, r4, r4, lsl #1
 927 0558 A300     		lsls	r3, r4, #2
 928 055a 2B44     		add	r3, r3, r5
 929 055c 5870     		strb	r0, [r3, #1]
 213:funciones.c   ****       rampas[i].TemperaturaDec=EEPROM_ReadByte(101+(i*6)); 
 930              		.loc 1 213 0
 931 055e 4C4E     		ldr	r6, .L30+8
 932 0560 3478     		ldrb	r4, [r6]	@ zero_extendqisi2
 933 0562 04EB4403 		add	r3, r4, r4, lsl #1
 934 0566 5800     		lsls	r0, r3, #1
 935 0568 6530     		adds	r0, r0, #101
 936 056a 80B2     		uxth	r0, r0
 937 056c FFF7FEFF 		bl	EEPROM_ReadByte
 938              	.LVL165:
 939 0570 04EB4404 		add	r4, r4, r4, lsl #1
 940 0574 A300     		lsls	r3, r4, #2
 941 0576 E854     		strb	r0, [r5, r3]
 214:funciones.c   ****       rampas[i].Humedad=EEPROM_ReadByte(102+(i*6)); 
 942              		.loc 1 214 0
 943 0578 3478     		ldrb	r4, [r6]	@ zero_extendqisi2
 944 057a 04EB4403 		add	r3, r4, r4, lsl #1
 945 057e 5800     		lsls	r0, r3, #1
 946 0580 6630     		adds	r0, r0, #102
 947 0582 80B2     		uxth	r0, r0
 948 0584 FFF7FEFF 		bl	EEPROM_ReadByte
 949              	.LVL166:
 950 0588 04EB4404 		add	r4, r4, r4, lsl #1
 951 058c A300     		lsls	r3, r4, #2
 952 058e 2B44     		add	r3, r3, r5
 953 0590 1871     		strb	r0, [r3, #4]
 215:funciones.c   ****       rampas[i].Horas=EEPROM_ReadByte(103+(i*6)); 
 954              		.loc 1 215 0
 955 0592 3478     		ldrb	r4, [r6]	@ zero_extendqisi2
 956 0594 04EB4403 		add	r3, r4, r4, lsl #1
 957 0598 5800     		lsls	r0, r3, #1
 958 059a 6730     		adds	r0, r0, #103
 959 059c 80B2     		uxth	r0, r0
 960 059e FFF7FEFF 		bl	EEPROM_ReadByte
 961              	.LVL167:
 962 05a2 04EB4404 		add	r4, r4, r4, lsl #1
 963 05a6 A300     		lsls	r3, r4, #2
 964 05a8 2B44     		add	r3, r3, r5
 965 05aa 9870     		strb	r0, [r3, #2]
 216:funciones.c   ****       rampas[i].Minutos=EEPROM_ReadByte(104+(i*6)); 
 966              		.loc 1 216 0
 967 05ac 3478     		ldrb	r4, [r6]	@ zero_extendqisi2
 968 05ae 04EB4403 		add	r3, r4, r4, lsl #1
 969 05b2 5800     		lsls	r0, r3, #1
 970 05b4 6830     		adds	r0, r0, #104
 971 05b6 80B2     		uxth	r0, r0
 972 05b8 FFF7FEFF 		bl	EEPROM_ReadByte
 973              	.LVL168:
 974 05bc 04EB4404 		add	r4, r4, r4, lsl #1
 975 05c0 A300     		lsls	r3, r4, #2
 976 05c2 2B44     		add	r3, r3, r5
 977 05c4 D870     		strb	r0, [r3, #3]
 217:funciones.c   ****       
ARM GAS  C:\Users\USUARIO\AppData\Local\Temp\ccWuTYF0.s 			page 22


 218:funciones.c   ****       rampas[i].Temperatura=rampas[i].TemperaturaInt+inttofloat(rampas[i].TemperaturaDec);
 978              		.loc 1 218 0
 979 05c6 3478     		ldrb	r4, [r6]	@ zero_extendqisi2
 980 05c8 6300     		lsls	r3, r4, #1
 981 05ca 2344     		add	r3, r3, r4
 982 05cc 9A00     		lsls	r2, r3, #2
 983 05ce AE18     		adds	r6, r5, r2
 984 05d0 7778     		ldrb	r7, [r6, #1]	@ zero_extendqisi2
 985 05d2 A85C     		ldrb	r0, [r5, r2]	@ zero_extendqisi2
 986 05d4 FFF7FEFF 		bl	inttofloat
 987              	.LVL169:
 988 05d8 0546     		mov	r5, r0
 989 05da 3846     		mov	r0, r7
 990 05dc FFF7FEFF 		bl	__aeabi_i2f
 991              	.LVL170:
 992 05e0 2946     		mov	r1, r5
 993 05e2 FFF7FEFF 		bl	__aeabi_fadd
 994              	.LVL171:
 995 05e6 0546     		mov	r5, r0
 996 05e8 B060     		str	r0, [r6, #8]	@ float
 219:funciones.c   ****       if(rampas[i].Temperatura>60.0 || rampas[i].Temperatura<0.1)rampas[i].Temperatura=30.0;
 997              		.loc 1 219 0
 998 05ea 2E49     		ldr	r1, .L30+28
 999 05ec FFF7FEFF 		bl	__aeabi_fcmpgt
 1000              	.LVL172:
 1001 05f0 40B9     		cbnz	r0, .L20
 1002              		.loc 1 219 0 is_stmt 0 discriminator 2
 1003 05f2 2846     		mov	r0, r5
 1004 05f4 FFF7FEFF 		bl	__aeabi_f2d
 1005              	.LVL173:
 1006 05f8 23A3     		adr	r3, .L30
 1007 05fa D3E90023 		ldrd	r2, [r3]
 1008 05fe FFF7FEFF 		bl	__aeabi_dcmplt
 1009              	.LVL174:
 1010 0602 30B1     		cbz	r0, .L21
 1011              	.L20:
 1012              		.loc 1 219 0 discriminator 3
 1013 0604 04EB4402 		add	r2, r4, r4, lsl #1
 1014 0608 9300     		lsls	r3, r2, #2
 1015 060a 254A     		ldr	r2, .L30+24
 1016 060c 1344     		add	r3, r3, r2
 1017 060e 264A     		ldr	r2, .L30+32
 1018 0610 9A60     		str	r2, [r3, #8]	@ float
 1019              	.L21:
 220:funciones.c   ****       if(rampas[i].Humedad>95 || rampas[i].Humedad<10)rampas[i].Humedad=60.0;
 1020              		.loc 1 220 0 is_stmt 1
 1021 0612 04EB4402 		add	r2, r4, r4, lsl #1
 1022 0616 9300     		lsls	r3, r2, #2
 1023 0618 214A     		ldr	r2, .L30+24
 1024 061a 1344     		add	r3, r3, r2
 1025 061c 1B79     		ldrb	r3, [r3, #4]	@ zero_extendqisi2
 1026 061e 0A3B     		subs	r3, r3, #10
 1027 0620 DBB2     		uxtb	r3, r3
 1028 0622 552B     		cmp	r3, #85
 1029 0624 06D9     		bls	.L23
 1030              		.loc 1 220 0 is_stmt 0 discriminator 1
 1031 0626 04EB4402 		add	r2, r4, r4, lsl #1
ARM GAS  C:\Users\USUARIO\AppData\Local\Temp\ccWuTYF0.s 			page 23


 1032 062a 9300     		lsls	r3, r2, #2
 1033 062c 1C4A     		ldr	r2, .L30+24
 1034 062e 1344     		add	r3, r3, r2
 1035 0630 3C22     		movs	r2, #60
 1036 0632 1A71     		strb	r2, [r3, #4]
 1037              	.L23:
 221:funciones.c   ****       if(rampas[i].Horas>99)rampas[i].Horas=10;
 1038              		.loc 1 221 0 is_stmt 1
 1039 0634 04EB4402 		add	r2, r4, r4, lsl #1
 1040 0638 9300     		lsls	r3, r2, #2
 1041 063a 194A     		ldr	r2, .L30+24
 1042 063c 1344     		add	r3, r3, r2
 1043 063e 9B78     		ldrb	r3, [r3, #2]	@ zero_extendqisi2
 1044 0640 632B     		cmp	r3, #99
 1045 0642 06D9     		bls	.L24
 1046              		.loc 1 221 0 is_stmt 0 discriminator 1
 1047 0644 04EB4402 		add	r2, r4, r4, lsl #1
 1048 0648 9300     		lsls	r3, r2, #2
 1049 064a 154A     		ldr	r2, .L30+24
 1050 064c 1344     		add	r3, r3, r2
 1051 064e 0A22     		movs	r2, #10
 1052 0650 9A70     		strb	r2, [r3, #2]
 1053              	.L24:
 222:funciones.c   ****       if(rampas[i].Minutos>59)rampas[i].Minutos=10;
 1054              		.loc 1 222 0 is_stmt 1
 1055 0652 04EB4402 		add	r2, r4, r4, lsl #1
 1056 0656 9300     		lsls	r3, r2, #2
 1057 0658 114A     		ldr	r2, .L30+24
 1058 065a 1344     		add	r3, r3, r2
 1059 065c DB78     		ldrb	r3, [r3, #3]	@ zero_extendqisi2
 1060 065e 3B2B     		cmp	r3, #59
 1061 0660 06D9     		bls	.L25
 1062              		.loc 1 222 0 is_stmt 0 discriminator 1
 1063 0662 04EB4402 		add	r2, r4, r4, lsl #1
 1064 0666 9300     		lsls	r3, r2, #2
 1065 0668 0D4A     		ldr	r2, .L30+24
 1066 066a 1344     		add	r3, r3, r2
 1067 066c 0A22     		movs	r2, #10
 1068 066e DA70     		strb	r2, [r3, #3]
 1069              	.L25:
 211:funciones.c   ****       rampas[i].TemperaturaInt=EEPROM_ReadByte(100+(i*6)); 
 1070              		.loc 1 211 0 is_stmt 1 discriminator 2
 1071 0670 0134     		adds	r4, r4, #1
 1072 0672 074B     		ldr	r3, .L30+8
 1073 0674 1C70     		strb	r4, [r3]
 1074              	.L19:
 211:funciones.c   ****       rampas[i].TemperaturaInt=EEPROM_ReadByte(100+(i*6)); 
 1075              		.loc 1 211 0 is_stmt 0 discriminator 1
 1076 0676 064B     		ldr	r3, .L30+8
 1077 0678 1C78     		ldrb	r4, [r3]	@ zero_extendqisi2
 1078 067a 132C     		cmp	r4, #19
 1079 067c 7FF662AF 		bls	.L26
 223:funciones.c   ****    }
 224:funciones.c   **** }
 1080              		.loc 1 224 0 is_stmt 1
 1081 0680 BDE8F081 		pop	{r4, r5, r6, r7, r8, pc}
 1082              	.L31:
ARM GAS  C:\Users\USUARIO\AppData\Local\Temp\ccWuTYF0.s 			page 24


 1083 0684 AFF30080 		.align	3
 1084              	.L30:
 1085 0688 9A999999 		.word	-1717986918
 1086 068c 9999B93F 		.word	1069128089
 1087 0690 00000000 		.word	i
 1088 0694 00000000 		.word	calib
 1089 0698 00000000 		.word	Ganancia
 1090 069c 00000000 		.word	GananciaR
 1091 06a0 00000000 		.word	rampas
 1092 06a4 00007042 		.word	1114636288
 1093 06a8 0000F041 		.word	1106247680
 1094              		.cfi_endproc
 1095              	.LFE69:
 1096              		.size	LeeEEPROM, .-LeeEEPROM
 1097              		.global	__aeabi_fcmplt
 1098              		.section	.text.LimitaValores,"ax",%progbits
 1099              		.align	2
 1100              		.global	LimitaValores
 1101              		.thumb
 1102              		.thumb_func
 1103              		.type	LimitaValores, %function
 1104              	LimitaValores:
 1105              	.LFB70:
 225:funciones.c   **** 
 226:funciones.c   **** void LimitaValores(){
 1106              		.loc 1 226 0
 1107              		.cfi_startproc
 1108              		@ args = 0, pretend = 0, frame = 8
 1109              		@ frame_needed = 0, uses_anonymous_args = 0
 1110 0000 2DE9F04F 		push	{r4, r5, r6, r7, r8, r9, r10, fp, lr}
 1111              		.cfi_def_cfa_offset 36
 1112              		.cfi_offset 4, -36
 1113              		.cfi_offset 5, -32
 1114              		.cfi_offset 6, -28
 1115              		.cfi_offset 7, -24
 1116              		.cfi_offset 8, -20
 1117              		.cfi_offset 9, -16
 1118              		.cfi_offset 10, -12
 1119              		.cfi_offset 11, -8
 1120              		.cfi_offset 14, -4
 1121 0004 83B0     		sub	sp, sp, #12
 1122              		.cfi_def_cfa_offset 48
 227:funciones.c   ****    if(mEstp>59){
 1123              		.loc 1 227 0
 1124 0006 BB4B     		ldr	r3, .L104
 1125 0008 1B78     		ldrb	r3, [r3]	@ zero_extendqisi2
 1126 000a 3B2B     		cmp	r3, #59
 1127 000c 08D9     		bls	.L33
 228:funciones.c   ****       mEstp=10;EEPROM_WriteByte(10,0);CyDelay(20);
 1128              		.loc 1 228 0
 1129 000e 0A20     		movs	r0, #10
 1130 0010 B84B     		ldr	r3, .L104
 1131 0012 1870     		strb	r0, [r3]
 1132 0014 0021     		movs	r1, #0
 1133 0016 FFF7FEFF 		bl	EEPROM_WriteByte
 1134              	.LVL175:
 1135 001a 1420     		movs	r0, #20
ARM GAS  C:\Users\USUARIO\AppData\Local\Temp\ccWuTYF0.s 			page 25


 1136 001c FFF7FEFF 		bl	CyDelay
 1137              	.LVL176:
 1138              	.L33:
 229:funciones.c   ****    }
 230:funciones.c   ****    if(hEstp>99){
 1139              		.loc 1 230 0
 1140 0020 B54B     		ldr	r3, .L104+4
 1141 0022 1B78     		ldrb	r3, [r3]	@ zero_extendqisi2
 1142 0024 632B     		cmp	r3, #99
 1143 0026 08D9     		bls	.L34
 231:funciones.c   ****       hEstp=10;EEPROM_WriteByte(10,1);CyDelay(20);
 1144              		.loc 1 231 0
 1145 0028 0A20     		movs	r0, #10
 1146 002a B34B     		ldr	r3, .L104+4
 1147 002c 1870     		strb	r0, [r3]
 1148 002e 0121     		movs	r1, #1
 1149 0030 FFF7FEFF 		bl	EEPROM_WriteByte
 1150              	.LVL177:
 1151 0034 1420     		movs	r0, #20
 1152 0036 FFF7FEFF 		bl	CyDelay
 1153              	.LVL178:
 1154              	.L34:
 232:funciones.c   ****    }
 233:funciones.c   ****    if(Setpoint>60.0 || Setpoint<0.0){
 1155              		.loc 1 233 0
 1156 003a B04B     		ldr	r3, .L104+8
 1157 003c 1C68     		ldr	r4, [r3]	@ float
 1158 003e B049     		ldr	r1, .L104+12
 1159 0040 2046     		mov	r0, r4
 1160 0042 FFF7FEFF 		bl	__aeabi_fcmpgt
 1161              	.LVL179:
 1162 0046 20B9     		cbnz	r0, .L35
 1163              		.loc 1 233 0 is_stmt 0 discriminator 1
 1164 0048 0021     		movs	r1, #0
 1165 004a 2046     		mov	r0, r4
 1166 004c FFF7FEFF 		bl	__aeabi_fcmplt
 1167              	.LVL180:
 1168 0050 80B1     		cbz	r0, .L36
 1169              	.L35:
 234:funciones.c   ****       Setpoint=30.0;EEPROM_WriteByte(100,2);CyDelay(20);EEPROM_WriteByte(0,3);CyDelay(20);
 1170              		.loc 1 234 0 is_stmt 1
 1171 0052 AC4A     		ldr	r2, .L104+16
 1172 0054 A94B     		ldr	r3, .L104+8
 1173 0056 1A60     		str	r2, [r3]	@ float
 1174 0058 0221     		movs	r1, #2
 1175 005a 6420     		movs	r0, #100
 1176 005c FFF7FEFF 		bl	EEPROM_WriteByte
 1177              	.LVL181:
 1178 0060 1420     		movs	r0, #20
 1179 0062 FFF7FEFF 		bl	CyDelay
 1180              	.LVL182:
 1181 0066 0321     		movs	r1, #3
 1182 0068 0020     		movs	r0, #0
 1183 006a FFF7FEFF 		bl	EEPROM_WriteByte
 1184              	.LVL183:
 1185 006e 1420     		movs	r0, #20
 1186 0070 FFF7FEFF 		bl	CyDelay
ARM GAS  C:\Users\USUARIO\AppData\Local\Temp\ccWuTYF0.s 			page 26


 1187              	.LVL184:
 1188              	.L36:
 235:funciones.c   ****    }
 236:funciones.c   ****    if(SetpointH>95 || SetpointH<10){
 1189              		.loc 1 236 0
 1190 0074 A44B     		ldr	r3, .L104+20
 1191 0076 1B88     		ldrh	r3, [r3]
 1192 0078 0A3B     		subs	r3, r3, #10
 1193 007a 9BB2     		uxth	r3, r3
 1194 007c 552B     		cmp	r3, #85
 1195 007e 08D9     		bls	.L38
 237:funciones.c   ****       SetpointH=60.0;EEPROM_WriteByte(60,4);CyDelay(20);
 1196              		.loc 1 237 0
 1197 0080 3C20     		movs	r0, #60
 1198 0082 A14B     		ldr	r3, .L104+20
 1199 0084 1880     		strh	r0, [r3]	@ movhi
 1200 0086 0421     		movs	r1, #4
 1201 0088 FFF7FEFF 		bl	EEPROM_WriteByte
 1202              	.LVL185:
 1203 008c 1420     		movs	r0, #20
 1204 008e FFF7FEFF 		bl	CyDelay
 1205              	.LVL186:
 1206              	.L38:
 238:funciones.c   ****    }
 239:funciones.c   ****    if(tDefrost>120){
 1207              		.loc 1 239 0
 1208 0092 9E4B     		ldr	r3, .L104+24
 1209 0094 1B88     		ldrh	r3, [r3]
 1210 0096 782B     		cmp	r3, #120
 1211 0098 10D9     		bls	.L39
 240:funciones.c   ****       tDefrost=0;EEPROM_WriteByte(0,5);CyDelay(20);EEPROM_WriteByte(0,6);CyDelay(20);
 1212              		.loc 1 240 0
 1213 009a 0024     		movs	r4, #0
 1214 009c 9B4B     		ldr	r3, .L104+24
 1215 009e 1C80     		strh	r4, [r3]	@ movhi
 1216 00a0 0521     		movs	r1, #5
 1217 00a2 2046     		mov	r0, r4
 1218 00a4 FFF7FEFF 		bl	EEPROM_WriteByte
 1219              	.LVL187:
 1220 00a8 1420     		movs	r0, #20
 1221 00aa FFF7FEFF 		bl	CyDelay
 1222              	.LVL188:
 1223 00ae 0621     		movs	r1, #6
 1224 00b0 2046     		mov	r0, r4
 1225 00b2 FFF7FEFF 		bl	EEPROM_WriteByte
 1226              	.LVL189:
 1227 00b6 1420     		movs	r0, #20
 1228 00b8 FFF7FEFF 		bl	CyDelay
 1229              	.LVL190:
 1230              	.L39:
 241:funciones.c   ****    }
 242:funciones.c   ****    if(tCongela>120 || tCongela<1){
 1231              		.loc 1 242 0
 1232 00bc 934B     		ldr	r3, .L104+24
 1233 00be 5B88     		ldrh	r3, [r3, #2]
 1234 00c0 013B     		subs	r3, r3, #1
 1235 00c2 9BB2     		uxth	r3, r3
ARM GAS  C:\Users\USUARIO\AppData\Local\Temp\ccWuTYF0.s 			page 27


 1236 00c4 772B     		cmp	r3, #119
 1237 00c6 0FD9     		bls	.L40
 243:funciones.c   ****       tCongela=5;EEPROM_WriteByte(5,7);CyDelay(20);EEPROM_WriteByte(0,8);CyDelay(20);
 1238              		.loc 1 243 0
 1239 00c8 0520     		movs	r0, #5
 1240 00ca 904B     		ldr	r3, .L104+24
 1241 00cc 5880     		strh	r0, [r3, #2]	@ movhi
 1242 00ce 0721     		movs	r1, #7
 1243 00d0 FFF7FEFF 		bl	EEPROM_WriteByte
 1244              	.LVL191:
 1245 00d4 1420     		movs	r0, #20
 1246 00d6 FFF7FEFF 		bl	CyDelay
 1247              	.LVL192:
 1248 00da 0821     		movs	r1, #8
 1249 00dc 0020     		movs	r0, #0
 1250 00de FFF7FEFF 		bl	EEPROM_WriteByte
 1251              	.LVL193:
 1252 00e2 1420     		movs	r0, #20
 1253 00e4 FFF7FEFF 		bl	CyDelay
 1254              	.LVL194:
 1255              	.L40:
 244:funciones.c   ****    }
 245:funciones.c   ****    if(tDisplay>60 || tDisplay<5){
 1256              		.loc 1 245 0
 1257 00e8 884B     		ldr	r3, .L104+24
 1258 00ea 1B79     		ldrb	r3, [r3, #4]	@ zero_extendqisi2
 1259 00ec 053B     		subs	r3, r3, #5
 1260 00ee DBB2     		uxtb	r3, r3
 1261 00f0 372B     		cmp	r3, #55
 1262 00f2 08D9     		bls	.L41
 246:funciones.c   ****       tDisplay=10;EEPROM_WriteByte(10,9);CyDelay(20);
 1263              		.loc 1 246 0
 1264 00f4 0A20     		movs	r0, #10
 1265 00f6 854B     		ldr	r3, .L104+24
 1266 00f8 1871     		strb	r0, [r3, #4]
 1267 00fa 0921     		movs	r1, #9
 1268 00fc FFF7FEFF 		bl	EEPROM_WriteByte
 1269              	.LVL195:
 1270 0100 1420     		movs	r0, #20
 1271 0102 FFF7FEFF 		bl	CyDelay
 1272              	.LVL196:
 1273              	.L41:
 247:funciones.c   ****    }
 248:funciones.c   ****    if(Password[0]>9 || Password[0]<0){
 1274              		.loc 1 248 0
 1275 0106 824B     		ldr	r3, .L104+28
 1276 0108 1B78     		ldrb	r3, [r3]	@ zero_extendqisi2
 1277 010a 092B     		cmp	r3, #9
 1278 010c 08D9     		bls	.L42
 249:funciones.c   ****       Password[0]=0;EEPROM_WriteByte(0,10);CyDelay(20);
 1279              		.loc 1 249 0
 1280 010e 0020     		movs	r0, #0
 1281 0110 7F4B     		ldr	r3, .L104+28
 1282 0112 1870     		strb	r0, [r3]
 1283 0114 0A21     		movs	r1, #10
 1284 0116 FFF7FEFF 		bl	EEPROM_WriteByte
 1285              	.LVL197:
ARM GAS  C:\Users\USUARIO\AppData\Local\Temp\ccWuTYF0.s 			page 28


 1286 011a 1420     		movs	r0, #20
 1287 011c FFF7FEFF 		bl	CyDelay
 1288              	.LVL198:
 1289              	.L42:
 250:funciones.c   ****    }
 251:funciones.c   ****    if(Password[1]>9 || Password[1]<0){
 1290              		.loc 1 251 0
 1291 0120 7B4B     		ldr	r3, .L104+28
 1292 0122 5B78     		ldrb	r3, [r3, #1]	@ zero_extendqisi2
 1293 0124 092B     		cmp	r3, #9
 1294 0126 08D9     		bls	.L43
 252:funciones.c   ****       Password[1]=0;EEPROM_WriteByte(0,11);CyDelay(20);
 1295              		.loc 1 252 0
 1296 0128 0020     		movs	r0, #0
 1297 012a 794B     		ldr	r3, .L104+28
 1298 012c 5870     		strb	r0, [r3, #1]
 1299 012e 0B21     		movs	r1, #11
 1300 0130 FFF7FEFF 		bl	EEPROM_WriteByte
 1301              	.LVL199:
 1302 0134 1420     		movs	r0, #20
 1303 0136 FFF7FEFF 		bl	CyDelay
 1304              	.LVL200:
 1305              	.L43:
 253:funciones.c   ****    }
 254:funciones.c   ****    if(Password[2]>9 || Password[2]<0){
 1306              		.loc 1 254 0
 1307 013a 754B     		ldr	r3, .L104+28
 1308 013c 9B78     		ldrb	r3, [r3, #2]	@ zero_extendqisi2
 1309 013e 092B     		cmp	r3, #9
 1310 0140 08D9     		bls	.L44
 255:funciones.c   ****       Password[2]=0;EEPROM_WriteByte(0,12);CyDelay(20);
 1311              		.loc 1 255 0
 1312 0142 0020     		movs	r0, #0
 1313 0144 724B     		ldr	r3, .L104+28
 1314 0146 9870     		strb	r0, [r3, #2]
 1315 0148 0C21     		movs	r1, #12
 1316 014a FFF7FEFF 		bl	EEPROM_WriteByte
 1317              	.LVL201:
 1318 014e 1420     		movs	r0, #20
 1319 0150 FFF7FEFF 		bl	CyDelay
 1320              	.LVL202:
 1321              	.L44:
 256:funciones.c   ****    }
 257:funciones.c   ****    if(Password[3]>9 || Password[3]<0){
 1322              		.loc 1 257 0
 1323 0154 6E4B     		ldr	r3, .L104+28
 1324 0156 DB78     		ldrb	r3, [r3, #3]	@ zero_extendqisi2
 1325 0158 092B     		cmp	r3, #9
 1326 015a 08D9     		bls	.L45
 258:funciones.c   ****       Password[3]=0;EEPROM_WriteByte(0,13);CyDelay(20);
 1327              		.loc 1 258 0
 1328 015c 0020     		movs	r0, #0
 1329 015e 6C4B     		ldr	r3, .L104+28
 1330 0160 D870     		strb	r0, [r3, #3]
 1331 0162 0D21     		movs	r1, #13
 1332 0164 FFF7FEFF 		bl	EEPROM_WriteByte
 1333              	.LVL203:
ARM GAS  C:\Users\USUARIO\AppData\Local\Temp\ccWuTYF0.s 			page 29


 1334 0168 1420     		movs	r0, #20
 1335 016a FFF7FEFF 		bl	CyDelay
 1336              	.LVL204:
 1337              	.L45:
 259:funciones.c   ****    }
 260:funciones.c   ****    if(Ganancia>20 || Ganancia<1){
 1338              		.loc 1 260 0
 1339 016e 694B     		ldr	r3, .L104+32
 1340 0170 1C68     		ldr	r4, [r3]	@ float
 1341 0172 6949     		ldr	r1, .L104+36
 1342 0174 2046     		mov	r0, r4
 1343 0176 FFF7FEFF 		bl	__aeabi_fcmpgt
 1344              	.LVL205:
 1345 017a 28B9     		cbnz	r0, .L46
 1346              		.loc 1 260 0 is_stmt 0 discriminator 1
 1347 017c 4FF07E51 		mov	r1, #1065353216
 1348 0180 2046     		mov	r0, r4
 1349 0182 FFF7FEFF 		bl	__aeabi_fcmplt
 1350              	.LVL206:
 1351 0186 50B1     		cbz	r0, .L47
 1352              	.L46:
 261:funciones.c   ****       Ganancia=2;EEPROM_WriteByte(2,30);CyDelay(20);
 1353              		.loc 1 261 0 is_stmt 1
 1354 0188 4FF08042 		mov	r2, #1073741824
 1355 018c 614B     		ldr	r3, .L104+32
 1356 018e 1A60     		str	r2, [r3]	@ float
 1357 0190 1E21     		movs	r1, #30
 1358 0192 0220     		movs	r0, #2
 1359 0194 FFF7FEFF 		bl	EEPROM_WriteByte
 1360              	.LVL207:
 1361 0198 1420     		movs	r0, #20
 1362 019a FFF7FEFF 		bl	CyDelay
 1363              	.LVL208:
 1364              	.L47:
 262:funciones.c   ****    }
 263:funciones.c   ****    if(Derivativo>80 || Derivativo<5){
 1365              		.loc 1 263 0
 1366 019e 5F4B     		ldr	r3, .L104+40
 1367 01a0 1B78     		ldrb	r3, [r3]	@ zero_extendqisi2
 1368 01a2 053B     		subs	r3, r3, #5
 1369 01a4 DBB2     		uxtb	r3, r3
 1370 01a6 4B2B     		cmp	r3, #75
 1371 01a8 08D9     		bls	.L49
 264:funciones.c   ****       Derivativo=80;EEPROM_WriteByte(80,31);CyDelay(20);
 1372              		.loc 1 264 0
 1373 01aa 5020     		movs	r0, #80
 1374 01ac 5B4B     		ldr	r3, .L104+40
 1375 01ae 1870     		strb	r0, [r3]
 1376 01b0 1F21     		movs	r1, #31
 1377 01b2 FFF7FEFF 		bl	EEPROM_WriteByte
 1378              	.LVL209:
 1379 01b6 1420     		movs	r0, #20
 1380 01b8 FFF7FEFF 		bl	CyDelay
 1381              	.LVL210:
 1382              	.L49:
 265:funciones.c   ****    }
 266:funciones.c   ****    if(Integral>4 || Integral<1){
ARM GAS  C:\Users\USUARIO\AppData\Local\Temp\ccWuTYF0.s 			page 30


 1383              		.loc 1 266 0
 1384 01bc 584B     		ldr	r3, .L104+44
 1385 01be 1B78     		ldrb	r3, [r3]	@ zero_extendqisi2
 1386 01c0 013B     		subs	r3, r3, #1
 1387 01c2 DBB2     		uxtb	r3, r3
 1388 01c4 032B     		cmp	r3, #3
 1389 01c6 08D9     		bls	.L50
 267:funciones.c   ****       Integral=1;EEPROM_WriteByte(1,32);CyDelay(20);
 1390              		.loc 1 267 0
 1391 01c8 0120     		movs	r0, #1
 1392 01ca 554B     		ldr	r3, .L104+44
 1393 01cc 1870     		strb	r0, [r3]
 1394 01ce 2021     		movs	r1, #32
 1395 01d0 FFF7FEFF 		bl	EEPROM_WriteByte
 1396              	.LVL211:
 1397 01d4 1420     		movs	r0, #20
 1398 01d6 FFF7FEFF 		bl	CyDelay
 1399              	.LVL212:
 1400              	.L50:
 268:funciones.c   ****    }
 269:funciones.c   ****    if(Tciclo>20 || Tciclo<5){
 1401              		.loc 1 269 0
 1402 01da 524B     		ldr	r3, .L104+48
 1403 01dc 1B78     		ldrb	r3, [r3]	@ zero_extendqisi2
 1404 01de 053B     		subs	r3, r3, #5
 1405 01e0 DBB2     		uxtb	r3, r3
 1406 01e2 0F2B     		cmp	r3, #15
 1407 01e4 08D9     		bls	.L51
 270:funciones.c   ****       Tciclo=5;EEPROM_WriteByte(5,33);CyDelay(20);
 1408              		.loc 1 270 0
 1409 01e6 0520     		movs	r0, #5
 1410 01e8 4E4B     		ldr	r3, .L104+48
 1411 01ea 1870     		strb	r0, [r3]
 1412 01ec 2121     		movs	r1, #33
 1413 01ee FFF7FEFF 		bl	EEPROM_WriteByte
 1414              	.LVL213:
 1415 01f2 1420     		movs	r0, #20
 1416 01f4 FFF7FEFF 		bl	CyDelay
 1417              	.LVL214:
 1418              	.L51:
 271:funciones.c   ****    }
 272:funciones.c   ****    if(Ajuste>100){
 1419              		.loc 1 272 0
 1420 01f8 4B4B     		ldr	r3, .L104+52
 1421 01fa 1B78     		ldrb	r3, [r3]	@ zero_extendqisi2
 1422 01fc 642B     		cmp	r3, #100
 1423 01fe 08D9     		bls	.L52
 273:funciones.c   ****       Ajuste=0;EEPROM_WriteByte(0,34);CyDelay(20);
 1424              		.loc 1 273 0
 1425 0200 0020     		movs	r0, #0
 1426 0202 494B     		ldr	r3, .L104+52
 1427 0204 1870     		strb	r0, [r3]
 1428 0206 2221     		movs	r1, #34
 1429 0208 FFF7FEFF 		bl	EEPROM_WriteByte
 1430              	.LVL215:
 1431 020c 1420     		movs	r0, #20
 1432 020e FFF7FEFF 		bl	CyDelay
ARM GAS  C:\Users\USUARIO\AppData\Local\Temp\ccWuTYF0.s 			page 31


 1433              	.LVL216:
 1434              	.L52:
 274:funciones.c   ****    }
 275:funciones.c   ****    if(Ajusten>100){
 1435              		.loc 1 275 0
 1436 0212 464B     		ldr	r3, .L104+56
 1437 0214 1B78     		ldrb	r3, [r3]	@ zero_extendqisi2
 1438 0216 642B     		cmp	r3, #100
 1439 0218 08D9     		bls	.L53
 276:funciones.c   ****       Ajusten=0;EEPROM_WriteByte(0,35);CyDelay(20);
 1440              		.loc 1 276 0
 1441 021a 0020     		movs	r0, #0
 1442 021c 434B     		ldr	r3, .L104+56
 1443 021e 1870     		strb	r0, [r3]
 1444 0220 2321     		movs	r1, #35
 1445 0222 FFF7FEFF 		bl	EEPROM_WriteByte
 1446              	.LVL217:
 1447 0226 1420     		movs	r0, #20
 1448 0228 FFF7FEFF 		bl	CyDelay
 1449              	.LVL218:
 1450              	.L53:
 277:funciones.c   ****    }
 278:funciones.c   ****    if(MediaMovil>80 || MediaMovil<10){
 1451              		.loc 1 278 0
 1452 022c 404B     		ldr	r3, .L104+60
 1453 022e 1B78     		ldrb	r3, [r3]	@ zero_extendqisi2
 1454 0230 0A3B     		subs	r3, r3, #10
 1455 0232 DBB2     		uxtb	r3, r3
 1456 0234 462B     		cmp	r3, #70
 1457 0236 08D9     		bls	.L54
 279:funciones.c   ****       MediaMovil=80;EEPROM_WriteByte(80,36);CyDelay(20);
 1458              		.loc 1 279 0
 1459 0238 5020     		movs	r0, #80
 1460 023a 3D4B     		ldr	r3, .L104+60
 1461 023c 1870     		strb	r0, [r3]
 1462 023e 2421     		movs	r1, #36
 1463 0240 FFF7FEFF 		bl	EEPROM_WriteByte
 1464              	.LVL219:
 1465 0244 1420     		movs	r0, #20
 1466 0246 FFF7FEFF 		bl	CyDelay
 1467              	.LVL220:
 1468              	.L54:
 280:funciones.c   ****    }
 281:funciones.c   ****    if(Ajuste2>100){
 1469              		.loc 1 281 0
 1470 024a 3A4B     		ldr	r3, .L104+64
 1471 024c 1B78     		ldrb	r3, [r3]	@ zero_extendqisi2
 1472 024e 642B     		cmp	r3, #100
 1473 0250 08D9     		bls	.L55
 282:funciones.c   ****       Ajuste2=0;EEPROM_WriteByte(0,37);CyDelay(20);
 1474              		.loc 1 282 0
 1475 0252 0020     		movs	r0, #0
 1476 0254 374B     		ldr	r3, .L104+64
 1477 0256 1870     		strb	r0, [r3]
 1478 0258 2521     		movs	r1, #37
 1479 025a FFF7FEFF 		bl	EEPROM_WriteByte
 1480              	.LVL221:
ARM GAS  C:\Users\USUARIO\AppData\Local\Temp\ccWuTYF0.s 			page 32


 1481 025e 1420     		movs	r0, #20
 1482 0260 FFF7FEFF 		bl	CyDelay
 1483              	.LVL222:
 1484              	.L55:
 283:funciones.c   ****    }
 284:funciones.c   ****    if(Ajusten2>100){
 1485              		.loc 1 284 0
 1486 0264 344B     		ldr	r3, .L104+68
 1487 0266 1B78     		ldrb	r3, [r3]	@ zero_extendqisi2
 1488 0268 642B     		cmp	r3, #100
 1489 026a 08D9     		bls	.L56
 285:funciones.c   ****       Ajusten2=0;EEPROM_WriteByte(0,38);CyDelay(20);
 1490              		.loc 1 285 0
 1491 026c 0020     		movs	r0, #0
 1492 026e 324B     		ldr	r3, .L104+68
 1493 0270 1870     		strb	r0, [r3]
 1494 0272 2621     		movs	r1, #38
 1495 0274 FFF7FEFF 		bl	EEPROM_WriteByte
 1496              	.LVL223:
 1497 0278 1420     		movs	r0, #20
 1498 027a FFF7FEFF 		bl	CyDelay
 1499              	.LVL224:
 1500              	.L56:
 286:funciones.c   ****    }
 287:funciones.c   ****    if(MediaMovil2>80 || MediaMovil2<10){
 1501              		.loc 1 287 0
 1502 027e 2F4B     		ldr	r3, .L104+72
 1503 0280 1B78     		ldrb	r3, [r3]	@ zero_extendqisi2
 1504 0282 0A3B     		subs	r3, r3, #10
 1505 0284 DBB2     		uxtb	r3, r3
 1506 0286 462B     		cmp	r3, #70
 1507 0288 08D9     		bls	.L57
 288:funciones.c   ****       MediaMovil2=40;EEPROM_WriteByte(40,39);CyDelay(20);
 1508              		.loc 1 288 0
 1509 028a 2820     		movs	r0, #40
 1510 028c 2B4B     		ldr	r3, .L104+72
 1511 028e 1870     		strb	r0, [r3]
 1512 0290 2721     		movs	r1, #39
 1513 0292 FFF7FEFF 		bl	EEPROM_WriteByte
 1514              	.LVL225:
 1515 0296 1420     		movs	r0, #20
 1516 0298 FFF7FEFF 		bl	CyDelay
 1517              	.LVL226:
 1518              	.L57:
 289:funciones.c   ****    }
 290:funciones.c   ****    if(tmuestreoUSB<1){
 1519              		.loc 1 290 0
 1520 029c 284B     		ldr	r3, .L104+76
 1521 029e 1B78     		ldrb	r3, [r3]	@ zero_extendqisi2
 1522 02a0 4BB9     		cbnz	r3, .L58
 291:funciones.c   ****       tmuestreoUSB=20;EEPROM_WriteByte(20,40);CyDelay(20);
 1523              		.loc 1 291 0
 1524 02a2 1424     		movs	r4, #20
 1525 02a4 264B     		ldr	r3, .L104+76
 1526 02a6 1C70     		strb	r4, [r3]
 1527 02a8 2821     		movs	r1, #40
 1528 02aa 2046     		mov	r0, r4
ARM GAS  C:\Users\USUARIO\AppData\Local\Temp\ccWuTYF0.s 			page 33


 1529 02ac FFF7FEFF 		bl	EEPROM_WriteByte
 1530              	.LVL227:
 1531 02b0 2046     		mov	r0, r4
 1532 02b2 FFF7FEFF 		bl	CyDelay
 1533              	.LVL228:
 1534              	.L58:
 292:funciones.c   ****    }
 293:funciones.c   ****    if(controlT>1){
 1535              		.loc 1 293 0
 1536 02b6 234B     		ldr	r3, .L104+80
 1537 02b8 1B78     		ldrb	r3, [r3]	@ zero_extendqisi2
 1538 02ba 012B     		cmp	r3, #1
 1539 02bc 08D9     		bls	.L59
 294:funciones.c   ****       controlT=0;EEPROM_WriteByte(0,41);CyDelay(20);
 1540              		.loc 1 294 0
 1541 02be 0020     		movs	r0, #0
 1542 02c0 204B     		ldr	r3, .L104+80
 1543 02c2 1870     		strb	r0, [r3]
 1544 02c4 2921     		movs	r1, #41
 1545 02c6 FFF7FEFF 		bl	EEPROM_WriteByte
 1546              	.LVL229:
 1547 02ca 1420     		movs	r0, #20
 1548 02cc FFF7FEFF 		bl	CyDelay
 1549              	.LVL230:
 1550              	.L59:
 295:funciones.c   ****    }
 296:funciones.c   ****    if(controlH>1){
 1551              		.loc 1 296 0
 1552 02d0 1D4B     		ldr	r3, .L104+84
 1553 02d2 1B78     		ldrb	r3, [r3]	@ zero_extendqisi2
 1554 02d4 012B     		cmp	r3, #1
 1555 02d6 08D9     		bls	.L60
 297:funciones.c   ****       controlH=0;EEPROM_WriteByte(0,42);CyDelay(20);
 1556              		.loc 1 297 0
 1557 02d8 0020     		movs	r0, #0
 1558 02da 1B4B     		ldr	r3, .L104+84
 1559 02dc 1870     		strb	r0, [r3]
 1560 02de 2A21     		movs	r1, #42
 1561 02e0 FFF7FEFF 		bl	EEPROM_WriteByte
 1562              	.LVL231:
 1563 02e4 1420     		movs	r0, #20
 1564 02e6 FFF7FEFF 		bl	CyDelay
 1565              	.LVL232:
 1566              	.L60:
 298:funciones.c   ****    }
 299:funciones.c   ****    if(controlR>1){
 1567              		.loc 1 299 0
 1568 02ea 184B     		ldr	r3, .L104+88
 1569 02ec 1B78     		ldrb	r3, [r3]	@ zero_extendqisi2
 1570 02ee 012B     		cmp	r3, #1
 1571 02f0 37D9     		bls	.L61
 1572 02f2 2DE0     		b	.L105
 1573              	.L106:
 1574              		.align	2
 1575              	.L104:
 1576 02f4 00000000 		.word	mEstp
 1577 02f8 00000000 		.word	hEstp
ARM GAS  C:\Users\USUARIO\AppData\Local\Temp\ccWuTYF0.s 			page 34


 1578 02fc 00000000 		.word	Setpoint
 1579 0300 00007042 		.word	1114636288
 1580 0304 0000F041 		.word	1106247680
 1581 0308 00000000 		.word	SetpointH
 1582 030c 00000000 		.word	.LANCHOR0
 1583 0310 00000000 		.word	Password
 1584 0314 00000000 		.word	Ganancia
 1585 0318 0000A041 		.word	1101004800
 1586 031c 00000000 		.word	Derivativo
 1587 0320 00000000 		.word	Integral
 1588 0324 00000000 		.word	Tciclo
 1589 0328 00000000 		.word	Ajuste
 1590 032c 00000000 		.word	Ajusten
 1591 0330 00000000 		.word	MediaMovil
 1592 0334 00000000 		.word	Ajuste2
 1593 0338 00000000 		.word	Ajusten2
 1594 033c 00000000 		.word	MediaMovil2
 1595 0340 00000000 		.word	tmuestreoUSB
 1596 0344 00000000 		.word	controlT
 1597 0348 00000000 		.word	controlH
 1598 034c 00000000 		.word	controlR
 1599              	.L105:
 300:funciones.c   ****       controlR=0;EEPROM_WriteByte(0,43);CyDelay(20);
 1600              		.loc 1 300 0
 1601 0350 0020     		movs	r0, #0
 1602 0352 B14B     		ldr	r3, .L107
 1603 0354 1870     		strb	r0, [r3]
 1604 0356 2B21     		movs	r1, #43
 1605 0358 FFF7FEFF 		bl	EEPROM_WriteByte
 1606              	.LVL233:
 1607 035c 1420     		movs	r0, #20
 1608 035e FFF7FEFF 		bl	CyDelay
 1609              	.LVL234:
 1610              	.L61:
 301:funciones.c   ****    }
 302:funciones.c   ****    if(T1Humedad>60 || T1Humedad<1){
 1611              		.loc 1 302 0
 1612 0362 AE4B     		ldr	r3, .L107+4
 1613 0364 1B78     		ldrb	r3, [r3]	@ zero_extendqisi2
 1614 0366 013B     		subs	r3, r3, #1
 1615 0368 DBB2     		uxtb	r3, r3
 1616 036a 3B2B     		cmp	r3, #59
 1617 036c 08D9     		bls	.L62
 303:funciones.c   ****       T1Humedad=10;EEPROM_WriteByte(10,44);CyDelay(20);
 1618              		.loc 1 303 0
 1619 036e 0A20     		movs	r0, #10
 1620 0370 AA4B     		ldr	r3, .L107+4
 1621 0372 1870     		strb	r0, [r3]
 1622 0374 2C21     		movs	r1, #44
 1623 0376 FFF7FEFF 		bl	EEPROM_WriteByte
 1624              	.LVL235:
 1625 037a 1420     		movs	r0, #20
 1626 037c FFF7FEFF 		bl	CyDelay
 1627              	.LVL236:
 1628              	.L62:
 304:funciones.c   ****    }
 305:funciones.c   ****    if(T2Humedad>60 || T2Humedad<4){
ARM GAS  C:\Users\USUARIO\AppData\Local\Temp\ccWuTYF0.s 			page 35


 1629              		.loc 1 305 0
 1630 0380 A74B     		ldr	r3, .L107+8
 1631 0382 1B78     		ldrb	r3, [r3]	@ zero_extendqisi2
 1632 0384 043B     		subs	r3, r3, #4
 1633 0386 DBB2     		uxtb	r3, r3
 1634 0388 382B     		cmp	r3, #56
 1635 038a 08D9     		bls	.L63
 306:funciones.c   ****       T2Humedad=30;EEPROM_WriteByte(30,45);CyDelay(20);
 1636              		.loc 1 306 0
 1637 038c 1E20     		movs	r0, #30
 1638 038e A44B     		ldr	r3, .L107+8
 1639 0390 1870     		strb	r0, [r3]
 1640 0392 2D21     		movs	r1, #45
 1641 0394 FFF7FEFF 		bl	EEPROM_WriteByte
 1642              	.LVL237:
 1643 0398 1420     		movs	r0, #20
 1644 039a FFF7FEFF 		bl	CyDelay
 1645              	.LVL238:
 1646              	.L63:
 307:funciones.c   ****    }
 308:funciones.c   ****    if(T3Humedad>60 || T3Humedad<1){
 1647              		.loc 1 308 0
 1648 039e A14B     		ldr	r3, .L107+12
 1649 03a0 1B78     		ldrb	r3, [r3]	@ zero_extendqisi2
 1650 03a2 013B     		subs	r3, r3, #1
 1651 03a4 DBB2     		uxtb	r3, r3
 1652 03a6 3B2B     		cmp	r3, #59
 1653 03a8 08D9     		bls	.L64
 309:funciones.c   ****       T3Humedad=6;EEPROM_WriteByte(6,46);CyDelay(20);
 1654              		.loc 1 309 0
 1655 03aa 0620     		movs	r0, #6
 1656 03ac 9D4B     		ldr	r3, .L107+12
 1657 03ae 1870     		strb	r0, [r3]
 1658 03b0 2E21     		movs	r1, #46
 1659 03b2 FFF7FEFF 		bl	EEPROM_WriteByte
 1660              	.LVL239:
 1661 03b6 1420     		movs	r0, #20
 1662 03b8 FFF7FEFF 		bl	CyDelay
 1663              	.LVL240:
 1664              	.L64:
 310:funciones.c   ****    }
 311:funciones.c   ****     for(i=0;i<3;i++){
 1665              		.loc 1 311 0
 1666 03bc 0022     		movs	r2, #0
 1667 03be 9A4B     		ldr	r3, .L107+16
 1668 03c0 1A70     		strb	r2, [r3]
 1669 03c2 A6E2     		b	.L65
 1670              	.L102:
 312:funciones.c   ****         if(i<2){
 1671              		.loc 1 312 0
 1672 03c4 012C     		cmp	r4, #1
 1673 03c6 00F23D81 		bhi	.L66
 313:funciones.c   ****             if(calib[i].patron1>25 || calib[i].patron1<1){
 1674              		.loc 1 313 0
 1675 03ca 04EB4402 		add	r2, r4, r4, lsl #1
 1676 03ce 1301     		lsls	r3, r2, #4
 1677 03d0 964A     		ldr	r2, .L107+20
ARM GAS  C:\Users\USUARIO\AppData\Local\Temp\ccWuTYF0.s 			page 36


 1678 03d2 1344     		add	r3, r3, r2
 1679 03d4 9D69     		ldr	r5, [r3, #24]	@ float
 1680 03d6 9649     		ldr	r1, .L107+24
 1681 03d8 2846     		mov	r0, r5
 1682 03da FFF7FEFF 		bl	__aeabi_fcmpgt
 1683              	.LVL241:
 1684 03de 28B9     		cbnz	r0, .L67
 1685              		.loc 1 313 0 is_stmt 0 discriminator 1
 1686 03e0 4FF07E51 		mov	r1, #1065353216
 1687 03e4 2846     		mov	r0, r5
 1688 03e6 FFF7FEFF 		bl	__aeabi_fcmplt
 1689              	.LVL242:
 1690 03ea F0B1     		cbz	r0, .L68
 1691              	.L67:
 314:funciones.c   ****                 calib[i].patron1=10;EEPROM_WriteByte(10,64+(i*12));CyDelay(20);EEPROM_WriteByte(0,6
 1692              		.loc 1 314 0 is_stmt 1
 1693 03ec 04EB4402 		add	r2, r4, r4, lsl #1
 1694 03f0 1301     		lsls	r3, r2, #4
 1695 03f2 8E4A     		ldr	r2, .L107+20
 1696 03f4 1344     		add	r3, r3, r2
 1697 03f6 8F4A     		ldr	r2, .L107+28
 1698 03f8 9A61     		str	r2, [r3, #24]	@ float
 1699 03fa 04EB4404 		add	r4, r4, r4, lsl #1
 1700 03fe A100     		lsls	r1, r4, #2
 1701 0400 4031     		adds	r1, r1, #64
 1702 0402 89B2     		uxth	r1, r1
 1703 0404 0A20     		movs	r0, #10
 1704 0406 FFF7FEFF 		bl	EEPROM_WriteByte
 1705              	.LVL243:
 1706 040a 1420     		movs	r0, #20
 1707 040c FFF7FEFF 		bl	CyDelay
 1708              	.LVL244:
 1709 0410 854B     		ldr	r3, .L107+16
 1710 0412 1B78     		ldrb	r3, [r3]	@ zero_extendqisi2
 1711 0414 03EB4303 		add	r3, r3, r3, lsl #1
 1712 0418 9900     		lsls	r1, r3, #2
 1713 041a 4131     		adds	r1, r1, #65
 1714 041c 89B2     		uxth	r1, r1
 1715 041e 0020     		movs	r0, #0
 1716 0420 FFF7FEFF 		bl	EEPROM_WriteByte
 1717              	.LVL245:
 1718 0424 1420     		movs	r0, #20
 1719 0426 FFF7FEFF 		bl	CyDelay
 1720              	.LVL246:
 1721              	.L68:
 315:funciones.c   ****             }
 316:funciones.c   ****             if(calib[i].patron2>40 || calib[i].patron2<25){
 1722              		.loc 1 316 0
 1723 042a 7F4B     		ldr	r3, .L107+16
 1724 042c 1C78     		ldrb	r4, [r3]	@ zero_extendqisi2
 1725 042e 04EB4402 		add	r2, r4, r4, lsl #1
 1726 0432 1301     		lsls	r3, r2, #4
 1727 0434 7D4A     		ldr	r2, .L107+20
 1728 0436 1344     		add	r3, r3, r2
 1729 0438 DD69     		ldr	r5, [r3, #28]	@ float
 1730 043a 7F49     		ldr	r1, .L107+32
 1731 043c 2846     		mov	r0, r5
ARM GAS  C:\Users\USUARIO\AppData\Local\Temp\ccWuTYF0.s 			page 37


 1732 043e FFF7FEFF 		bl	__aeabi_fcmpgt
 1733              	.LVL247:
 1734 0442 20B9     		cbnz	r0, .L70
 1735              		.loc 1 316 0 is_stmt 0 discriminator 1
 1736 0444 7A49     		ldr	r1, .L107+24
 1737 0446 2846     		mov	r0, r5
 1738 0448 FFF7FEFF 		bl	__aeabi_fcmplt
 1739              	.LVL248:
 1740 044c F0B1     		cbz	r0, .L71
 1741              	.L70:
 317:funciones.c   ****                 calib[i].patron2=30;EEPROM_WriteByte(30,66+(i*12));CyDelay(20);EEPROM_WriteByte(0,6
 1742              		.loc 1 317 0 is_stmt 1
 1743 044e 04EB4402 		add	r2, r4, r4, lsl #1
 1744 0452 1301     		lsls	r3, r2, #4
 1745 0454 754A     		ldr	r2, .L107+20
 1746 0456 1344     		add	r3, r3, r2
 1747 0458 784A     		ldr	r2, .L107+36
 1748 045a DA61     		str	r2, [r3, #28]	@ float
 1749 045c 04EB4404 		add	r4, r4, r4, lsl #1
 1750 0460 A100     		lsls	r1, r4, #2
 1751 0462 4231     		adds	r1, r1, #66
 1752 0464 89B2     		uxth	r1, r1
 1753 0466 1E20     		movs	r0, #30
 1754 0468 FFF7FEFF 		bl	EEPROM_WriteByte
 1755              	.LVL249:
 1756 046c 1420     		movs	r0, #20
 1757 046e FFF7FEFF 		bl	CyDelay
 1758              	.LVL250:
 1759 0472 6D4B     		ldr	r3, .L107+16
 1760 0474 1B78     		ldrb	r3, [r3]	@ zero_extendqisi2
 1761 0476 03EB4303 		add	r3, r3, r3, lsl #1
 1762 047a 9900     		lsls	r1, r3, #2
 1763 047c 4331     		adds	r1, r1, #67
 1764 047e 89B2     		uxth	r1, r1
 1765 0480 0020     		movs	r0, #0
 1766 0482 FFF7FEFF 		bl	EEPROM_WriteByte
 1767              	.LVL251:
 1768 0486 1420     		movs	r0, #20
 1769 0488 FFF7FEFF 		bl	CyDelay
 1770              	.LVL252:
 1771              	.L71:
 318:funciones.c   ****             }
 319:funciones.c   ****             if(calib[i].patron3>80 || calib[i].patron3<40){
 1772              		.loc 1 319 0
 1773 048c 664B     		ldr	r3, .L107+16
 1774 048e 1C78     		ldrb	r4, [r3]	@ zero_extendqisi2
 1775 0490 04EB4402 		add	r2, r4, r4, lsl #1
 1776 0494 1301     		lsls	r3, r2, #4
 1777 0496 654A     		ldr	r2, .L107+20
 1778 0498 1344     		add	r3, r3, r2
 1779 049a 1D6A     		ldr	r5, [r3, #32]	@ float
 1780 049c 6849     		ldr	r1, .L107+40
 1781 049e 2846     		mov	r0, r5
 1782 04a0 FFF7FEFF 		bl	__aeabi_fcmpgt
 1783              	.LVL253:
 1784 04a4 20B9     		cbnz	r0, .L73
 1785              		.loc 1 319 0 is_stmt 0 discriminator 1
ARM GAS  C:\Users\USUARIO\AppData\Local\Temp\ccWuTYF0.s 			page 38


 1786 04a6 6449     		ldr	r1, .L107+32
 1787 04a8 2846     		mov	r0, r5
 1788 04aa FFF7FEFF 		bl	__aeabi_fcmplt
 1789              	.LVL254:
 1790 04ae F0B1     		cbz	r0, .L74
 1791              	.L73:
 320:funciones.c   ****                 calib[i].patron3=40;EEPROM_WriteByte(40,68+(i*12));CyDelay(20);EEPROM_WriteByte(0,6
 1792              		.loc 1 320 0 is_stmt 1
 1793 04b0 04EB4402 		add	r2, r4, r4, lsl #1
 1794 04b4 1301     		lsls	r3, r2, #4
 1795 04b6 5D4A     		ldr	r2, .L107+20
 1796 04b8 1344     		add	r3, r3, r2
 1797 04ba 5F4A     		ldr	r2, .L107+32
 1798 04bc 1A62     		str	r2, [r3, #32]	@ float
 1799 04be 04EB4404 		add	r4, r4, r4, lsl #1
 1800 04c2 A100     		lsls	r1, r4, #2
 1801 04c4 4431     		adds	r1, r1, #68
 1802 04c6 89B2     		uxth	r1, r1
 1803 04c8 2820     		movs	r0, #40
 1804 04ca FFF7FEFF 		bl	EEPROM_WriteByte
 1805              	.LVL255:
 1806 04ce 1420     		movs	r0, #20
 1807 04d0 FFF7FEFF 		bl	CyDelay
 1808              	.LVL256:
 1809 04d4 544B     		ldr	r3, .L107+16
 1810 04d6 1B78     		ldrb	r3, [r3]	@ zero_extendqisi2
 1811 04d8 03EB4303 		add	r3, r3, r3, lsl #1
 1812 04dc 9900     		lsls	r1, r3, #2
 1813 04de 4531     		adds	r1, r1, #69
 1814 04e0 89B2     		uxth	r1, r1
 1815 04e2 0020     		movs	r0, #0
 1816 04e4 FFF7FEFF 		bl	EEPROM_WriteByte
 1817              	.LVL257:
 1818 04e8 1420     		movs	r0, #20
 1819 04ea FFF7FEFF 		bl	CyDelay
 1820              	.LVL258:
 1821              	.L74:
 321:funciones.c   ****             }
 322:funciones.c   ****             if(calib[i].control1>25 || calib[i].control1<1){
 1822              		.loc 1 322 0
 1823 04ee 4E4B     		ldr	r3, .L107+16
 1824 04f0 1C78     		ldrb	r4, [r3]	@ zero_extendqisi2
 1825 04f2 04EB4402 		add	r2, r4, r4, lsl #1
 1826 04f6 1301     		lsls	r3, r2, #4
 1827 04f8 4C4A     		ldr	r2, .L107+20
 1828 04fa D558     		ldr	r5, [r2, r3]	@ float
 1829 04fc 4C49     		ldr	r1, .L107+24
 1830 04fe 2846     		mov	r0, r5
 1831 0500 FFF7FEFF 		bl	__aeabi_fcmpgt
 1832              	.LVL259:
 1833 0504 28B9     		cbnz	r0, .L76
 1834              		.loc 1 322 0 is_stmt 0 discriminator 1
 1835 0506 4FF07E51 		mov	r1, #1065353216
 1836 050a 2846     		mov	r0, r5
 1837 050c FFF7FEFF 		bl	__aeabi_fcmplt
 1838              	.LVL260:
 1839 0510 E8B1     		cbz	r0, .L77
ARM GAS  C:\Users\USUARIO\AppData\Local\Temp\ccWuTYF0.s 			page 39


 1840              	.L76:
 323:funciones.c   ****                 calib[i].control1=10;EEPROM_WriteByte(10,70+(i*12));CyDelay(20);EEPROM_WriteByte(0,
 1841              		.loc 1 323 0 is_stmt 1
 1842 0512 04EB4402 		add	r2, r4, r4, lsl #1
 1843 0516 1301     		lsls	r3, r2, #4
 1844 0518 4649     		ldr	r1, .L107+28
 1845 051a 444A     		ldr	r2, .L107+20
 1846 051c D150     		str	r1, [r2, r3]	@ float
 1847 051e 04EB4404 		add	r4, r4, r4, lsl #1
 1848 0522 A100     		lsls	r1, r4, #2
 1849 0524 4631     		adds	r1, r1, #70
 1850 0526 89B2     		uxth	r1, r1
 1851 0528 0A20     		movs	r0, #10
 1852 052a FFF7FEFF 		bl	EEPROM_WriteByte
 1853              	.LVL261:
 1854 052e 1420     		movs	r0, #20
 1855 0530 FFF7FEFF 		bl	CyDelay
 1856              	.LVL262:
 1857 0534 3C4B     		ldr	r3, .L107+16
 1858 0536 1B78     		ldrb	r3, [r3]	@ zero_extendqisi2
 1859 0538 03EB4303 		add	r3, r3, r3, lsl #1
 1860 053c 9900     		lsls	r1, r3, #2
 1861 053e 4731     		adds	r1, r1, #71
 1862 0540 89B2     		uxth	r1, r1
 1863 0542 0020     		movs	r0, #0
 1864 0544 FFF7FEFF 		bl	EEPROM_WriteByte
 1865              	.LVL263:
 1866 0548 1420     		movs	r0, #20
 1867 054a FFF7FEFF 		bl	CyDelay
 1868              	.LVL264:
 1869              	.L77:
 324:funciones.c   ****             }
 325:funciones.c   ****             if(calib[i].control2>40 || calib[i].control2<25){
 1870              		.loc 1 325 0
 1871 054e 364B     		ldr	r3, .L107+16
 1872 0550 1C78     		ldrb	r4, [r3]	@ zero_extendqisi2
 1873 0552 04EB4402 		add	r2, r4, r4, lsl #1
 1874 0556 1301     		lsls	r3, r2, #4
 1875 0558 344A     		ldr	r2, .L107+20
 1876 055a 1344     		add	r3, r3, r2
 1877 055c 5D68     		ldr	r5, [r3, #4]	@ float
 1878 055e 3649     		ldr	r1, .L107+32
 1879 0560 2846     		mov	r0, r5
 1880 0562 FFF7FEFF 		bl	__aeabi_fcmpgt
 1881              	.LVL265:
 1882 0566 20B9     		cbnz	r0, .L79
 1883              		.loc 1 325 0 is_stmt 0 discriminator 1
 1884 0568 3149     		ldr	r1, .L107+24
 1885 056a 2846     		mov	r0, r5
 1886 056c FFF7FEFF 		bl	__aeabi_fcmplt
 1887              	.LVL266:
 1888 0570 F0B1     		cbz	r0, .L80
 1889              	.L79:
 326:funciones.c   ****                 calib[i].control2=30;EEPROM_WriteByte(30,72+(i*12));CyDelay(20);EEPROM_WriteByte(0,
 1890              		.loc 1 326 0 is_stmt 1
 1891 0572 04EB4402 		add	r2, r4, r4, lsl #1
 1892 0576 1301     		lsls	r3, r2, #4
ARM GAS  C:\Users\USUARIO\AppData\Local\Temp\ccWuTYF0.s 			page 40


 1893 0578 2C4A     		ldr	r2, .L107+20
 1894 057a 1344     		add	r3, r3, r2
 1895 057c 2F4A     		ldr	r2, .L107+36
 1896 057e 5A60     		str	r2, [r3, #4]	@ float
 1897 0580 04EB4404 		add	r4, r4, r4, lsl #1
 1898 0584 A100     		lsls	r1, r4, #2
 1899 0586 4831     		adds	r1, r1, #72
 1900 0588 89B2     		uxth	r1, r1
 1901 058a 1E20     		movs	r0, #30
 1902 058c FFF7FEFF 		bl	EEPROM_WriteByte
 1903              	.LVL267:
 1904 0590 1420     		movs	r0, #20
 1905 0592 FFF7FEFF 		bl	CyDelay
 1906              	.LVL268:
 1907 0596 244B     		ldr	r3, .L107+16
 1908 0598 1B78     		ldrb	r3, [r3]	@ zero_extendqisi2
 1909 059a 03EB4303 		add	r3, r3, r3, lsl #1
 1910 059e 9900     		lsls	r1, r3, #2
 1911 05a0 4931     		adds	r1, r1, #73
 1912 05a2 89B2     		uxth	r1, r1
 1913 05a4 0020     		movs	r0, #0
 1914 05a6 FFF7FEFF 		bl	EEPROM_WriteByte
 1915              	.LVL269:
 1916 05aa 1420     		movs	r0, #20
 1917 05ac FFF7FEFF 		bl	CyDelay
 1918              	.LVL270:
 1919              	.L80:
 327:funciones.c   ****             }
 328:funciones.c   ****             if(calib[i].control3>80 || calib[i].control3<40){
 1920              		.loc 1 328 0
 1921 05b0 1D4B     		ldr	r3, .L107+16
 1922 05b2 1C78     		ldrb	r4, [r3]	@ zero_extendqisi2
 1923 05b4 04EB4402 		add	r2, r4, r4, lsl #1
 1924 05b8 1301     		lsls	r3, r2, #4
 1925 05ba 1C4A     		ldr	r2, .L107+20
 1926 05bc 1344     		add	r3, r3, r2
 1927 05be 9D68     		ldr	r5, [r3, #8]	@ float
 1928 05c0 1F49     		ldr	r1, .L107+40
 1929 05c2 2846     		mov	r0, r5
 1930 05c4 FFF7FEFF 		bl	__aeabi_fcmpgt
 1931              	.LVL271:
 1932 05c8 30B9     		cbnz	r0, .L82
 1933              		.loc 1 328 0 is_stmt 0 discriminator 1
 1934 05ca 1B49     		ldr	r1, .L107+32
 1935 05cc 2846     		mov	r0, r5
 1936 05ce FFF7FEFF 		bl	__aeabi_fcmplt
 1937              	.LVL272:
 1938 05d2 0028     		cmp	r0, #0
 1939 05d4 00F05D81 		beq	.L83
 1940              	.L82:
 329:funciones.c   ****                 calib[i].control3=40;EEPROM_WriteByte(40,74+(i*12));CyDelay(20);EEPROM_WriteByte(0,
 1941              		.loc 1 329 0 is_stmt 1
 1942 05d8 04EB4402 		add	r2, r4, r4, lsl #1
 1943 05dc 1301     		lsls	r3, r2, #4
 1944 05de 134A     		ldr	r2, .L107+20
 1945 05e0 1344     		add	r3, r3, r2
 1946 05e2 154A     		ldr	r2, .L107+32
ARM GAS  C:\Users\USUARIO\AppData\Local\Temp\ccWuTYF0.s 			page 41


 1947 05e4 9A60     		str	r2, [r3, #8]	@ float
 1948 05e6 04EB4404 		add	r4, r4, r4, lsl #1
 1949 05ea A100     		lsls	r1, r4, #2
 1950 05ec 4A31     		adds	r1, r1, #74
 1951 05ee 89B2     		uxth	r1, r1
 1952 05f0 2820     		movs	r0, #40
 1953 05f2 FFF7FEFF 		bl	EEPROM_WriteByte
 1954              	.LVL273:
 1955 05f6 1420     		movs	r0, #20
 1956 05f8 FFF7FEFF 		bl	CyDelay
 1957              	.LVL274:
 1958 05fc 0A4B     		ldr	r3, .L107+16
 1959 05fe 1B78     		ldrb	r3, [r3]	@ zero_extendqisi2
 1960 0600 03EB4303 		add	r3, r3, r3, lsl #1
 1961 0604 9900     		lsls	r1, r3, #2
 1962 0606 4B31     		adds	r1, r1, #75
 1963 0608 89B2     		uxth	r1, r1
 1964 060a 0020     		movs	r0, #0
 1965 060c FFF7FEFF 		bl	EEPROM_WriteByte
 1966              	.LVL275:
 1967 0610 1420     		movs	r0, #20
 1968 0612 FFF7FEFF 		bl	CyDelay
 1969              	.LVL276:
 1970 0616 3CE1     		b	.L83
 1971              	.L108:
 1972              		.align	2
 1973              	.L107:
 1974 0618 00000000 		.word	controlR
 1975 061c 00000000 		.word	T1Humedad
 1976 0620 00000000 		.word	T2Humedad
 1977 0624 00000000 		.word	T3Humedad
 1978 0628 00000000 		.word	i
 1979 062c 00000000 		.word	calib
 1980 0630 0000C841 		.word	1103626240
 1981 0634 00002041 		.word	1092616192
 1982 0638 00002042 		.word	1109393408
 1983 063c 0000F041 		.word	1106247680
 1984 0640 0000A042 		.word	1117782016
 1985              	.L66:
 330:funciones.c   ****             }
 331:funciones.c   ****         }else{
 332:funciones.c   ****             if(calib[i].patron1>100 || calib[i].patron1<10){
 1986              		.loc 1 332 0
 1987 0644 04EB4402 		add	r2, r4, r4, lsl #1
 1988 0648 1301     		lsls	r3, r2, #4
 1989 064a B54A     		ldr	r2, .L109
 1990 064c 1344     		add	r3, r3, r2
 1991 064e 9D69     		ldr	r5, [r3, #24]	@ float
 1992 0650 B449     		ldr	r1, .L109+4
 1993 0652 2846     		mov	r0, r5
 1994 0654 FFF7FEFF 		bl	__aeabi_fcmpgt
 1995              	.LVL277:
 1996 0658 20B9     		cbnz	r0, .L85
 1997              		.loc 1 332 0 is_stmt 0 discriminator 1
 1998 065a B349     		ldr	r1, .L109+8
 1999 065c 2846     		mov	r0, r5
 2000 065e FFF7FEFF 		bl	__aeabi_fcmplt
ARM GAS  C:\Users\USUARIO\AppData\Local\Temp\ccWuTYF0.s 			page 42


 2001              	.LVL278:
 2002 0662 F0B1     		cbz	r0, .L86
 2003              	.L85:
 333:funciones.c   ****                 calib[i].patron1=10;EEPROM_WriteByte(10,64+(i*12));CyDelay(20);EEPROM_WriteByte(0,6
 2004              		.loc 1 333 0 is_stmt 1
 2005 0664 04EB4402 		add	r2, r4, r4, lsl #1
 2006 0668 1301     		lsls	r3, r2, #4
 2007 066a AD4A     		ldr	r2, .L109
 2008 066c 1344     		add	r3, r3, r2
 2009 066e AE4A     		ldr	r2, .L109+8
 2010 0670 9A61     		str	r2, [r3, #24]	@ float
 2011 0672 04EB4404 		add	r4, r4, r4, lsl #1
 2012 0676 A100     		lsls	r1, r4, #2
 2013 0678 4031     		adds	r1, r1, #64
 2014 067a 89B2     		uxth	r1, r1
 2015 067c 0A20     		movs	r0, #10
 2016 067e FFF7FEFF 		bl	EEPROM_WriteByte
 2017              	.LVL279:
 2018 0682 1420     		movs	r0, #20
 2019 0684 FFF7FEFF 		bl	CyDelay
 2020              	.LVL280:
 2021 0688 A84B     		ldr	r3, .L109+12
 2022 068a 1B78     		ldrb	r3, [r3]	@ zero_extendqisi2
 2023 068c 03EB4303 		add	r3, r3, r3, lsl #1
 2024 0690 9900     		lsls	r1, r3, #2
 2025 0692 4131     		adds	r1, r1, #65
 2026 0694 89B2     		uxth	r1, r1
 2027 0696 0020     		movs	r0, #0
 2028 0698 FFF7FEFF 		bl	EEPROM_WriteByte
 2029              	.LVL281:
 2030 069c 1420     		movs	r0, #20
 2031 069e FFF7FEFF 		bl	CyDelay
 2032              	.LVL282:
 2033              	.L86:
 334:funciones.c   ****             }
 335:funciones.c   ****             if(calib[i].patron2>100 || calib[i].patron2<1){
 2034              		.loc 1 335 0
 2035 06a2 A24B     		ldr	r3, .L109+12
 2036 06a4 1C78     		ldrb	r4, [r3]	@ zero_extendqisi2
 2037 06a6 04EB4402 		add	r2, r4, r4, lsl #1
 2038 06aa 1301     		lsls	r3, r2, #4
 2039 06ac 9C4A     		ldr	r2, .L109
 2040 06ae 1344     		add	r3, r3, r2
 2041 06b0 DD69     		ldr	r5, [r3, #28]	@ float
 2042 06b2 9C49     		ldr	r1, .L109+4
 2043 06b4 2846     		mov	r0, r5
 2044 06b6 FFF7FEFF 		bl	__aeabi_fcmpgt
 2045              	.LVL283:
 2046 06ba 28B9     		cbnz	r0, .L88
 2047              		.loc 1 335 0 is_stmt 0 discriminator 1
 2048 06bc 4FF07E51 		mov	r1, #1065353216
 2049 06c0 2846     		mov	r0, r5
 2050 06c2 FFF7FEFF 		bl	__aeabi_fcmplt
 2051              	.LVL284:
 2052 06c6 F0B1     		cbz	r0, .L89
 2053              	.L88:
 336:funciones.c   ****                 calib[i].patron2=40;EEPROM_WriteByte(40,66+(i*12));CyDelay(20);EEPROM_WriteByte(0,6
ARM GAS  C:\Users\USUARIO\AppData\Local\Temp\ccWuTYF0.s 			page 43


 2054              		.loc 1 336 0 is_stmt 1
 2055 06c8 04EB4402 		add	r2, r4, r4, lsl #1
 2056 06cc 1301     		lsls	r3, r2, #4
 2057 06ce 944A     		ldr	r2, .L109
 2058 06d0 1344     		add	r3, r3, r2
 2059 06d2 974A     		ldr	r2, .L109+16
 2060 06d4 DA61     		str	r2, [r3, #28]	@ float
 2061 06d6 04EB4404 		add	r4, r4, r4, lsl #1
 2062 06da A100     		lsls	r1, r4, #2
 2063 06dc 4231     		adds	r1, r1, #66
 2064 06de 89B2     		uxth	r1, r1
 2065 06e0 2820     		movs	r0, #40
 2066 06e2 FFF7FEFF 		bl	EEPROM_WriteByte
 2067              	.LVL285:
 2068 06e6 1420     		movs	r0, #20
 2069 06e8 FFF7FEFF 		bl	CyDelay
 2070              	.LVL286:
 2071 06ec 8F4B     		ldr	r3, .L109+12
 2072 06ee 1B78     		ldrb	r3, [r3]	@ zero_extendqisi2
 2073 06f0 03EB4303 		add	r3, r3, r3, lsl #1
 2074 06f4 9900     		lsls	r1, r3, #2
 2075 06f6 4331     		adds	r1, r1, #67
 2076 06f8 89B2     		uxth	r1, r1
 2077 06fa 0020     		movs	r0, #0
 2078 06fc FFF7FEFF 		bl	EEPROM_WriteByte
 2079              	.LVL287:
 2080 0700 1420     		movs	r0, #20
 2081 0702 FFF7FEFF 		bl	CyDelay
 2082              	.LVL288:
 2083              	.L89:
 337:funciones.c   ****             }
 338:funciones.c   ****             if(calib[i].patron3>100 || calib[i].patron3<1){
 2084              		.loc 1 338 0
 2085 0706 894B     		ldr	r3, .L109+12
 2086 0708 1C78     		ldrb	r4, [r3]	@ zero_extendqisi2
 2087 070a 04EB4402 		add	r2, r4, r4, lsl #1
 2088 070e 1301     		lsls	r3, r2, #4
 2089 0710 834A     		ldr	r2, .L109
 2090 0712 1344     		add	r3, r3, r2
 2091 0714 1D6A     		ldr	r5, [r3, #32]	@ float
 2092 0716 8349     		ldr	r1, .L109+4
 2093 0718 2846     		mov	r0, r5
 2094 071a FFF7FEFF 		bl	__aeabi_fcmpgt
 2095              	.LVL289:
 2096 071e 28B9     		cbnz	r0, .L91
 2097              		.loc 1 338 0 is_stmt 0 discriminator 1
 2098 0720 4FF07E51 		mov	r1, #1065353216
 2099 0724 2846     		mov	r0, r5
 2100 0726 FFF7FEFF 		bl	__aeabi_fcmplt
 2101              	.LVL290:
 2102 072a F0B1     		cbz	r0, .L92
 2103              	.L91:
 339:funciones.c   ****                 calib[i].patron3=80;EEPROM_WriteByte(80,68+(i*12));CyDelay(20);EEPROM_WriteByte(0,6
 2104              		.loc 1 339 0 is_stmt 1
 2105 072c 04EB4402 		add	r2, r4, r4, lsl #1
 2106 0730 1301     		lsls	r3, r2, #4
 2107 0732 7B4A     		ldr	r2, .L109
ARM GAS  C:\Users\USUARIO\AppData\Local\Temp\ccWuTYF0.s 			page 44


 2108 0734 1344     		add	r3, r3, r2
 2109 0736 7F4A     		ldr	r2, .L109+20
 2110 0738 1A62     		str	r2, [r3, #32]	@ float
 2111 073a 04EB4404 		add	r4, r4, r4, lsl #1
 2112 073e A100     		lsls	r1, r4, #2
 2113 0740 4431     		adds	r1, r1, #68
 2114 0742 89B2     		uxth	r1, r1
 2115 0744 5020     		movs	r0, #80
 2116 0746 FFF7FEFF 		bl	EEPROM_WriteByte
 2117              	.LVL291:
 2118 074a 1420     		movs	r0, #20
 2119 074c FFF7FEFF 		bl	CyDelay
 2120              	.LVL292:
 2121 0750 764B     		ldr	r3, .L109+12
 2122 0752 1B78     		ldrb	r3, [r3]	@ zero_extendqisi2
 2123 0754 03EB4303 		add	r3, r3, r3, lsl #1
 2124 0758 9900     		lsls	r1, r3, #2
 2125 075a 4531     		adds	r1, r1, #69
 2126 075c 89B2     		uxth	r1, r1
 2127 075e 0020     		movs	r0, #0
 2128 0760 FFF7FEFF 		bl	EEPROM_WriteByte
 2129              	.LVL293:
 2130 0764 1420     		movs	r0, #20
 2131 0766 FFF7FEFF 		bl	CyDelay
 2132              	.LVL294:
 2133              	.L92:
 340:funciones.c   ****             }
 341:funciones.c   ****             if(calib[i].control1>100 || calib[i].control1<1){
 2134              		.loc 1 341 0
 2135 076a 704B     		ldr	r3, .L109+12
 2136 076c 1C78     		ldrb	r4, [r3]	@ zero_extendqisi2
 2137 076e 04EB4402 		add	r2, r4, r4, lsl #1
 2138 0772 1301     		lsls	r3, r2, #4
 2139 0774 6A4A     		ldr	r2, .L109
 2140 0776 D558     		ldr	r5, [r2, r3]	@ float
 2141 0778 6A49     		ldr	r1, .L109+4
 2142 077a 2846     		mov	r0, r5
 2143 077c FFF7FEFF 		bl	__aeabi_fcmpgt
 2144              	.LVL295:
 2145 0780 28B9     		cbnz	r0, .L94
 2146              		.loc 1 341 0 is_stmt 0 discriminator 1
 2147 0782 4FF07E51 		mov	r1, #1065353216
 2148 0786 2846     		mov	r0, r5
 2149 0788 FFF7FEFF 		bl	__aeabi_fcmplt
 2150              	.LVL296:
 2151 078c E8B1     		cbz	r0, .L95
 2152              	.L94:
 342:funciones.c   ****                 calib[i].control1=10;EEPROM_WriteByte(10,70+(i*12));CyDelay(20);EEPROM_WriteByte(0,
 2153              		.loc 1 342 0 is_stmt 1
 2154 078e 04EB4402 		add	r2, r4, r4, lsl #1
 2155 0792 1301     		lsls	r3, r2, #4
 2156 0794 6449     		ldr	r1, .L109+8
 2157 0796 624A     		ldr	r2, .L109
 2158 0798 D150     		str	r1, [r2, r3]	@ float
 2159 079a 04EB4404 		add	r4, r4, r4, lsl #1
 2160 079e A100     		lsls	r1, r4, #2
 2161 07a0 4631     		adds	r1, r1, #70
ARM GAS  C:\Users\USUARIO\AppData\Local\Temp\ccWuTYF0.s 			page 45


 2162 07a2 89B2     		uxth	r1, r1
 2163 07a4 0A20     		movs	r0, #10
 2164 07a6 FFF7FEFF 		bl	EEPROM_WriteByte
 2165              	.LVL297:
 2166 07aa 1420     		movs	r0, #20
 2167 07ac FFF7FEFF 		bl	CyDelay
 2168              	.LVL298:
 2169 07b0 5E4B     		ldr	r3, .L109+12
 2170 07b2 1B78     		ldrb	r3, [r3]	@ zero_extendqisi2
 2171 07b4 03EB4303 		add	r3, r3, r3, lsl #1
 2172 07b8 9900     		lsls	r1, r3, #2
 2173 07ba 4731     		adds	r1, r1, #71
 2174 07bc 89B2     		uxth	r1, r1
 2175 07be 0020     		movs	r0, #0
 2176 07c0 FFF7FEFF 		bl	EEPROM_WriteByte
 2177              	.LVL299:
 2178 07c4 1420     		movs	r0, #20
 2179 07c6 FFF7FEFF 		bl	CyDelay
 2180              	.LVL300:
 2181              	.L95:
 343:funciones.c   ****             }
 344:funciones.c   ****             if(calib[i].control2>100 || calib[i].control2<1){
 2182              		.loc 1 344 0
 2183 07ca 584B     		ldr	r3, .L109+12
 2184 07cc 1C78     		ldrb	r4, [r3]	@ zero_extendqisi2
 2185 07ce 04EB4402 		add	r2, r4, r4, lsl #1
 2186 07d2 1301     		lsls	r3, r2, #4
 2187 07d4 524A     		ldr	r2, .L109
 2188 07d6 1344     		add	r3, r3, r2
 2189 07d8 5D68     		ldr	r5, [r3, #4]	@ float
 2190 07da 5249     		ldr	r1, .L109+4
 2191 07dc 2846     		mov	r0, r5
 2192 07de FFF7FEFF 		bl	__aeabi_fcmpgt
 2193              	.LVL301:
 2194 07e2 28B9     		cbnz	r0, .L97
 2195              		.loc 1 344 0 is_stmt 0 discriminator 1
 2196 07e4 4FF07E51 		mov	r1, #1065353216
 2197 07e8 2846     		mov	r0, r5
 2198 07ea FFF7FEFF 		bl	__aeabi_fcmplt
 2199              	.LVL302:
 2200 07ee F0B1     		cbz	r0, .L98
 2201              	.L97:
 345:funciones.c   ****                 calib[i].control2=40;EEPROM_WriteByte(40,72+(i*12));CyDelay(20);EEPROM_WriteByte(0,
 2202              		.loc 1 345 0 is_stmt 1
 2203 07f0 04EB4402 		add	r2, r4, r4, lsl #1
 2204 07f4 1301     		lsls	r3, r2, #4
 2205 07f6 4A4A     		ldr	r2, .L109
 2206 07f8 1344     		add	r3, r3, r2
 2207 07fa 4D4A     		ldr	r2, .L109+16
 2208 07fc 5A60     		str	r2, [r3, #4]	@ float
 2209 07fe 04EB4404 		add	r4, r4, r4, lsl #1
 2210 0802 A100     		lsls	r1, r4, #2
 2211 0804 4831     		adds	r1, r1, #72
 2212 0806 89B2     		uxth	r1, r1
 2213 0808 2820     		movs	r0, #40
 2214 080a FFF7FEFF 		bl	EEPROM_WriteByte
 2215              	.LVL303:
ARM GAS  C:\Users\USUARIO\AppData\Local\Temp\ccWuTYF0.s 			page 46


 2216 080e 1420     		movs	r0, #20
 2217 0810 FFF7FEFF 		bl	CyDelay
 2218              	.LVL304:
 2219 0814 454B     		ldr	r3, .L109+12
 2220 0816 1B78     		ldrb	r3, [r3]	@ zero_extendqisi2
 2221 0818 03EB4303 		add	r3, r3, r3, lsl #1
 2222 081c 9900     		lsls	r1, r3, #2
 2223 081e 4931     		adds	r1, r1, #73
 2224 0820 89B2     		uxth	r1, r1
 2225 0822 0020     		movs	r0, #0
 2226 0824 FFF7FEFF 		bl	EEPROM_WriteByte
 2227              	.LVL305:
 2228 0828 1420     		movs	r0, #20
 2229 082a FFF7FEFF 		bl	CyDelay
 2230              	.LVL306:
 2231              	.L98:
 346:funciones.c   ****             }
 347:funciones.c   ****             if(calib[i].control3>100 || calib[i].control3<1){
 2232              		.loc 1 347 0
 2233 082e 3F4B     		ldr	r3, .L109+12
 2234 0830 1C78     		ldrb	r4, [r3]	@ zero_extendqisi2
 2235 0832 04EB4402 		add	r2, r4, r4, lsl #1
 2236 0836 1301     		lsls	r3, r2, #4
 2237 0838 394A     		ldr	r2, .L109
 2238 083a 1344     		add	r3, r3, r2
 2239 083c 9D68     		ldr	r5, [r3, #8]	@ float
 2240 083e 3949     		ldr	r1, .L109+4
 2241 0840 2846     		mov	r0, r5
 2242 0842 FFF7FEFF 		bl	__aeabi_fcmpgt
 2243              	.LVL307:
 2244 0846 28B9     		cbnz	r0, .L100
 2245              		.loc 1 347 0 is_stmt 0 discriminator 1
 2246 0848 4FF07E51 		mov	r1, #1065353216
 2247 084c 2846     		mov	r0, r5
 2248 084e FFF7FEFF 		bl	__aeabi_fcmplt
 2249              	.LVL308:
 2250 0852 F0B1     		cbz	r0, .L83
 2251              	.L100:
 348:funciones.c   ****                 calib[i].control3=80;EEPROM_WriteByte(80,74+(i*12));CyDelay(20);EEPROM_WriteByte(0,
 2252              		.loc 1 348 0 is_stmt 1
 2253 0854 04EB4402 		add	r2, r4, r4, lsl #1
 2254 0858 1301     		lsls	r3, r2, #4
 2255 085a 314A     		ldr	r2, .L109
 2256 085c 1344     		add	r3, r3, r2
 2257 085e 354A     		ldr	r2, .L109+20
 2258 0860 9A60     		str	r2, [r3, #8]	@ float
 2259 0862 04EB4404 		add	r4, r4, r4, lsl #1
 2260 0866 A100     		lsls	r1, r4, #2
 2261 0868 4A31     		adds	r1, r1, #74
 2262 086a 89B2     		uxth	r1, r1
 2263 086c 5020     		movs	r0, #80
 2264 086e FFF7FEFF 		bl	EEPROM_WriteByte
 2265              	.LVL309:
 2266 0872 1420     		movs	r0, #20
 2267 0874 FFF7FEFF 		bl	CyDelay
 2268              	.LVL310:
 2269 0878 2C4B     		ldr	r3, .L109+12
ARM GAS  C:\Users\USUARIO\AppData\Local\Temp\ccWuTYF0.s 			page 47


 2270 087a 1B78     		ldrb	r3, [r3]	@ zero_extendqisi2
 2271 087c 03EB4303 		add	r3, r3, r3, lsl #1
 2272 0880 9900     		lsls	r1, r3, #2
 2273 0882 4B31     		adds	r1, r1, #75
 2274 0884 89B2     		uxth	r1, r1
 2275 0886 0020     		movs	r0, #0
 2276 0888 FFF7FEFF 		bl	EEPROM_WriteByte
 2277              	.LVL311:
 2278 088c 1420     		movs	r0, #20
 2279 088e FFF7FEFF 		bl	CyDelay
 2280              	.LVL312:
 2281              	.L83:
 349:funciones.c   ****             }   
 350:funciones.c   ****         }
 351:funciones.c   ****         calib[i].m1=(calib[i].control2-calib[i].control1)/(calib[i].patron2-calib[i].patron1);
 2282              		.loc 1 351 0 discriminator 2
 2283 0892 DFF89890 		ldr	r9, .L109+12
 2284 0896 99F80050 		ldrb	r5, [r9]	@ zero_extendqisi2
 2285 089a 214F     		ldr	r7, .L109
 2286 089c 6E00     		lsls	r6, r5, #1
 2287 089e 7219     		adds	r2, r6, r5
 2288 08a0 1301     		lsls	r3, r2, #4
 2289 08a2 FC18     		adds	r4, r7, r3
 2290 08a4 D4F804B0 		ldr	fp, [r4, #4]	@ float
 2291 08a8 F958     		ldr	r1, [r7, r3]	@ float
 2292 08aa 5846     		mov	r0, fp
 2293 08ac FFF7FEFF 		bl	__aeabi_fsub
 2294              	.LVL313:
 2295 08b0 8246     		mov	r10, r0
 2296 08b2 D4F81C80 		ldr	r8, [r4, #28]	@ float
 2297 08b6 A169     		ldr	r1, [r4, #24]	@ float
 2298 08b8 4046     		mov	r0, r8
 2299 08ba FFF7FEFF 		bl	__aeabi_fsub
 2300              	.LVL314:
 2301 08be 0146     		mov	r1, r0
 2302 08c0 5046     		mov	r0, r10
 2303 08c2 FFF7FEFF 		bl	__aeabi_fdiv
 2304              	.LVL315:
 2305 08c6 E060     		str	r0, [r4, #12]	@ float
 352:funciones.c   ****         calib[i].b1=calib[i].control2-(calib[i].m1*calib[i].patron2);
 2306              		.loc 1 352 0 discriminator 2
 2307 08c8 4146     		mov	r1, r8
 2308 08ca FFF7FEFF 		bl	__aeabi_fmul
 2309              	.LVL316:
 2310 08ce 0146     		mov	r1, r0
 2311 08d0 5846     		mov	r0, fp
 2312 08d2 FFF7FEFF 		bl	__aeabi_fsub
 2313              	.LVL317:
 2314 08d6 6062     		str	r0, [r4, #36]	@ float
 353:funciones.c   ****         calib[i].m2=(calib[i].control3-calib[i].control2)/(calib[i].patron3-calib[i].patron2);
 2315              		.loc 1 353 0 discriminator 2
 2316 08d8 D4F808A0 		ldr	r10, [r4, #8]	@ float
 2317 08dc 5946     		mov	r1, fp
 2318 08de 5046     		mov	r0, r10
 2319 08e0 FFF7FEFF 		bl	__aeabi_fsub
 2320              	.LVL318:
 2321 08e4 0190     		str	r0, [sp, #4]	@ float
ARM GAS  C:\Users\USUARIO\AppData\Local\Temp\ccWuTYF0.s 			page 48


 2322 08e6 D4F820B0 		ldr	fp, [r4, #32]	@ float
 2323 08ea 4146     		mov	r1, r8
 2324 08ec 5846     		mov	r0, fp
 2325 08ee FFF7FEFF 		bl	__aeabi_fsub
 2326              	.LVL319:
 2327 08f2 0146     		mov	r1, r0
 2328 08f4 0198     		ldr	r0, [sp, #4]	@ float
 2329 08f6 FFF7FEFF 		bl	__aeabi_fdiv
 2330              	.LVL320:
 2331 08fa 2061     		str	r0, [r4, #16]	@ float
 354:funciones.c   ****         calib[i].b2=calib[i].control3-(calib[i].m2*calib[i].patron3);
 2332              		.loc 1 354 0 discriminator 2
 2333 08fc 5946     		mov	r1, fp
 2334 08fe FFF7FEFF 		bl	__aeabi_fmul
 2335              	.LVL321:
 2336 0902 0146     		mov	r1, r0
 2337 0904 5046     		mov	r0, r10
 2338 0906 FFF7FEFF 		bl	__aeabi_fsub
 2339              	.LVL322:
 2340 090a A062     		str	r0, [r4, #40]	@ float
 311:funciones.c   ****         if(i<2){
 2341              		.loc 1 311 0 discriminator 2
 2342 090c 0135     		adds	r5, r5, #1
 2343 090e 89F80050 		strb	r5, [r9]
 2344              	.L65:
 311:funciones.c   ****         if(i<2){
 2345              		.loc 1 311 0 is_stmt 0 discriminator 1
 2346 0912 064B     		ldr	r3, .L109+12
 2347 0914 1C78     		ldrb	r4, [r3]	@ zero_extendqisi2
 2348 0916 022C     		cmp	r4, #2
 2349 0918 7FF654AD 		bls	.L102
 2350 091c 0CE0     		b	.L110
 2351              	.L111:
 2352 091e 00BF     		.align	2
 2353              	.L109:
 2354 0920 00000000 		.word	calib
 2355 0924 0000C842 		.word	1120403456
 2356 0928 00002041 		.word	1092616192
 2357 092c 00000000 		.word	i
 2358 0930 00002042 		.word	1109393408
 2359 0934 0000A042 		.word	1117782016
 2360              	.L110:
 355:funciones.c   ****     }   
 356:funciones.c   **** }
 2361              		.loc 1 356 0 is_stmt 1
 2362 0938 03B0     		add	sp, sp, #12
 2363              		.cfi_def_cfa_offset 36
 2364              		@ sp needed
 2365 093a BDE8F08F 		pop	{r4, r5, r6, r7, r8, r9, r10, fp, pc}
 2366              		.cfi_endproc
 2367              	.LFE70:
 2368              		.size	LimitaValores, .-LimitaValores
 2369 093e 00BF     		.section	.text.ActualizaRecta,"ax",%progbits
 2370              		.align	2
 2371              		.global	ActualizaRecta
 2372              		.thumb
 2373              		.thumb_func
ARM GAS  C:\Users\USUARIO\AppData\Local\Temp\ccWuTYF0.s 			page 49


 2374              		.type	ActualizaRecta, %function
 2375              	ActualizaRecta:
 2376              	.LFB71:
 357:funciones.c   **** 
 358:funciones.c   **** void ActualizaRecta(){
 2377              		.loc 1 358 0
 2378              		.cfi_startproc
 2379              		@ args = 0, pretend = 0, frame = 0
 2380              		@ frame_needed = 0, uses_anonymous_args = 0
 2381 0000 70B5     		push	{r4, r5, r6, lr}
 2382              		.cfi_def_cfa_offset 16
 2383              		.cfi_offset 4, -16
 2384              		.cfi_offset 5, -12
 2385              		.cfi_offset 6, -8
 2386              		.cfi_offset 14, -4
 359:funciones.c   ****    X[y]=Temperatura;
 2387              		.loc 1 359 0
 2388 0002 2649     		ldr	r1, .L115
 2389 0004 0B78     		ldrb	r3, [r1]	@ zero_extendqisi2
 2390 0006 264A     		ldr	r2, .L115+4
 2391 0008 1468     		ldr	r4, [r2]	@ float
 2392 000a 264A     		ldr	r2, .L115+8
 2393 000c 02EB8302 		add	r2, r2, r3, lsl #2
 2394 0010 9460     		str	r4, [r2, #8]	@ float
 360:funciones.c   ****    y++;
 2395              		.loc 1 360 0
 2396 0012 0133     		adds	r3, r3, #1
 2397 0014 DBB2     		uxtb	r3, r3
 2398 0016 0B70     		strb	r3, [r1]
 361:funciones.c   ****    if(y>=2){
 2399              		.loc 1 361 0
 2400 0018 012B     		cmp	r3, #1
 2401 001a 3DD9     		bls	.L112
 362:funciones.c   ****       y=0;
 2402              		.loc 1 362 0
 2403 001c 0022     		movs	r2, #0
 2404 001e 0A70     		strb	r2, [r1]
 363:funciones.c   ****       Aumento=X[1]-X[0];
 2405              		.loc 1 363 0
 2406 0020 204B     		ldr	r3, .L115+8
 2407 0022 9968     		ldr	r1, [r3, #8]	@ float
 2408 0024 D868     		ldr	r0, [r3, #12]	@ float
 2409 0026 FFF7FEFF 		bl	__aeabi_fsub
 2410              	.LVL323:
 2411 002a 0546     		mov	r5, r0
 2412 002c 1E4B     		ldr	r3, .L115+12
 2413 002e 1860     		str	r0, [r3]	@ float
 364:funciones.c   ****       HorasActual=hEst;
 2414              		.loc 1 364 0
 2415 0030 1E4B     		ldr	r3, .L115+16
 2416 0032 1A78     		ldrb	r2, [r3]	@ zero_extendqisi2
 2417 0034 1E4B     		ldr	r3, .L115+20
 2418 0036 1A80     		strh	r2, [r3]	@ movhi
 365:funciones.c   ****       MinutosActual=mEst;
 2419              		.loc 1 365 0
 2420 0038 1E4B     		ldr	r3, .L115+24
 2421 003a 1B78     		ldrb	r3, [r3]	@ zero_extendqisi2
ARM GAS  C:\Users\USUARIO\AppData\Local\Temp\ccWuTYF0.s 			page 50


 2422 003c 1E49     		ldr	r1, .L115+28
 2423 003e 0B80     		strh	r3, [r1]	@ movhi
 366:funciones.c   ****       TiempoActual=Tiempo-((HorasActual*3600)+(MinutosActual*60)+tinicio);
 2424              		.loc 1 366 0
 2425 0040 C2EB0212 		rsb	r2, r2, r2, lsl #4
 2426 0044 C2EB0212 		rsb	r2, r2, r2, lsl #4
 2427 0048 C3EB0313 		rsb	r3, r3, r3, lsl #4
 2428 004c 9B00     		lsls	r3, r3, #2
 2429 004e 03EB0213 		add	r3, r3, r2, lsl #4
 2430 0052 1A4A     		ldr	r2, .L115+32
 2431 0054 1688     		ldrh	r6, [r2]
 2432 0056 1E44     		add	r6, r6, r3
 2433 0058 194B     		ldr	r3, .L115+36
 2434 005a 1A88     		ldrh	r2, [r3]
 2435 005c 961B     		subs	r6, r2, r6
 2436 005e B6B2     		uxth	r6, r6
 2437 0060 184B     		ldr	r3, .L115+40
 2438 0062 1E80     		strh	r6, [r3]	@ movhi
 367:funciones.c   ****       PendienteActual=((Setpoint-Temperatura)/TiempoActual);
 2439              		.loc 1 367 0
 2440 0064 2146     		mov	r1, r4
 2441 0066 184B     		ldr	r3, .L115+44
 2442 0068 1868     		ldr	r0, [r3]	@ float
 2443 006a FFF7FEFF 		bl	__aeabi_fsub
 2444              	.LVL324:
 2445 006e 0446     		mov	r4, r0
 2446 0070 3046     		mov	r0, r6
 2447 0072 FFF7FEFF 		bl	__aeabi_i2f
 2448              	.LVL325:
 2449 0076 0146     		mov	r1, r0
 2450 0078 2046     		mov	r0, r4
 2451 007a FFF7FEFF 		bl	__aeabi_fdiv
 2452              	.LVL326:
 2453 007e 134B     		ldr	r3, .L115+48
 2454 0080 1860     		str	r0, [r3]	@ float
 368:funciones.c   ****       DifPendiente=(PendienteActual*20)-Aumento;
 2455              		.loc 1 368 0
 2456 0082 1349     		ldr	r1, .L115+52
 2457 0084 FFF7FEFF 		bl	__aeabi_fmul
 2458              	.LVL327:
 2459 0088 2946     		mov	r1, r5
 2460 008a FFF7FEFF 		bl	__aeabi_fsub
 2461              	.LVL328:
 369:funciones.c   ****       DifPendiente=DifPendiente*5;
 2462              		.loc 1 369 0
 2463 008e 1149     		ldr	r1, .L115+56
 2464 0090 FFF7FEFF 		bl	__aeabi_fmul
 2465              	.LVL329:
 2466 0094 104B     		ldr	r3, .L115+60
 2467 0096 1860     		str	r0, [r3]	@ float
 2468              	.L112:
 2469 0098 70BD     		pop	{r4, r5, r6, pc}
 2470              	.L116:
 2471 009a 00BF     		.align	2
 2472              	.L115:
 2473 009c 00000000 		.word	y
 2474 00a0 00000000 		.word	Temperatura
ARM GAS  C:\Users\USUARIO\AppData\Local\Temp\ccWuTYF0.s 			page 51


 2475 00a4 00000000 		.word	.LANCHOR0
 2476 00a8 00000000 		.word	Aumento
 2477 00ac 00000000 		.word	hEst
 2478 00b0 00000000 		.word	HorasActual
 2479 00b4 00000000 		.word	mEst
 2480 00b8 00000000 		.word	MinutosActual
 2481 00bc 00000000 		.word	tinicio
 2482 00c0 00000000 		.word	Tiempo
 2483 00c4 00000000 		.word	TiempoActual
 2484 00c8 00000000 		.word	Setpoint
 2485 00cc 00000000 		.word	PendienteActual
 2486 00d0 0000A041 		.word	1101004800
 2487 00d4 0000A040 		.word	1084227584
 2488 00d8 00000000 		.word	DifPendiente
 2489              		.cfi_endproc
 2490              	.LFE71:
 2491              		.size	ActualizaRecta, .-ActualizaRecta
 2492              		.global	__aeabi_fcmpeq
 2493              		.global	__aeabi_dsub
 2494              		.global	__aeabi_d2f
 2495              		.global	__aeabi_dcmpgt
 2496              		.global	__aeabi_i2d
 2497              		.global	__aeabi_dmul
 2498              		.global	__aeabi_dadd
 2499              		.global	__aeabi_fcmpge
 2500              		.global	__aeabi_dcmple
 2501              		.global	__aeabi_fcmple
 2502              		.section	.text.Controla,"ax",%progbits
 2503              		.align	2
 2504              		.global	Controla
 2505              		.thumb
 2506              		.thumb_func
 2507              		.type	Controla, %function
 2508              	Controla:
 2509              	.LFB72:
 370:funciones.c   ****    }
 371:funciones.c   **** }
 372:funciones.c   **** 
 373:funciones.c   **** void Controla(){
 2510              		.loc 1 373 0
 2511              		.cfi_startproc
 2512              		@ args = 0, pretend = 0, frame = 0
 2513              		@ frame_needed = 0, uses_anonymous_args = 0
 2514 0000 2DE9F843 		push	{r3, r4, r5, r6, r7, r8, r9, lr}
 2515              		.cfi_def_cfa_offset 32
 2516              		.cfi_offset 3, -32
 2517              		.cfi_offset 4, -28
 2518              		.cfi_offset 5, -24
 2519              		.cfi_offset 6, -20
 2520              		.cfi_offset 7, -16
 2521              		.cfi_offset 8, -12
 2522              		.cfi_offset 9, -8
 2523              		.cfi_offset 14, -4
 2524              	.LVL330:
 374:funciones.c   **** //-------------------------------Control de Calentamiento------------------------------------------
 375:funciones.c   ****    float tmp=0.0;
 376:funciones.c   ****      if(!flagRampa){
ARM GAS  C:\Users\USUARIO\AppData\Local\Temp\ccWuTYF0.s 			page 52


 2525              		.loc 1 376 0
 2526 0004 974B     		ldr	r3, .L261
 2527 0006 B3F90030 		ldrsh	r3, [r3]
 2528 000a 5BB9     		cbnz	r3, .L118
 377:funciones.c   ****         if(tiemporecta>=Derivativo){
 2529              		.loc 1 377 0
 2530 000c 964B     		ldr	r3, .L261+4
 2531 000e 1A78     		ldrb	r2, [r3]	@ zero_extendqisi2
 2532 0010 964B     		ldr	r3, .L261+8
 2533 0012 1B88     		ldrh	r3, [r3]
 2534 0014 9A42     		cmp	r2, r3
 2535 0016 0ED8     		bhi	.L119
 378:funciones.c   ****             ActualizaRecta();
 2536              		.loc 1 378 0
 2537 0018 FFF7FEFF 		bl	ActualizaRecta
 2538              	.LVL331:
 379:funciones.c   ****             tiemporecta=0;
 2539              		.loc 1 379 0
 2540 001c 0022     		movs	r2, #0
 2541 001e 934B     		ldr	r3, .L261+8
 2542 0020 1A80     		strh	r2, [r3]	@ movhi
 2543 0022 08E0     		b	.L119
 2544              	.L118:
 380:funciones.c   ****         } 
 381:funciones.c   ****     }else{
 382:funciones.c   ****         if(tiemporecta>=10){
 2545              		.loc 1 382 0
 2546 0024 914B     		ldr	r3, .L261+8
 2547 0026 1B88     		ldrh	r3, [r3]
 2548 0028 092B     		cmp	r3, #9
 2549 002a 04D9     		bls	.L119
 383:funciones.c   ****             ActualizaRecta();
 2550              		.loc 1 383 0
 2551 002c FFF7FEFF 		bl	ActualizaRecta
 2552              	.LVL332:
 384:funciones.c   ****             tiemporecta=0;
 2553              		.loc 1 384 0
 2554 0030 0022     		movs	r2, #0
 2555 0032 8E4B     		ldr	r3, .L261+8
 2556 0034 1A80     		strh	r2, [r3]	@ movhi
 2557              	.L119:
 385:funciones.c   ****         }
 386:funciones.c   ****     }
 387:funciones.c   ****     
 388:funciones.c   ****     CR6_Write(0); // activa Ventiladores de Celda de Peltier
 2558              		.loc 1 388 0
 2559 0036 0020     		movs	r0, #0
 2560 0038 FFF7FEFF 		bl	CR6_Write
 2561              	.LVL333:
 389:funciones.c   ****     
 390:funciones.c   ****     if(flagRampa){
 2562              		.loc 1 390 0
 2563 003c 894B     		ldr	r3, .L261
 2564 003e B3F90050 		ldrsh	r5, [r3]
 2565 0042 002D     		cmp	r5, #0
 2566 0044 00F09280 		beq	.L120
 391:funciones.c   ****       if(Segmento==0){
ARM GAS  C:\Users\USUARIO\AppData\Local\Temp\ccWuTYF0.s 			page 53


 2567              		.loc 1 391 0
 2568 0048 894B     		ldr	r3, .L261+12
 2569 004a 1B78     		ldrb	r3, [r3]	@ zero_extendqisi2
 2570 004c 002B     		cmp	r3, #0
 2571 004e 45D1     		bne	.L121
 392:funciones.c   ****          if(flag_calcula==0){
 2572              		.loc 1 392 0
 2573 0050 884A     		ldr	r2, .L261+16
 2574 0052 B2F90020 		ldrsh	r2, [r2]
 2575 0056 002A     		cmp	r2, #0
 2576 0058 40F08880 		bne	.L120
 393:funciones.c   ****             Tiempo=(rampas[0].Horas*3600)+(rampas[0].Minutos*60);         
 2577              		.loc 1 393 0
 2578 005c 8648     		ldr	r0, .L261+20
 2579 005e 8678     		ldrb	r6, [r0, #2]	@ zero_extendqisi2
 2580 0060 C478     		ldrb	r4, [r0, #3]	@ zero_extendqisi2
 2581 0062 C6EB0612 		rsb	r2, r6, r6, lsl #4
 2582 0066 C2EB0212 		rsb	r2, r2, r2, lsl #4
 2583 006a 1701     		lsls	r7, r2, #4
 2584 006c C4EB0412 		rsb	r2, r4, r4, lsl #4
 2585 0070 9100     		lsls	r1, r2, #2
 2586 0072 3944     		add	r1, r1, r7
 2587 0074 8FB2     		uxth	r7, r1
 2588 0076 814A     		ldr	r2, .L261+24
 2589 0078 1780     		strh	r7, [r2]	@ movhi
 394:funciones.c   ****             Setpoint=rampas[0].Temperatura;
 2590              		.loc 1 394 0
 2591 007a D0F80880 		ldr	r8, [r0, #8]	@ float
 2592 007e 804A     		ldr	r2, .L261+28
 2593 0080 C2F80080 		str	r8, [r2]	@ float
 395:funciones.c   ****             SetpointH=rampas[Segmento].Humedad;
 2594              		.loc 1 395 0
 2595 0084 03EB4303 		add	r3, r3, r3, lsl #1
 2596 0088 9A00     		lsls	r2, r3, #2
 2597 008a 0244     		add	r2, r2, r0
 2598 008c 1279     		ldrb	r2, [r2, #4]	@ zero_extendqisi2
 2599 008e 7D4B     		ldr	r3, .L261+32
 2600 0090 1A80     		strh	r2, [r3]	@ movhi
 396:funciones.c   ****             Pendiente=(((float)Setpoint-TempeInicial)/(float)Tiempo);
 2601              		.loc 1 396 0
 2602 0092 7D4B     		ldr	r3, .L261+36
 2603 0094 1968     		ldr	r1, [r3]	@ float
 2604 0096 4046     		mov	r0, r8
 2605 0098 FFF7FEFF 		bl	__aeabi_fsub
 2606              	.LVL334:
 2607 009c 8146     		mov	r9, r0
 2608 009e 3846     		mov	r0, r7
 2609 00a0 FFF7FEFF 		bl	__aeabi_ui2f
 2610              	.LVL335:
 2611 00a4 0146     		mov	r1, r0
 2612 00a6 4846     		mov	r0, r9
 2613 00a8 FFF7FEFF 		bl	__aeabi_fdiv
 2614              	.LVL336:
 2615 00ac 774B     		ldr	r3, .L261+40
 2616 00ae 1860     		str	r0, [r3]	@ float
 397:funciones.c   ****             hEstp=rampas[0].Horas;
 2617              		.loc 1 397 0
ARM GAS  C:\Users\USUARIO\AppData\Local\Temp\ccWuTYF0.s 			page 54


 2618 00b0 774B     		ldr	r3, .L261+44
 2619 00b2 1E70     		strb	r6, [r3]
 398:funciones.c   ****             mEstp=rampas[0].Minutos;
 2620              		.loc 1 398 0
 2621 00b4 774B     		ldr	r3, .L261+48
 2622 00b6 1C70     		strb	r4, [r3]
 399:funciones.c   ****             flag_calcula=1;
 2623              		.loc 1 399 0
 2624 00b8 0122     		movs	r2, #1
 2625 00ba 6E4B     		ldr	r3, .L261+16
 2626 00bc 1A80     		strh	r2, [r3]	@ movhi
 400:funciones.c   ****             Ganancia=GananciaR*(Setpoint/200);
 2627              		.loc 1 400 0
 2628 00be 7649     		ldr	r1, .L261+52
 2629 00c0 4046     		mov	r0, r8
 2630 00c2 FFF7FEFF 		bl	__aeabi_fdiv
 2631              	.LVL337:
 2632 00c6 0446     		mov	r4, r0
 2633 00c8 744B     		ldr	r3, .L261+56
 2634 00ca 1878     		ldrb	r0, [r3]	@ zero_extendqisi2
 2635 00cc FFF7FEFF 		bl	__aeabi_i2f
 2636              	.LVL338:
 2637 00d0 2146     		mov	r1, r4
 2638 00d2 FFF7FEFF 		bl	__aeabi_fmul
 2639              	.LVL339:
 2640 00d6 724B     		ldr	r3, .L261+60
 2641 00d8 1860     		str	r0, [r3]	@ float
 2642 00da 47E0     		b	.L120
 2643              	.L121:
 401:funciones.c   ****          }
 402:funciones.c   ****       }else{
 403:funciones.c   ****          if(flag_calcula==0){
 2644              		.loc 1 403 0
 2645 00dc 654A     		ldr	r2, .L261+16
 2646 00de B2F90020 		ldrsh	r2, [r2]
 2647 00e2 002A     		cmp	r2, #0
 2648 00e4 42D1     		bne	.L120
 404:funciones.c   ****             Tiempo=(rampas[Segmento].Horas*3600)+(rampas[Segmento].Minutos*60);         
 2649              		.loc 1 404 0
 2650 00e6 6448     		ldr	r0, .L261+20
 2651 00e8 5900     		lsls	r1, r3, #1
 2652 00ea 1944     		add	r1, r1, r3
 2653 00ec 8A00     		lsls	r2, r1, #2
 2654 00ee 0244     		add	r2, r2, r0
 2655 00f0 92F80280 		ldrb	r8, [r2, #2]	@ zero_extendqisi2
 2656 00f4 D778     		ldrb	r7, [r2, #3]	@ zero_extendqisi2
 2657 00f6 C8EB0811 		rsb	r1, r8, r8, lsl #4
 2658 00fa C1EB0111 		rsb	r1, r1, r1, lsl #4
 2659 00fe 0C01     		lsls	r4, r1, #4
 2660 0100 C7EB0716 		rsb	r6, r7, r7, lsl #4
 2661 0104 B100     		lsls	r1, r6, #2
 2662 0106 0C44     		add	r4, r4, r1
 2663 0108 A4B2     		uxth	r4, r4
 2664 010a 5C49     		ldr	r1, .L261+24
 2665 010c 0C80     		strh	r4, [r1]	@ movhi
 405:funciones.c   ****             Setpoint=rampas[Segmento].Temperatura;
 2666              		.loc 1 405 0
ARM GAS  C:\Users\USUARIO\AppData\Local\Temp\ccWuTYF0.s 			page 55


 2667 010e 9668     		ldr	r6, [r2, #8]	@ float
 2668 0110 5B49     		ldr	r1, .L261+28
 2669 0112 0E60     		str	r6, [r1]	@ float
 406:funciones.c   ****             SetpointH=rampas[Segmento].Humedad;
 2670              		.loc 1 406 0
 2671 0114 1179     		ldrb	r1, [r2, #4]	@ zero_extendqisi2
 2672 0116 5B4A     		ldr	r2, .L261+32
 2673 0118 1180     		strh	r1, [r2]	@ movhi
 407:funciones.c   ****             Pendiente=(((float)rampas[Segmento].Temperatura-(float)rampas[Segmento-1].Temperatura)/
 2674              		.loc 1 407 0
 2675 011a 013B     		subs	r3, r3, #1
 2676 011c 03EB4303 		add	r3, r3, r3, lsl #1
 2677 0120 9A00     		lsls	r2, r3, #2
 2678 0122 0244     		add	r2, r2, r0
 2679 0124 9168     		ldr	r1, [r2, #8]	@ float
 2680 0126 3046     		mov	r0, r6
 2681 0128 FFF7FEFF 		bl	__aeabi_fsub
 2682              	.LVL340:
 2683 012c 8146     		mov	r9, r0
 2684 012e 2046     		mov	r0, r4
 2685 0130 FFF7FEFF 		bl	__aeabi_ui2f
 2686              	.LVL341:
 2687 0134 0146     		mov	r1, r0
 2688 0136 4846     		mov	r0, r9
 2689 0138 FFF7FEFF 		bl	__aeabi_fdiv
 2690              	.LVL342:
 2691 013c 534B     		ldr	r3, .L261+40
 2692 013e 1860     		str	r0, [r3]	@ float
 408:funciones.c   ****             hEstp=rampas[Segmento].Horas;
 2693              		.loc 1 408 0
 2694 0140 534B     		ldr	r3, .L261+44
 2695 0142 83F80080 		strb	r8, [r3]
 409:funciones.c   ****             mEstp=rampas[Segmento].Minutos;
 2696              		.loc 1 409 0
 2697 0146 534B     		ldr	r3, .L261+48
 2698 0148 1F70     		strb	r7, [r3]
 410:funciones.c   ****             flag_calcula=1;
 2699              		.loc 1 410 0
 2700 014a 0122     		movs	r2, #1
 2701 014c 494B     		ldr	r3, .L261+16
 2702 014e 1A80     		strh	r2, [r3]	@ movhi
 411:funciones.c   ****             Ganancia=GananciaR*(Setpoint/200);
 2703              		.loc 1 411 0
 2704 0150 5149     		ldr	r1, .L261+52
 2705 0152 3046     		mov	r0, r6
 2706 0154 FFF7FEFF 		bl	__aeabi_fdiv
 2707              	.LVL343:
 2708 0158 0446     		mov	r4, r0
 2709 015a 504B     		ldr	r3, .L261+56
 2710 015c 1878     		ldrb	r0, [r3]	@ zero_extendqisi2
 2711 015e FFF7FEFF 		bl	__aeabi_i2f
 2712              	.LVL344:
 2713 0162 2146     		mov	r1, r4
 2714 0164 FFF7FEFF 		bl	__aeabi_fmul
 2715              	.LVL345:
 2716 0168 4D4B     		ldr	r3, .L261+60
 2717 016a 1860     		str	r0, [r3]	@ float
ARM GAS  C:\Users\USUARIO\AppData\Local\Temp\ccWuTYF0.s 			page 56


 2718              	.L120:
 412:funciones.c   ****          }
 413:funciones.c   ****       }
 414:funciones.c   ****     }
 415:funciones.c   ****    
 416:funciones.c   ****   
 417:funciones.c   ****    if(Pendiente!=0 && flagRampa){// Si Esta realizando una Rampa debe realizar el control de acuerd
 2719              		.loc 1 417 0
 2720 016c 474B     		ldr	r3, .L261+40
 2721 016e 1C68     		ldr	r4, [r3]	@ float
 2722 0170 0021     		movs	r1, #0
 2723 0172 2046     		mov	r0, r4
 2724 0174 FFF7FEFF 		bl	__aeabi_fcmpeq
 2725              	.LVL346:
 2726 0178 0028     		cmp	r0, #0
 2727 017a 40F00081 		bne	.L122
 2728              		.loc 1 417 0 is_stmt 0 discriminator 1
 2729 017e 002D     		cmp	r5, #0
 2730 0180 00F0FD80 		beq	.L122
 418:funciones.c   ****       
 419:funciones.c   ****       TiempoRampa=((hEst*3600)+(mEst*60)+tinicio);
 2731              		.loc 1 419 0 is_stmt 1
 2732 0184 474B     		ldr	r3, .L261+64
 2733 0186 1B78     		ldrb	r3, [r3]	@ zero_extendqisi2
 2734 0188 C3EB0313 		rsb	r3, r3, r3, lsl #4
 2735 018c C3EB0313 		rsb	r3, r3, r3, lsl #4
 2736 0190 1801     		lsls	r0, r3, #4
 2737 0192 454B     		ldr	r3, .L261+68
 2738 0194 1B78     		ldrb	r3, [r3]	@ zero_extendqisi2
 2739 0196 C3EB0313 		rsb	r3, r3, r3, lsl #4
 2740 019a 9A00     		lsls	r2, r3, #2
 2741 019c 1044     		add	r0, r0, r2
 2742 019e 434B     		ldr	r3, .L261+72
 2743 01a0 1B88     		ldrh	r3, [r3]
 2744 01a2 1844     		add	r0, r0, r3
 2745 01a4 80B2     		uxth	r0, r0
 2746 01a6 424B     		ldr	r3, .L261+76
 2747 01a8 1880     		strh	r0, [r3]	@ movhi
 420:funciones.c   ****       if(Segmento==0){
 2748              		.loc 1 420 0
 2749 01aa 314B     		ldr	r3, .L261+12
 2750 01ac 1D78     		ldrb	r5, [r3]	@ zero_extendqisi2
 2751 01ae 5DB9     		cbnz	r5, .L124
 421:funciones.c   ****          TemperaturaIdeal=(Pendiente*TiempoRampa)+TempeInicial;
 2752              		.loc 1 421 0
 2753 01b0 FFF7FEFF 		bl	__aeabi_i2f
 2754              	.LVL347:
 2755 01b4 2146     		mov	r1, r4
 2756 01b6 FFF7FEFF 		bl	__aeabi_fmul
 2757              	.LVL348:
 2758 01ba 334B     		ldr	r3, .L261+36
 2759 01bc 1968     		ldr	r1, [r3]	@ float
 2760 01be FFF7FEFF 		bl	__aeabi_fadd
 2761              	.LVL349:
 2762 01c2 3C4B     		ldr	r3, .L261+80
 2763 01c4 1860     		str	r0, [r3]	@ float
 2764 01c6 0FE0     		b	.L125
ARM GAS  C:\Users\USUARIO\AppData\Local\Temp\ccWuTYF0.s 			page 57


 2765              	.L124:
 422:funciones.c   ****       }else{
 423:funciones.c   ****          TemperaturaIdeal=(Pendiente*TiempoRampa)+rampas[Segmento-1].Temperatura;
 2766              		.loc 1 423 0
 2767 01c8 FFF7FEFF 		bl	__aeabi_i2f
 2768              	.LVL350:
 2769 01cc 2146     		mov	r1, r4
 2770 01ce FFF7FEFF 		bl	__aeabi_fmul
 2771              	.LVL351:
 2772 01d2 013D     		subs	r5, r5, #1
 2773 01d4 05EB4505 		add	r5, r5, r5, lsl #1
 2774 01d8 AB00     		lsls	r3, r5, #2
 2775 01da 274A     		ldr	r2, .L261+20
 2776 01dc 1344     		add	r3, r3, r2
 2777 01de 9968     		ldr	r1, [r3, #8]	@ float
 2778 01e0 FFF7FEFF 		bl	__aeabi_fadd
 2779              	.LVL352:
 2780 01e4 334B     		ldr	r3, .L261+80
 2781 01e6 1860     		str	r0, [r3]	@ float
 2782              	.L125:
 424:funciones.c   ****       }
 425:funciones.c   ****       PotenciaEntregada=((TemperaturaIdeal-Temperatura)*100)/penMufla;
 2783              		.loc 1 425 0
 2784 01e8 334B     		ldr	r3, .L261+84
 2785 01ea 1968     		ldr	r1, [r3]	@ float
 2786 01ec 314B     		ldr	r3, .L261+80
 2787 01ee 1868     		ldr	r0, [r3]	@ float
 2788 01f0 FFF7FEFF 		bl	__aeabi_fsub
 2789              	.LVL353:
 2790 01f4 3149     		ldr	r1, .L261+88
 2791 01f6 FFF7FEFF 		bl	__aeabi_fmul
 2792              	.LVL354:
 2793 01fa 314B     		ldr	r3, .L261+92
 2794 01fc 1968     		ldr	r1, [r3]	@ float
 2795 01fe FFF7FEFF 		bl	__aeabi_fdiv
 2796              	.LVL355:
 2797 0202 0546     		mov	r5, r0
 2798 0204 2F4B     		ldr	r3, .L261+96
 2799 0206 1860     		str	r0, [r3]	@ float
 426:funciones.c   **** // Pendiente determinar si el comportamiento de la mufla es lineal 10C/min o si tiene un comporta
 427:funciones.c   ****       if(Pendiente<0){
 2800              		.loc 1 427 0
 2801 0208 0021     		movs	r1, #0
 2802 020a 2046     		mov	r0, r4
 2803 020c FFF7FEFF 		bl	__aeabi_fcmplt
 2804              	.LVL356:
 2805 0210 0028     		cmp	r0, #0
 2806 0212 5BD0     		beq	.L250
 428:funciones.c   ****          if(PotenciaEntregada<0 && PotenciaEntregada>-100.0){
 2807              		.loc 1 428 0
 2808 0214 0021     		movs	r1, #0
 2809 0216 2846     		mov	r0, r5
 2810 0218 FFF7FEFF 		bl	__aeabi_fcmplt
 2811              	.LVL357:
 2812 021c 78B1     		cbz	r0, .L128
 2813              		.loc 1 428 0 is_stmt 0 discriminator 1
 2814 021e 2A49     		ldr	r1, .L261+100
ARM GAS  C:\Users\USUARIO\AppData\Local\Temp\ccWuTYF0.s 			page 58


 2815 0220 2846     		mov	r0, r5
 2816 0222 FFF7FEFF 		bl	__aeabi_fcmpgt
 2817              	.LVL358:
 2818 0226 50B1     		cbz	r0, .L128
 429:funciones.c   ****             if(PotenciaEntregada<0)
 2819              		.loc 1 429 0 is_stmt 1
 2820 0228 0021     		movs	r1, #0
 2821 022a 2846     		mov	r0, r5
 2822 022c FFF7FEFF 		bl	__aeabi_fcmplt
 2823              	.LVL359:
 2824 0230 0028     		cmp	r0, #0
 2825 0232 5CD0     		beq	.L131
 430:funciones.c   ****                 PotenciaEntregada=PotenciaEntregada*-1;
 2826              		.loc 1 430 0
 2827 0234 05F10045 		add	r5, r5, #-2147483648
 2828 0238 224B     		ldr	r3, .L261+96
 2829 023a 1D60     		str	r5, [r3]	@ float
 2830 023c 57E0     		b	.L131
 2831              	.L128:
 431:funciones.c   ****          }else if(PotenciaEntregada<-100.0){
 2832              		.loc 1 431 0
 2833 023e 2249     		ldr	r1, .L261+100
 2834 0240 2846     		mov	r0, r5
 2835 0242 FFF7FEFF 		bl	__aeabi_fcmplt
 2836              	.LVL360:
 2837 0246 18B1     		cbz	r0, .L251
 432:funciones.c   ****             PotenciaEntregada=100.0;
 2838              		.loc 1 432 0
 2839 0248 1C4A     		ldr	r2, .L261+88
 2840 024a 1E4B     		ldr	r3, .L261+96
 2841 024c 1A60     		str	r2, [r3]	@ float
 2842 024e 4EE0     		b	.L131
 2843              	.L251:
 433:funciones.c   ****          }else if(PotenciaEntregada>0){
 2844              		.loc 1 433 0
 2845 0250 0021     		movs	r1, #0
 2846 0252 2846     		mov	r0, r5
 2847 0254 FFF7FEFF 		bl	__aeabi_fcmpgt
 2848              	.LVL361:
 2849 0258 0028     		cmp	r0, #0
 2850 025a 48D0     		beq	.L131
 434:funciones.c   ****             PotenciaEntregada=0; 
 2851              		.loc 1 434 0
 2852 025c 0022     		movs	r2, #0
 2853 025e 194B     		ldr	r3, .L261+96
 2854 0260 1A60     		str	r2, [r3]	@ float
 2855 0262 44E0     		b	.L131
 2856              	.L262:
 2857              		.align	2
 2858              	.L261:
 2859 0264 00000000 		.word	flagRampa
 2860 0268 00000000 		.word	Derivativo
 2861 026c 00000000 		.word	tiemporecta
 2862 0270 00000000 		.word	Segmento
 2863 0274 00000000 		.word	flag_calcula
 2864 0278 00000000 		.word	rampas
 2865 027c 00000000 		.word	Tiempo
ARM GAS  C:\Users\USUARIO\AppData\Local\Temp\ccWuTYF0.s 			page 59


 2866 0280 00000000 		.word	Setpoint
 2867 0284 00000000 		.word	SetpointH
 2868 0288 00000000 		.word	TempeInicial
 2869 028c 00000000 		.word	Pendiente
 2870 0290 00000000 		.word	hEstp
 2871 0294 00000000 		.word	mEstp
 2872 0298 00004843 		.word	1128792064
 2873 029c 00000000 		.word	GananciaR
 2874 02a0 00000000 		.word	Ganancia
 2875 02a4 00000000 		.word	hEst
 2876 02a8 00000000 		.word	mEst
 2877 02ac 00000000 		.word	tinicio
 2878 02b0 00000000 		.word	TiempoRampa
 2879 02b4 00000000 		.word	TemperaturaIdeal
 2880 02b8 00000000 		.word	Temperatura
 2881 02bc 0000C842 		.word	1120403456
 2882 02c0 00000000 		.word	.LANCHOR1
 2883 02c4 00000000 		.word	PotenciaEntregada
 2884 02c8 0000C8C2 		.word	-1027080192
 2885              	.L250:
 435:funciones.c   ****          }
 436:funciones.c   ****       }else{
 437:funciones.c   ****          if(PotenciaEntregada>100.0)
 2886              		.loc 1 437 0
 2887 02cc A849     		ldr	r1, .L263+40
 2888 02ce 2846     		mov	r0, r5
 2889 02d0 FFF7FEFF 		bl	__aeabi_fcmpgt
 2890              	.LVL362:
 2891 02d4 10B1     		cbz	r0, .L136
 438:funciones.c   ****             PotenciaEntregada=100.0;
 2892              		.loc 1 438 0
 2893 02d6 A64A     		ldr	r2, .L263+40
 2894 02d8 A64B     		ldr	r3, .L263+44
 2895 02da 1A60     		str	r2, [r3]	@ float
 2896              	.L136:
 439:funciones.c   ****      
 440:funciones.c   ****          if(PotenciaEntregada<0)
 2897              		.loc 1 440 0
 2898 02dc 0021     		movs	r1, #0
 2899 02de A54B     		ldr	r3, .L263+44
 2900 02e0 1868     		ldr	r0, [r3]	@ float
 2901 02e2 FFF7FEFF 		bl	__aeabi_fcmplt
 2902              	.LVL363:
 2903 02e6 10B1     		cbz	r0, .L131
 441:funciones.c   ****             PotenciaEntregada=0; 
 2904              		.loc 1 441 0
 2905 02e8 0022     		movs	r2, #0
 2906 02ea A24B     		ldr	r3, .L263+44
 2907 02ec 1A60     		str	r2, [r3]	@ float
 2908              	.L131:
 442:funciones.c   ****       }
 443:funciones.c   ****       Tpulso=(PotenciaEntregada*Tciclo)/100;  
 2909              		.loc 1 443 0
 2910 02ee A24B     		ldr	r3, .L263+48
 2911 02f0 1D78     		ldrb	r5, [r3]	@ zero_extendqisi2
 2912 02f2 2846     		mov	r0, r5
 2913 02f4 FFF7FEFF 		bl	__aeabi_i2f
ARM GAS  C:\Users\USUARIO\AppData\Local\Temp\ccWuTYF0.s 			page 60


 2914              	.LVL364:
 2915 02f8 9E4B     		ldr	r3, .L263+44
 2916 02fa 1968     		ldr	r1, [r3]	@ float
 2917 02fc FFF7FEFF 		bl	__aeabi_fmul
 2918              	.LVL365:
 2919 0300 9B49     		ldr	r1, .L263+40
 2920 0302 FFF7FEFF 		bl	__aeabi_fdiv
 2921              	.LVL366:
 2922 0306 0446     		mov	r4, r0
 2923 0308 9C4B     		ldr	r3, .L263+52
 2924 030a 1860     		str	r0, [r3]	@ float
 444:funciones.c   ****       if(Enfria==1){
 2925              		.loc 1 444 0
 2926 030c 9C4B     		ldr	r3, .L263+56
 2927 030e B3F90030 		ldrsh	r3, [r3]
 2928 0312 012B     		cmp	r3, #1
 2929 0314 19D1     		bne	.L139
 445:funciones.c   ****          pwm1=(uint16)(((1/(float)Tciclo)*Tpulso)*60000);
 2930              		.loc 1 445 0
 2931 0316 2846     		mov	r0, r5
 2932 0318 FFF7FEFF 		bl	__aeabi_ui2f
 2933              	.LVL367:
 2934 031c 0146     		mov	r1, r0
 2935 031e 4FF07E50 		mov	r0, #1065353216
 2936 0322 FFF7FEFF 		bl	__aeabi_fdiv
 2937              	.LVL368:
 2938 0326 0146     		mov	r1, r0
 2939 0328 2046     		mov	r0, r4
 2940 032a FFF7FEFF 		bl	__aeabi_fmul
 2941              	.LVL369:
 2942 032e 9549     		ldr	r1, .L263+60
 2943 0330 FFF7FEFF 		bl	__aeabi_fmul
 2944              	.LVL370:
 2945 0334 FFF7FEFF 		bl	__aeabi_f2uiz
 2946              	.LVL371:
 2947 0338 934C     		ldr	r4, .L263+64
 2948 033a 2082     		strh	r0, [r4, #16]	@ movhi
 446:funciones.c   ****          PWM_WriteCompare1(0);
 2949              		.loc 1 446 0
 2950 033c 0020     		movs	r0, #0
 2951 033e FFF7FEFF 		bl	PWM_WriteCompare1
 2952              	.LVL372:
 447:funciones.c   ****          PWM_WriteCompare2(pwm1);
 2953              		.loc 1 447 0
 2954 0342 208A     		ldrh	r0, [r4, #16]
 2955 0344 FFF7FEFF 		bl	PWM_WriteCompare2
 2956              	.LVL373:
 2957 0348 E0E3     		b	.L140
 2958              	.L139:
 448:funciones.c   ****       }else{
 449:funciones.c   ****          pwm1=(uint16)(((1/(float)Tciclo)*Tpulso)*60000);
 2959              		.loc 1 449 0
 2960 034a 2846     		mov	r0, r5
 2961 034c FFF7FEFF 		bl	__aeabi_ui2f
 2962              	.LVL374:
 2963 0350 0146     		mov	r1, r0
 2964 0352 4FF07E50 		mov	r0, #1065353216
ARM GAS  C:\Users\USUARIO\AppData\Local\Temp\ccWuTYF0.s 			page 61


 2965 0356 FFF7FEFF 		bl	__aeabi_fdiv
 2966              	.LVL375:
 2967 035a 0146     		mov	r1, r0
 2968 035c 2046     		mov	r0, r4
 2969 035e FFF7FEFF 		bl	__aeabi_fmul
 2970              	.LVL376:
 2971 0362 8849     		ldr	r1, .L263+60
 2972 0364 FFF7FEFF 		bl	__aeabi_fmul
 2973              	.LVL377:
 2974 0368 FFF7FEFF 		bl	__aeabi_f2uiz
 2975              	.LVL378:
 2976 036c 80B2     		uxth	r0, r0
 2977 036e 864B     		ldr	r3, .L263+64
 2978 0370 1882     		strh	r0, [r3, #16]	@ movhi
 450:funciones.c   ****          PWM_WriteCompare1(pwm1);
 2979              		.loc 1 450 0
 2980 0372 FFF7FEFF 		bl	PWM_WriteCompare1
 2981              	.LVL379:
 451:funciones.c   ****          PWM_WriteCompare2(0);
 2982              		.loc 1 451 0
 2983 0376 0020     		movs	r0, #0
 2984 0378 FFF7FEFF 		bl	PWM_WriteCompare2
 2985              	.LVL380:
 2986 037c C6E3     		b	.L140
 2987              	.L122:
 452:funciones.c   ****       }
 453:funciones.c   ****    }else{
 454:funciones.c   ****                
 455:funciones.c   ****       if(Enfria==1){//Control Enfriamiento
 2988              		.loc 1 455 0
 2989 037e 804B     		ldr	r3, .L263+56
 2990 0380 B3F90030 		ldrsh	r3, [r3]
 2991 0384 012B     		cmp	r3, #1
 2992 0386 40F01B81 		bne	.L141
 456:funciones.c   ****          //CR1_Write(0);
 457:funciones.c   ****          //CR2_Write(0);
 458:funciones.c   ****          //CR3_Write(0);
 459:funciones.c   ****          //CR4_Write(0);
 460:funciones.c   ****          error=Setpoint-(desvio-0.2)-Temperatura;      // Clculo del error ******
 2993              		.loc 1 460 0
 2994 038a 804B     		ldr	r3, .L263+68
 2995 038c 1D68     		ldr	r5, [r3]	@ float
 2996 038e 2846     		mov	r0, r5
 2997 0390 FFF7FEFF 		bl	__aeabi_f2d
 2998              	.LVL381:
 2999 0394 6CA3     		adr	r3, .L263
 3000 0396 D3E90023 		ldrd	r2, [r3]
 3001 039a FFF7FEFF 		bl	__aeabi_dsub
 3002              	.LVL382:
 3003 039e 0646     		mov	r6, r0
 3004 03a0 0F46     		mov	r7, r1
 3005 03a2 7B4B     		ldr	r3, .L263+72
 3006 03a4 1868     		ldr	r0, [r3]	@ float
 3007 03a6 FFF7FEFF 		bl	__aeabi_f2d
 3008              	.LVL383:
 3009 03aa 0246     		mov	r2, r0
 3010 03ac 0B46     		mov	r3, r1
ARM GAS  C:\Users\USUARIO\AppData\Local\Temp\ccWuTYF0.s 			page 62


 3011 03ae 3046     		mov	r0, r6
 3012 03b0 3946     		mov	r1, r7
 3013 03b2 FFF7FEFF 		bl	__aeabi_dsub
 3014              	.LVL384:
 3015 03b6 FFF7FEFF 		bl	__aeabi_d2f
 3016              	.LVL385:
 3017 03ba 0446     		mov	r4, r0
 3018 03bc 754B     		ldr	r3, .L263+76
 3019 03be 1860     		str	r0, [r3]	@ float
 461:funciones.c   ****          
 462:funciones.c   ****          if(error<-0.4 && Aumento>-0.2){
 3020              		.loc 1 462 0
 3021 03c0 FFF7FEFF 		bl	__aeabi_f2d
 3022              	.LVL386:
 3023 03c4 62A3     		adr	r3, .L263+8
 3024 03c6 D3E90023 		ldrd	r2, [r3]
 3025 03ca FFF7FEFF 		bl	__aeabi_dcmplt
 3026              	.LVL387:
 3027 03ce 0028     		cmp	r0, #0
 3028 03d0 61D0     		beq	.L142
 3029              		.loc 1 462 0 is_stmt 0 discriminator 1
 3030 03d2 714B     		ldr	r3, .L263+80
 3031 03d4 1E68     		ldr	r6, [r3]	@ float
 3032 03d6 3046     		mov	r0, r6
 3033 03d8 FFF7FEFF 		bl	__aeabi_f2d
 3034              	.LVL388:
 3035 03dc 8046     		mov	r8, r0
 3036 03de 8946     		mov	r9, r1
 3037 03e0 5DA3     		adr	r3, .L263+16
 3038 03e2 D3E90023 		ldrd	r2, [r3]
 3039 03e6 FFF7FEFF 		bl	__aeabi_dcmpgt
 3040              	.LVL389:
 3041 03ea 0028     		cmp	r0, #0
 3042 03ec 53D0     		beq	.L142
 463:funciones.c   ****             if(Potencia<90.0){
 3043              		.loc 1 463 0 is_stmt 1
 3044 03ee 6B49     		ldr	r1, .L263+84
 3045 03f0 6B4B     		ldr	r3, .L263+88
 3046 03f2 1868     		ldr	r0, [r3]	@ float
 3047 03f4 FFF7FEFF 		bl	__aeabi_fcmplt
 3048              	.LVL390:
 3049 03f8 0028     		cmp	r0, #0
 3050 03fa 4CD0     		beq	.L142
 464:funciones.c   ****                if(TiempoControl>=Derivativo*2){
 3051              		.loc 1 464 0
 3052 03fc 694B     		ldr	r3, .L263+92
 3053 03fe 1B88     		ldrh	r3, [r3]
 3054 0400 694A     		ldr	r2, .L263+96
 3055 0402 1278     		ldrb	r2, [r2]	@ zero_extendqisi2
 3056 0404 B3EB420F 		cmp	r3, r2, lsl #1
 3057 0408 45DB     		blt	.L142
 465:funciones.c   ****                   TiempoControl=0;
 3058              		.loc 1 465 0
 3059 040a 0022     		movs	r2, #0
 3060 040c 654B     		ldr	r3, .L263+92
 3061 040e 1A80     		strh	r2, [r3]	@ movhi
 466:funciones.c   ****                   if(Aumento>0.2){
ARM GAS  C:\Users\USUARIO\AppData\Local\Temp\ccWuTYF0.s 			page 63


 3062              		.loc 1 466 0
 3063 0410 53A3     		adr	r3, .L263+24
 3064 0412 D3E90023 		ldrd	r2, [r3]
 3065 0416 4046     		mov	r0, r8
 3066 0418 4946     		mov	r1, r9
 3067 041a FFF7FEFF 		bl	__aeabi_dcmpgt
 3068              	.LVL391:
 3069 041e 48B1     		cbz	r0, .L252
 467:funciones.c   ****                      Ganancia+=Integral;
 3070              		.loc 1 467 0
 3071 0420 624E     		ldr	r6, .L263+100
 3072 0422 634B     		ldr	r3, .L263+104
 3073 0424 1878     		ldrb	r0, [r3]	@ zero_extendqisi2
 3074 0426 FFF7FEFF 		bl	__aeabi_i2f
 3075              	.LVL392:
 3076 042a 3168     		ldr	r1, [r6]	@ float
 3077 042c FFF7FEFF 		bl	__aeabi_fadd
 3078              	.LVL393:
 3079 0430 3060     		str	r0, [r6]	@ float
 3080 0432 30E0     		b	.L142
 3081              	.L252:
 468:funciones.c   ****                   }else{
 469:funciones.c   ****                      if(Aumento>0.0){
 3082              		.loc 1 469 0
 3083 0434 0021     		movs	r1, #0
 3084 0436 3046     		mov	r0, r6
 3085 0438 FFF7FEFF 		bl	__aeabi_fcmpgt
 3086              	.LVL394:
 3087 043c A8B1     		cbz	r0, .L253
 470:funciones.c   ****                         Ganancia+=Integral*0.5;//1
 3088              		.loc 1 470 0
 3089 043e 5C4B     		ldr	r3, .L263+104
 3090 0440 1878     		ldrb	r0, [r3]	@ zero_extendqisi2
 3091 0442 FFF7FEFF 		bl	__aeabi_i2d
 3092              	.LVL395:
 3093 0446 0022     		movs	r2, #0
 3094 0448 5A4B     		ldr	r3, .L263+108
 3095 044a FFF7FEFF 		bl	__aeabi_dmul
 3096              	.LVL396:
 3097 044e 8046     		mov	r8, r0
 3098 0450 8946     		mov	r9, r1
 3099 0452 564E     		ldr	r6, .L263+100
 3100 0454 3068     		ldr	r0, [r6]	@ float
 3101 0456 FFF7FEFF 		bl	__aeabi_f2d
 3102              	.LVL397:
 3103 045a 4246     		mov	r2, r8
 3104 045c 4B46     		mov	r3, r9
 3105 045e FFF7FEFF 		bl	__aeabi_dadd
 3106              	.LVL398:
 3107 0462 FFF7FEFF 		bl	__aeabi_d2f
 3108              	.LVL399:
 3109 0466 3060     		str	r0, [r6]	@ float
 3110 0468 15E0     		b	.L142
 3111              	.L253:
 471:funciones.c   ****                      }else{
 472:funciones.c   ****                         Ganancia+=Integral*0.1;//1
 3112              		.loc 1 472 0
ARM GAS  C:\Users\USUARIO\AppData\Local\Temp\ccWuTYF0.s 			page 64


 3113 046a 514B     		ldr	r3, .L263+104
 3114 046c 1878     		ldrb	r0, [r3]	@ zero_extendqisi2
 3115 046e FFF7FEFF 		bl	__aeabi_i2d
 3116              	.LVL400:
 3117 0472 3DA3     		adr	r3, .L263+32
 3118 0474 D3E90023 		ldrd	r2, [r3]
 3119 0478 FFF7FEFF 		bl	__aeabi_dmul
 3120              	.LVL401:
 3121 047c 8046     		mov	r8, r0
 3122 047e 8946     		mov	r9, r1
 3123 0480 4A4E     		ldr	r6, .L263+100
 3124 0482 3068     		ldr	r0, [r6]	@ float
 3125 0484 FFF7FEFF 		bl	__aeabi_f2d
 3126              	.LVL402:
 3127 0488 4246     		mov	r2, r8
 3128 048a 4B46     		mov	r3, r9
 3129 048c FFF7FEFF 		bl	__aeabi_dadd
 3130              	.LVL403:
 3131 0490 FFF7FEFF 		bl	__aeabi_d2f
 3132              	.LVL404:
 3133 0494 3060     		str	r0, [r6]	@ float
 3134              	.L142:
 473:funciones.c   ****                      }
 474:funciones.c   ****                   }
 475:funciones.c   ****                }
 476:funciones.c   ****             }
 477:funciones.c   ****          }
 478:funciones.c   ****       
 479:funciones.c   ****          if(error>0.0)     // Anti Wind_DOWN
 3135              		.loc 1 479 0
 3136 0496 0021     		movs	r1, #0
 3137 0498 2046     		mov	r0, r4
 3138 049a FFF7FEFF 		bl	__aeabi_fcmpgt
 3139              	.LVL405:
 3140 049e 10B1     		cbz	r0, .L150
 480:funciones.c   ****             error=0.0;
 3141              		.loc 1 480 0
 3142 04a0 0022     		movs	r2, #0
 3143 04a2 3C4B     		ldr	r3, .L263+76
 3144 04a4 1A60     		str	r2, [r3]	@ float
 3145              	.L150:
 481:funciones.c   ****          
 482:funciones.c   ****          error=error*-1.0;
 3146              		.loc 1 482 0
 3147 04a6 3B4B     		ldr	r3, .L263+76
 3148 04a8 1C68     		ldr	r4, [r3]
 3149 04aa 04F10044 		add	r4, r4, #-2147483648
 3150 04ae 1C60     		str	r4, [r3]	@ float
 483:funciones.c   ****          
 484:funciones.c   ****          if(Ganancia<0.1)      
 3151              		.loc 1 484 0
 3152 04b0 3E4B     		ldr	r3, .L263+100
 3153 04b2 1868     		ldr	r0, [r3]	@ float
 3154 04b4 FFF7FEFF 		bl	__aeabi_f2d
 3155              	.LVL406:
 3156 04b8 2BA3     		adr	r3, .L263+32
 3157 04ba D3E90023 		ldrd	r2, [r3]
ARM GAS  C:\Users\USUARIO\AppData\Local\Temp\ccWuTYF0.s 			page 65


 3158 04be FFF7FEFF 		bl	__aeabi_dcmplt
 3159              	.LVL407:
 3160 04c2 10B1     		cbz	r0, .L152
 485:funciones.c   ****             Ganancia=0.1;
 3161              		.loc 1 485 0
 3162 04c4 3C4A     		ldr	r2, .L263+112
 3163 04c6 394B     		ldr	r3, .L263+100
 3164 04c8 1A60     		str	r2, [r3]	@ float
 3165              	.L152:
 486:funciones.c   ****       
 487:funciones.c   ****          tmp=error*Ganancia;  // Control Proporcional.
 3166              		.loc 1 487 0
 3167 04ca 384B     		ldr	r3, .L263+100
 3168 04cc 1968     		ldr	r1, [r3]	@ float
 3169 04ce 2046     		mov	r0, r4
 3170 04d0 FFF7FEFF 		bl	__aeabi_fmul
 3171              	.LVL408:
 3172 04d4 0446     		mov	r4, r0
 3173              	.LVL409:
 488:funciones.c   ****                
 489:funciones.c   ****          if(tmp>Setpoint)   // Anti Wind-UP      
 3174              		.loc 1 489 0
 3175 04d6 0146     		mov	r1, r0
 3176 04d8 2846     		mov	r0, r5
 3177              	.LVL410:
 3178 04da FFF7FEFF 		bl	__aeabi_fcmplt
 3179              	.LVL411:
 3180 04de 00B1     		cbz	r0, .L154
 490:funciones.c   ****             tmp=Setpoint;
 3181              		.loc 1 490 0
 3182 04e0 2C46     		mov	r4, r5
 3183              	.LVL412:
 3184              	.L154:
 491:funciones.c   ****                      
 492:funciones.c   ****          if(tmp<0.0)     // Anti Wind_DOWN    
 3185              		.loc 1 492 0
 3186 04e2 0021     		movs	r1, #0
 3187 04e4 2046     		mov	r0, r4
 3188 04e6 FFF7FEFF 		bl	__aeabi_fcmplt
 3189              	.LVL413:
 3190 04ea 00B1     		cbz	r0, .L155
 493:funciones.c   ****             tmp=0.0;
 3191              		.loc 1 493 0
 3192 04ec 0024     		movs	r4, #0
 3193              	.LVL414:
 3194              	.L155:
 494:funciones.c   ****          
 495:funciones.c   ****          // Tpulso(t)= Tciclo*(y(t)-ymin)/(ymax - ymin); calculo de ciclo util para control de resi
 496:funciones.c   ****          // Tpulso es float, hay que pasar ese ciclo a una salida de un puerto usando el TMR1.
 497:funciones.c   ****          Tpulso=(tmp/Setpoint)*Tciclo;  
 3195              		.loc 1 497 0
 3196 04ee 2946     		mov	r1, r5
 3197 04f0 2046     		mov	r0, r4
 3198 04f2 FFF7FEFF 		bl	__aeabi_fdiv
 3199              	.LVL415:
 3200 04f6 0446     		mov	r4, r0
 3201              	.LVL416:
ARM GAS  C:\Users\USUARIO\AppData\Local\Temp\ccWuTYF0.s 			page 66


 3202 04f8 1F4B     		ldr	r3, .L263+48
 3203 04fa 1D78     		ldrb	r5, [r3]	@ zero_extendqisi2
 3204 04fc 2846     		mov	r0, r5
 3205 04fe FFF7FEFF 		bl	__aeabi_i2f
 3206              	.LVL417:
 3207 0502 2146     		mov	r1, r4
 3208 0504 FFF7FEFF 		bl	__aeabi_fmul
 3209              	.LVL418:
 3210 0508 0446     		mov	r4, r0
 3211 050a 1C4B     		ldr	r3, .L263+52
 3212 050c 1860     		str	r0, [r3]	@ float
 498:funciones.c   ****          pwm1=(uint16)(((1/(float)Tciclo)*Tpulso)*60000);
 3213              		.loc 1 498 0
 3214 050e 2846     		mov	r0, r5
 3215 0510 FFF7FEFF 		bl	__aeabi_ui2f
 3216              	.LVL419:
 3217 0514 0146     		mov	r1, r0
 3218 0516 4FF07E50 		mov	r0, #1065353216
 3219 051a FFF7FEFF 		bl	__aeabi_fdiv
 3220              	.LVL420:
 3221 051e 0146     		mov	r1, r0
 3222 0520 2046     		mov	r0, r4
 3223 0522 FFF7FEFF 		bl	__aeabi_fmul
 3224              	.LVL421:
 3225 0526 1749     		ldr	r1, .L263+60
 3226 0528 FFF7FEFF 		bl	__aeabi_fmul
 3227              	.LVL422:
 3228 052c FFF7FEFF 		bl	__aeabi_f2uiz
 3229              	.LVL423:
 3230 0530 154C     		ldr	r4, .L263+64
 3231 0532 2082     		strh	r0, [r4, #16]	@ movhi
 499:funciones.c   ****          PWM_WriteCompare1(0);
 3232              		.loc 1 499 0
 3233 0534 0020     		movs	r0, #0
 3234 0536 FFF7FEFF 		bl	PWM_WriteCompare1
 3235              	.LVL424:
 500:funciones.c   ****          PWM_WriteCompare2(pwm1);
 3236              		.loc 1 500 0
 3237 053a 208A     		ldrh	r0, [r4, #16]
 3238 053c FFF7FEFF 		bl	PWM_WriteCompare2
 3239              	.LVL425:
 501:funciones.c   ****          //Tp=(Tpulso/0.005);
 502:funciones.c   ****          //Tc=(Tciclo/0.005);
 503:funciones.c   ****          Controlando=1;       
 3240              		.loc 1 503 0
 3241 0540 0122     		movs	r2, #1
 3242 0542 1E4B     		ldr	r3, .L263+116
 3243 0544 1A80     		strh	r2, [r3]	@ movhi
 3244 0546 E1E2     		b	.L140
 3245              	.L264:
 3246              		.align	3
 3247              	.L263:
 3248 0548 33333333 		.word	858993459
 3249 054c 3333D33F 		.word	1070805811
 3250 0550 9A999999 		.word	-1717986918
 3251 0554 9999D9BF 		.word	-1076258407
 3252 0558 9A999999 		.word	-1717986918
ARM GAS  C:\Users\USUARIO\AppData\Local\Temp\ccWuTYF0.s 			page 67


 3253 055c 9999C9BF 		.word	-1077306983
 3254 0560 9A999999 		.word	-1717986918
 3255 0564 9999C93F 		.word	1070176665
 3256 0568 9A999999 		.word	-1717986918
 3257 056c 9999B93F 		.word	1069128089
 3258 0570 0000C842 		.word	1120403456
 3259 0574 00000000 		.word	PotenciaEntregada
 3260 0578 00000000 		.word	Tciclo
 3261 057c 00000000 		.word	Tpulso
 3262 0580 00000000 		.word	Enfria
 3263 0584 00606A47 		.word	1198153728
 3264 0588 00000000 		.word	.LANCHOR0
 3265 058c 00000000 		.word	Setpoint
 3266 0590 00000000 		.word	Temperatura
 3267 0594 00000000 		.word	error
 3268 0598 00000000 		.word	Aumento
 3269 059c 0000B442 		.word	1119092736
 3270 05a0 00000000 		.word	Potencia
 3271 05a4 00000000 		.word	TiempoControl
 3272 05a8 00000000 		.word	Derivativo
 3273 05ac 00000000 		.word	Ganancia
 3274 05b0 00000000 		.word	Integral
 3275 05b4 0000E03F 		.word	1071644672
 3276 05b8 CDCCCC3D 		.word	1036831949
 3277 05bc 00000000 		.word	Controlando
 3278              	.LVL426:
 3279              	.L141:
 504:funciones.c   ****       }else{//Control Calentamiento
 505:funciones.c   ****          //CR1_Write(1);
 506:funciones.c   ****          //CR2_Write(1);
 507:funciones.c   ****          //CR3_Write(1);
 508:funciones.c   ****          //CR4_Write(1);
 509:funciones.c   ****          error=desvio+Setpoint-Temperatura;      // Clculo del error ******
 3280              		.loc 1 509 0
 3281 05c0 8F4B     		ldr	r3, .L265+32
 3282 05c2 1D68     		ldr	r5, [r3]	@ float
 3283 05c4 2846     		mov	r0, r5
 3284 05c6 FFF7FEFF 		bl	__aeabi_f2d
 3285              	.LVL427:
 3286 05ca 0022     		movs	r2, #0
 3287 05cc 8D4B     		ldr	r3, .L265+36
 3288 05ce FFF7FEFF 		bl	__aeabi_dadd
 3289              	.LVL428:
 3290 05d2 0646     		mov	r6, r0
 3291 05d4 0F46     		mov	r7, r1
 3292 05d6 8C4B     		ldr	r3, .L265+40
 3293 05d8 1868     		ldr	r0, [r3]	@ float
 3294 05da FFF7FEFF 		bl	__aeabi_f2d
 3295              	.LVL429:
 3296 05de 0246     		mov	r2, r0
 3297 05e0 0B46     		mov	r3, r1
 3298 05e2 3046     		mov	r0, r6
 3299 05e4 3946     		mov	r1, r7
 3300 05e6 FFF7FEFF 		bl	__aeabi_dsub
 3301              	.LVL430:
 3302 05ea FFF7FEFF 		bl	__aeabi_d2f
 3303              	.LVL431:
ARM GAS  C:\Users\USUARIO\AppData\Local\Temp\ccWuTYF0.s 			page 68


 3304 05ee 0446     		mov	r4, r0
 3305 05f0 864B     		ldr	r3, .L265+44
 3306 05f2 1860     		str	r0, [r3]	@ float
 510:funciones.c   ****       
 511:funciones.c   ****          if(error>=20.0 && Aumento<=0.7){
 3307              		.loc 1 511 0
 3308 05f4 8649     		ldr	r1, .L265+48
 3309 05f6 FFF7FEFF 		bl	__aeabi_fcmpge
 3310              	.LVL432:
 3311 05fa 0028     		cmp	r0, #0
 3312 05fc 73D0     		beq	.L156
 3313              		.loc 1 511 0 is_stmt 0 discriminator 1
 3314 05fe 854B     		ldr	r3, .L265+52
 3315 0600 D3F80090 		ldr	r9, [r3]	@ float
 3316 0604 4846     		mov	r0, r9
 3317 0606 FFF7FEFF 		bl	__aeabi_f2d
 3318              	.LVL433:
 3319 060a 0646     		mov	r6, r0
 3320 060c 0F46     		mov	r7, r1
 3321 060e 74A3     		adr	r3, .L265
 3322 0610 D3E90023 		ldrd	r2, [r3]
 3323 0614 FFF7FEFF 		bl	__aeabi_dcmple
 3324              	.LVL434:
 3325 0618 0028     		cmp	r0, #0
 3326 061a 64D0     		beq	.L156
 512:funciones.c   ****             derivativo_ant=Derivativo*4;
 3327              		.loc 1 512 0 is_stmt 1
 3328 061c 7E4B     		ldr	r3, .L265+56
 3329 061e 93F80080 		ldrb	r8, [r3]	@ zero_extendqisi2
 3330 0622 4FEA8808 		lsl	r8, r8, #2
 3331 0626 7D4B     		ldr	r3, .L265+60
 3332 0628 A3F80080 		strh	r8, [r3]	@ movhi
 513:funciones.c   ****             flag_ajuste=0;
 3333              		.loc 1 513 0
 3334 062c 0023     		movs	r3, #0
 3335 062e 7C4A     		ldr	r2, .L265+64
 3336 0630 1380     		strh	r3, [r2]	@ movhi
 514:funciones.c   ****             flag_ajuste2=0;
 3337              		.loc 1 514 0
 3338 0632 7C4A     		ldr	r2, .L265+68
 3339 0634 1380     		strh	r3, [r2]	@ movhi
 515:funciones.c   ****             Ajusto=10;
 3340              		.loc 1 515 0
 3341 0636 0A22     		movs	r2, #10
 3342 0638 7B4B     		ldr	r3, .L265+72
 3343 063a 1A70     		strb	r2, [r3]
 516:funciones.c   ****             if(Potencia<90.0){
 3344              		.loc 1 516 0
 3345 063c 7B49     		ldr	r1, .L265+76
 3346 063e 7C4B     		ldr	r3, .L265+80
 3347 0640 1868     		ldr	r0, [r3]	@ float
 3348 0642 FFF7FEFF 		bl	__aeabi_fcmplt
 3349              	.LVL435:
 3350 0646 0028     		cmp	r0, #0
 3351 0648 00F0A081 		beq	.L159
 517:funciones.c   ****                 if(TiempoControl>=derivativo_ant){
 3352              		.loc 1 517 0
ARM GAS  C:\Users\USUARIO\AppData\Local\Temp\ccWuTYF0.s 			page 69


 3353 064c 794B     		ldr	r3, .L265+84
 3354 064e 1B88     		ldrh	r3, [r3]
 3355 0650 9845     		cmp	r8, r3
 3356 0652 00F29B81 		bhi	.L159
 518:funciones.c   ****                     TiempoControl=0;
 3357              		.loc 1 518 0
 3358 0656 0022     		movs	r2, #0
 3359 0658 764B     		ldr	r3, .L265+84
 3360 065a 1A80     		strh	r2, [r3]	@ movhi
 519:funciones.c   ****                     if(Aumento<-0.5){
 3361              		.loc 1 519 0
 3362 065c 4FF03F41 		mov	r1, #-1090519040
 3363 0660 4846     		mov	r0, r9
 3364 0662 FFF7FEFF 		bl	__aeabi_fcmplt
 3365              	.LVL436:
 3366 0666 48B1     		cbz	r0, .L254
 520:funciones.c   ****                         Ganancia+=Integral;//2
 3367              		.loc 1 520 0
 3368 0668 734E     		ldr	r6, .L265+88
 3369 066a 744B     		ldr	r3, .L265+92
 3370 066c 1878     		ldrb	r0, [r3]	@ zero_extendqisi2
 3371 066e FFF7FEFF 		bl	__aeabi_i2f
 3372              	.LVL437:
 3373 0672 3168     		ldr	r1, [r6]	@ float
 3374 0674 FFF7FEFF 		bl	__aeabi_fadd
 3375              	.LVL438:
 3376 0678 3060     		str	r0, [r6]	@ float
 3377 067a 87E1     		b	.L159
 3378              	.L254:
 521:funciones.c   ****                     }else{
 522:funciones.c   ****                         if(Aumento<-0.1)
 3379              		.loc 1 522 0
 3380 067c 5AA3     		adr	r3, .L265+8
 3381 067e D3E90023 		ldrd	r2, [r3]
 3382 0682 3046     		mov	r0, r6
 3383 0684 3946     		mov	r1, r7
 3384 0686 FFF7FEFF 		bl	__aeabi_dcmplt
 3385              	.LVL439:
 3386 068a A8B1     		cbz	r0, .L255
 523:funciones.c   ****                             Ganancia+=Integral*0.5;//1
 3387              		.loc 1 523 0
 3388 068c 6B4B     		ldr	r3, .L265+92
 3389 068e 1878     		ldrb	r0, [r3]	@ zero_extendqisi2
 3390 0690 FFF7FEFF 		bl	__aeabi_i2d
 3391              	.LVL440:
 3392 0694 0022     		movs	r2, #0
 3393 0696 5B4B     		ldr	r3, .L265+36
 3394 0698 FFF7FEFF 		bl	__aeabi_dmul
 3395              	.LVL441:
 3396 069c 8046     		mov	r8, r0
 3397 069e 8946     		mov	r9, r1
 3398 06a0 654E     		ldr	r6, .L265+88
 3399 06a2 3068     		ldr	r0, [r6]	@ float
 3400 06a4 FFF7FEFF 		bl	__aeabi_f2d
 3401              	.LVL442:
 3402 06a8 4246     		mov	r2, r8
 3403 06aa 4B46     		mov	r3, r9
ARM GAS  C:\Users\USUARIO\AppData\Local\Temp\ccWuTYF0.s 			page 70


 3404 06ac FFF7FEFF 		bl	__aeabi_dadd
 3405              	.LVL443:
 3406 06b0 FFF7FEFF 		bl	__aeabi_d2f
 3407              	.LVL444:
 3408 06b4 3060     		str	r0, [r6]	@ float
 3409 06b6 69E1     		b	.L159
 3410              	.L255:
 524:funciones.c   ****                         else
 525:funciones.c   ****                             Ganancia+=Integral*0.3;//0.5
 3411              		.loc 1 525 0
 3412 06b8 604B     		ldr	r3, .L265+92
 3413 06ba 1878     		ldrb	r0, [r3]	@ zero_extendqisi2
 3414 06bc FFF7FEFF 		bl	__aeabi_i2d
 3415              	.LVL445:
 3416 06c0 4BA3     		adr	r3, .L265+16
 3417 06c2 D3E90023 		ldrd	r2, [r3]
 3418 06c6 FFF7FEFF 		bl	__aeabi_dmul
 3419              	.LVL446:
 3420 06ca 8046     		mov	r8, r0
 3421 06cc 8946     		mov	r9, r1
 3422 06ce 5A4E     		ldr	r6, .L265+88
 3423 06d0 3068     		ldr	r0, [r6]	@ float
 3424 06d2 FFF7FEFF 		bl	__aeabi_f2d
 3425              	.LVL447:
 3426 06d6 4246     		mov	r2, r8
 3427 06d8 4B46     		mov	r3, r9
 3428 06da FFF7FEFF 		bl	__aeabi_dadd
 3429              	.LVL448:
 3430 06de FFF7FEFF 		bl	__aeabi_d2f
 3431              	.LVL449:
 3432 06e2 3060     		str	r0, [r6]	@ float
 3433 06e4 52E1     		b	.L159
 3434              	.L156:
 526:funciones.c   ****                     }
 527:funciones.c   ****                 }
 528:funciones.c   ****             }
 529:funciones.c   ****          }else if(error>=6.0 && error<20 && Aumento<=0.5){
 3435              		.loc 1 529 0
 3436 06e6 5649     		ldr	r1, .L265+96
 3437 06e8 2046     		mov	r0, r4
 3438 06ea FFF7FEFF 		bl	__aeabi_fcmpge
 3439              	.LVL450:
 3440 06ee 0028     		cmp	r0, #0
 3441 06f0 00F0AA80 		beq	.L165
 3442              		.loc 1 529 0 is_stmt 0 discriminator 1
 3443 06f4 4649     		ldr	r1, .L265+48
 3444 06f6 2046     		mov	r0, r4
 3445 06f8 FFF7FEFF 		bl	__aeabi_fcmplt
 3446              	.LVL451:
 3447 06fc 0028     		cmp	r0, #0
 3448 06fe 00F0A380 		beq	.L165
 3449              		.loc 1 529 0 discriminator 2
 3450 0702 444B     		ldr	r3, .L265+52
 3451 0704 1F68     		ldr	r7, [r3]	@ float
 3452 0706 4FF07C51 		mov	r1, #1056964608
 3453 070a 3846     		mov	r0, r7
 3454 070c FFF7FEFF 		bl	__aeabi_fcmple
ARM GAS  C:\Users\USUARIO\AppData\Local\Temp\ccWuTYF0.s 			page 71


 3455              	.LVL452:
 3456 0710 0028     		cmp	r0, #0
 3457 0712 00F09980 		beq	.L165
 530:funciones.c   ****             derivativo_ant=Derivativo*3;
 3458              		.loc 1 530 0 is_stmt 1
 3459 0716 404B     		ldr	r3, .L265+56
 3460 0718 1B78     		ldrb	r3, [r3]	@ zero_extendqisi2
 3461 071a 03EB4306 		add	r6, r3, r3, lsl #1
 3462 071e 3F4B     		ldr	r3, .L265+60
 3463 0720 1E80     		strh	r6, [r3]	@ movhi
 531:funciones.c   ****             flag_ajuste=0;
 3464              		.loc 1 531 0
 3465 0722 0023     		movs	r3, #0
 3466 0724 3E4A     		ldr	r2, .L265+64
 3467 0726 1380     		strh	r3, [r2]	@ movhi
 532:funciones.c   ****             flag_ajuste2=0;
 3468              		.loc 1 532 0
 3469 0728 3E4A     		ldr	r2, .L265+68
 3470 072a 1380     		strh	r3, [r2]	@ movhi
 533:funciones.c   ****             Ajusto=10;
 3471              		.loc 1 533 0
 3472 072c 0A22     		movs	r2, #10
 3473 072e 3E4B     		ldr	r3, .L265+72
 3474 0730 1A70     		strb	r2, [r3]
 534:funciones.c   ****             if(Potencia<80.0){
 3475              		.loc 1 534 0
 3476 0732 4449     		ldr	r1, .L265+100
 3477 0734 3E4B     		ldr	r3, .L265+80
 3478 0736 1868     		ldr	r0, [r3]	@ float
 3479 0738 FFF7FEFF 		bl	__aeabi_fcmplt
 3480              	.LVL453:
 3481 073c 0028     		cmp	r0, #0
 3482 073e 00F02581 		beq	.L159
 535:funciones.c   ****                 if(TiempoControl>=derivativo_ant){//80
 3483              		.loc 1 535 0
 3484 0742 3C4B     		ldr	r3, .L265+84
 3485 0744 1B88     		ldrh	r3, [r3]
 3486 0746 9E42     		cmp	r6, r3
 3487 0748 00F22081 		bhi	.L159
 536:funciones.c   ****                     TiempoControl=0;
 3488              		.loc 1 536 0
 3489 074c 0022     		movs	r2, #0
 3490 074e 394B     		ldr	r3, .L265+84
 3491 0750 1A80     		strh	r2, [r3]	@ movhi
 537:funciones.c   ****                     if(Aumento<-0.5){
 3492              		.loc 1 537 0
 3493 0752 4FF03F41 		mov	r1, #-1090519040
 3494 0756 3846     		mov	r0, r7
 3495 0758 FFF7FEFF 		bl	__aeabi_fcmplt
 3496              	.LVL454:
 3497 075c 48B1     		cbz	r0, .L256
 538:funciones.c   ****                         Ganancia+=Integral;//2
 3498              		.loc 1 538 0
 3499 075e 364E     		ldr	r6, .L265+88
 3500 0760 364B     		ldr	r3, .L265+92
 3501 0762 1878     		ldrb	r0, [r3]	@ zero_extendqisi2
 3502 0764 FFF7FEFF 		bl	__aeabi_i2f
ARM GAS  C:\Users\USUARIO\AppData\Local\Temp\ccWuTYF0.s 			page 72


 3503              	.LVL455:
 3504 0768 3168     		ldr	r1, [r6]	@ float
 3505 076a FFF7FEFF 		bl	__aeabi_fadd
 3506              	.LVL456:
 3507 076e 3060     		str	r0, [r6]	@ float
 3508 0770 0CE1     		b	.L159
 3509              	.L256:
 539:funciones.c   ****                     }else{
 540:funciones.c   ****                         if(Aumento<-0.1)
 3510              		.loc 1 540 0
 3511 0772 3846     		mov	r0, r7
 3512 0774 FFF7FEFF 		bl	__aeabi_f2d
 3513              	.LVL457:
 3514 0778 1BA3     		adr	r3, .L265+8
 3515 077a D3E90023 		ldrd	r2, [r3]
 3516 077e FFF7FEFF 		bl	__aeabi_dcmplt
 3517              	.LVL458:
 3518 0782 B0B1     		cbz	r0, .L257
 541:funciones.c   ****                             Ganancia+=Integral*0.3;//1
 3519              		.loc 1 541 0
 3520 0784 2D4B     		ldr	r3, .L265+92
 3521 0786 1878     		ldrb	r0, [r3]	@ zero_extendqisi2
 3522 0788 FFF7FEFF 		bl	__aeabi_i2d
 3523              	.LVL459:
 3524 078c 18A3     		adr	r3, .L265+16
 3525 078e D3E90023 		ldrd	r2, [r3]
 3526 0792 FFF7FEFF 		bl	__aeabi_dmul
 3527              	.LVL460:
 3528 0796 8046     		mov	r8, r0
 3529 0798 8946     		mov	r9, r1
 3530 079a 274E     		ldr	r6, .L265+88
 3531 079c 3068     		ldr	r0, [r6]	@ float
 3532 079e FFF7FEFF 		bl	__aeabi_f2d
 3533              	.LVL461:
 3534 07a2 4246     		mov	r2, r8
 3535 07a4 4B46     		mov	r3, r9
 3536 07a6 FFF7FEFF 		bl	__aeabi_dadd
 3537              	.LVL462:
 3538 07aa FFF7FEFF 		bl	__aeabi_d2f
 3539              	.LVL463:
 3540 07ae 3060     		str	r0, [r6]	@ float
 3541 07b0 ECE0     		b	.L159
 3542              	.L257:
 542:funciones.c   ****                         else
 543:funciones.c   ****                             Ganancia+=Integral*0.1;//0.5
 3543              		.loc 1 543 0
 3544 07b2 224B     		ldr	r3, .L265+92
 3545 07b4 1878     		ldrb	r0, [r3]	@ zero_extendqisi2
 3546 07b6 FFF7FEFF 		bl	__aeabi_i2d
 3547              	.LVL464:
 3548 07ba 0FA3     		adr	r3, .L265+24
 3549 07bc D3E90023 		ldrd	r2, [r3]
 3550 07c0 FFF7FEFF 		bl	__aeabi_dmul
 3551              	.LVL465:
 3552 07c4 8046     		mov	r8, r0
 3553 07c6 8946     		mov	r9, r1
 3554 07c8 1B4E     		ldr	r6, .L265+88
ARM GAS  C:\Users\USUARIO\AppData\Local\Temp\ccWuTYF0.s 			page 73


 3555 07ca 3068     		ldr	r0, [r6]	@ float
 3556 07cc FFF7FEFF 		bl	__aeabi_f2d
 3557              	.LVL466:
 3558 07d0 4246     		mov	r2, r8
 3559 07d2 4B46     		mov	r3, r9
 3560 07d4 FFF7FEFF 		bl	__aeabi_dadd
 3561              	.LVL467:
 3562 07d8 FFF7FEFF 		bl	__aeabi_d2f
 3563              	.LVL468:
 3564 07dc 3060     		str	r0, [r6]	@ float
 3565 07de D5E0     		b	.L159
 3566              	.L266:
 3567              		.align	3
 3568              	.L265:
 3569 07e0 66666666 		.word	1717986918
 3570 07e4 6666E63F 		.word	1072064102
 3571 07e8 9A999999 		.word	-1717986918
 3572 07ec 9999B9BF 		.word	-1078355559
 3573 07f0 33333333 		.word	858993459
 3574 07f4 3333D33F 		.word	1070805811
 3575 07f8 9A999999 		.word	-1717986918
 3576 07fc 9999B93F 		.word	1069128089
 3577 0800 00000000 		.word	Setpoint
 3578 0804 0000E03F 		.word	1071644672
 3579 0808 00000000 		.word	Temperatura
 3580 080c 00000000 		.word	error
 3581 0810 0000A041 		.word	1101004800
 3582 0814 00000000 		.word	Aumento
 3583 0818 00000000 		.word	Derivativo
 3584 081c 00000000 		.word	derivativo_ant
 3585 0820 00000000 		.word	flag_ajuste
 3586 0824 00000000 		.word	flag_ajuste2
 3587 0828 00000000 		.word	Ajusto
 3588 082c 0000B442 		.word	1119092736
 3589 0830 00000000 		.word	Potencia
 3590 0834 00000000 		.word	TiempoControl
 3591 0838 00000000 		.word	Ganancia
 3592 083c 00000000 		.word	Integral
 3593 0840 0000C040 		.word	1086324736
 3594 0844 0000A042 		.word	1117782016
 3595              	.L165:
 544:funciones.c   ****                     }
 545:funciones.c   ****                 }
 546:funciones.c   ****             }
 547:funciones.c   ****          }else if(error>=desvio+0.5 && error<10 && Aumento<=0.3){
 3596              		.loc 1 547 0
 3597 0848 4FF07E51 		mov	r1, #1065353216
 3598 084c 2046     		mov	r0, r4
 3599 084e FFF7FEFF 		bl	__aeabi_fcmpge
 3600              	.LVL469:
 3601 0852 0028     		cmp	r0, #0
 3602 0854 00F09A80 		beq	.L159
 3603              		.loc 1 547 0 is_stmt 0 discriminator 1
 3604 0858 3549     		ldr	r1, .L267+16
 3605 085a 2046     		mov	r0, r4
 3606 085c FFF7FEFF 		bl	__aeabi_fcmplt
 3607              	.LVL470:
ARM GAS  C:\Users\USUARIO\AppData\Local\Temp\ccWuTYF0.s 			page 74


 3608 0860 0028     		cmp	r0, #0
 3609 0862 00F09380 		beq	.L159
 3610              		.loc 1 547 0 discriminator 2
 3611 0866 334B     		ldr	r3, .L267+20
 3612 0868 1F68     		ldr	r7, [r3]	@ float
 3613 086a 3846     		mov	r0, r7
 3614 086c FFF7FEFF 		bl	__aeabi_f2d
 3615              	.LVL471:
 3616 0870 8046     		mov	r8, r0
 3617 0872 8946     		mov	r9, r1
 3618 0874 2AA3     		adr	r3, .L267
 3619 0876 D3E90023 		ldrd	r2, [r3]
 3620 087a FFF7FEFF 		bl	__aeabi_dcmple
 3621              	.LVL472:
 3622 087e 0028     		cmp	r0, #0
 3623 0880 00F08480 		beq	.L159
 548:funciones.c   ****             derivativo_ant=Derivativo*2;
 3624              		.loc 1 548 0 is_stmt 1
 3625 0884 2C4B     		ldr	r3, .L267+24
 3626 0886 1E78     		ldrb	r6, [r3]	@ zero_extendqisi2
 3627 0888 7600     		lsls	r6, r6, #1
 3628 088a 2C4B     		ldr	r3, .L267+28
 3629 088c 1E80     		strh	r6, [r3]	@ movhi
 549:funciones.c   ****             flag_ajuste=0;
 3630              		.loc 1 549 0
 3631 088e 0023     		movs	r3, #0
 3632 0890 2B4A     		ldr	r2, .L267+32
 3633 0892 1380     		strh	r3, [r2]	@ movhi
 550:funciones.c   ****             flag_ajuste2=0;
 3634              		.loc 1 550 0
 3635 0894 2B4A     		ldr	r2, .L267+36
 3636 0896 1380     		strh	r3, [r2]	@ movhi
 551:funciones.c   ****             Ajusto=10;
 3637              		.loc 1 551 0
 3638 0898 0A22     		movs	r2, #10
 3639 089a 2B4B     		ldr	r3, .L267+40
 3640 089c 1A70     		strb	r2, [r3]
 552:funciones.c   ****             if(Potencia<70.0){
 3641              		.loc 1 552 0
 3642 089e 2B49     		ldr	r1, .L267+44
 3643 08a0 2B4B     		ldr	r3, .L267+48
 3644 08a2 1868     		ldr	r0, [r3]	@ float
 3645 08a4 FFF7FEFF 		bl	__aeabi_fcmplt
 3646              	.LVL473:
 3647 08a8 0028     		cmp	r0, #0
 3648 08aa 6FD0     		beq	.L159
 553:funciones.c   ****                 if(TiempoControl>=derivativo_ant){//80
 3649              		.loc 1 553 0
 3650 08ac 294B     		ldr	r3, .L267+52
 3651 08ae 1B88     		ldrh	r3, [r3]
 3652 08b0 9E42     		cmp	r6, r3
 3653 08b2 6BD8     		bhi	.L159
 554:funciones.c   ****                     TiempoControl=0;
 3654              		.loc 1 554 0
 3655 08b4 0022     		movs	r2, #0
 3656 08b6 274B     		ldr	r3, .L267+52
 3657 08b8 1A80     		strh	r2, [r3]	@ movhi
ARM GAS  C:\Users\USUARIO\AppData\Local\Temp\ccWuTYF0.s 			page 75


 555:funciones.c   ****                     if(Aumento<-0.5){
 3658              		.loc 1 555 0
 3659 08ba 4FF03F41 		mov	r1, #-1090519040
 3660 08be 3846     		mov	r0, r7
 3661 08c0 FFF7FEFF 		bl	__aeabi_fcmplt
 3662              	.LVL474:
 3663 08c4 48B1     		cbz	r0, .L258
 556:funciones.c   ****                         Ganancia+=Integral;//2
 3664              		.loc 1 556 0
 3665 08c6 244E     		ldr	r6, .L267+56
 3666 08c8 244B     		ldr	r3, .L267+60
 3667 08ca 1878     		ldrb	r0, [r3]	@ zero_extendqisi2
 3668 08cc FFF7FEFF 		bl	__aeabi_i2f
 3669              	.LVL475:
 3670 08d0 3168     		ldr	r1, [r6]	@ float
 3671 08d2 FFF7FEFF 		bl	__aeabi_fadd
 3672              	.LVL476:
 3673 08d6 3060     		str	r0, [r6]	@ float
 3674 08d8 58E0     		b	.L159
 3675              	.L258:
 557:funciones.c   ****                     }else{
 558:funciones.c   ****                         if(Aumento<-0.1)
 3676              		.loc 1 558 0
 3677 08da 13A3     		adr	r3, .L267+8
 3678 08dc D3E90023 		ldrd	r2, [r3]
 3679 08e0 4046     		mov	r0, r8
 3680 08e2 4946     		mov	r1, r9
 3681 08e4 FFF7FEFF 		bl	__aeabi_dcmplt
 3682              	.LVL477:
 3683 08e8 0028     		cmp	r0, #0
 3684 08ea 39D0     		beq	.L259
 559:funciones.c   ****                             Ganancia+=Integral*0.3;//1
 3685              		.loc 1 559 0
 3686 08ec 1B4B     		ldr	r3, .L267+60
 3687 08ee 1878     		ldrb	r0, [r3]	@ zero_extendqisi2
 3688 08f0 FFF7FEFF 		bl	__aeabi_i2d
 3689              	.LVL478:
 3690 08f4 0AA3     		adr	r3, .L267
 3691 08f6 D3E90023 		ldrd	r2, [r3]
 3692 08fa FFF7FEFF 		bl	__aeabi_dmul
 3693              	.LVL479:
 3694 08fe 8046     		mov	r8, r0
 3695 0900 8946     		mov	r9, r1
 3696 0902 154E     		ldr	r6, .L267+56
 3697 0904 3068     		ldr	r0, [r6]	@ float
 3698 0906 FFF7FEFF 		bl	__aeabi_f2d
 3699              	.LVL480:
 3700 090a 4246     		mov	r2, r8
 3701 090c 4B46     		mov	r3, r9
 3702 090e FFF7FEFF 		bl	__aeabi_dadd
 3703              	.LVL481:
 3704 0912 FFF7FEFF 		bl	__aeabi_d2f
 3705              	.LVL482:
 3706 0916 3060     		str	r0, [r6]	@ float
 3707 0918 38E0     		b	.L159
 3708              	.L268:
 3709 091a 00BFAFF3 		.align	3
ARM GAS  C:\Users\USUARIO\AppData\Local\Temp\ccWuTYF0.s 			page 76


 3709      0080
 3710              	.L267:
 3711 0920 33333333 		.word	858993459
 3712 0924 3333D33F 		.word	1070805811
 3713 0928 9A999999 		.word	-1717986918
 3714 092c 9999B9BF 		.word	-1078355559
 3715 0930 00002041 		.word	1092616192
 3716 0934 00000000 		.word	Aumento
 3717 0938 00000000 		.word	Derivativo
 3718 093c 00000000 		.word	derivativo_ant
 3719 0940 00000000 		.word	flag_ajuste
 3720 0944 00000000 		.word	flag_ajuste2
 3721 0948 00000000 		.word	Ajusto
 3722 094c 00008C42 		.word	1116471296
 3723 0950 00000000 		.word	Potencia
 3724 0954 00000000 		.word	TiempoControl
 3725 0958 00000000 		.word	Ganancia
 3726 095c 00000000 		.word	Integral
 3727              	.L259:
 560:funciones.c   ****                         else
 561:funciones.c   ****                             Ganancia+=Integral*0.1;//0.5
 3728              		.loc 1 561 0
 3729 0960 714B     		ldr	r3, .L269+16
 3730 0962 1878     		ldrb	r0, [r3]	@ zero_extendqisi2
 3731 0964 FFF7FEFF 		bl	__aeabi_i2d
 3732              	.LVL483:
 3733 0968 6BA3     		adr	r3, .L269
 3734 096a D3E90023 		ldrd	r2, [r3]
 3735 096e FFF7FEFF 		bl	__aeabi_dmul
 3736              	.LVL484:
 3737 0972 8046     		mov	r8, r0
 3738 0974 8946     		mov	r9, r1
 3739 0976 6D4E     		ldr	r6, .L269+20
 3740 0978 3068     		ldr	r0, [r6]	@ float
 3741 097a FFF7FEFF 		bl	__aeabi_f2d
 3742              	.LVL485:
 3743 097e 4246     		mov	r2, r8
 3744 0980 4B46     		mov	r3, r9
 3745 0982 FFF7FEFF 		bl	__aeabi_dadd
 3746              	.LVL486:
 3747 0986 FFF7FEFF 		bl	__aeabi_d2f
 3748              	.LVL487:
 3749 098a 3060     		str	r0, [r6]	@ float
 3750              	.L159:
 562:funciones.c   ****                     }
 563:funciones.c   ****                 }
 564:funciones.c   ****              }
 565:funciones.c   ****          }
 566:funciones.c   ****          
 567:funciones.c   ****          if(error<0.0){
 3751              		.loc 1 567 0
 3752 098c 0021     		movs	r1, #0
 3753 098e 2046     		mov	r0, r4
 3754 0990 FFF7FEFF 		bl	__aeabi_fcmplt
 3755              	.LVL488:
 3756 0994 68B1     		cbz	r0, .L182
 568:funciones.c   ****             Ganancia=GananciaR*(Setpoint/200);
ARM GAS  C:\Users\USUARIO\AppData\Local\Temp\ccWuTYF0.s 			page 77


 3757              		.loc 1 568 0
 3758 0996 6649     		ldr	r1, .L269+24
 3759 0998 2846     		mov	r0, r5
 3760 099a FFF7FEFF 		bl	__aeabi_fdiv
 3761              	.LVL489:
 3762 099e 0646     		mov	r6, r0
 3763 09a0 644B     		ldr	r3, .L269+28
 3764 09a2 1878     		ldrb	r0, [r3]	@ zero_extendqisi2
 3765 09a4 FFF7FEFF 		bl	__aeabi_i2f
 3766              	.LVL490:
 3767 09a8 3146     		mov	r1, r6
 3768 09aa FFF7FEFF 		bl	__aeabi_fmul
 3769              	.LVL491:
 3770 09ae 5F4B     		ldr	r3, .L269+20
 3771 09b0 1860     		str	r0, [r3]	@ float
 3772              	.L182:
 569:funciones.c   ****             //flag_ajuste=0;
 570:funciones.c   ****             //flag_ajuste2=0;
 571:funciones.c   ****          }
 572:funciones.c   ****          
 573:funciones.c   ****          if(Ganancia<0.1){
 3773              		.loc 1 573 0
 3774 09b2 5E4B     		ldr	r3, .L269+20
 3775 09b4 1868     		ldr	r0, [r3]	@ float
 3776 09b6 FFF7FEFF 		bl	__aeabi_f2d
 3777              	.LVL492:
 3778 09ba 57A3     		adr	r3, .L269
 3779 09bc D3E90023 		ldrd	r2, [r3]
 3780 09c0 FFF7FEFF 		bl	__aeabi_dcmplt
 3781              	.LVL493:
 3782 09c4 10B1     		cbz	r0, .L184
 574:funciones.c   ****             Ganancia=0.1;
 3783              		.loc 1 574 0
 3784 09c6 5C4A     		ldr	r2, .L269+32
 3785 09c8 584B     		ldr	r3, .L269+20
 3786 09ca 1A60     		str	r2, [r3]	@ float
 3787              	.L184:
 575:funciones.c   ****          }
 576:funciones.c   ****       
 577:funciones.c   ****          if(error<0.0)     // Anti Wind_DOWN     
 3788              		.loc 1 577 0
 3789 09cc 0021     		movs	r1, #0
 3790 09ce 2046     		mov	r0, r4
 3791 09d0 FFF7FEFF 		bl	__aeabi_fcmplt
 3792              	.LVL494:
 3793 09d4 10B1     		cbz	r0, .L186
 578:funciones.c   ****             error=0.0;
 3794              		.loc 1 578 0
 3795 09d6 0022     		movs	r2, #0
 3796 09d8 584B     		ldr	r3, .L269+36
 3797 09da 1A60     		str	r2, [r3]	@ float
 3798              	.L186:
 579:funciones.c   ****          
 580:funciones.c   ****          //tmp=(Setpoint-Prom)*Ganancia;  // Control Proporcional.
 581:funciones.c   ****          tmp=error*Ganancia;  // Control Proporcional.
 3799              		.loc 1 581 0
 3800 09dc 574B     		ldr	r3, .L269+36
ARM GAS  C:\Users\USUARIO\AppData\Local\Temp\ccWuTYF0.s 			page 78


 3801 09de 1E68     		ldr	r6, [r3]	@ float
 3802 09e0 524B     		ldr	r3, .L269+20
 3803 09e2 1968     		ldr	r1, [r3]	@ float
 3804 09e4 3046     		mov	r0, r6
 3805 09e6 FFF7FEFF 		bl	__aeabi_fmul
 3806              	.LVL495:
 3807 09ea 0446     		mov	r4, r0
 3808              	.LVL496:
 582:funciones.c   ****                
 583:funciones.c   ****          if(tmp>Setpoint)   // Anti Wind-UP      
 3809              		.loc 1 583 0
 3810 09ec 0146     		mov	r1, r0
 3811 09ee 2846     		mov	r0, r5
 3812              	.LVL497:
 3813 09f0 FFF7FEFF 		bl	__aeabi_fcmplt
 3814              	.LVL498:
 3815 09f4 00B1     		cbz	r0, .L188
 584:funciones.c   ****             tmp=Setpoint;
 3816              		.loc 1 584 0
 3817 09f6 2C46     		mov	r4, r5
 3818              	.LVL499:
 3819              	.L188:
 585:funciones.c   ****                      
 586:funciones.c   ****          if(tmp<0.0)     // Anti Wind_DOWN    
 3820              		.loc 1 586 0
 3821 09f8 0021     		movs	r1, #0
 3822 09fa 2046     		mov	r0, r4
 3823 09fc FFF7FEFF 		bl	__aeabi_fcmplt
 3824              	.LVL500:
 3825 0a00 00B1     		cbz	r0, .L189
 587:funciones.c   ****             tmp=0.0;
 3826              		.loc 1 587 0
 3827 0a02 0024     		movs	r4, #0
 3828              	.LVL501:
 3829              	.L189:
 588:funciones.c   ****       
 589:funciones.c   ****          Tpulso=(tmp/Setpoint)*Tciclo; 
 3830              		.loc 1 589 0
 3831 0a04 2946     		mov	r1, r5
 3832 0a06 2046     		mov	r0, r4
 3833 0a08 FFF7FEFF 		bl	__aeabi_fdiv
 3834              	.LVL502:
 3835 0a0c 0546     		mov	r5, r0
 3836 0a0e 4C4B     		ldr	r3, .L269+40
 3837 0a10 1C78     		ldrb	r4, [r3]	@ zero_extendqisi2
 3838              	.LVL503:
 3839 0a12 2046     		mov	r0, r4
 3840 0a14 FFF7FEFF 		bl	__aeabi_i2f
 3841              	.LVL504:
 3842 0a18 2946     		mov	r1, r5
 3843 0a1a FFF7FEFF 		bl	__aeabi_fmul
 3844              	.LVL505:
 3845 0a1e 0546     		mov	r5, r0
 3846 0a20 484B     		ldr	r3, .L269+44
 3847 0a22 1860     		str	r0, [r3]	@ float
 590:funciones.c   ****          if(error<desvio+0.5 && error>0){
 3848              		.loc 1 590 0
ARM GAS  C:\Users\USUARIO\AppData\Local\Temp\ccWuTYF0.s 			page 79


 3849 0a24 4FF07E51 		mov	r1, #1065353216
 3850 0a28 3046     		mov	r0, r6
 3851 0a2a FFF7FEFF 		bl	__aeabi_fcmplt
 3852              	.LVL506:
 3853 0a2e 0028     		cmp	r0, #0
 3854 0a30 53D0     		beq	.L190
 3855              		.loc 1 590 0 is_stmt 0 discriminator 1
 3856 0a32 0021     		movs	r1, #0
 3857 0a34 3046     		mov	r0, r6
 3858 0a36 FFF7FEFF 		bl	__aeabi_fcmpgt
 3859              	.LVL507:
 3860 0a3a 0028     		cmp	r0, #0
 3861 0a3c 4DD0     		beq	.L190
 591:funciones.c   ****             if(error<=desvio && error>0){   
 3862              		.loc 1 591 0 is_stmt 1
 3863 0a3e 4FF07C51 		mov	r1, #1056964608
 3864 0a42 3046     		mov	r0, r6
 3865 0a44 FFF7FEFF 		bl	__aeabi_fcmple
 3866              	.LVL508:
 3867 0a48 80B1     		cbz	r0, .L193
 3868              		.loc 1 591 0 is_stmt 0 discriminator 1
 3869 0a4a 0021     		movs	r1, #0
 3870 0a4c 3046     		mov	r0, r6
 3871 0a4e FFF7FEFF 		bl	__aeabi_fcmpgt
 3872              	.LVL509:
 3873 0a52 58B1     		cbz	r0, .L193
 592:funciones.c   ****                 if(flag_ajuste==0){
 3874              		.loc 1 592 0 is_stmt 1
 3875 0a54 3C4B     		ldr	r3, .L269+48
 3876 0a56 B3F90030 		ldrsh	r3, [r3]
 3877 0a5a 3BB9     		cbnz	r3, .L193
 593:funciones.c   ****                     TpulsoMax=Tpulso;
 3878              		.loc 1 593 0
 3879 0a5c 3B4B     		ldr	r3, .L269+52
 3880 0a5e 1D60     		str	r5, [r3]	@ float
 594:funciones.c   ****                     flag_ajuste=1;  
 3881              		.loc 1 594 0
 3882 0a60 0122     		movs	r2, #1
 3883 0a62 394B     		ldr	r3, .L269+48
 3884 0a64 1A80     		strh	r2, [r3]	@ movhi
 595:funciones.c   ****                     Ajusto=5;
 3885              		.loc 1 595 0
 3886 0a66 0522     		movs	r2, #5
 3887 0a68 394B     		ldr	r3, .L269+56
 3888 0a6a 1A70     		strb	r2, [r3]
 3889              	.L193:
 596:funciones.c   ****                 }
 597:funciones.c   ****             }
 598:funciones.c   ****          
 599:funciones.c   ****             if(error<=desvio-0.1 && error>0){   
 3890              		.loc 1 599 0
 3891 0a6c 3046     		mov	r0, r6
 3892 0a6e FFF7FEFF 		bl	__aeabi_f2d
 3893              	.LVL510:
 3894 0a72 2BA3     		adr	r3, .L269+8
 3895 0a74 D3E90023 		ldrd	r2, [r3]
 3896 0a78 FFF7FEFF 		bl	__aeabi_dcmple
ARM GAS  C:\Users\USUARIO\AppData\Local\Temp\ccWuTYF0.s 			page 80


 3897              	.LVL511:
 3898 0a7c 80B1     		cbz	r0, .L196
 3899              		.loc 1 599 0 is_stmt 0 discriminator 1
 3900 0a7e 0021     		movs	r1, #0
 3901 0a80 3046     		mov	r0, r6
 3902 0a82 FFF7FEFF 		bl	__aeabi_fcmpgt
 3903              	.LVL512:
 3904 0a86 58B1     		cbz	r0, .L196
 600:funciones.c   ****                 if(flag_ajuste2==0){
 3905              		.loc 1 600 0 is_stmt 1
 3906 0a88 324B     		ldr	r3, .L269+60
 3907 0a8a B3F90030 		ldrsh	r3, [r3]
 3908 0a8e 3BB9     		cbnz	r3, .L196
 601:funciones.c   ****                     Tpulsomin=Tpulso;
 3909              		.loc 1 601 0
 3910 0a90 314B     		ldr	r3, .L269+64
 3911 0a92 1D60     		str	r5, [r3]	@ float
 602:funciones.c   ****                     flag_ajuste2=1;           
 3912              		.loc 1 602 0
 3913 0a94 0122     		movs	r2, #1
 3914 0a96 2F4B     		ldr	r3, .L269+60
 3915 0a98 1A80     		strh	r2, [r3]	@ movhi
 603:funciones.c   ****                     Ajusto=5;
 3916              		.loc 1 603 0
 3917 0a9a 0522     		movs	r2, #5
 3918 0a9c 2C4B     		ldr	r3, .L269+56
 3919 0a9e 1A70     		strb	r2, [r3]
 3920              	.L196:
 604:funciones.c   ****                 }
 605:funciones.c   ****             }
 606:funciones.c   ****          
 607:funciones.c   ****             if(flag_ajuste2==1){
 3921              		.loc 1 607 0
 3922 0aa0 2C4B     		ldr	r3, .L269+60
 3923 0aa2 B3F90030 		ldrsh	r3, [r3]
 3924 0aa6 012B     		cmp	r3, #1
 3925 0aa8 08D1     		bne	.L199
 608:funciones.c   ****                 if(Tpulso<Tpulsomin)
 3926              		.loc 1 608 0
 3927 0aaa 2B4B     		ldr	r3, .L269+64
 3928 0aac 1E68     		ldr	r6, [r3]	@ float
 3929 0aae 3146     		mov	r1, r6
 3930 0ab0 2846     		mov	r0, r5
 3931 0ab2 FFF7FEFF 		bl	__aeabi_fcmplt
 3932              	.LVL513:
 3933 0ab6 08B1     		cbz	r0, .L199
 609:funciones.c   ****                     Tpulso=Tpulsomin;
 3934              		.loc 1 609 0
 3935 0ab8 224B     		ldr	r3, .L269+44
 3936 0aba 1E60     		str	r6, [r3]	@ float
 3937              	.L199:
 610:funciones.c   ****             }
 611:funciones.c   ****             if(flag_ajuste==1){   
 3938              		.loc 1 611 0
 3939 0abc 224B     		ldr	r3, .L269+48
 3940 0abe B3F90030 		ldrsh	r3, [r3]
 3941 0ac2 012B     		cmp	r3, #1
ARM GAS  C:\Users\USUARIO\AppData\Local\Temp\ccWuTYF0.s 			page 81


 3942 0ac4 09D1     		bne	.L190
 612:funciones.c   ****                 if(Tpulso>TpulsoMax)
 3943              		.loc 1 612 0
 3944 0ac6 214B     		ldr	r3, .L269+52
 3945 0ac8 1D68     		ldr	r5, [r3]	@ float
 3946 0aca 2946     		mov	r1, r5
 3947 0acc 1D4B     		ldr	r3, .L269+44
 3948 0ace 1868     		ldr	r0, [r3]	@ float
 3949 0ad0 FFF7FEFF 		bl	__aeabi_fcmpgt
 3950              	.LVL514:
 3951 0ad4 08B1     		cbz	r0, .L190
 613:funciones.c   ****                     Tpulso=TpulsoMax;
 3952              		.loc 1 613 0
 3953 0ad6 1B4B     		ldr	r3, .L269+44
 3954 0ad8 1D60     		str	r5, [r3]	@ float
 3955              	.L190:
 614:funciones.c   ****             }
 615:funciones.c   ****          }
 616:funciones.c   ****          pwm1=(uint16)(((1/(float)Tciclo)*Tpulso)*60000);
 3956              		.loc 1 616 0
 3957 0ada 2046     		mov	r0, r4
 3958 0adc FFF7FEFF 		bl	__aeabi_ui2f
 3959              	.LVL515:
 3960 0ae0 0146     		mov	r1, r0
 3961 0ae2 4FF07E50 		mov	r0, #1065353216
 3962 0ae6 FFF7FEFF 		bl	__aeabi_fdiv
 3963              	.LVL516:
 3964 0aea 164B     		ldr	r3, .L269+44
 3965 0aec 1968     		ldr	r1, [r3]	@ float
 3966 0aee FFF7FEFF 		bl	__aeabi_fmul
 3967              	.LVL517:
 3968 0af2 1A49     		ldr	r1, .L269+68
 3969 0af4 FFF7FEFF 		bl	__aeabi_fmul
 3970              	.LVL518:
 3971 0af8 FFF7FEFF 		bl	__aeabi_f2uiz
 3972              	.LVL519:
 3973 0afc 184C     		ldr	r4, .L269+72
 3974 0afe 2082     		strh	r0, [r4, #16]	@ movhi
 617:funciones.c   ****          PWM_WriteCompare2(0);
 3975              		.loc 1 617 0
 3976 0b00 0020     		movs	r0, #0
 3977 0b02 FFF7FEFF 		bl	PWM_WriteCompare2
 3978              	.LVL520:
 618:funciones.c   ****          PWM_WriteCompare1(pwm1);
 3979              		.loc 1 618 0
 3980 0b06 208A     		ldrh	r0, [r4, #16]
 3981 0b08 FFF7FEFF 		bl	PWM_WriteCompare1
 3982              	.LVL521:
 3983              	.L140:
 619:funciones.c   ****       }   
 620:funciones.c   ****    }
 621:funciones.c   ****    //Tp=(Tpulso/0.002);
 622:funciones.c   ****    //Tc=(Tciclo/0.002);
 623:funciones.c   ****    Control=1;     
 3984              		.loc 1 623 0
 3985 0b0c 0122     		movs	r2, #1
 3986 0b0e 154B     		ldr	r3, .L269+76
ARM GAS  C:\Users\USUARIO\AppData\Local\Temp\ccWuTYF0.s 			page 82


 3987 0b10 1A80     		strh	r2, [r3]	@ movhi
 3988 0b12 BDE8F883 		pop	{r3, r4, r5, r6, r7, r8, r9, pc}
 3989              	.L270:
 3990 0b16 00BF     		.align	3
 3991              	.L269:
 3992 0b18 9A999999 		.word	-1717986918
 3993 0b1c 9999B93F 		.word	1069128089
 3994 0b20 9A999999 		.word	-1717986918
 3995 0b24 9999D93F 		.word	1071225241
 3996 0b28 00000000 		.word	Integral
 3997 0b2c 00000000 		.word	Ganancia
 3998 0b30 00004843 		.word	1128792064
 3999 0b34 00000000 		.word	GananciaR
 4000 0b38 CDCCCC3D 		.word	1036831949
 4001 0b3c 00000000 		.word	error
 4002 0b40 00000000 		.word	Tciclo
 4003 0b44 00000000 		.word	Tpulso
 4004 0b48 00000000 		.word	flag_ajuste
 4005 0b4c 00000000 		.word	TpulsoMax
 4006 0b50 00000000 		.word	Ajusto
 4007 0b54 00000000 		.word	flag_ajuste2
 4008 0b58 00000000 		.word	Tpulsomin
 4009 0b5c 00606A47 		.word	1198153728
 4010 0b60 00000000 		.word	.LANCHOR0
 4011 0b64 00000000 		.word	Control
 4012              		.cfi_endproc
 4013              	.LFE72:
 4014              		.size	Controla, .-Controla
 4015              		.global	__aeabi_d2uiz
 4016              		.section	.text.CuentaTiempo,"ax",%progbits
 4017              		.align	2
 4018              		.global	CuentaTiempo
 4019              		.thumb
 4020              		.thumb_func
 4021              		.type	CuentaTiempo, %function
 4022              	CuentaTiempo:
 4023              	.LFB73:
 624:funciones.c   **** //-------------------------------------------------------------------------------------------------
 625:funciones.c   ****   
 626:funciones.c   **** }
 627:funciones.c   **** 
 628:funciones.c   **** void CuentaTiempo(){
 4024              		.loc 1 628 0
 4025              		.cfi_startproc
 4026              		@ args = 0, pretend = 0, frame = 0
 4027              		@ frame_needed = 0, uses_anonymous_args = 0
 629:funciones.c   ****       if(tinicio>=60){
 4028              		.loc 1 629 0
 4029 0000 124B     		ldr	r3, .L275
 4030 0002 1B88     		ldrh	r3, [r3]
 4031 0004 3B2B     		cmp	r3, #59
 4032 0006 1FD9     		bls	.L274
 628:funciones.c   ****       if(tinicio>=60){
 4033              		.loc 1 628 0
 4034 0008 10B5     		push	{r4, lr}
 4035              		.cfi_def_cfa_offset 8
 4036              		.cfi_offset 4, -8
ARM GAS  C:\Users\USUARIO\AppData\Local\Temp\ccWuTYF0.s 			page 83


 4037              		.cfi_offset 14, -4
 630:funciones.c   ****          tinicio=0;
 4038              		.loc 1 630 0
 4039 000a 0022     		movs	r2, #0
 4040 000c 0F4B     		ldr	r3, .L275
 4041 000e 1A80     		strh	r2, [r3]	@ movhi
 631:funciones.c   ****          mEst+=1.0;
 4042              		.loc 1 631 0
 4043 0010 0F4C     		ldr	r4, .L275+4
 4044 0012 2078     		ldrb	r0, [r4]	@ zero_extendqisi2
 4045 0014 FFF7FEFF 		bl	__aeabi_i2d
 4046              	.LVL522:
 4047 0018 0022     		movs	r2, #0
 4048 001a 0E4B     		ldr	r3, .L275+8
 4049 001c FFF7FEFF 		bl	__aeabi_dadd
 4050              	.LVL523:
 4051 0020 FFF7FEFF 		bl	__aeabi_d2uiz
 4052              	.LVL524:
 4053 0024 C0B2     		uxtb	r0, r0
 4054 0026 2070     		strb	r0, [r4]
 632:funciones.c   ****          if(mEst>59){
 4055              		.loc 1 632 0
 4056 0028 3B28     		cmp	r0, #59
 4057 002a 0CD9     		bls	.L271
 633:funciones.c   ****             mEst=0;
 4058              		.loc 1 633 0
 4059 002c 0022     		movs	r2, #0
 4060 002e 2270     		strb	r2, [r4]
 634:funciones.c   ****             hEst+=1.0;
 4061              		.loc 1 634 0
 4062 0030 094C     		ldr	r4, .L275+12
 4063 0032 2078     		ldrb	r0, [r4]	@ zero_extendqisi2
 4064 0034 FFF7FEFF 		bl	__aeabi_i2d
 4065              	.LVL525:
 4066 0038 0022     		movs	r2, #0
 4067 003a 064B     		ldr	r3, .L275+8
 4068 003c FFF7FEFF 		bl	__aeabi_dadd
 4069              	.LVL526:
 4070 0040 FFF7FEFF 		bl	__aeabi_d2uiz
 4071              	.LVL527:
 4072 0044 2070     		strb	r0, [r4]
 4073              	.L271:
 4074 0046 10BD     		pop	{r4, pc}
 4075              	.L274:
 4076              		.cfi_def_cfa_offset 0
 4077              		.cfi_restore 4
 4078              		.cfi_restore 14
 4079 0048 7047     		bx	lr
 4080              	.L276:
 4081 004a 00BF     		.align	2
 4082              	.L275:
 4083 004c 00000000 		.word	tinicio
 4084 0050 00000000 		.word	mEst
 4085 0054 0000F03F 		.word	1072693248
 4086 0058 00000000 		.word	hEst
 4087              		.cfi_endproc
 4088              	.LFE73:
ARM GAS  C:\Users\USUARIO\AppData\Local\Temp\ccWuTYF0.s 			page 84


 4089              		.size	CuentaTiempo, .-CuentaTiempo
 4090              		.section	.text.iniciaConteo,"ax",%progbits
 4091              		.align	2
 4092              		.global	iniciaConteo
 4093              		.thumb
 4094              		.thumb_func
 4095              		.type	iniciaConteo, %function
 4096              	iniciaConteo:
 4097              	.LFB74:
 635:funciones.c   ****          }
 636:funciones.c   ****       }
 637:funciones.c   **** }
 638:funciones.c   **** 
 639:funciones.c   **** void iniciaConteo(){
 4098              		.loc 1 639 0
 4099              		.cfi_startproc
 4100              		@ args = 0, pretend = 0, frame = 0
 4101              		@ frame_needed = 0, uses_anonymous_args = 0
 4102 0000 10B5     		push	{r4, lr}
 4103              		.cfi_def_cfa_offset 8
 4104              		.cfi_offset 4, -8
 4105              		.cfi_offset 14, -4
 640:funciones.c   ****    if(flagRampa && Pendiente!=0){
 4106              		.loc 1 640 0
 4107 0002 314B     		ldr	r3, .L293
 4108 0004 B3F90040 		ldrsh	r4, [r3]
 4109 0008 4CB1     		cbz	r4, .L278
 4110              		.loc 1 640 0 is_stmt 0 discriminator 1
 4111 000a 0021     		movs	r1, #0
 4112 000c 2F4B     		ldr	r3, .L293+4
 4113 000e 1868     		ldr	r0, [r3]	@ float
 4114 0010 FFF7FEFF 		bl	__aeabi_fcmpeq
 4115              	.LVL528:
 4116 0014 18B9     		cbnz	r0, .L278
 641:funciones.c   ****       tiempo_esterilizacion=1;
 4117              		.loc 1 641 0 is_stmt 1
 4118 0016 0122     		movs	r2, #1
 4119 0018 2D4B     		ldr	r3, .L293+8
 4120 001a 1A70     		strb	r2, [r3]
 4121 001c 10BD     		pop	{r4, pc}
 4122              	.L278:
 642:funciones.c   ****    }else if(flagRampa && Pendiente==0){
 4123              		.loc 1 642 0
 4124 001e 8CB1     		cbz	r4, .L281
 4125              		.loc 1 642 0 is_stmt 0 discriminator 1
 4126 0020 0021     		movs	r1, #0
 4127 0022 2A4B     		ldr	r3, .L293+4
 4128 0024 1868     		ldr	r0, [r3]	@ float
 4129 0026 FFF7FEFF 		bl	__aeabi_fcmpeq
 4130              	.LVL529:
 4131 002a 58B1     		cbz	r0, .L281
 643:funciones.c   ****       if(flagTemperatura)
 4132              		.loc 1 643 0 is_stmt 1
 4133 002c 294B     		ldr	r3, .L293+12
 4134 002e B3F90030 		ldrsh	r3, [r3]
 4135 0032 1BB1     		cbz	r3, .L283
 644:funciones.c   ****          tiempo_esterilizacion=1;
ARM GAS  C:\Users\USUARIO\AppData\Local\Temp\ccWuTYF0.s 			page 85


 4136              		.loc 1 644 0
 4137 0034 0122     		movs	r2, #1
 4138 0036 264B     		ldr	r3, .L293+8
 4139 0038 1A70     		strb	r2, [r3]
 4140 003a 10BD     		pop	{r4, pc}
 4141              	.L283:
 645:funciones.c   ****       else
 646:funciones.c   ****          tiempo_esterilizacion=0;
 4142              		.loc 1 646 0
 4143 003c 0022     		movs	r2, #0
 4144 003e 244B     		ldr	r3, .L293+8
 4145 0040 1A70     		strb	r2, [r3]
 4146 0042 10BD     		pop	{r4, pc}
 4147              	.L281:
 647:funciones.c   ****    }else{
 648:funciones.c   ****       if(!flagControlT && !flagControlH){
 4148              		.loc 1 648 0
 4149 0044 244B     		ldr	r3, .L293+16
 4150 0046 B3F90030 		ldrsh	r3, [r3]
 4151 004a 33B9     		cbnz	r3, .L284
 4152              		.loc 1 648 0 is_stmt 0 discriminator 1
 4153 004c 234A     		ldr	r2, .L293+20
 4154 004e B2F90020 		ldrsh	r2, [r2]
 4155 0052 12B9     		cbnz	r2, .L284
 649:funciones.c   ****          tiempo_esterilizacion=0;
 4156              		.loc 1 649 0 is_stmt 1
 4157 0054 1E4B     		ldr	r3, .L293+8
 4158 0056 1A70     		strb	r2, [r3]
 4159 0058 10BD     		pop	{r4, pc}
 4160              	.L284:
 650:funciones.c   ****        }else if(flagControlT && !flagControlH){
 4161              		.loc 1 650 0
 4162 005a 7BB1     		cbz	r3, .L285
 4163              		.loc 1 650 0 is_stmt 0 discriminator 1
 4164 005c 1F4A     		ldr	r2, .L293+20
 4165 005e B2F90020 		ldrsh	r2, [r2]
 4166 0062 5AB9     		cbnz	r2, .L285
 651:funciones.c   ****           if(flagTemperatura)
 4167              		.loc 1 651 0 is_stmt 1
 4168 0064 1B4B     		ldr	r3, .L293+12
 4169 0066 B3F90030 		ldrsh	r3, [r3]
 4170 006a 1BB1     		cbz	r3, .L286
 652:funciones.c   ****              tiempo_esterilizacion=1;
 4171              		.loc 1 652 0
 4172 006c 0122     		movs	r2, #1
 4173 006e 184B     		ldr	r3, .L293+8
 4174 0070 1A70     		strb	r2, [r3]
 4175 0072 10BD     		pop	{r4, pc}
 4176              	.L286:
 653:funciones.c   ****           else
 654:funciones.c   ****              tiempo_esterilizacion=0;
 4177              		.loc 1 654 0
 4178 0074 0022     		movs	r2, #0
 4179 0076 164B     		ldr	r3, .L293+8
 4180 0078 1A70     		strb	r2, [r3]
 4181 007a 10BD     		pop	{r4, pc}
 4182              	.L285:
ARM GAS  C:\Users\USUARIO\AppData\Local\Temp\ccWuTYF0.s 			page 86


 655:funciones.c   ****        }else if(!flagControlT && flagControlH){
 4183              		.loc 1 655 0
 4184 007c 7BB9     		cbnz	r3, .L287
 4185              		.loc 1 655 0 is_stmt 0 discriminator 1
 4186 007e 174A     		ldr	r2, .L293+20
 4187 0080 B2F90020 		ldrsh	r2, [r2]
 4188 0084 5AB1     		cbz	r2, .L287
 656:funciones.c   ****          if(flagHumedad)
 4189              		.loc 1 656 0 is_stmt 1
 4190 0086 164B     		ldr	r3, .L293+24
 4191 0088 B3F91230 		ldrsh	r3, [r3, #18]
 4192 008c 1BB1     		cbz	r3, .L288
 657:funciones.c   ****             tiempo_esterilizacion=1;
 4193              		.loc 1 657 0
 4194 008e 0122     		movs	r2, #1
 4195 0090 0F4B     		ldr	r3, .L293+8
 4196 0092 1A70     		strb	r2, [r3]
 4197 0094 10BD     		pop	{r4, pc}
 4198              	.L288:
 658:funciones.c   ****          else
 659:funciones.c   ****             tiempo_esterilizacion=0;
 4199              		.loc 1 659 0
 4200 0096 0022     		movs	r2, #0
 4201 0098 0D4B     		ldr	r3, .L293+8
 4202 009a 1A70     		strb	r2, [r3]
 4203 009c 10BD     		pop	{r4, pc}
 4204              	.L287:
 660:funciones.c   ****       }else if(flagControlT && flagControlH){
 4205              		.loc 1 660 0
 4206 009e 93B1     		cbz	r3, .L277
 4207              		.loc 1 660 0 is_stmt 0 discriminator 1
 4208 00a0 0E4B     		ldr	r3, .L293+20
 4209 00a2 B3F90030 		ldrsh	r3, [r3]
 4210 00a6 73B1     		cbz	r3, .L277
 661:funciones.c   ****          if(flagTemperatura && flagHumedad)
 4211              		.loc 1 661 0 is_stmt 1
 4212 00a8 0A4B     		ldr	r3, .L293+12
 4213 00aa B3F90030 		ldrsh	r3, [r3]
 4214 00ae 3BB1     		cbz	r3, .L289
 4215              		.loc 1 661 0 is_stmt 0 discriminator 1
 4216 00b0 0B4B     		ldr	r3, .L293+24
 4217 00b2 B3F91230 		ldrsh	r3, [r3, #18]
 4218 00b6 1BB1     		cbz	r3, .L289
 662:funciones.c   ****             tiempo_esterilizacion=1;
 4219              		.loc 1 662 0 is_stmt 1
 4220 00b8 0122     		movs	r2, #1
 4221 00ba 054B     		ldr	r3, .L293+8
 4222 00bc 1A70     		strb	r2, [r3]
 4223 00be 10BD     		pop	{r4, pc}
 4224              	.L289:
 663:funciones.c   ****          else
 664:funciones.c   ****             tiempo_esterilizacion=0;
 4225              		.loc 1 664 0
 4226 00c0 0022     		movs	r2, #0
 4227 00c2 034B     		ldr	r3, .L293+8
 4228 00c4 1A70     		strb	r2, [r3]
 4229              	.L277:
ARM GAS  C:\Users\USUARIO\AppData\Local\Temp\ccWuTYF0.s 			page 87


 4230 00c6 10BD     		pop	{r4, pc}
 4231              	.L294:
 4232              		.align	2
 4233              	.L293:
 4234 00c8 00000000 		.word	flagRampa
 4235 00cc 00000000 		.word	Pendiente
 4236 00d0 00000000 		.word	tiempo_esterilizacion
 4237 00d4 00000000 		.word	flagTemperatura
 4238 00d8 00000000 		.word	flagControlT
 4239 00dc 00000000 		.word	flagControlH
 4240 00e0 00000000 		.word	.LANCHOR0
 4241              		.cfi_endproc
 4242              	.LFE74:
 4243              		.size	iniciaConteo, .-iniciaConteo
 4244              		.section	.text.escribeDisplay1,"ax",%progbits
 4245              		.align	2
 4246              		.global	escribeDisplay1
 4247              		.thumb
 4248              		.thumb_func
 4249              		.type	escribeDisplay1, %function
 4250              	escribeDisplay1:
 4251              	.LFB75:
 665:funciones.c   ****       }
 666:funciones.c   ****    }
 667:funciones.c   **** }
 668:funciones.c   **** 
 669:funciones.c   **** void escribeDisplay1(char Buffer[30]){
 4252              		.loc 1 669 0
 4253              		.cfi_startproc
 4254              		@ args = 0, pretend = 0, frame = 0
 4255              		@ frame_needed = 0, uses_anonymous_args = 0
 4256              	.LVL530:
 4257 0000 08B5     		push	{r3, lr}
 4258              		.cfi_def_cfa_offset 8
 4259              		.cfi_offset 3, -8
 4260              		.cfi_offset 14, -4
 670:funciones.c   ****     UART_1_PutString(Buffer);
 4261              		.loc 1 670 0
 4262 0002 FFF7FEFF 		bl	UART_1_PutString
 4263              	.LVL531:
 671:funciones.c   ****     CyDelayUs(10);
 4264              		.loc 1 671 0
 4265 0006 0A20     		movs	r0, #10
 4266 0008 FFF7FEFF 		bl	CyDelayUs
 4267              	.LVL532:
 672:funciones.c   ****     UART_1_PutChar(0xFF);
 4268              		.loc 1 672 0
 4269 000c FF20     		movs	r0, #255
 4270 000e FFF7FEFF 		bl	UART_1_PutChar
 4271              	.LVL533:
 673:funciones.c   ****     CyDelayUs(10);
 4272              		.loc 1 673 0
 4273 0012 0A20     		movs	r0, #10
 4274 0014 FFF7FEFF 		bl	CyDelayUs
 4275              	.LVL534:
 674:funciones.c   ****     UART_1_PutChar(0xFF);
 4276              		.loc 1 674 0
ARM GAS  C:\Users\USUARIO\AppData\Local\Temp\ccWuTYF0.s 			page 88


 4277 0018 FF20     		movs	r0, #255
 4278 001a FFF7FEFF 		bl	UART_1_PutChar
 4279              	.LVL535:
 675:funciones.c   ****     CyDelayUs(10);
 4280              		.loc 1 675 0
 4281 001e 0A20     		movs	r0, #10
 4282 0020 FFF7FEFF 		bl	CyDelayUs
 4283              	.LVL536:
 676:funciones.c   ****     UART_1_PutChar(0xFF);
 4284              		.loc 1 676 0
 4285 0024 FF20     		movs	r0, #255
 4286 0026 FFF7FEFF 		bl	UART_1_PutChar
 4287              	.LVL537:
 677:funciones.c   ****     CyDelayUs(10);
 4288              		.loc 1 677 0
 4289 002a 0A20     		movs	r0, #10
 4290 002c FFF7FEFF 		bl	CyDelayUs
 4291              	.LVL538:
 4292 0030 08BD     		pop	{r3, pc}
 4293              		.cfi_endproc
 4294              	.LFE75:
 4295              		.size	escribeDisplay1, .-escribeDisplay1
 4296 0032 00BF     		.section	.text.escribeDisplay2,"ax",%progbits
 4297              		.align	2
 4298              		.global	escribeDisplay2
 4299              		.thumb
 4300              		.thumb_func
 4301              		.type	escribeDisplay2, %function
 4302              	escribeDisplay2:
 4303              	.LFB76:
 678:funciones.c   **** }
 679:funciones.c   **** 
 680:funciones.c   **** void escribeDisplay2(char Buffer[30]){
 4304              		.loc 1 680 0
 4305              		.cfi_startproc
 4306              		@ args = 0, pretend = 0, frame = 0
 4307              		@ frame_needed = 0, uses_anonymous_args = 0
 4308              	.LVL539:
 4309 0000 08B5     		push	{r3, lr}
 4310              		.cfi_def_cfa_offset 8
 4311              		.cfi_offset 3, -8
 4312              		.cfi_offset 14, -4
 681:funciones.c   ****     UART_2_PutString(Buffer);
 4313              		.loc 1 681 0
 4314 0002 FFF7FEFF 		bl	UART_2_PutString
 4315              	.LVL540:
 682:funciones.c   ****     CyDelayUs(10);
 4316              		.loc 1 682 0
 4317 0006 0A20     		movs	r0, #10
 4318 0008 FFF7FEFF 		bl	CyDelayUs
 4319              	.LVL541:
 683:funciones.c   ****     UART_2_PutChar(0xFF);
 4320              		.loc 1 683 0
 4321 000c FF20     		movs	r0, #255
 4322 000e FFF7FEFF 		bl	UART_2_PutChar
 4323              	.LVL542:
 684:funciones.c   ****     CyDelayUs(10);
ARM GAS  C:\Users\USUARIO\AppData\Local\Temp\ccWuTYF0.s 			page 89


 4324              		.loc 1 684 0
 4325 0012 0A20     		movs	r0, #10
 4326 0014 FFF7FEFF 		bl	CyDelayUs
 4327              	.LVL543:
 685:funciones.c   ****     UART_2_PutChar(0xFF);
 4328              		.loc 1 685 0
 4329 0018 FF20     		movs	r0, #255
 4330 001a FFF7FEFF 		bl	UART_2_PutChar
 4331              	.LVL544:
 686:funciones.c   ****     CyDelayUs(10);
 4332              		.loc 1 686 0
 4333 001e 0A20     		movs	r0, #10
 4334 0020 FFF7FEFF 		bl	CyDelayUs
 4335              	.LVL545:
 687:funciones.c   ****     UART_2_PutChar(0xFF);
 4336              		.loc 1 687 0
 4337 0024 FF20     		movs	r0, #255
 4338 0026 FFF7FEFF 		bl	UART_2_PutChar
 4339              	.LVL546:
 688:funciones.c   ****     CyDelayUs(10);
 4340              		.loc 1 688 0
 4341 002a 0A20     		movs	r0, #10
 4342 002c FFF7FEFF 		bl	CyDelayUs
 4343              	.LVL547:
 4344 0030 08BD     		pop	{r3, pc}
 4345              		.cfi_endproc
 4346              	.LFE76:
 4347              		.size	escribeDisplay2, .-escribeDisplay2
 4348 0032 00BF     		.section	.text.LeeDisplay,"ax",%progbits
 4349              		.align	2
 4350              		.global	LeeDisplay
 4351              		.thumb
 4352              		.thumb_func
 4353              		.type	LeeDisplay, %function
 4354              	LeeDisplay:
 4355              	.LFB77:
 689:funciones.c   **** }
 690:funciones.c   **** 
 691:funciones.c   **** void LeeDisplay(void){    
 4356              		.loc 1 691 0
 4357              		.cfi_startproc
 4358              		@ args = 0, pretend = 0, frame = 0
 4359              		@ frame_needed = 0, uses_anonymous_args = 0
 4360              		@ link register save eliminated.
 692:funciones.c   ****     if(Dato_Exitoso==5){
 4361              		.loc 1 692 0
 4362 0000 A24B     		ldr	r3, .L340
 4363 0002 1B78     		ldrb	r3, [r3]	@ zero_extendqisi2
 4364 0004 052B     		cmp	r3, #5
 4365 0006 40F0E680 		bne	.L300
 693:funciones.c   ****          Rx_Buffer[0]=Rx_Buffer2[0];
 4366              		.loc 1 693 0
 4367 000a A14A     		ldr	r2, .L340+4
 4368 000c 1178     		ldrb	r1, [r2]	@ zero_extendqisi2
 4369 000e A14B     		ldr	r3, .L340+8
 4370 0010 1970     		strb	r1, [r3]
 694:funciones.c   ****          Rx_Buffer[1]=Rx_Buffer2[1];
ARM GAS  C:\Users\USUARIO\AppData\Local\Temp\ccWuTYF0.s 			page 90


 4371              		.loc 1 694 0
 4372 0012 5178     		ldrb	r1, [r2, #1]	@ zero_extendqisi2
 4373 0014 5970     		strb	r1, [r3, #1]
 695:funciones.c   ****          Rx_Buffer[2]=Rx_Buffer2[2];
 4374              		.loc 1 695 0
 4375 0016 9178     		ldrb	r1, [r2, #2]	@ zero_extendqisi2
 4376 0018 9970     		strb	r1, [r3, #2]
 696:funciones.c   ****          Rx_Buffer[3]=Rx_Buffer2[3];
 4377              		.loc 1 696 0
 4378 001a D178     		ldrb	r1, [r2, #3]	@ zero_extendqisi2
 4379 001c D970     		strb	r1, [r3, #3]
 697:funciones.c   ****          Rx_Buffer[4]=Rx_Buffer2[4];
 4380              		.loc 1 697 0
 4381 001e 1079     		ldrb	r0, [r2, #4]	@ zero_extendqisi2
 4382 0020 1871     		strb	r0, [r3, #4]
 698:funciones.c   ****          Rx_Buffer[5]=Rx_Buffer2[5];
 4383              		.loc 1 698 0
 4384 0022 5079     		ldrb	r0, [r2, #5]	@ zero_extendqisi2
 4385 0024 5871     		strb	r0, [r3, #5]
 699:funciones.c   ****          Rx_Buffer[6]=Rx_Buffer2[6];
 4386              		.loc 1 699 0
 4387 0026 9079     		ldrb	r0, [r2, #6]	@ zero_extendqisi2
 4388 0028 9871     		strb	r0, [r3, #6]
 700:funciones.c   ****          Rx_Buffer[7]=Rx_Buffer2[7];
 4389              		.loc 1 700 0
 4390 002a D079     		ldrb	r0, [r2, #7]	@ zero_extendqisi2
 4391 002c D871     		strb	r0, [r3, #7]
 701:funciones.c   ****          Rx_Buffer[8]=Rx_Buffer2[8];
 4392              		.loc 1 701 0
 4393 002e 107A     		ldrb	r0, [r2, #8]	@ zero_extendqisi2
 4394 0030 1872     		strb	r0, [r3, #8]
 702:funciones.c   ****          Rx_Buffer[9]=Rx_Buffer2[9];
 4395              		.loc 1 702 0
 4396 0032 527A     		ldrb	r2, [r2, #9]	@ zero_extendqisi2
 4397 0034 5A72     		strb	r2, [r3, #9]
 703:funciones.c   ****          
 704:funciones.c   ****       if(Rx_Buffer[3]==0x01){// Pregunta por la pagina en la que esta el display,01 es Contrasea 
 4398              		.loc 1 704 0
 4399 0036 0129     		cmp	r1, #1
 4400 0038 0AD1     		bne	.L301
 705:funciones.c   ****          Menu=0;
 4401              		.loc 1 705 0
 4402 003a 0022     		movs	r2, #0
 4403 003c 964B     		ldr	r3, .L340+12
 4404 003e 1A70     		strb	r2, [r3]
 706:funciones.c   ****          if(MenuAntt!=Menu)
 4405              		.loc 1 706 0
 4406 0040 964B     		ldr	r3, .L340+16
 4407 0042 1B78     		ldrb	r3, [r3]	@ zero_extendqisi2
 4408 0044 002B     		cmp	r3, #0
 4409 0046 00F0D180 		beq	.L302
 707:funciones.c   ****             MenuAntt=Menu;
 4410              		.loc 1 707 0
 4411 004a 944B     		ldr	r3, .L340+16
 4412 004c 1A70     		strb	r2, [r3]
 4413 004e CDE0     		b	.L302
 4414              	.L301:
ARM GAS  C:\Users\USUARIO\AppData\Local\Temp\ccWuTYF0.s 			page 91


 708:funciones.c   ****       }else if(Rx_Buffer[3]==0x02){//02 es Menu Principal con PantallaPriincipal=0, y con PantallaP
 4415              		.loc 1 708 0
 4416 0050 0229     		cmp	r1, #2
 4417 0052 0AD1     		bne	.L303
 709:funciones.c   ****          Menu=1;
 4418              		.loc 1 709 0
 4419 0054 0122     		movs	r2, #1
 4420 0056 904B     		ldr	r3, .L340+12
 4421 0058 1A70     		strb	r2, [r3]
 710:funciones.c   ****          if(MenuAntt!=Menu)
 4422              		.loc 1 710 0
 4423 005a 904B     		ldr	r3, .L340+16
 4424 005c 1B78     		ldrb	r3, [r3]	@ zero_extendqisi2
 4425 005e 9342     		cmp	r3, r2
 4426 0060 00F0C480 		beq	.L302
 711:funciones.c   ****             MenuAntt=Menu;
 4427              		.loc 1 711 0
 4428 0064 8D4B     		ldr	r3, .L340+16
 4429 0066 1A70     		strb	r2, [r3]
 4430 0068 C0E0     		b	.L302
 4431              	.L303:
 712:funciones.c   ****       }else if(Rx_Buffer[3]==0x04){//03 es Tiempo Esterilizacion
 4432              		.loc 1 712 0
 4433 006a 0429     		cmp	r1, #4
 4434 006c 0AD1     		bne	.L304
 713:funciones.c   ****          Menu=2;
 4435              		.loc 1 713 0
 4436 006e 0222     		movs	r2, #2
 4437 0070 894B     		ldr	r3, .L340+12
 4438 0072 1A70     		strb	r2, [r3]
 714:funciones.c   ****          if(MenuAntt!=Menu)
 4439              		.loc 1 714 0
 4440 0074 894B     		ldr	r3, .L340+16
 4441 0076 1B78     		ldrb	r3, [r3]	@ zero_extendqisi2
 4442 0078 9342     		cmp	r3, r2
 4443 007a 00F0B780 		beq	.L302
 715:funciones.c   ****             MenuAntt=Menu;
 4444              		.loc 1 715 0
 4445 007e 874B     		ldr	r3, .L340+16
 4446 0080 1A70     		strb	r2, [r3]
 4447 0082 B3E0     		b	.L302
 4448              	.L304:
 716:funciones.c   ****       }else if(Rx_Buffer[3]==0x05){//05 es Temperatura
 4449              		.loc 1 716 0
 4450 0084 0529     		cmp	r1, #5
 4451 0086 0AD1     		bne	.L305
 717:funciones.c   ****          Menu=3;
 4452              		.loc 1 717 0
 4453 0088 0322     		movs	r2, #3
 4454 008a 834B     		ldr	r3, .L340+12
 4455 008c 1A70     		strb	r2, [r3]
 718:funciones.c   ****          if(MenuAntt!=Menu)
 4456              		.loc 1 718 0
 4457 008e 834B     		ldr	r3, .L340+16
 4458 0090 1B78     		ldrb	r3, [r3]	@ zero_extendqisi2
 4459 0092 9342     		cmp	r3, r2
 4460 0094 00F0AA80 		beq	.L302
ARM GAS  C:\Users\USUARIO\AppData\Local\Temp\ccWuTYF0.s 			page 92


 719:funciones.c   ****             MenuAntt=Menu;
 4461              		.loc 1 719 0
 4462 0098 804B     		ldr	r3, .L340+16
 4463 009a 1A70     		strb	r2, [r3]
 4464 009c A6E0     		b	.L302
 4465              	.L305:
 720:funciones.c   ****       }else if(Rx_Buffer[3]==0x06){//06 es Humedad
 4466              		.loc 1 720 0
 4467 009e 0629     		cmp	r1, #6
 4468 00a0 0AD1     		bne	.L306
 721:funciones.c   ****          Menu=4;
 4469              		.loc 1 721 0
 4470 00a2 0422     		movs	r2, #4
 4471 00a4 7C4B     		ldr	r3, .L340+12
 4472 00a6 1A70     		strb	r2, [r3]
 722:funciones.c   ****          if(MenuAntt!=Menu)
 4473              		.loc 1 722 0
 4474 00a8 7C4B     		ldr	r3, .L340+16
 4475 00aa 1B78     		ldrb	r3, [r3]	@ zero_extendqisi2
 4476 00ac 9342     		cmp	r3, r2
 4477 00ae 00F09D80 		beq	.L302
 723:funciones.c   ****             MenuAntt=Menu;
 4478              		.loc 1 723 0
 4479 00b2 7A4B     		ldr	r3, .L340+16
 4480 00b4 1A70     		strb	r2, [r3]
 4481 00b6 99E0     		b	.L302
 4482              	.L306:
 724:funciones.c   ****       }else if(Rx_Buffer[3]==0x07){//07 es Test de Componentes
 4483              		.loc 1 724 0
 4484 00b8 0729     		cmp	r1, #7
 4485 00ba 0AD1     		bne	.L307
 725:funciones.c   ****          Menu=6;
 4486              		.loc 1 725 0
 4487 00bc 0622     		movs	r2, #6
 4488 00be 764B     		ldr	r3, .L340+12
 4489 00c0 1A70     		strb	r2, [r3]
 726:funciones.c   ****          if(MenuAntt!=Menu)
 4490              		.loc 1 726 0
 4491 00c2 764B     		ldr	r3, .L340+16
 4492 00c4 1B78     		ldrb	r3, [r3]	@ zero_extendqisi2
 4493 00c6 9342     		cmp	r3, r2
 4494 00c8 00F09080 		beq	.L302
 727:funciones.c   ****             MenuAntt=Menu;
 4495              		.loc 1 727 0
 4496 00cc 734B     		ldr	r3, .L340+16
 4497 00ce 1A70     		strb	r2, [r3]
 4498 00d0 8CE0     		b	.L302
 4499              	.L307:
 728:funciones.c   ****       }else if(Rx_Buffer[3]==0x08){//08 es Fecha y hora
 4500              		.loc 1 728 0
 4501 00d2 0829     		cmp	r1, #8
 4502 00d4 0AD1     		bne	.L308
 729:funciones.c   ****          Menu=7;
 4503              		.loc 1 729 0
 4504 00d6 0722     		movs	r2, #7
 4505 00d8 6F4B     		ldr	r3, .L340+12
 4506 00da 1A70     		strb	r2, [r3]
ARM GAS  C:\Users\USUARIO\AppData\Local\Temp\ccWuTYF0.s 			page 93


 730:funciones.c   ****          if(MenuAntt!=Menu)
 4507              		.loc 1 730 0
 4508 00dc 6F4B     		ldr	r3, .L340+16
 4509 00de 1B78     		ldrb	r3, [r3]	@ zero_extendqisi2
 4510 00e0 9342     		cmp	r3, r2
 4511 00e2 00F08380 		beq	.L302
 731:funciones.c   ****             MenuAntt=Menu;
 4512              		.loc 1 731 0
 4513 00e6 6D4B     		ldr	r3, .L340+16
 4514 00e8 1A70     		strb	r2, [r3]
 4515 00ea 7FE0     		b	.L302
 4516              	.L308:
 732:funciones.c   ****       }else if(Rx_Buffer[3]==0x09){//09 es Rampas
 4517              		.loc 1 732 0
 4518 00ec 0929     		cmp	r1, #9
 4519 00ee 09D1     		bne	.L309
 733:funciones.c   ****          Menu=8;
 4520              		.loc 1 733 0
 4521 00f0 0822     		movs	r2, #8
 4522 00f2 694B     		ldr	r3, .L340+12
 4523 00f4 1A70     		strb	r2, [r3]
 734:funciones.c   ****          if(MenuAntt!=Menu)
 4524              		.loc 1 734 0
 4525 00f6 694B     		ldr	r3, .L340+16
 4526 00f8 1B78     		ldrb	r3, [r3]	@ zero_extendqisi2
 4527 00fa 9342     		cmp	r3, r2
 4528 00fc 76D0     		beq	.L302
 735:funciones.c   ****             MenuAntt=Menu;
 4529              		.loc 1 735 0
 4530 00fe 674B     		ldr	r3, .L340+16
 4531 0100 1A70     		strb	r2, [r3]
 4532 0102 73E0     		b	.L302
 4533              	.L309:
 736:funciones.c   ****       }else if(Rx_Buffer[3]==0x0a){//0a es Pulsos de Vacio
 4534              		.loc 1 736 0
 4535 0104 0A29     		cmp	r1, #10
 4536 0106 09D1     		bne	.L310
 737:funciones.c   ****          Menu=9;
 4537              		.loc 1 737 0
 4538 0108 0922     		movs	r2, #9
 4539 010a 634B     		ldr	r3, .L340+12
 4540 010c 1A70     		strb	r2, [r3]
 738:funciones.c   ****          if(MenuAntt!=Menu)
 4541              		.loc 1 738 0
 4542 010e 634B     		ldr	r3, .L340+16
 4543 0110 1B78     		ldrb	r3, [r3]	@ zero_extendqisi2
 4544 0112 9342     		cmp	r3, r2
 4545 0114 6AD0     		beq	.L302
 739:funciones.c   ****             MenuAntt=Menu;
 4546              		.loc 1 739 0
 4547 0116 614B     		ldr	r3, .L340+16
 4548 0118 1A70     		strb	r2, [r3]
 4549 011a 67E0     		b	.L302
 4550              	.L310:
 740:funciones.c   ****       }else if(Rx_Buffer[3]==0x0f){//0f es Recibe caracteres de contrasea desde display
 4551              		.loc 1 740 0
 4552 011c 0F29     		cmp	r1, #15
ARM GAS  C:\Users\USUARIO\AppData\Local\Temp\ccWuTYF0.s 			page 94


 4553 011e 65D0     		beq	.L302
 741:funciones.c   ****          
 742:funciones.c   ****       }else if(Rx_Buffer[3]==0x1a){//1a es Menu de Funcionamiento
 4554              		.loc 1 742 0
 4555 0120 1A29     		cmp	r1, #26
 4556 0122 09D1     		bne	.L311
 743:funciones.c   ****          Menu=20;
 4557              		.loc 1 743 0
 4558 0124 1422     		movs	r2, #20
 4559 0126 5C4B     		ldr	r3, .L340+12
 4560 0128 1A70     		strb	r2, [r3]
 744:funciones.c   ****          if(MenuAntt!=Menu)
 4561              		.loc 1 744 0
 4562 012a 5C4B     		ldr	r3, .L340+16
 4563 012c 1B78     		ldrb	r3, [r3]	@ zero_extendqisi2
 4564 012e 9342     		cmp	r3, r2
 4565 0130 5CD0     		beq	.L302
 745:funciones.c   ****             MenuAntt=Menu;
 4566              		.loc 1 745 0
 4567 0132 5A4B     		ldr	r3, .L340+16
 4568 0134 1A70     		strb	r2, [r3]
 4569 0136 59E0     		b	.L302
 4570              	.L311:
 746:funciones.c   ****       }else if(Rx_Buffer[3]==0x1b){//1b es Menu de clave correcta
 4571              		.loc 1 746 0
 4572 0138 1B29     		cmp	r1, #27
 4573 013a 09D1     		bne	.L312
 747:funciones.c   ****          Menu=15;
 4574              		.loc 1 747 0
 4575 013c 0F22     		movs	r2, #15
 4576 013e 564B     		ldr	r3, .L340+12
 4577 0140 1A70     		strb	r2, [r3]
 748:funciones.c   ****          if(MenuAntt!=Menu)
 4578              		.loc 1 748 0
 4579 0142 564B     		ldr	r3, .L340+16
 4580 0144 1B78     		ldrb	r3, [r3]	@ zero_extendqisi2
 4581 0146 9342     		cmp	r3, r2
 4582 0148 50D0     		beq	.L302
 749:funciones.c   ****             MenuAntt=Menu;
 4583              		.loc 1 749 0
 4584 014a 544B     		ldr	r3, .L340+16
 4585 014c 1A70     		strb	r2, [r3]
 4586 014e 4DE0     		b	.L302
 4587              	.L312:
 750:funciones.c   ****       }else if(Rx_Buffer[3]==0x1c){//1c es Menu de clave incorrecta
 4588              		.loc 1 750 0
 4589 0150 1C29     		cmp	r1, #28
 4590 0152 09D1     		bne	.L313
 751:funciones.c   ****          Menu=16;
 4591              		.loc 1 751 0
 4592 0154 1022     		movs	r2, #16
 4593 0156 504B     		ldr	r3, .L340+12
 4594 0158 1A70     		strb	r2, [r3]
 752:funciones.c   ****          if(MenuAntt!=Menu)
 4595              		.loc 1 752 0
 4596 015a 504B     		ldr	r3, .L340+16
 4597 015c 1B78     		ldrb	r3, [r3]	@ zero_extendqisi2
ARM GAS  C:\Users\USUARIO\AppData\Local\Temp\ccWuTYF0.s 			page 95


 4598 015e 9342     		cmp	r3, r2
 4599 0160 44D0     		beq	.L302
 753:funciones.c   ****             MenuAntt=Menu;
 4600              		.loc 1 753 0
 4601 0162 4E4B     		ldr	r3, .L340+16
 4602 0164 1A70     		strb	r2, [r3]
 4603 0166 41E0     		b	.L302
 4604              	.L313:
 754:funciones.c   ****       }else if(Rx_Buffer[3]==0x1d){//1d es Menu de Eliminado Programa
 4605              		.loc 1 754 0
 4606 0168 1D29     		cmp	r1, #29
 4607 016a 09D1     		bne	.L314
 755:funciones.c   ****          Menu=17;
 4608              		.loc 1 755 0
 4609 016c 1122     		movs	r2, #17
 4610 016e 4A4B     		ldr	r3, .L340+12
 4611 0170 1A70     		strb	r2, [r3]
 756:funciones.c   ****          if(MenuAntt!=Menu)
 4612              		.loc 1 756 0
 4613 0172 4A4B     		ldr	r3, .L340+16
 4614 0174 1B78     		ldrb	r3, [r3]	@ zero_extendqisi2
 4615 0176 9342     		cmp	r3, r2
 4616 0178 38D0     		beq	.L302
 757:funciones.c   ****             MenuAntt=Menu;
 4617              		.loc 1 757 0
 4618 017a 484B     		ldr	r3, .L340+16
 4619 017c 1A70     		strb	r2, [r3]
 4620 017e 35E0     		b	.L302
 4621              	.L314:
 758:funciones.c   ****       }else if(Rx_Buffer[3]==0x1e){//1d es Menu de Pregunta
 4622              		.loc 1 758 0
 4623 0180 1E29     		cmp	r1, #30
 4624 0182 09D1     		bne	.L315
 759:funciones.c   ****          Menu=18;
 4625              		.loc 1 759 0
 4626 0184 1222     		movs	r2, #18
 4627 0186 444B     		ldr	r3, .L340+12
 4628 0188 1A70     		strb	r2, [r3]
 760:funciones.c   ****          if(MenuAntt!=Menu)
 4629              		.loc 1 760 0
 4630 018a 444B     		ldr	r3, .L340+16
 4631 018c 1B78     		ldrb	r3, [r3]	@ zero_extendqisi2
 4632 018e 9342     		cmp	r3, r2
 4633 0190 2CD0     		beq	.L302
 761:funciones.c   ****             MenuAntt=Menu;
 4634              		.loc 1 761 0
 4635 0192 424B     		ldr	r3, .L340+16
 4636 0194 1A70     		strb	r2, [r3]
 4637 0196 29E0     		b	.L302
 4638              	.L315:
 762:funciones.c   ****       }else if(Rx_Buffer[3]==0x2c){//2c es Menu de Configuracion de Parametros
 4639              		.loc 1 762 0
 4640 0198 2C29     		cmp	r1, #44
 4641 019a 09D1     		bne	.L316
 763:funciones.c   ****          Menu=100;
 4642              		.loc 1 763 0
 4643 019c 6422     		movs	r2, #100
ARM GAS  C:\Users\USUARIO\AppData\Local\Temp\ccWuTYF0.s 			page 96


 4644 019e 3E4B     		ldr	r3, .L340+12
 4645 01a0 1A70     		strb	r2, [r3]
 764:funciones.c   ****          if(MenuAntt!=Menu)
 4646              		.loc 1 764 0
 4647 01a2 3E4B     		ldr	r3, .L340+16
 4648 01a4 1B78     		ldrb	r3, [r3]	@ zero_extendqisi2
 4649 01a6 9342     		cmp	r3, r2
 4650 01a8 20D0     		beq	.L302
 765:funciones.c   ****             MenuAntt=Menu;
 4651              		.loc 1 765 0
 4652 01aa 3C4B     		ldr	r3, .L340+16
 4653 01ac 1A70     		strb	r2, [r3]
 4654 01ae 1DE0     		b	.L302
 4655              	.L316:
 766:funciones.c   ****       }else if(Rx_Buffer[3]==0xcc){//cc es Menu de Bienvenida
 4656              		.loc 1 766 0
 4657 01b0 CC29     		cmp	r1, #204
 4658 01b2 1BD1     		bne	.L302
 767:funciones.c   ****         if(controlT==0 && controlH==0 && controlR==0)
 4659              		.loc 1 767 0
 4660 01b4 3A4B     		ldr	r3, .L340+20
 4661 01b6 1B78     		ldrb	r3, [r3]	@ zero_extendqisi2
 4662 01b8 4BB9     		cbnz	r3, .L317
 4663              		.loc 1 767 0 is_stmt 0 discriminator 1
 4664 01ba 3A4B     		ldr	r3, .L340+24
 4665 01bc 1B78     		ldrb	r3, [r3]	@ zero_extendqisi2
 4666 01be 33B9     		cbnz	r3, .L317
 4667              		.loc 1 767 0 discriminator 2
 4668 01c0 394B     		ldr	r3, .L340+28
 4669 01c2 1B78     		ldrb	r3, [r3]	@ zero_extendqisi2
 4670 01c4 1BB9     		cbnz	r3, .L317
 768:funciones.c   ****             Menu=120;
 4671              		.loc 1 768 0 is_stmt 1
 4672 01c6 7822     		movs	r2, #120
 4673 01c8 334B     		ldr	r3, .L340+12
 4674 01ca 1A70     		strb	r2, [r3]
 4675 01cc 0EE0     		b	.L302
 4676              	.L317:
 769:funciones.c   ****         else
 770:funciones.c   ****             Menu=20;
 4677              		.loc 1 770 0
 4678 01ce 1422     		movs	r2, #20
 4679 01d0 314B     		ldr	r3, .L340+12
 4680 01d2 1A70     		strb	r2, [r3]
 4681 01d4 0AE0     		b	.L302
 4682              	.L300:
 771:funciones.c   ****          //if(MenuAntt!=120)
 772:funciones.c   ****             //reset_cpu();
 773:funciones.c   ****       }
 774:funciones.c   ****    }else{
 775:funciones.c   ****       for(z=0;z<RX_BUFFER_SIZE;z++){
 4683              		.loc 1 775 0
 4684 01d6 0022     		movs	r2, #0
 4685 01d8 344B     		ldr	r3, .L340+32
 4686 01da 1A70     		strb	r2, [r3]
 4687 01dc 02E0     		b	.L318
 4688              	.L319:
ARM GAS  C:\Users\USUARIO\AppData\Local\Temp\ccWuTYF0.s 			page 97


 4689              		.loc 1 775 0 is_stmt 0 discriminator 3
 4690 01de 0133     		adds	r3, r3, #1
 4691 01e0 324A     		ldr	r2, .L340+32
 4692 01e2 1370     		strb	r3, [r2]
 4693              	.L318:
 4694              		.loc 1 775 0 discriminator 1
 4695 01e4 314B     		ldr	r3, .L340+32
 4696 01e6 1B78     		ldrb	r3, [r3]	@ zero_extendqisi2
 4697 01e8 092B     		cmp	r3, #9
 4698 01ea F8D9     		bls	.L319
 4699              	.L302:
 776:funciones.c   ****             //Rx_Buffer[z]=0;
 777:funciones.c   ****             //Rx_Buffer2[z]=0;
 778:funciones.c   ****          }
 779:funciones.c   ****    }
 780:funciones.c   **** 
 781:funciones.c   ****        if(Dato_Exitoso2==5){
 4700              		.loc 1 781 0 is_stmt 1
 4701 01ec 304B     		ldr	r3, .L340+36
 4702 01ee 1B78     		ldrb	r3, [r3]	@ zero_extendqisi2
 4703 01f0 052B     		cmp	r3, #5
 4704 01f2 40F00281 		bne	.L320
 782:funciones.c   ****          Rx_Buffer3[0]=Rx_Buffer4[0];
 4705              		.loc 1 782 0
 4706 01f6 2F4A     		ldr	r2, .L340+40
 4707 01f8 1178     		ldrb	r1, [r2]	@ zero_extendqisi2
 4708 01fa 2F4B     		ldr	r3, .L340+44
 4709 01fc 1970     		strb	r1, [r3]
 783:funciones.c   ****          Rx_Buffer3[1]=Rx_Buffer4[1];
 4710              		.loc 1 783 0
 4711 01fe 5178     		ldrb	r1, [r2, #1]	@ zero_extendqisi2
 4712 0200 5970     		strb	r1, [r3, #1]
 784:funciones.c   ****          Rx_Buffer3[2]=Rx_Buffer4[2];
 4713              		.loc 1 784 0
 4714 0202 9178     		ldrb	r1, [r2, #2]	@ zero_extendqisi2
 4715 0204 9970     		strb	r1, [r3, #2]
 785:funciones.c   ****          Rx_Buffer3[3]=Rx_Buffer4[3];
 4716              		.loc 1 785 0
 4717 0206 D178     		ldrb	r1, [r2, #3]	@ zero_extendqisi2
 4718 0208 D970     		strb	r1, [r3, #3]
 786:funciones.c   ****          Rx_Buffer3[4]=Rx_Buffer4[4];
 4719              		.loc 1 786 0
 4720 020a 1079     		ldrb	r0, [r2, #4]	@ zero_extendqisi2
 4721 020c 1871     		strb	r0, [r3, #4]
 787:funciones.c   ****          Rx_Buffer3[5]=Rx_Buffer4[5];
 4722              		.loc 1 787 0
 4723 020e 5079     		ldrb	r0, [r2, #5]	@ zero_extendqisi2
 4724 0210 5871     		strb	r0, [r3, #5]
 788:funciones.c   ****          Rx_Buffer3[6]=Rx_Buffer4[6];
 4725              		.loc 1 788 0
 4726 0212 9079     		ldrb	r0, [r2, #6]	@ zero_extendqisi2
 4727 0214 9871     		strb	r0, [r3, #6]
 789:funciones.c   ****          Rx_Buffer3[7]=Rx_Buffer4[7];
 4728              		.loc 1 789 0
 4729 0216 D079     		ldrb	r0, [r2, #7]	@ zero_extendqisi2
 4730 0218 D871     		strb	r0, [r3, #7]
 790:funciones.c   ****          Rx_Buffer3[8]=Rx_Buffer4[8];
ARM GAS  C:\Users\USUARIO\AppData\Local\Temp\ccWuTYF0.s 			page 98


 4731              		.loc 1 790 0
 4732 021a 107A     		ldrb	r0, [r2, #8]	@ zero_extendqisi2
 4733 021c 1872     		strb	r0, [r3, #8]
 791:funciones.c   ****          Rx_Buffer3[9]=Rx_Buffer4[9];
 4734              		.loc 1 791 0
 4735 021e 527A     		ldrb	r2, [r2, #9]	@ zero_extendqisi2
 4736 0220 5A72     		strb	r2, [r3, #9]
 792:funciones.c   ****          
 793:funciones.c   ****       if(Rx_Buffer3[3]==0x01){// Pregunta por la pagina en la que esta el display,01 es Contrasea
 4737              		.loc 1 793 0
 4738 0222 0129     		cmp	r1, #1
 4739 0224 0AD1     		bne	.L321
 794:funciones.c   ****          Menu2=0;
 4740              		.loc 1 794 0
 4741 0226 0022     		movs	r2, #0
 4742 0228 244B     		ldr	r3, .L340+48
 4743 022a 1A70     		strb	r2, [r3]
 795:funciones.c   ****          if(MenuAntt2!=Menu2)
 4744              		.loc 1 795 0
 4745 022c 244B     		ldr	r3, .L340+52
 4746 022e 1B78     		ldrb	r3, [r3]	@ zero_extendqisi2
 4747 0230 002B     		cmp	r3, #0
 4748 0232 00F0ED80 		beq	.L299
 796:funciones.c   ****             MenuAntt2=Menu2;
 4749              		.loc 1 796 0
 4750 0236 224B     		ldr	r3, .L340+52
 4751 0238 1A70     		strb	r2, [r3]
 4752 023a 7047     		bx	lr
 4753              	.L321:
 797:funciones.c   ****       }else if(Rx_Buffer3[3]==0x02){//02 es Menu Principal con PantallaPriincipal=0, y con Pantalla
 4754              		.loc 1 797 0
 4755 023c 0229     		cmp	r1, #2
 4756 023e 0AD1     		bne	.L323
 798:funciones.c   ****          Menu2=1;
 4757              		.loc 1 798 0
 4758 0240 0122     		movs	r2, #1
 4759 0242 1E4B     		ldr	r3, .L340+48
 4760 0244 1A70     		strb	r2, [r3]
 799:funciones.c   ****          if(MenuAntt2!=Menu2)
 4761              		.loc 1 799 0
 4762 0246 1E4B     		ldr	r3, .L340+52
 4763 0248 1B78     		ldrb	r3, [r3]	@ zero_extendqisi2
 4764 024a 9342     		cmp	r3, r2
 4765 024c 00F0E080 		beq	.L299
 800:funciones.c   ****             MenuAntt2=Menu2;
 4766              		.loc 1 800 0
 4767 0250 1B4B     		ldr	r3, .L340+52
 4768 0252 1A70     		strb	r2, [r3]
 4769 0254 7047     		bx	lr
 4770              	.L323:
 801:funciones.c   ****       }else if(Rx_Buffer3[3]==0x04){//03 es Tiempo Esterilizacion
 4771              		.loc 1 801 0
 4772 0256 0429     		cmp	r1, #4
 4773 0258 0AD1     		bne	.L324
 802:funciones.c   ****          Menu2=2;
 4774              		.loc 1 802 0
 4775 025a 0222     		movs	r2, #2
ARM GAS  C:\Users\USUARIO\AppData\Local\Temp\ccWuTYF0.s 			page 99


 4776 025c 174B     		ldr	r3, .L340+48
 4777 025e 1A70     		strb	r2, [r3]
 803:funciones.c   ****          if(MenuAntt2!=Menu2)
 4778              		.loc 1 803 0
 4779 0260 174B     		ldr	r3, .L340+52
 4780 0262 1B78     		ldrb	r3, [r3]	@ zero_extendqisi2
 4781 0264 9342     		cmp	r3, r2
 4782 0266 00F0D380 		beq	.L299
 804:funciones.c   ****             MenuAntt2=Menu2;
 4783              		.loc 1 804 0
 4784 026a 154B     		ldr	r3, .L340+52
 4785 026c 1A70     		strb	r2, [r3]
 4786 026e 7047     		bx	lr
 4787              	.L324:
 805:funciones.c   ****       }else if(Rx_Buffer3[3]==0x05){//05 es Temperatura
 4788              		.loc 1 805 0
 4789 0270 0529     		cmp	r1, #5
 4790 0272 27D1     		bne	.L325
 806:funciones.c   ****          Menu2=3;
 4791              		.loc 1 806 0
 4792 0274 0322     		movs	r2, #3
 4793 0276 114B     		ldr	r3, .L340+48
 4794 0278 1A70     		strb	r2, [r3]
 807:funciones.c   ****          if(MenuAntt2!=Menu2)
 4795              		.loc 1 807 0
 4796 027a 114B     		ldr	r3, .L340+52
 4797 027c 1B78     		ldrb	r3, [r3]	@ zero_extendqisi2
 4798 027e 9342     		cmp	r3, r2
 4799 0280 00F0C680 		beq	.L299
 808:funciones.c   ****             MenuAntt2=Menu2;
 4800              		.loc 1 808 0
 4801 0284 0E4B     		ldr	r3, .L340+52
 4802 0286 1A70     		strb	r2, [r3]
 4803 0288 7047     		bx	lr
 4804              	.L341:
 4805 028a 00BF     		.align	2
 4806              	.L340:
 4807 028c 00000000 		.word	Dato_Exitoso
 4808 0290 00000000 		.word	Rx_Buffer2
 4809 0294 00000000 		.word	Rx_Buffer
 4810 0298 00000000 		.word	Menu
 4811 029c 00000000 		.word	MenuAntt
 4812 02a0 00000000 		.word	controlT
 4813 02a4 00000000 		.word	controlH
 4814 02a8 00000000 		.word	controlR
 4815 02ac 00000000 		.word	z
 4816 02b0 00000000 		.word	Dato_Exitoso2
 4817 02b4 00000000 		.word	Rx_Buffer4
 4818 02b8 00000000 		.word	Rx_Buffer3
 4819 02bc 00000000 		.word	Menu2
 4820 02c0 00000000 		.word	MenuAntt2
 4821              	.L325:
 809:funciones.c   ****       }else if(Rx_Buffer3[3]==0x06){//06 es Nivel
 4822              		.loc 1 809 0
 4823 02c4 0629     		cmp	r1, #6
 4824 02c6 0AD1     		bne	.L326
 810:funciones.c   ****          Menu2=5;
ARM GAS  C:\Users\USUARIO\AppData\Local\Temp\ccWuTYF0.s 			page 100


 4825              		.loc 1 810 0
 4826 02c8 0522     		movs	r2, #5
 4827 02ca 524B     		ldr	r3, .L342
 4828 02cc 1A70     		strb	r2, [r3]
 811:funciones.c   ****          if(MenuAntt2!=Menu2)
 4829              		.loc 1 811 0
 4830 02ce 524B     		ldr	r3, .L342+4
 4831 02d0 1B78     		ldrb	r3, [r3]	@ zero_extendqisi2
 4832 02d2 9342     		cmp	r3, r2
 4833 02d4 00F09C80 		beq	.L299
 812:funciones.c   ****             MenuAntt2=Menu2;
 4834              		.loc 1 812 0
 4835 02d8 4F4B     		ldr	r3, .L342+4
 4836 02da 1A70     		strb	r2, [r3]
 4837 02dc 7047     		bx	lr
 4838              	.L326:
 813:funciones.c   ****       }else if(Rx_Buffer3[3]==0x07){//07 es Test de Componentes
 4839              		.loc 1 813 0
 4840 02de 0729     		cmp	r1, #7
 4841 02e0 0AD1     		bne	.L327
 814:funciones.c   ****          Menu2=6;
 4842              		.loc 1 814 0
 4843 02e2 0622     		movs	r2, #6
 4844 02e4 4B4B     		ldr	r3, .L342
 4845 02e6 1A70     		strb	r2, [r3]
 815:funciones.c   ****          if(MenuAntt2!=Menu2)
 4846              		.loc 1 815 0
 4847 02e8 4B4B     		ldr	r3, .L342+4
 4848 02ea 1B78     		ldrb	r3, [r3]	@ zero_extendqisi2
 4849 02ec 9342     		cmp	r3, r2
 4850 02ee 00F08F80 		beq	.L299
 816:funciones.c   ****             MenuAntt2=Menu2;
 4851              		.loc 1 816 0
 4852 02f2 494B     		ldr	r3, .L342+4
 4853 02f4 1A70     		strb	r2, [r3]
 4854 02f6 7047     		bx	lr
 4855              	.L327:
 817:funciones.c   ****       }else if(Rx_Buffer3[3]==0x08){//08 es Fecha y hora
 4856              		.loc 1 817 0
 4857 02f8 0829     		cmp	r1, #8
 4858 02fa 0AD1     		bne	.L328
 818:funciones.c   ****          Menu2=7;
 4859              		.loc 1 818 0
 4860 02fc 0722     		movs	r2, #7
 4861 02fe 454B     		ldr	r3, .L342
 4862 0300 1A70     		strb	r2, [r3]
 819:funciones.c   ****          if(MenuAntt2!=Menu2)
 4863              		.loc 1 819 0
 4864 0302 454B     		ldr	r3, .L342+4
 4865 0304 1B78     		ldrb	r3, [r3]	@ zero_extendqisi2
 4866 0306 9342     		cmp	r3, r2
 4867 0308 00F08280 		beq	.L299
 820:funciones.c   ****             MenuAntt2=Menu2;
 4868              		.loc 1 820 0
 4869 030c 424B     		ldr	r3, .L342+4
 4870 030e 1A70     		strb	r2, [r3]
 4871 0310 7047     		bx	lr
ARM GAS  C:\Users\USUARIO\AppData\Local\Temp\ccWuTYF0.s 			page 101


 4872              	.L328:
 821:funciones.c   ****       }else if(Rx_Buffer3[3]==0x09){//09 es Rampas
 4873              		.loc 1 821 0
 4874 0312 0929     		cmp	r1, #9
 4875 0314 09D1     		bne	.L329
 822:funciones.c   ****          Menu2=8;
 4876              		.loc 1 822 0
 4877 0316 0822     		movs	r2, #8
 4878 0318 3E4B     		ldr	r3, .L342
 4879 031a 1A70     		strb	r2, [r3]
 823:funciones.c   ****          if(MenuAntt2!=Menu2)
 4880              		.loc 1 823 0
 4881 031c 3E4B     		ldr	r3, .L342+4
 4882 031e 1B78     		ldrb	r3, [r3]	@ zero_extendqisi2
 4883 0320 9342     		cmp	r3, r2
 4884 0322 75D0     		beq	.L299
 824:funciones.c   ****             MenuAntt2=Menu2;
 4885              		.loc 1 824 0
 4886 0324 3C4B     		ldr	r3, .L342+4
 4887 0326 1A70     		strb	r2, [r3]
 4888 0328 7047     		bx	lr
 4889              	.L329:
 825:funciones.c   ****       }else if(Rx_Buffer3[3]==0x0a){//0a es Grafica
 4890              		.loc 1 825 0
 4891 032a 0A29     		cmp	r1, #10
 4892 032c 09D1     		bne	.L330
 826:funciones.c   ****          Menu2=9;
 4893              		.loc 1 826 0
 4894 032e 0922     		movs	r2, #9
 4895 0330 384B     		ldr	r3, .L342
 4896 0332 1A70     		strb	r2, [r3]
 827:funciones.c   ****          if(MenuAntt2!=Menu2)
 4897              		.loc 1 827 0
 4898 0334 384B     		ldr	r3, .L342+4
 4899 0336 1B78     		ldrb	r3, [r3]	@ zero_extendqisi2
 4900 0338 9342     		cmp	r3, r2
 4901 033a 69D0     		beq	.L299
 828:funciones.c   ****             MenuAntt2=Menu2;
 4902              		.loc 1 828 0
 4903 033c 364B     		ldr	r3, .L342+4
 4904 033e 1A70     		strb	r2, [r3]
 4905 0340 7047     		bx	lr
 4906              	.L330:
 829:funciones.c   ****       }else if(Rx_Buffer3[3]==0x0b){//0b es Red
 4907              		.loc 1 829 0
 4908 0342 0B29     		cmp	r1, #11
 4909 0344 09D1     		bne	.L331
 830:funciones.c   ****          Menu2=10;
 4910              		.loc 1 830 0
 4911 0346 0A22     		movs	r2, #10
 4912 0348 324B     		ldr	r3, .L342
 4913 034a 1A70     		strb	r2, [r3]
 831:funciones.c   ****          if(MenuAntt2!=Menu2)
 4914              		.loc 1 831 0
 4915 034c 324B     		ldr	r3, .L342+4
 4916 034e 1B78     		ldrb	r3, [r3]	@ zero_extendqisi2
 4917 0350 9342     		cmp	r3, r2
ARM GAS  C:\Users\USUARIO\AppData\Local\Temp\ccWuTYF0.s 			page 102


 4918 0352 5DD0     		beq	.L299
 832:funciones.c   ****             MenuAntt2=Menu2;
 4919              		.loc 1 832 0
 4920 0354 304B     		ldr	r3, .L342+4
 4921 0356 1A70     		strb	r2, [r3]
 4922 0358 7047     		bx	lr
 4923              	.L331:
 833:funciones.c   ****       }else if(Rx_Buffer3[3]==0x0c){//0c es Calibracion Temperatura
 4924              		.loc 1 833 0
 4925 035a 0C29     		cmp	r1, #12
 4926 035c 09D1     		bne	.L332
 834:funciones.c   ****          Menu2=11;
 4927              		.loc 1 834 0
 4928 035e 0B22     		movs	r2, #11
 4929 0360 2C4B     		ldr	r3, .L342
 4930 0362 1A70     		strb	r2, [r3]
 835:funciones.c   ****          if(MenuAntt2!=Menu2)
 4931              		.loc 1 835 0
 4932 0364 2C4B     		ldr	r3, .L342+4
 4933 0366 1B78     		ldrb	r3, [r3]	@ zero_extendqisi2
 4934 0368 9342     		cmp	r3, r2
 4935 036a 51D0     		beq	.L299
 836:funciones.c   ****             MenuAntt2=Menu2;
 4936              		.loc 1 836 0
 4937 036c 2A4B     		ldr	r3, .L342+4
 4938 036e 1A70     		strb	r2, [r3]
 4939 0370 7047     		bx	lr
 4940              	.L332:
 837:funciones.c   ****       }else if(Rx_Buffer3[3]==0x0d){//0c es Calibracion Humedad
 4941              		.loc 1 837 0
 4942 0372 0D29     		cmp	r1, #13
 4943 0374 09D1     		bne	.L333
 838:funciones.c   ****          Menu2=12;
 4944              		.loc 1 838 0
 4945 0376 0C22     		movs	r2, #12
 4946 0378 264B     		ldr	r3, .L342
 4947 037a 1A70     		strb	r2, [r3]
 839:funciones.c   ****          if(MenuAntt2!=Menu2)
 4948              		.loc 1 839 0
 4949 037c 264B     		ldr	r3, .L342+4
 4950 037e 1B78     		ldrb	r3, [r3]	@ zero_extendqisi2
 4951 0380 9342     		cmp	r3, r2
 4952 0382 45D0     		beq	.L299
 840:funciones.c   ****             MenuAntt2=Menu2;
 4953              		.loc 1 840 0
 4954 0384 244B     		ldr	r3, .L342+4
 4955 0386 1A70     		strb	r2, [r3]
 4956 0388 7047     		bx	lr
 4957              	.L333:
 841:funciones.c   ****       }else if(Rx_Buffer3[3]==0x0f){//0f es Recibe caracteres de contrasea desde display
 4958              		.loc 1 841 0
 4959 038a 0F29     		cmp	r1, #15
 4960 038c 40D0     		beq	.L299
 842:funciones.c   ****          
 843:funciones.c   ****       }else if(Rx_Buffer3[3]==0x1a){//1a es Menu de Funcionamiento
 4961              		.loc 1 843 0
 4962 038e 1A29     		cmp	r1, #26
ARM GAS  C:\Users\USUARIO\AppData\Local\Temp\ccWuTYF0.s 			page 103


 4963 0390 09D1     		bne	.L334
 844:funciones.c   ****          Menu2=20;
 4964              		.loc 1 844 0
 4965 0392 1422     		movs	r2, #20
 4966 0394 1F4B     		ldr	r3, .L342
 4967 0396 1A70     		strb	r2, [r3]
 845:funciones.c   ****          if(MenuAntt2!=Menu2)
 4968              		.loc 1 845 0
 4969 0398 1F4B     		ldr	r3, .L342+4
 4970 039a 1B78     		ldrb	r3, [r3]	@ zero_extendqisi2
 4971 039c 9342     		cmp	r3, r2
 4972 039e 37D0     		beq	.L299
 846:funciones.c   ****             MenuAntt2=Menu2;
 4973              		.loc 1 846 0
 4974 03a0 1D4B     		ldr	r3, .L342+4
 4975 03a2 1A70     		strb	r2, [r3]
 4976 03a4 7047     		bx	lr
 4977              	.L334:
 847:funciones.c   ****       }else if(Rx_Buffer3[3]==0x1b){//1b es Menu de clave correcta
 4978              		.loc 1 847 0
 4979 03a6 1B29     		cmp	r1, #27
 4980 03a8 09D1     		bne	.L335
 848:funciones.c   ****          Menu2=15;
 4981              		.loc 1 848 0
 4982 03aa 0F22     		movs	r2, #15
 4983 03ac 194B     		ldr	r3, .L342
 4984 03ae 1A70     		strb	r2, [r3]
 849:funciones.c   ****          if(MenuAntt2!=Menu2)
 4985              		.loc 1 849 0
 4986 03b0 194B     		ldr	r3, .L342+4
 4987 03b2 1B78     		ldrb	r3, [r3]	@ zero_extendqisi2
 4988 03b4 9342     		cmp	r3, r2
 4989 03b6 2BD0     		beq	.L299
 850:funciones.c   ****             MenuAntt2=Menu2;
 4990              		.loc 1 850 0
 4991 03b8 174B     		ldr	r3, .L342+4
 4992 03ba 1A70     		strb	r2, [r3]
 4993 03bc 7047     		bx	lr
 4994              	.L335:
 851:funciones.c   ****       }else if(Rx_Buffer3[3]==0x1c){//1c es Menu de clave incorrecta
 4995              		.loc 1 851 0
 4996 03be 1C29     		cmp	r1, #28
 4997 03c0 09D1     		bne	.L336
 852:funciones.c   ****          Menu2=16;
 4998              		.loc 1 852 0
 4999 03c2 1022     		movs	r2, #16
 5000 03c4 134B     		ldr	r3, .L342
 5001 03c6 1A70     		strb	r2, [r3]
 853:funciones.c   ****          if(MenuAntt2!=Menu2)
 5002              		.loc 1 853 0
 5003 03c8 134B     		ldr	r3, .L342+4
 5004 03ca 1B78     		ldrb	r3, [r3]	@ zero_extendqisi2
 5005 03cc 9342     		cmp	r3, r2
 5006 03ce 1FD0     		beq	.L299
 854:funciones.c   ****             MenuAntt2=Menu2;
 5007              		.loc 1 854 0
 5008 03d0 114B     		ldr	r3, .L342+4
ARM GAS  C:\Users\USUARIO\AppData\Local\Temp\ccWuTYF0.s 			page 104


 5009 03d2 1A70     		strb	r2, [r3]
 5010 03d4 7047     		bx	lr
 5011              	.L336:
 855:funciones.c   ****       }else if(Rx_Buffer3[3]==0x2c){//2c es Menu de Configuracion de Parametros
 5012              		.loc 1 855 0
 5013 03d6 2C29     		cmp	r1, #44
 5014 03d8 09D1     		bne	.L337
 856:funciones.c   ****          Menu2=100;
 5015              		.loc 1 856 0
 5016 03da 6422     		movs	r2, #100
 5017 03dc 0D4B     		ldr	r3, .L342
 5018 03de 1A70     		strb	r2, [r3]
 857:funciones.c   ****          if(MenuAntt2!=Menu2)
 5019              		.loc 1 857 0
 5020 03e0 0D4B     		ldr	r3, .L342+4
 5021 03e2 1B78     		ldrb	r3, [r3]	@ zero_extendqisi2
 5022 03e4 9342     		cmp	r3, r2
 5023 03e6 13D0     		beq	.L299
 858:funciones.c   ****             MenuAntt2=Menu2;
 5024              		.loc 1 858 0
 5025 03e8 0B4B     		ldr	r3, .L342+4
 5026 03ea 1A70     		strb	r2, [r3]
 5027 03ec 7047     		bx	lr
 5028              	.L337:
 859:funciones.c   ****       }else if(Rx_Buffer3[3]==0xcc){//cc es Menu de Bienvenida
 5029              		.loc 1 859 0
 5030 03ee CC29     		cmp	r1, #204
 5031 03f0 0ED1     		bne	.L299
 860:funciones.c   ****          Menu2=120;
 5032              		.loc 1 860 0
 5033 03f2 7822     		movs	r2, #120
 5034 03f4 074B     		ldr	r3, .L342
 5035 03f6 1A70     		strb	r2, [r3]
 5036 03f8 7047     		bx	lr
 5037              	.L320:
 861:funciones.c   ****          //if(MenuAntt!=120)
 862:funciones.c   ****             //reset_cpu();
 863:funciones.c   ****       }
 864:funciones.c   ****    }else{
 865:funciones.c   ****          for(z=0;z<RX_BUFFER_SIZE;z++){
 5038              		.loc 1 865 0
 5039 03fa 0022     		movs	r2, #0
 5040 03fc 074B     		ldr	r3, .L342+8
 5041 03fe 1A70     		strb	r2, [r3]
 5042 0400 02E0     		b	.L338
 5043              	.L339:
 5044              		.loc 1 865 0 is_stmt 0 discriminator 3
 5045 0402 0133     		adds	r3, r3, #1
 5046 0404 054A     		ldr	r2, .L342+8
 5047 0406 1370     		strb	r3, [r2]
 5048              	.L338:
 5049              		.loc 1 865 0 discriminator 1
 5050 0408 044B     		ldr	r3, .L342+8
 5051 040a 1B78     		ldrb	r3, [r3]	@ zero_extendqisi2
 5052 040c 092B     		cmp	r3, #9
 5053 040e F8D9     		bls	.L339
 5054              	.L299:
ARM GAS  C:\Users\USUARIO\AppData\Local\Temp\ccWuTYF0.s 			page 105


 5055 0410 7047     		bx	lr
 5056              	.L343:
 5057 0412 00BF     		.align	2
 5058              	.L342:
 5059 0414 00000000 		.word	Menu2
 5060 0418 00000000 		.word	MenuAntt2
 5061 041c 00000000 		.word	z
 5062              		.cfi_endproc
 5063              	.LFE77:
 5064              		.size	LeeDisplay, .-LeeDisplay
 5065              		.global	__aeabi_dcmpge
 5066              		.section	.text.controlaRampa,"ax",%progbits
 5067              		.align	2
 5068              		.global	controlaRampa
 5069              		.thumb
 5070              		.thumb_func
 5071              		.type	controlaRampa, %function
 5072              	controlaRampa:
 5073              	.LFB78:
 866:funciones.c   ****             //Rx_Buffer[z]=0;
 867:funciones.c   ****             //Rx_Buffer2[z]=0;
 868:funciones.c   ****          }
 869:funciones.c   ****    }
 870:funciones.c   **** }
 871:funciones.c   **** 
 872:funciones.c   **** void controlaRampa(){
 5074              		.loc 1 872 0 is_stmt 1
 5075              		.cfi_startproc
 5076              		@ args = 0, pretend = 0, frame = 0
 5077              		@ frame_needed = 0, uses_anonymous_args = 0
 5078 0000 2DE9F041 		push	{r4, r5, r6, r7, r8, lr}
 5079              		.cfi_def_cfa_offset 24
 5080              		.cfi_offset 4, -24
 5081              		.cfi_offset 5, -20
 5082              		.cfi_offset 6, -16
 5083              		.cfi_offset 7, -12
 5084              		.cfi_offset 8, -8
 5085              		.cfi_offset 14, -4
 873:funciones.c   ****       if(Enfria==1){
 5086              		.loc 1 873 0
 5087 0004 9E4B     		ldr	r3, .L394+8
 5088 0006 B3F90030 		ldrsh	r3, [r3]
 5089 000a 012B     		cmp	r3, #1
 5090 000c 40F09980 		bne	.L345
 874:funciones.c   ****       if(Temperatura<=Setpoint+0.5 && Temperatura>=Setpoint-0.5){
 5091              		.loc 1 874 0
 5092 0010 9C4B     		ldr	r3, .L394+12
 5093 0012 1868     		ldr	r0, [r3]	@ float
 5094 0014 FFF7FEFF 		bl	__aeabi_f2d
 5095              	.LVL548:
 5096 0018 0446     		mov	r4, r0
 5097 001a 0D46     		mov	r5, r1
 5098 001c 9A4B     		ldr	r3, .L394+16
 5099 001e D3F80080 		ldr	r8, [r3]	@ float
 5100 0022 4046     		mov	r0, r8
 5101 0024 FFF7FEFF 		bl	__aeabi_f2d
 5102              	.LVL549:
ARM GAS  C:\Users\USUARIO\AppData\Local\Temp\ccWuTYF0.s 			page 106


 5103 0028 0646     		mov	r6, r0
 5104 002a 0F46     		mov	r7, r1
 5105 002c 0022     		movs	r2, #0
 5106 002e 974B     		ldr	r3, .L394+20
 5107 0030 FFF7FEFF 		bl	__aeabi_dadd
 5108              	.LVL550:
 5109 0034 0246     		mov	r2, r0
 5110 0036 0B46     		mov	r3, r1
 5111 0038 2046     		mov	r0, r4
 5112 003a 2946     		mov	r1, r5
 5113 003c FFF7FEFF 		bl	__aeabi_dcmple
 5114              	.LVL551:
 5115 0040 58B3     		cbz	r0, .L346
 5116              		.loc 1 874 0 is_stmt 0 discriminator 1
 5117 0042 0022     		movs	r2, #0
 5118 0044 914B     		ldr	r3, .L394+20
 5119 0046 3046     		mov	r0, r6
 5120 0048 3946     		mov	r1, r7
 5121 004a FFF7FEFF 		bl	__aeabi_dsub
 5122              	.LVL552:
 5123 004e 0246     		mov	r2, r0
 5124 0050 0B46     		mov	r3, r1
 5125 0052 2046     		mov	r0, r4
 5126 0054 2946     		mov	r1, r5
 5127 0056 FFF7FEFF 		bl	__aeabi_dcmpge
 5128              	.LVL553:
 5129 005a F0B1     		cbz	r0, .L346
 875:funciones.c   ****          if(Pendiente!=0){
 5130              		.loc 1 875 0 is_stmt 1
 5131 005c 0021     		movs	r1, #0
 5132 005e 8C4B     		ldr	r3, .L394+24
 5133 0060 1868     		ldr	r0, [r3]	@ float
 5134 0062 FFF7FEFF 		bl	__aeabi_fcmpeq
 5135              	.LVL554:
 5136 0066 28B9     		cbnz	r0, .L349
 876:funciones.c   ****             escribeDisplay1("statusT.txt=\"Controlando\"");
 5137              		.loc 1 876 0
 5138 0068 8A48     		ldr	r0, .L394+28
 5139 006a FFF7FEFF 		bl	escribeDisplay1
 5140              	.LVL555:
 877:funciones.c   ****             flagTemperatura=ON;            
 5141              		.loc 1 877 0
 5142 006e 0122     		movs	r2, #1
 5143 0070 894B     		ldr	r3, .L394+32
 5144 0072 1A80     		strh	r2, [r3]	@ movhi
 5145              	.L349:
 878:funciones.c   ****          }
 879:funciones.c   ****          
 880:funciones.c   ****          if(Pendiente==0){
 5146              		.loc 1 880 0
 5147 0074 0021     		movs	r1, #0
 5148 0076 864B     		ldr	r3, .L394+24
 5149 0078 1868     		ldr	r0, [r3]	@ float
 5150 007a FFF7FEFF 		bl	__aeabi_fcmpeq
 5151              	.LVL556:
 5152 007e 28B1     		cbz	r0, .L351
 881:funciones.c   ****             escribeDisplay1("statusT.txt=\"Meseta\"");
ARM GAS  C:\Users\USUARIO\AppData\Local\Temp\ccWuTYF0.s 			page 107


 5153              		.loc 1 881 0
 5154 0080 8648     		ldr	r0, .L394+36
 5155 0082 FFF7FEFF 		bl	escribeDisplay1
 5156              	.LVL557:
 882:funciones.c   ****             flagTemperatura=ON;
 5157              		.loc 1 882 0
 5158 0086 0122     		movs	r2, #1
 5159 0088 834B     		ldr	r3, .L394+32
 5160 008a 1A80     		strh	r2, [r3]	@ movhi
 5161              	.L351:
 883:funciones.c   ****          }
 884:funciones.c   ****          Controla();
 5162              		.loc 1 884 0
 5163 008c FFF7FEFF 		bl	Controla
 5164              	.LVL558:
 885:funciones.c   ****          flag_tiempocalentamiento=0;
 5165              		.loc 1 885 0
 5166 0090 0022     		movs	r2, #0
 5167 0092 834B     		ldr	r3, .L394+40
 5168 0094 1A80     		strh	r2, [r3]	@ movhi
 5169 0096 BDE8F081 		pop	{r4, r5, r6, r7, r8, pc}
 5170              	.L346:
 886:funciones.c   ****       }else if(Temperatura<Setpoint-0.5){
 5171              		.loc 1 886 0
 5172 009a 0022     		movs	r2, #0
 5173 009c 7B4B     		ldr	r3, .L394+20
 5174 009e 3046     		mov	r0, r6
 5175 00a0 3946     		mov	r1, r7
 5176 00a2 FFF7FEFF 		bl	__aeabi_dsub
 5177              	.LVL559:
 5178 00a6 0246     		mov	r2, r0
 5179 00a8 0B46     		mov	r3, r1
 5180 00aa 2046     		mov	r0, r4
 5181 00ac 2946     		mov	r1, r5
 5182 00ae FFF7FEFF 		bl	__aeabi_dcmplt
 5183              	.LVL560:
 5184 00b2 D0B1     		cbz	r0, .L391
 887:funciones.c   ****          Enfria=0;
 5185              		.loc 1 887 0
 5186 00b4 0024     		movs	r4, #0
 5187 00b6 724B     		ldr	r3, .L394+8
 5188 00b8 1C80     		strh	r4, [r3]	@ movhi
 888:funciones.c   ****          Ganancia=GananciaR*(Setpoint/200);
 5189              		.loc 1 888 0
 5190 00ba 7A49     		ldr	r1, .L394+44
 5191 00bc 4046     		mov	r0, r8
 5192 00be FFF7FEFF 		bl	__aeabi_fdiv
 5193              	.LVL561:
 5194 00c2 0546     		mov	r5, r0
 5195 00c4 784B     		ldr	r3, .L394+48
 5196 00c6 1878     		ldrb	r0, [r3]	@ zero_extendqisi2
 5197 00c8 FFF7FEFF 		bl	__aeabi_i2f
 5198              	.LVL562:
 5199 00cc 2946     		mov	r1, r5
 5200 00ce FFF7FEFF 		bl	__aeabi_fmul
 5201              	.LVL563:
 5202 00d2 764B     		ldr	r3, .L394+52
ARM GAS  C:\Users\USUARIO\AppData\Local\Temp\ccWuTYF0.s 			page 108


 5203 00d4 1860     		str	r0, [r3]	@ float
 889:funciones.c   ****          //Gananciamax=(0.21)*Setpoint;
 890:funciones.c   ****          //SSR_Write(0);
 891:funciones.c   ****          PWM_WriteCompare1(0);
 5204              		.loc 1 891 0
 5205 00d6 2046     		mov	r0, r4
 5206 00d8 FFF7FEFF 		bl	PWM_WriteCompare1
 5207              	.LVL564:
 892:funciones.c   ****          PWM_WriteCompare2(0);
 5208              		.loc 1 892 0
 5209 00dc 2046     		mov	r0, r4
 5210 00de FFF7FEFF 		bl	PWM_WriteCompare2
 5211              	.LVL565:
 893:funciones.c   ****          Control=0;
 5212              		.loc 1 893 0
 5213 00e2 734B     		ldr	r3, .L394+56
 5214 00e4 1C80     		strh	r4, [r3]	@ movhi
 5215 00e6 BDE8F081 		pop	{r4, r5, r6, r7, r8, pc}
 5216              	.L391:
 894:funciones.c   ****       }else if(Temperatura>Setpoint+0.6){
 5217              		.loc 1 894 0
 5218 00ea 63A3     		adr	r3, .L394
 5219 00ec D3E90023 		ldrd	r2, [r3]
 5220 00f0 3046     		mov	r0, r6
 5221 00f2 3946     		mov	r1, r7
 5222 00f4 FFF7FEFF 		bl	__aeabi_dadd
 5223              	.LVL566:
 5224 00f8 0246     		mov	r2, r0
 5225 00fa 0B46     		mov	r3, r1
 5226 00fc 2046     		mov	r0, r4
 5227 00fe 2946     		mov	r1, r5
 5228 0100 FFF7FEFF 		bl	__aeabi_dcmpgt
 5229              	.LVL567:
 5230 0104 0028     		cmp	r0, #0
 5231 0106 00F0B280 		beq	.L344
