ARM GAS  C:\Users\USUARIO\AppData\Local\Temp\ccWuTYF0.s 			page 1


   1              		.syntax unified
   2              		.cpu cortex-m3
   3              		.fpu softvfp
   4              		.eabi_attribute 20, 1
   5              		.eabi_attribute 21, 1
   6              		.eabi_attribute 23, 3
   7              		.eabi_attribute 24, 1
   8              		.eabi_attribute 25, 1
   9              		.eabi_attribute 26, 1
  10              		.eabi_attribute 30, 1
  11              		.eabi_attribute 34, 1
  12              		.eabi_attribute 18, 4
  13              		.thumb
  14              		.syntax unified
  15              		.file	"funciones.c"
  16              		.text
  17              	.Ltext0:
  18              		.cfi_sections	.debug_frame
  19              		.global	__aeabi_f2iz
  20              		.global	__aeabi_i2f
  21              		.global	__aeabi_fsub
  22              		.global	__aeabi_fmul
  23              		.global	__aeabi_f2uiz
  24              		.section	.text.extraeDecimal,"ax",%progbits
  25              		.align	2
  26              		.global	extraeDecimal
  27              		.thumb
  28              		.thumb_func
  29              		.type	extraeDecimal, %function
  30              	extraeDecimal:
  31              	.LFB64:
  32              		.file 1 "funciones.c"
   1:funciones.c   **** /* ========================================
   2:funciones.c   ****  *
   3:funciones.c   ****  * Copyright YOUR COMPANY, THE YEAR
   4:funciones.c   ****  * All Rights Reserved
   5:funciones.c   ****  * UNPUBLISHED, LICENSED SOFTWARE.
   6:funciones.c   ****  *
   7:funciones.c   ****  * CONFIDENTIAL AND PROPRIETARY INFORMATION
   8:funciones.c   ****  * WHICH IS THE PROPERTY OF your company.
   9:funciones.c   ****  *
  10:funciones.c   ****  * ========================================
  11:funciones.c   **** */
  12:funciones.c   **** #include "funciones.h"
  13:funciones.c   **** #include "removeOffsetNoise.h"
  14:funciones.c   **** #include "getResistance.h"
  15:funciones.c   **** #include "MyServer.h"
  16:funciones.c   **** #include <stdlib.h>
  17:funciones.c   **** #include <stdio.h>
  18:funciones.c   **** 
  19:funciones.c   **** 
  20:funciones.c   **** int8 Regular[12]={0,3,3,6,1,4,6,2,5,0,3,5};
  21:funciones.c   **** int8 Bisiesto[12]={0,3,4,0,2,5,0,3,6,1,4,6};
  22:funciones.c   **** 
  23:funciones.c   **** int8 prueba[80];
  24:funciones.c   **** short Humidificar=0,flagHumedad=0,humidificador=0,desconectoTemperatura=OFF,desconectoHumedad=OFF,f
  25:funciones.c   **** uint8 f,T1Humedad,T2Humedad,T3Humedad,T1,T2,T3,tDisplay=0;
ARM GAS  C:\Users\USUARIO\AppData\Local\Temp\ccWuTYF0.s 			page 2


  26:funciones.c   **** uint16 tdehumidificador,thumidificador,tllenado,data=0,data2=0,datacount=0,pwm2=0,tlevel=0,tlevelH=
  27:funciones.c   **** float RH2,Tam,Humedad,humedadDisplay=0.0,minH=0.0,maxH=0.0;
  28:funciones.c   **** float promedioH[80];
  29:funciones.c   **** float promedioTa[80];
  30:funciones.c   **** 
  31:funciones.c   **** int16 offset;
  32:funciones.c   **** int16 coldJnTemp;
  33:funciones.c   **** int32 tcColdJnuVolt;
  34:funciones.c   **** int32 hotJnCount;
  35:funciones.c   **** int32 filHotJnCount;
  36:funciones.c   **** int32 tcHotJnuVolt;
  37:funciones.c   **** int32 tcuVolt;
  38:funciones.c   **** int32 tcTemp;
  39:funciones.c   **** char displayStr[100];	
  40:funciones.c   **** char Str[100];
  41:funciones.c   **** char Str2[100];
  42:funciones.c   **** uint8 first = 0;  
  43:funciones.c   **** uint8_t i,n,PantallaPrincipal,Programa,Opcion2,Derivativo,Integral,MediaMovil,MediaMovil2,Tciclo,Aj
  44:funciones.c   **** uint16 ctr,SetpointH,SetpointHAnt,derivativo_ant,contador;
  45:funciones.c   **** float Setpoint,SetpointAnt;
  46:funciones.c   **** uint32_t output,tGrafica;
  47:funciones.c   **** short flagButton0,flagButton1,flagButton2,flagButton3,dibujo,pulsoAumentar,pulsoDisminuir,flagBorra
  48:funciones.c   **** short estadoCR2,estadoCR3,inicioControlT,inicioControlH;
  49:funciones.c   **** float valor,pendiente,Ganancia,GananciaIn,vacio,pwmPeltier;
  50:funciones.c   **** int32  Temperature2;
  51:funciones.c   **** 
  52:funciones.c   **** #define RX_BUFFER_SIZE  10
  53:funciones.c   **** char Rx_Buffer[RX_BUFFER_SIZE+1];
  54:funciones.c   **** char Rx_Buffer2[RX_BUFFER_SIZE+1];
  55:funciones.c   **** uint8 RX_Wr_Index=0;
  56:funciones.c   **** uint8 RX_Rd_Index=0;
  57:funciones.c   **** uint8 RX_Counter=0;
  58:funciones.c   **** 
  59:funciones.c   **** char Rx_Buffer3[RX_BUFFER_SIZE+1];
  60:funciones.c   **** char Rx_Buffer4[RX_BUFFER_SIZE+1];
  61:funciones.c   **** uint8 RX_Wr_Index2=0;
  62:funciones.c   **** uint8 RX_Rd_Index2=0;
  63:funciones.c   **** uint8 RX_Counter2=0;
  64:funciones.c   **** 
  65:funciones.c   **** uint8 i2cbuf[4];
  66:funciones.c   **** uint16 pwm1=0;
  67:funciones.c   **** uint8 Dato2,Dato3,Dato_Exitoso,Dato_Exitoso2,Menu,MenuAntt,MenuAnt,Menu2,MenuAntt2,z,TipoClave,Segm
  68:funciones.c   **** uint8 Dia,Mes,Year,Hora,Minuto,Segundo,dow;
  69:funciones.c   **** short Inicio,Inicio2,EstadoPaso,entro,GuardaEEPROM,rampa,Minutos,Horas,flagTemperatura,x1,x10,x100,
  70:funciones.c   **** uint8 Password[4];
  71:funciones.c   **** uint8 tiempo_esterilizacion,y,hEst,mEst,hEstp,mEstp,hEstpAnt,mEstpAnt,Segmento,conteo;
  72:funciones.c   **** uint16 tiemporeset,TiempoControl,tiemporecta,tiemposetpoint,tinicio,tiempocalentamiento,tiempoup,ti
  73:funciones.c   **** short mensaje,Lectura2,flag_setpoint,flag_tiempocalentamiento,Lectura,flagup,flagdn,flagRampa,flag_
  74:funciones.c   **** short Finalizo,conteoPregunta,grafica,imprime,Infinito,flagControlT,flagControlH,Controlando,flag_c
  75:funciones.c   **** float X[2]={0.0,0.0};
  76:funciones.c   **** float Temperatura,Temperatura2,Aumento,PendienteActual,DifPendiente,TempeInicial,Pendiente,Temperat
  77:funciones.c   **** float error,Potencia,TpulsoMax,TpulsoMax2,Tpulsomin,Tpulsomin2;
  78:funciones.c   **** uint16 TiempoActual,MinutosActual,HorasActual,Tiempo,TiempoRampa,tPregunta;
  79:funciones.c   **** uint8 dataReady = 0u,GananciaR;
  80:funciones.c   **** uint16 result;
  81:funciones.c   **** float Prom,Prom2,V0,V1,Temperature;
  82:funciones.c   **** uint8 YearTx=0,MesTx=0,DiaTx=0,HoraTx=0,MinutoTx=0,dowTx=0;
ARM GAS  C:\Users\USUARIO\AppData\Local\Temp\ccWuTYF0.s 			page 3


  83:funciones.c   **** 
  84:funciones.c   **** int32 rtdRes[2];
  85:funciones.c   **** int32 rtdTemp[2];
  86:funciones.c   **** int32 vRef,filt;
  87:funciones.c   **** uint8 i,l,h,entero;
  88:funciones.c   **** uint8 ll,hh;
  89:funciones.c   **** int32 decTemp[2];
  90:funciones.c   **** uint16 decTemplf,decTemphf;
  91:funciones.c   **** int32 fracTemp[2];
  92:funciones.c   **** uint16 adcReading,presmV;
  93:funciones.c   **** uint32 lm35,tmp;
  94:funciones.c   **** float presion,Temporal,presionHorno,Tam;
  95:funciones.c   **** uint8 i;
  96:funciones.c   **** uint8 l2,h2,k,kk,tEnvioUSB,tmuestreoUSB,tmuestreoUSB_ant,controlH,controlT,controlR;
  97:funciones.c   **** float promedio2[20];
  98:funciones.c   **** 
  99:funciones.c   **** float promedioT1[90];
 100:funciones.c   **** float promedioT2[90];
 101:funciones.c   **** float promediolm35[20];
 102:funciones.c   **** 
 103:funciones.c   **** uint8 extraeDecimal(float data){
  33              		.loc 1 103 0
  34              		.cfi_startproc
  35              		@ args = 0, pretend = 0, frame = 0
  36              		@ frame_needed = 0, uses_anonymous_args = 0
  37              	.LVL0:
  38 0000 10B5     		push	{r4, lr}
  39              		.cfi_def_cfa_offset 8
  40              		.cfi_offset 4, -8
  41              		.cfi_offset 14, -4
  42 0002 0446     		mov	r4, r0
  43              	.LVL1:
 104:funciones.c   ****    float entero=0;
 105:funciones.c   ****    float tmp=0.0;
 106:funciones.c   ****    
 107:funciones.c   ****    entero=(int8)data;
  44              		.loc 1 107 0
  45 0004 FFF7FEFF 		bl	__aeabi_f2iz
  46              	.LVL2:
  47 0008 40B2     		sxtb	r0, r0
  48 000a FFF7FEFF 		bl	__aeabi_i2f
  49              	.LVL3:
 108:funciones.c   ****    tmp=(data-entero)*10;
  50              		.loc 1 108 0
  51 000e 0146     		mov	r1, r0
  52 0010 2046     		mov	r0, r4
  53              	.LVL4:
  54 0012 FFF7FEFF 		bl	__aeabi_fsub
  55              	.LVL5:
  56 0016 0349     		ldr	r1, .L3
  57 0018 FFF7FEFF 		bl	__aeabi_fmul
  58              	.LVL6:
 109:funciones.c   ****    return (uint8)tmp;
  59              		.loc 1 109 0
  60 001c FFF7FEFF 		bl	__aeabi_f2uiz
  61              	.LVL7:
 110:funciones.c   **** }
ARM GAS  C:\Users\USUARIO\AppData\Local\Temp\ccWuTYF0.s 			page 4


  62              		.loc 1 110 0
  63 0020 C0B2     		uxtb	r0, r0
  64 0022 10BD     		pop	{r4, pc}
  65              	.LVL8:
  66              	.L4:
  67              		.align	2
  68              	.L3:
  69 0024 00002041 		.word	1092616192
  70              		.cfi_endproc
  71              	.LFE64:
  72              		.size	extraeDecimal, .-extraeDecimal
  73              		.section	.text.extraeDecimal2,"ax",%progbits
  74              		.align	2
  75              		.global	extraeDecimal2
  76              		.thumb
  77              		.thumb_func
  78              		.type	extraeDecimal2, %function
  79              	extraeDecimal2:
  80              	.LFB65:
 111:funciones.c   **** 
 112:funciones.c   **** float extraeDecimal2(float data){
  81              		.loc 1 112 0
  82              		.cfi_startproc
  83              		@ args = 0, pretend = 0, frame = 0
  84              		@ frame_needed = 0, uses_anonymous_args = 0
  85              	.LVL9:
  86 0000 10B5     		push	{r4, lr}
  87              		.cfi_def_cfa_offset 8
  88              		.cfi_offset 4, -8
  89              		.cfi_offset 14, -4
  90 0002 0446     		mov	r4, r0
  91              	.LVL10:
 113:funciones.c   ****    float entero=0;
 114:funciones.c   ****    float tmp=0.0;
 115:funciones.c   ****    
 116:funciones.c   ****    entero=(int8)data;
  92              		.loc 1 116 0
  93 0004 FFF7FEFF 		bl	__aeabi_f2iz
  94              	.LVL11:
  95 0008 40B2     		sxtb	r0, r0
  96 000a FFF7FEFF 		bl	__aeabi_i2f
  97              	.LVL12:
 117:funciones.c   ****    tmp=(data-entero);
  98              		.loc 1 117 0
  99 000e 0146     		mov	r1, r0
 100 0010 2046     		mov	r0, r4
 101              	.LVL13:
 102 0012 FFF7FEFF 		bl	__aeabi_fsub
 103              	.LVL14:
 118:funciones.c   ****    return tmp;
 119:funciones.c   **** }
 104              		.loc 1 119 0
 105 0016 10BD     		pop	{r4, pc}
 106              		.cfi_endproc
 107              	.LFE65:
 108              		.size	extraeDecimal2, .-extraeDecimal2
 109              		.global	__aeabi_ui2f
ARM GAS  C:\Users\USUARIO\AppData\Local\Temp\ccWuTYF0.s 			page 5


 110              		.global	__aeabi_fdiv
 111              		.section	.text.inttofloat,"ax",%progbits
 112              		.align	2
 113              		.global	inttofloat
 114              		.thumb
 115              		.thumb_func
 116              		.type	inttofloat, %function
 117              	inttofloat:
 118              	.LFB66:
 120:funciones.c   **** 
 121:funciones.c   **** float inttofloat(uint8 decimal){
 119              		.loc 1 121 0
 120              		.cfi_startproc
 121              		@ args = 0, pretend = 0, frame = 0
 122              		@ frame_needed = 0, uses_anonymous_args = 0
 123              	.LVL15:
 124 0000 08B5     		push	{r3, lr}
 125              		.cfi_def_cfa_offset 8
 126              		.cfi_offset 3, -8
 127              		.cfi_offset 14, -4
 122:funciones.c   ****    float tmp;
 123:funciones.c   ****    tmp=decimal;
 128              		.loc 1 123 0
 129 0002 FFF7FEFF 		bl	__aeabi_ui2f
 130              	.LVL16:
 124:funciones.c   ****    return tmp/10;
 131              		.loc 1 124 0
 132 0006 0249     		ldr	r1, .L9
 133 0008 FFF7FEFF 		bl	__aeabi_fdiv
 134              	.LVL17:
 125:funciones.c   **** }
 135              		.loc 1 125 0
 136 000c 08BD     		pop	{r3, pc}
 137              	.L10:
 138 000e 00BF     		.align	2
 139              	.L9:
 140 0010 00002041 		.word	1092616192
 141              		.cfi_endproc
 142              	.LFE66:
 143              		.size	inttofloat, .-inttofloat
 144              		.section	.text.convert8,"ax",%progbits
 145              		.align	2
 146              		.global	convert8
 147              		.thumb
 148              		.thumb_func
 149              		.type	convert8, %function
 150              	convert8:
 151              	.LFB67:
 126:funciones.c   **** 
 127:funciones.c   **** uint8 convert8(uint16 data,uint8 nible){
 152              		.loc 1 127 0
 153              		.cfi_startproc
 154              		@ args = 0, pretend = 0, frame = 0
 155              		@ frame_needed = 0, uses_anonymous_args = 0
 156              		@ link register save eliminated.
 157              	.LVL18:
 128:funciones.c   ****     uint8 dato=0;
ARM GAS  C:\Users\USUARIO\AppData\Local\Temp\ccWuTYF0.s 			page 6


 129:funciones.c   ****     if(nible==0){
 158              		.loc 1 129 0
 159 0000 09B9     		cbnz	r1, .L12
 130:funciones.c   ****         dato=(uint8)data;   
 160              		.loc 1 130 0
 161 0002 C0B2     		uxtb	r0, r0
 162              	.LVL19:
 163 0004 7047     		bx	lr
 164              	.LVL20:
 165              	.L12:
 131:funciones.c   ****     }else if(nible==1){
 166              		.loc 1 131 0
 167 0006 0129     		cmp	r1, #1
 168 0008 01D1     		bne	.L14
 132:funciones.c   ****         dato=data>>8;
 169              		.loc 1 132 0
 170 000a 000A     		lsrs	r0, r0, #8
 171              	.LVL21:
 172 000c 7047     		bx	lr
 173              	.LVL22:
 174              	.L14:
 128:funciones.c   ****     if(nible==0){
 175              		.loc 1 128 0
 176 000e 0020     		movs	r0, #0
 177              	.LVL23:
 133:funciones.c   ****     }
 134:funciones.c   ****     return dato;
 135:funciones.c   **** }
 178              		.loc 1 135 0
 179 0010 7047     		bx	lr
 180              		.cfi_endproc
 181              	.LFE67:
 182              		.size	convert8, .-convert8
 183 0012 00BF     		.section	.text.convert16,"ax",%progbits
 184              		.align	2
 185              		.global	convert16
 186              		.thumb
 187              		.thumb_func
 188              		.type	convert16, %function
 189              	convert16:
 190              	.LFB68:
 136:funciones.c   **** 
 137:funciones.c   **** uint16 convert16(uint8 nibleh,uint8 niblel){
 191              		.loc 1 137 0
 192              		.cfi_startproc
 193              		@ args = 0, pretend = 0, frame = 0
 194              		@ frame_needed = 0, uses_anonymous_args = 0
 195              		@ link register save eliminated.
 196              	.LVL24:
 138:funciones.c   ****     uint16 temp,var;
 139:funciones.c   ****     temp=(uint16)nibleh;
 140:funciones.c   ****     var=temp<<8 | (uint16)niblel;
 141:funciones.c   ****     return var;
 142:funciones.c   **** }
 197              		.loc 1 142 0
 198 0000 41EA0020 		orr	r0, r1, r0, lsl #8
 199              	.LVL25:
ARM GAS  C:\Users\USUARIO\AppData\Local\Temp\ccWuTYF0.s 			page 7


 200 0004 7047     		bx	lr
 201              		.cfi_endproc
 202              	.LFE68:
 203              		.size	convert16, .-convert16
 204              		.global	__aeabi_fadd
 205              		.global	__aeabi_fcmpgt
 206              		.global	__aeabi_f2d
 207              		.global	__aeabi_dcmplt
 208 0006 00BF     		.section	.text.LeeEEPROM,"ax",%progbits
 209              		.align	2
 210              		.global	LeeEEPROM
 211              		.thumb
 212              		.thumb_func
 213              		.type	LeeEEPROM, %function
 214              	LeeEEPROM:
 215              	.LFB69:
 143:funciones.c   **** 
 144:funciones.c   **** void LeeEEPROM(){
 216              		.loc 1 144 0
 217              		.cfi_startproc
 218              		@ args = 0, pretend = 0, frame = 0
 219              		@ frame_needed = 0, uses_anonymous_args = 0
 220 0000 2DE9F041 		push	{r4, r5, r6, r7, r8, lr}
 221              		.cfi_def_cfa_offset 24
 222              		.cfi_offset 4, -24
 223              		.cfi_offset 5, -20
 224              		.cfi_offset 6, -16
 225              		.cfi_offset 7, -12
 226              		.cfi_offset 8, -8
 227              		.cfi_offset 14, -4
 145:funciones.c   ****    mEstp=EEPROM_ReadByte(0);CyDelay(5);  
 228              		.loc 1 145 0
 229 0004 0020     		movs	r0, #0
 230 0006 FFF7FEFF 		bl	EEPROM_ReadByte
 231              	.LVL26:
 232 000a C04B     		ldr	r3, .L28
 233 000c 1870     		strb	r0, [r3]
 234 000e 0520     		movs	r0, #5
 235 0010 FFF7FEFF 		bl	CyDelay
 236              	.LVL27:
 146:funciones.c   ****    hEstp=EEPROM_ReadByte(1);CyDelay(5);  
 237              		.loc 1 146 0
 238 0014 0120     		movs	r0, #1
 239 0016 FFF7FEFF 		bl	EEPROM_ReadByte
 240              	.LVL28:
 241 001a BD4B     		ldr	r3, .L28+4
 242 001c 1870     		strb	r0, [r3]
 243 001e 0520     		movs	r0, #5
 244 0020 FFF7FEFF 		bl	CyDelay
 245              	.LVL29:
 147:funciones.c   ****    
 148:funciones.c   ****    entero=EEPROM_ReadByte(2);CyDelay(5);  
 246              		.loc 1 148 0
 247 0024 0220     		movs	r0, #2
 248 0026 FFF7FEFF 		bl	EEPROM_ReadByte
 249              	.LVL30:
 250 002a BA4E     		ldr	r6, .L28+8
ARM GAS  C:\Users\USUARIO\AppData\Local\Temp\ccWuTYF0.s 			page 8


 251 002c 3070     		strb	r0, [r6]
 252 002e 0520     		movs	r0, #5
 253 0030 FFF7FEFF 		bl	CyDelay
 254              	.LVL31:
 149:funciones.c   ****    Temporal=EEPROM_ReadByte(3);CyDelay(5);  
 255              		.loc 1 149 0
 256 0034 0320     		movs	r0, #3
 257 0036 FFF7FEFF 		bl	EEPROM_ReadByte
 258              	.LVL32:
 259 003a B74C     		ldr	r4, .L28+12
 260 003c FFF7FEFF 		bl	__aeabi_ui2f
 261              	.LVL33:
 262 0040 2060     		str	r0, [r4]	@ float
 263 0042 0520     		movs	r0, #5
 264 0044 FFF7FEFF 		bl	CyDelay
 265              	.LVL34:
 150:funciones.c   ****    Temporal=Temporal/10.0;
 266              		.loc 1 150 0
 267 0048 B449     		ldr	r1, .L28+16
 268 004a 2068     		ldr	r0, [r4]	@ float
 269 004c FFF7FEFF 		bl	__aeabi_fdiv
 270              	.LVL35:
 271 0050 0546     		mov	r5, r0
 272 0052 2060     		str	r0, [r4]	@ float
 151:funciones.c   ****    Setpoint=entero+Temporal;  
 273              		.loc 1 151 0
 274 0054 3078     		ldrb	r0, [r6]	@ zero_extendqisi2
 275 0056 FFF7FEFF 		bl	__aeabi_i2f
 276              	.LVL36:
 277 005a 2946     		mov	r1, r5
 278 005c FFF7FEFF 		bl	__aeabi_fadd
 279              	.LVL37:
 280 0060 AF4B     		ldr	r3, .L28+20
 281 0062 1860     		str	r0, [r3]	@ float
 152:funciones.c   ****    
 153:funciones.c   ****    SetpointH=EEPROM_ReadByte(4);
 282              		.loc 1 153 0
 283 0064 0420     		movs	r0, #4
 284 0066 FFF7FEFF 		bl	EEPROM_ReadByte
 285              	.LVL38:
 286 006a AE4B     		ldr	r3, .L28+24
 287 006c 1880     		strh	r0, [r3]	@ movhi
 154:funciones.c   ****    CyDelay(5);   
 288              		.loc 1 154 0
 289 006e 0520     		movs	r0, #5
 290 0070 FFF7FEFF 		bl	CyDelay
 291              	.LVL39:
 155:funciones.c   **** 
 156:funciones.c   ****    tDefrost=convert16(EEPROM_ReadByte(6),EEPROM_ReadByte(5));
 292              		.loc 1 156 0
 293 0074 0620     		movs	r0, #6
 294 0076 FFF7FEFF 		bl	EEPROM_ReadByte
 295              	.LVL40:
 296 007a 0446     		mov	r4, r0
 297 007c 0520     		movs	r0, #5
 298 007e FFF7FEFF 		bl	EEPROM_ReadByte
 299              	.LVL41:
ARM GAS  C:\Users\USUARIO\AppData\Local\Temp\ccWuTYF0.s 			page 9


 300 0082 0146     		mov	r1, r0
 301 0084 2046     		mov	r0, r4
 302 0086 FFF7FEFF 		bl	convert16
 303              	.LVL42:
 304 008a A74C     		ldr	r4, .L28+28
 305 008c 2080     		strh	r0, [r4]	@ movhi
 157:funciones.c   ****    CyDelay(5);   
 306              		.loc 1 157 0
 307 008e 0520     		movs	r0, #5
 308 0090 FFF7FEFF 		bl	CyDelay
 309              	.LVL43:
 158:funciones.c   ****    tCongela=convert16(EEPROM_ReadByte(8),EEPROM_ReadByte(7));
 310              		.loc 1 158 0
 311 0094 0820     		movs	r0, #8
 312 0096 FFF7FEFF 		bl	EEPROM_ReadByte
 313              	.LVL44:
 314 009a 0546     		mov	r5, r0
 315 009c 0720     		movs	r0, #7
 316 009e FFF7FEFF 		bl	EEPROM_ReadByte
 317              	.LVL45:
 318 00a2 0146     		mov	r1, r0
 319 00a4 2846     		mov	r0, r5
 320 00a6 FFF7FEFF 		bl	convert16
 321              	.LVL46:
 322 00aa 6080     		strh	r0, [r4, #2]	@ movhi
 159:funciones.c   ****    CyDelay(5);   
 323              		.loc 1 159 0
 324 00ac 0520     		movs	r0, #5
 325 00ae FFF7FEFF 		bl	CyDelay
 326              	.LVL47:
 160:funciones.c   ****    tDisplay=EEPROM_ReadByte(9);CyDelay(5);  
 327              		.loc 1 160 0
 328 00b2 0920     		movs	r0, #9
 329 00b4 FFF7FEFF 		bl	EEPROM_ReadByte
 330              	.LVL48:
 331 00b8 2071     		strb	r0, [r4, #4]
 332 00ba 0520     		movs	r0, #5
 333 00bc FFF7FEFF 		bl	CyDelay
 334              	.LVL49:
 161:funciones.c   ****    Password[0]=EEPROM_ReadByte(10);CyDelay(5);  
 335              		.loc 1 161 0
 336 00c0 0A20     		movs	r0, #10
 337 00c2 FFF7FEFF 		bl	EEPROM_ReadByte
 338              	.LVL50:
 339 00c6 994C     		ldr	r4, .L28+32
 340 00c8 2070     		strb	r0, [r4]
 341 00ca 0520     		movs	r0, #5
 342 00cc FFF7FEFF 		bl	CyDelay
 343              	.LVL51:
 162:funciones.c   ****    Password[1]=EEPROM_ReadByte(11);CyDelay(5);  
 344              		.loc 1 162 0
 345 00d0 0B20     		movs	r0, #11
 346 00d2 FFF7FEFF 		bl	EEPROM_ReadByte
 347              	.LVL52:
 348 00d6 6070     		strb	r0, [r4, #1]
 349 00d8 0520     		movs	r0, #5
 350 00da FFF7FEFF 		bl	CyDelay
ARM GAS  C:\Users\USUARIO\AppData\Local\Temp\ccWuTYF0.s 			page 10


 351              	.LVL53:
 163:funciones.c   ****    Password[2]=EEPROM_ReadByte(12);CyDelay(5);  
 352              		.loc 1 163 0
 353 00de 0C20     		movs	r0, #12
 354 00e0 FFF7FEFF 		bl	EEPROM_ReadByte
 355              	.LVL54:
 356 00e4 A070     		strb	r0, [r4, #2]
 357 00e6 0520     		movs	r0, #5
 358 00e8 FFF7FEFF 		bl	CyDelay
 359              	.LVL55:
 164:funciones.c   ****    Password[3]=EEPROM_ReadByte(13);CyDelay(5);  
 360              		.loc 1 164 0
 361 00ec 0D20     		movs	r0, #13
 362 00ee FFF7FEFF 		bl	EEPROM_ReadByte
 363              	.LVL56:
 364 00f2 E070     		strb	r0, [r4, #3]
 365 00f4 0520     		movs	r0, #5
 366 00f6 FFF7FEFF 		bl	CyDelay
 367              	.LVL57:
 165:funciones.c   ****    
 166:funciones.c   ****    Ganancia=EEPROM_ReadByte(30);CyDelay(5);  
 368              		.loc 1 166 0
 369 00fa 1E20     		movs	r0, #30
 370 00fc FFF7FEFF 		bl	EEPROM_ReadByte
 371              	.LVL58:
 372 0100 FFF7FEFF 		bl	__aeabi_ui2f
 373              	.LVL59:
 374 0104 8A4B     		ldr	r3, .L28+36
 375 0106 1860     		str	r0, [r3]	@ float
 376 0108 0520     		movs	r0, #5
 377 010a FFF7FEFF 		bl	CyDelay
 378              	.LVL60:
 167:funciones.c   ****    Derivativo=EEPROM_ReadByte(31);CyDelay(5);  
 379              		.loc 1 167 0
 380 010e 1F20     		movs	r0, #31
 381 0110 FFF7FEFF 		bl	EEPROM_ReadByte
 382              	.LVL61:
 383 0114 874B     		ldr	r3, .L28+40
 384 0116 1870     		strb	r0, [r3]
 385 0118 0520     		movs	r0, #5
 386 011a FFF7FEFF 		bl	CyDelay
 387              	.LVL62:
 168:funciones.c   ****    Integral=EEPROM_ReadByte(32);CyDelay(5);  
 388              		.loc 1 168 0
 389 011e 2020     		movs	r0, #32
 390 0120 FFF7FEFF 		bl	EEPROM_ReadByte
 391              	.LVL63:
 392 0124 844B     		ldr	r3, .L28+44
 393 0126 1870     		strb	r0, [r3]
 394 0128 0520     		movs	r0, #5
 395 012a FFF7FEFF 		bl	CyDelay
 396              	.LVL64:
 169:funciones.c   ****    Tciclo=EEPROM_ReadByte(33);CyDelay(5);  
 397              		.loc 1 169 0
 398 012e 2120     		movs	r0, #33
 399 0130 FFF7FEFF 		bl	EEPROM_ReadByte
 400              	.LVL65:
ARM GAS  C:\Users\USUARIO\AppData\Local\Temp\ccWuTYF0.s 			page 11


 401 0134 814B     		ldr	r3, .L28+48
 402 0136 1870     		strb	r0, [r3]
 403 0138 0520     		movs	r0, #5
 404 013a FFF7FEFF 		bl	CyDelay
 405              	.LVL66:
 170:funciones.c   ****    Ajuste=EEPROM_ReadByte(34);CyDelay(5);  
 406              		.loc 1 170 0
 407 013e 2220     		movs	r0, #34
 408 0140 FFF7FEFF 		bl	EEPROM_ReadByte
 409              	.LVL67:
 410 0144 7E4B     		ldr	r3, .L28+52
 411 0146 1870     		strb	r0, [r3]
 412 0148 0520     		movs	r0, #5
 413 014a FFF7FEFF 		bl	CyDelay
 414              	.LVL68:
 171:funciones.c   ****    Ajusten=EEPROM_ReadByte(35);CyDelay(5);  
 415              		.loc 1 171 0
 416 014e 2320     		movs	r0, #35
 417 0150 FFF7FEFF 		bl	EEPROM_ReadByte
 418              	.LVL69:
 419 0154 7B4B     		ldr	r3, .L28+56
 420 0156 1870     		strb	r0, [r3]
 421 0158 0520     		movs	r0, #5
 422 015a FFF7FEFF 		bl	CyDelay
 423              	.LVL70:
 172:funciones.c   ****    MediaMovil=EEPROM_ReadByte(36);CyDelay(5);  
 424              		.loc 1 172 0
 425 015e 2420     		movs	r0, #36
 426 0160 FFF7FEFF 		bl	EEPROM_ReadByte
 427              	.LVL71:
 428 0164 784B     		ldr	r3, .L28+60
 429 0166 1870     		strb	r0, [r3]
 430 0168 0520     		movs	r0, #5
 431 016a FFF7FEFF 		bl	CyDelay
 432              	.LVL72:
 173:funciones.c   ****    Ajuste2=EEPROM_ReadByte(37);CyDelay(5);
 433              		.loc 1 173 0
 434 016e 2520     		movs	r0, #37
 435 0170 FFF7FEFF 		bl	EEPROM_ReadByte
 436              	.LVL73:
 437 0174 754B     		ldr	r3, .L28+64
 438 0176 1870     		strb	r0, [r3]
 439 0178 0520     		movs	r0, #5
 440 017a FFF7FEFF 		bl	CyDelay
 441              	.LVL74:
 174:funciones.c   ****    Ajusten2=EEPROM_ReadByte(38);CyDelay(5);
 442              		.loc 1 174 0
 443 017e 2620     		movs	r0, #38
 444 0180 FFF7FEFF 		bl	EEPROM_ReadByte
 445              	.LVL75:
 446 0184 724B     		ldr	r3, .L28+68
 447 0186 1870     		strb	r0, [r3]
 448 0188 0520     		movs	r0, #5
 449 018a FFF7FEFF 		bl	CyDelay
 450              	.LVL76:
 175:funciones.c   ****    MediaMovil2=EEPROM_ReadByte(39);CyDelay(5);  
 451              		.loc 1 175 0
ARM GAS  C:\Users\USUARIO\AppData\Local\Temp\ccWuTYF0.s 			page 12


 452 018e 2720     		movs	r0, #39
 453 0190 FFF7FEFF 		bl	EEPROM_ReadByte
 454              	.LVL77:
 455 0194 6F4B     		ldr	r3, .L28+72
 456 0196 1870     		strb	r0, [r3]
 457 0198 0520     		movs	r0, #5
 458 019a FFF7FEFF 		bl	CyDelay
 459              	.LVL78:
 176:funciones.c   ****    tmuestreoUSB=EEPROM_ReadByte(40);CyDelay(5);
 460              		.loc 1 176 0
 461 019e 2820     		movs	r0, #40
 462 01a0 FFF7FEFF 		bl	EEPROM_ReadByte
 463              	.LVL79:
 464 01a4 6C4B     		ldr	r3, .L28+76
 465 01a6 1870     		strb	r0, [r3]
 466 01a8 0520     		movs	r0, #5
 467 01aa FFF7FEFF 		bl	CyDelay
 468              	.LVL80:
 177:funciones.c   ****    controlT=EEPROM_ReadByte(41);CyDelay(5);
 469              		.loc 1 177 0
 470 01ae 2920     		movs	r0, #41
 471 01b0 FFF7FEFF 		bl	EEPROM_ReadByte
 472              	.LVL81:
 473 01b4 694B     		ldr	r3, .L28+80
 474 01b6 1870     		strb	r0, [r3]
 475 01b8 0520     		movs	r0, #5
 476 01ba FFF7FEFF 		bl	CyDelay
 477              	.LVL82:
 178:funciones.c   ****    controlH=EEPROM_ReadByte(42);CyDelay(5);
 478              		.loc 1 178 0
 479 01be 2A20     		movs	r0, #42
 480 01c0 FFF7FEFF 		bl	EEPROM_ReadByte
 481              	.LVL83:
 482 01c4 664B     		ldr	r3, .L28+84
 483 01c6 1870     		strb	r0, [r3]
 484 01c8 0520     		movs	r0, #5
 485 01ca FFF7FEFF 		bl	CyDelay
 486              	.LVL84:
 179:funciones.c   ****    controlR=EEPROM_ReadByte(43);CyDelay(5);
 487              		.loc 1 179 0
 488 01ce 2B20     		movs	r0, #43
 489 01d0 FFF7FEFF 		bl	EEPROM_ReadByte
 490              	.LVL85:
 491 01d4 634B     		ldr	r3, .L28+88
 492 01d6 1870     		strb	r0, [r3]
 493 01d8 0520     		movs	r0, #5
 494 01da FFF7FEFF 		bl	CyDelay
 495              	.LVL86:
 180:funciones.c   ****    T1Humedad=EEPROM_ReadByte(44);CyDelay(5);
 496              		.loc 1 180 0
 497 01de 2C20     		movs	r0, #44
 498 01e0 FFF7FEFF 		bl	EEPROM_ReadByte
 499              	.LVL87:
 500 01e4 604B     		ldr	r3, .L28+92
 501 01e6 1870     		strb	r0, [r3]
 502 01e8 0520     		movs	r0, #5
 503 01ea FFF7FEFF 		bl	CyDelay
ARM GAS  C:\Users\USUARIO\AppData\Local\Temp\ccWuTYF0.s 			page 13


 504              	.LVL88:
 181:funciones.c   ****    T2Humedad=EEPROM_ReadByte(45);CyDelay(5);
 505              		.loc 1 181 0
 506 01ee 2D20     		movs	r0, #45
 507 01f0 FFF7FEFF 		bl	EEPROM_ReadByte
 508              	.LVL89:
 509 01f4 5D4B     		ldr	r3, .L28+96
 510 01f6 1870     		strb	r0, [r3]
 511 01f8 0520     		movs	r0, #5
 512 01fa FFF7FEFF 		bl	CyDelay
 513              	.LVL90:
 182:funciones.c   ****    T3Humedad=EEPROM_ReadByte(46);CyDelay(5);
 514              		.loc 1 182 0
 515 01fe 2E20     		movs	r0, #46
 516 0200 FFF7FEFF 		bl	EEPROM_ReadByte
 517              	.LVL91:
 518 0204 5A4B     		ldr	r3, .L28+100
 519 0206 1870     		strb	r0, [r3]
 520 0208 0520     		movs	r0, #5
 521 020a FFF7FEFF 		bl	CyDelay
 522              	.LVL92:
 183:funciones.c   ****    IP[0]=EEPROM_ReadByte(47);CyDelay(5);
 523              		.loc 1 183 0
 524 020e 2F20     		movs	r0, #47
 525 0210 FFF7FEFF 		bl	EEPROM_ReadByte
 526              	.LVL93:
 527 0214 574C     		ldr	r4, .L28+104
 528 0216 2070     		strb	r0, [r4]
 529 0218 0520     		movs	r0, #5
 530 021a FFF7FEFF 		bl	CyDelay
 531              	.LVL94:
 184:funciones.c   ****    IP[1]=EEPROM_ReadByte(48);CyDelay(5);
 532              		.loc 1 184 0
 533 021e 3020     		movs	r0, #48
 534 0220 FFF7FEFF 		bl	EEPROM_ReadByte
 535              	.LVL95:
 536 0224 6070     		strb	r0, [r4, #1]
 537 0226 0520     		movs	r0, #5
 538 0228 FFF7FEFF 		bl	CyDelay
 539              	.LVL96:
 185:funciones.c   ****    IP[2]=EEPROM_ReadByte(49);CyDelay(5);
 540              		.loc 1 185 0
 541 022c 3120     		movs	r0, #49
 542 022e FFF7FEFF 		bl	EEPROM_ReadByte
 543              	.LVL97:
 544 0232 A070     		strb	r0, [r4, #2]
 545 0234 0520     		movs	r0, #5
 546 0236 FFF7FEFF 		bl	CyDelay
 547              	.LVL98:
 186:funciones.c   ****    IP[3]=EEPROM_ReadByte(50);CyDelay(5);
 548              		.loc 1 186 0
 549 023a 3220     		movs	r0, #50
 550 023c FFF7FEFF 		bl	EEPROM_ReadByte
 551              	.LVL99:
 552 0240 E070     		strb	r0, [r4, #3]
 553 0242 0520     		movs	r0, #5
 554 0244 FFF7FEFF 		bl	CyDelay
ARM GAS  C:\Users\USUARIO\AppData\Local\Temp\ccWuTYF0.s 			page 14


 555              	.LVL100:
 187:funciones.c   ****    Gateway[0]=EEPROM_ReadByte(51);CyDelay(5);
 556              		.loc 1 187 0
 557 0248 3320     		movs	r0, #51
 558 024a FFF7FEFF 		bl	EEPROM_ReadByte
 559              	.LVL101:
 560 024e 4A4C     		ldr	r4, .L28+108
 561 0250 2070     		strb	r0, [r4]
 562 0252 0520     		movs	r0, #5
 563 0254 FFF7FEFF 		bl	CyDelay
 564              	.LVL102:
 188:funciones.c   ****    Gateway[1]=EEPROM_ReadByte(52);CyDelay(5);
 565              		.loc 1 188 0
 566 0258 3420     		movs	r0, #52
 567 025a FFF7FEFF 		bl	EEPROM_ReadByte
 568              	.LVL103:
 569 025e 6070     		strb	r0, [r4, #1]
 570 0260 0520     		movs	r0, #5
 571 0262 FFF7FEFF 		bl	CyDelay
 572              	.LVL104:
 189:funciones.c   ****    Gateway[2]=EEPROM_ReadByte(53);CyDelay(5);
 573              		.loc 1 189 0
 574 0266 3520     		movs	r0, #53
 575 0268 FFF7FEFF 		bl	EEPROM_ReadByte
 576              	.LVL105:
 577 026c A070     		strb	r0, [r4, #2]
 578 026e 0520     		movs	r0, #5
 579 0270 FFF7FEFF 		bl	CyDelay
 580              	.LVL106:
 190:funciones.c   ****    Gateway[3]=EEPROM_ReadByte(54);CyDelay(5);
 581              		.loc 1 190 0
 582 0274 3620     		movs	r0, #54
 583 0276 FFF7FEFF 		bl	EEPROM_ReadByte
 584              	.LVL107:
 585 027a E070     		strb	r0, [r4, #3]
 586 027c 0520     		movs	r0, #5
 587 027e FFF7FEFF 		bl	CyDelay
 588              	.LVL108:
 191:funciones.c   ****    Subnet[0]=EEPROM_ReadByte(55);CyDelay(5);
 589              		.loc 1 191 0
 590 0282 3720     		movs	r0, #55
 591 0284 FFF7FEFF 		bl	EEPROM_ReadByte
 592              	.LVL109:
 593 0288 3C4C     		ldr	r4, .L28+112
 594 028a 2070     		strb	r0, [r4]
 595 028c 0520     		movs	r0, #5
 596 028e FFF7FEFF 		bl	CyDelay
 597              	.LVL110:
 192:funciones.c   ****    Subnet[1]=EEPROM_ReadByte(56);CyDelay(5);
 598              		.loc 1 192 0
 599 0292 3820     		movs	r0, #56
 600 0294 FFF7FEFF 		bl	EEPROM_ReadByte
 601              	.LVL111:
 602 0298 6070     		strb	r0, [r4, #1]
 603 029a 0520     		movs	r0, #5
 604 029c FFF7FEFF 		bl	CyDelay
 605              	.LVL112:
ARM GAS  C:\Users\USUARIO\AppData\Local\Temp\ccWuTYF0.s 			page 15


 193:funciones.c   ****    Subnet[2]=EEPROM_ReadByte(57);CyDelay(5);
 606              		.loc 1 193 0
 607 02a0 3920     		movs	r0, #57
 608 02a2 FFF7FEFF 		bl	EEPROM_ReadByte
 609              	.LVL113:
 610 02a6 A070     		strb	r0, [r4, #2]
 611 02a8 0520     		movs	r0, #5
 612 02aa FFF7FEFF 		bl	CyDelay
 613              	.LVL114:
 194:funciones.c   ****    Subnet[3]=EEPROM_ReadByte(58);CyDelay(5);
 614              		.loc 1 194 0
 615 02ae 3A20     		movs	r0, #58
 616 02b0 FFF7FEFF 		bl	EEPROM_ReadByte
 617              	.LVL115:
 618 02b4 E070     		strb	r0, [r4, #3]
 619 02b6 0520     		movs	r0, #5
 620 02b8 FFF7FEFF 		bl	CyDelay
 621              	.LVL116:
 195:funciones.c   ****    MAC[0]=EEPROM_ReadByte(59);CyDelay(5);
 622              		.loc 1 195 0
 623 02bc 3B20     		movs	r0, #59
 624 02be FFF7FEFF 		bl	EEPROM_ReadByte
 625              	.LVL117:
 626 02c2 2F4C     		ldr	r4, .L28+116
 627 02c4 2070     		strb	r0, [r4]
 628 02c6 0520     		movs	r0, #5
 629 02c8 FFF7FEFF 		bl	CyDelay
 630              	.LVL118:
 196:funciones.c   ****    MAC[1]=EEPROM_ReadByte(60);CyDelay(5);
 631              		.loc 1 196 0
 632 02cc 3C20     		movs	r0, #60
 633 02ce FFF7FEFF 		bl	EEPROM_ReadByte
 634              	.LVL119:
 635 02d2 6070     		strb	r0, [r4, #1]
 636 02d4 0520     		movs	r0, #5
 637 02d6 FFF7FEFF 		bl	CyDelay
 638              	.LVL120:
 197:funciones.c   ****    MAC[2]=EEPROM_ReadByte(61);CyDelay(5);
 639              		.loc 1 197 0
 640 02da 3D20     		movs	r0, #61
 641 02dc FFF7FEFF 		bl	EEPROM_ReadByte
 642              	.LVL121:
 643 02e0 A070     		strb	r0, [r4, #2]
 644 02e2 0520     		movs	r0, #5
 645 02e4 FFF7FEFF 		bl	CyDelay
 646              	.LVL122:
 198:funciones.c   ****    MAC[3]=EEPROM_ReadByte(62);CyDelay(5);
 647              		.loc 1 198 0
 648 02e8 3E20     		movs	r0, #62
 649 02ea FFF7FEFF 		bl	EEPROM_ReadByte
 650              	.LVL123:
 651 02ee E070     		strb	r0, [r4, #3]
 652 02f0 0520     		movs	r0, #5
 653 02f2 FFF7FEFF 		bl	CyDelay
 654              	.LVL124:
 199:funciones.c   ****    MAC[4]=EEPROM_ReadByte(63);CyDelay(5);
 655              		.loc 1 199 0
ARM GAS  C:\Users\USUARIO\AppData\Local\Temp\ccWuTYF0.s 			page 16


 656 02f6 3F20     		movs	r0, #63
 657 02f8 FFF7FEFF 		bl	EEPROM_ReadByte
 658              	.LVL125:
 659 02fc 2071     		strb	r0, [r4, #4]
 660 02fe 0520     		movs	r0, #5
 661 0300 FFF7FEFF 		bl	CyDelay
 662              	.LVL126:
 200:funciones.c   ****    //MAC[5]=EEPROM_ReadByte(64);CyDelay(5);
 201:funciones.c   ****     for(i=0;i<3;i++){
 663              		.loc 1 201 0
 664 0304 0022     		movs	r2, #0
 665 0306 1F4B     		ldr	r3, .L28+120
 666 0308 1A70     		strb	r2, [r3]
 667 030a 0CE1     		b	.L17
 668              	.L29:
 669              		.align	2
 670              	.L28:
 671 030c 00000000 		.word	mEstp
 672 0310 00000000 		.word	hEstp
 673 0314 00000000 		.word	entero
 674 0318 00000000 		.word	Temporal
 675 031c 00002041 		.word	1092616192
 676 0320 00000000 		.word	Setpoint
 677 0324 00000000 		.word	SetpointH
 678 0328 00000000 		.word	.LANCHOR0
 679 032c 00000000 		.word	Password
 680 0330 00000000 		.word	Ganancia
 681 0334 00000000 		.word	Derivativo
 682 0338 00000000 		.word	Integral
 683 033c 00000000 		.word	Tciclo
 684 0340 00000000 		.word	Ajuste
 685 0344 00000000 		.word	Ajusten
 686 0348 00000000 		.word	MediaMovil
 687 034c 00000000 		.word	Ajuste2
 688 0350 00000000 		.word	Ajusten2
 689 0354 00000000 		.word	MediaMovil2
 690 0358 00000000 		.word	tmuestreoUSB
 691 035c 00000000 		.word	controlT
 692 0360 00000000 		.word	controlH
 693 0364 00000000 		.word	controlR
 694 0368 00000000 		.word	T1Humedad
 695 036c 00000000 		.word	T2Humedad
 696 0370 00000000 		.word	T3Humedad
 697 0374 00000000 		.word	IP
 698 0378 00000000 		.word	Gateway
 699 037c 00000000 		.word	Subnet
 700 0380 00000000 		.word	MAC
 701 0384 00000000 		.word	i
 702              	.L18:
 202:funciones.c   ****         calib[i].patron1=EEPROM_ReadByte(64+(i*12))+inttofloat(EEPROM_ReadByte(65+(i*12)));CyDelay(
 703              		.loc 1 202 0 discriminator 3
 704 0388 05EB4503 		add	r3, r5, r5, lsl #1
 705 038c 9800     		lsls	r0, r3, #2
 706 038e 4030     		adds	r0, r0, #64
 707 0390 80B2     		uxth	r0, r0
 708 0392 FFF7FEFF 		bl	EEPROM_ReadByte
 709              	.LVL127:
ARM GAS  C:\Users\USUARIO\AppData\Local\Temp\ccWuTYF0.s 			page 17


 710 0396 0746     		mov	r7, r0
 711 0398 BD4C     		ldr	r4, .L30+8
 712 039a 2378     		ldrb	r3, [r4]	@ zero_extendqisi2
 713 039c 03EB4303 		add	r3, r3, r3, lsl #1
 714 03a0 9800     		lsls	r0, r3, #2
 715 03a2 4130     		adds	r0, r0, #65
 716 03a4 80B2     		uxth	r0, r0
 717 03a6 FFF7FEFF 		bl	EEPROM_ReadByte
 718              	.LVL128:
 719 03aa FFF7FEFF 		bl	inttofloat
 720              	.LVL129:
 721 03ae 0646     		mov	r6, r0
 722 03b0 3846     		mov	r0, r7
 723 03b2 FFF7FEFF 		bl	__aeabi_i2f
 724              	.LVL130:
 725 03b6 3146     		mov	r1, r6
 726 03b8 FFF7FEFF 		bl	__aeabi_fadd
 727              	.LVL131:
 728 03bc B54E     		ldr	r6, .L30+12
 729 03be 05EB4505 		add	r5, r5, r5, lsl #1
 730 03c2 2B01     		lsls	r3, r5, #4
 731 03c4 3344     		add	r3, r3, r6
 732 03c6 9861     		str	r0, [r3, #24]	@ float
 733 03c8 0520     		movs	r0, #5
 734 03ca FFF7FEFF 		bl	CyDelay
 735              	.LVL132:
 203:funciones.c   ****         calib[i].patron2=EEPROM_ReadByte(66+(i*12))+inttofloat(EEPROM_ReadByte(67+(i*12)));CyDelay(
 736              		.loc 1 203 0 discriminator 3
 737 03ce 2578     		ldrb	r5, [r4]	@ zero_extendqisi2
 738 03d0 05EB4503 		add	r3, r5, r5, lsl #1
 739 03d4 9800     		lsls	r0, r3, #2
 740 03d6 4230     		adds	r0, r0, #66
 741 03d8 80B2     		uxth	r0, r0
 742 03da FFF7FEFF 		bl	EEPROM_ReadByte
 743              	.LVL133:
 744 03de 0746     		mov	r7, r0
 745 03e0 2378     		ldrb	r3, [r4]	@ zero_extendqisi2
 746 03e2 03EB4303 		add	r3, r3, r3, lsl #1
 747 03e6 9800     		lsls	r0, r3, #2
 748 03e8 4330     		adds	r0, r0, #67
 749 03ea 80B2     		uxth	r0, r0
 750 03ec FFF7FEFF 		bl	EEPROM_ReadByte
 751              	.LVL134:
 752 03f0 FFF7FEFF 		bl	inttofloat
 753              	.LVL135:
 754 03f4 8046     		mov	r8, r0
 755 03f6 3846     		mov	r0, r7
 756 03f8 FFF7FEFF 		bl	__aeabi_i2f
 757              	.LVL136:
 758 03fc 4146     		mov	r1, r8
 759 03fe FFF7FEFF 		bl	__aeabi_fadd
 760              	.LVL137:
 761 0402 05EB4505 		add	r5, r5, r5, lsl #1
 762 0406 2B01     		lsls	r3, r5, #4
 763 0408 3344     		add	r3, r3, r6
 764 040a D861     		str	r0, [r3, #28]	@ float
 765 040c 0520     		movs	r0, #5
ARM GAS  C:\Users\USUARIO\AppData\Local\Temp\ccWuTYF0.s 			page 18


 766 040e FFF7FEFF 		bl	CyDelay
 767              	.LVL138:
 204:funciones.c   ****         calib[i].patron3=EEPROM_ReadByte(68+(i*12))+inttofloat(EEPROM_ReadByte(69+(i*12)));CyDelay(
 768              		.loc 1 204 0 discriminator 3
 769 0412 2578     		ldrb	r5, [r4]	@ zero_extendqisi2
 770 0414 05EB4503 		add	r3, r5, r5, lsl #1
 771 0418 9800     		lsls	r0, r3, #2
 772 041a 4430     		adds	r0, r0, #68
 773 041c 80B2     		uxth	r0, r0
 774 041e FFF7FEFF 		bl	EEPROM_ReadByte
 775              	.LVL139:
 776 0422 0746     		mov	r7, r0
 777 0424 2378     		ldrb	r3, [r4]	@ zero_extendqisi2
 778 0426 03EB4303 		add	r3, r3, r3, lsl #1
 779 042a 9800     		lsls	r0, r3, #2
 780 042c 4530     		adds	r0, r0, #69
 781 042e 80B2     		uxth	r0, r0
 782 0430 FFF7FEFF 		bl	EEPROM_ReadByte
 783              	.LVL140:
 784 0434 FFF7FEFF 		bl	inttofloat
 785              	.LVL141:
 786 0438 8046     		mov	r8, r0
 787 043a 3846     		mov	r0, r7
 788 043c FFF7FEFF 		bl	__aeabi_i2f
 789              	.LVL142:
 790 0440 4146     		mov	r1, r8
 791 0442 FFF7FEFF 		bl	__aeabi_fadd
 792              	.LVL143:
 793 0446 05EB4505 		add	r5, r5, r5, lsl #1
 794 044a 2B01     		lsls	r3, r5, #4
 795 044c 3344     		add	r3, r3, r6
 796 044e 1862     		str	r0, [r3, #32]	@ float
 797 0450 0520     		movs	r0, #5
 798 0452 FFF7FEFF 		bl	CyDelay
 799              	.LVL144:
 205:funciones.c   ****         calib[i].control1=EEPROM_ReadByte(70+(i*12))+inttofloat(EEPROM_ReadByte(71+(i*12)));CyDelay
 800              		.loc 1 205 0 discriminator 3
 801 0456 2578     		ldrb	r5, [r4]	@ zero_extendqisi2
 802 0458 05EB4503 		add	r3, r5, r5, lsl #1
 803 045c 9800     		lsls	r0, r3, #2
 804 045e 4630     		adds	r0, r0, #70
 805 0460 80B2     		uxth	r0, r0
 806 0462 FFF7FEFF 		bl	EEPROM_ReadByte
 807              	.LVL145:
 808 0466 0746     		mov	r7, r0
 809 0468 2378     		ldrb	r3, [r4]	@ zero_extendqisi2
 810 046a 03EB4303 		add	r3, r3, r3, lsl #1
 811 046e 9800     		lsls	r0, r3, #2
 812 0470 4730     		adds	r0, r0, #71
 813 0472 80B2     		uxth	r0, r0
 814 0474 FFF7FEFF 		bl	EEPROM_ReadByte
 815              	.LVL146:
 816 0478 FFF7FEFF 		bl	inttofloat
 817              	.LVL147:
 818 047c 8046     		mov	r8, r0
 819 047e 3846     		mov	r0, r7
 820 0480 FFF7FEFF 		bl	__aeabi_i2f
ARM GAS  C:\Users\USUARIO\AppData\Local\Temp\ccWuTYF0.s 			page 19


 821              	.LVL148:
 822 0484 4146     		mov	r1, r8
 823 0486 FFF7FEFF 		bl	__aeabi_fadd
 824              	.LVL149:
 825 048a 05EB4505 		add	r5, r5, r5, lsl #1
 826 048e 2B01     		lsls	r3, r5, #4
 827 0490 F050     		str	r0, [r6, r3]	@ float
 828 0492 0520     		movs	r0, #5
 829 0494 FFF7FEFF 		bl	CyDelay
 830              	.LVL150:
 206:funciones.c   ****         calib[i].control2=EEPROM_ReadByte(72+(i*12))+inttofloat(EEPROM_ReadByte(73+(i*12)));CyDelay
 831              		.loc 1 206 0 discriminator 3
 832 0498 2578     		ldrb	r5, [r4]	@ zero_extendqisi2
 833 049a 05EB4503 		add	r3, r5, r5, lsl #1
 834 049e 9800     		lsls	r0, r3, #2
 835 04a0 4830     		adds	r0, r0, #72
 836 04a2 80B2     		uxth	r0, r0
 837 04a4 FFF7FEFF 		bl	EEPROM_ReadByte
 838              	.LVL151:
 839 04a8 0746     		mov	r7, r0
 840 04aa 2378     		ldrb	r3, [r4]	@ zero_extendqisi2
 841 04ac 03EB4303 		add	r3, r3, r3, lsl #1
 842 04b0 9800     		lsls	r0, r3, #2
 843 04b2 4930     		adds	r0, r0, #73
 844 04b4 80B2     		uxth	r0, r0
 845 04b6 FFF7FEFF 		bl	EEPROM_ReadByte
 846              	.LVL152:
 847 04ba FFF7FEFF 		bl	inttofloat
 848              	.LVL153:
 849 04be 8046     		mov	r8, r0
 850 04c0 3846     		mov	r0, r7
 851 04c2 FFF7FEFF 		bl	__aeabi_i2f
 852              	.LVL154:
 853 04c6 4146     		mov	r1, r8
 854 04c8 FFF7FEFF 		bl	__aeabi_fadd
 855              	.LVL155:
 856 04cc 05EB4505 		add	r5, r5, r5, lsl #1
 857 04d0 2B01     		lsls	r3, r5, #4
 858 04d2 3344     		add	r3, r3, r6
 859 04d4 5860     		str	r0, [r3, #4]	@ float
 860 04d6 0520     		movs	r0, #5
 861 04d8 FFF7FEFF 		bl	CyDelay
 862              	.LVL156:
 207:funciones.c   ****         calib[i].control3=EEPROM_ReadByte(74+(i*12))+inttofloat(EEPROM_ReadByte(75+(i*12)));CyDelay
 863              		.loc 1 207 0 discriminator 3
 864 04dc 2578     		ldrb	r5, [r4]	@ zero_extendqisi2
 865 04de 05EB4503 		add	r3, r5, r5, lsl #1
 866 04e2 9800     		lsls	r0, r3, #2
 867 04e4 4A30     		adds	r0, r0, #74
 868 04e6 80B2     		uxth	r0, r0
 869 04e8 FFF7FEFF 		bl	EEPROM_ReadByte
 870              	.LVL157:
 871 04ec 0746     		mov	r7, r0
 872 04ee 2378     		ldrb	r3, [r4]	@ zero_extendqisi2
 873 04f0 03EB4303 		add	r3, r3, r3, lsl #1
 874 04f4 9800     		lsls	r0, r3, #2
 875 04f6 4B30     		adds	r0, r0, #75
ARM GAS  C:\Users\USUARIO\AppData\Local\Temp\ccWuTYF0.s 			page 20


 876 04f8 80B2     		uxth	r0, r0
 877 04fa FFF7FEFF 		bl	EEPROM_ReadByte
 878              	.LVL158:
 879 04fe FFF7FEFF 		bl	inttofloat
 880              	.LVL159:
 881 0502 8046     		mov	r8, r0
 882 0504 3846     		mov	r0, r7
 883 0506 FFF7FEFF 		bl	__aeabi_i2f
 884              	.LVL160:
 885 050a 4146     		mov	r1, r8
 886 050c FFF7FEFF 		bl	__aeabi_fadd
 887              	.LVL161:
 888 0510 05EB4505 		add	r5, r5, r5, lsl #1
 889 0514 2B01     		lsls	r3, r5, #4
 890 0516 1E44     		add	r6, r6, r3
 891 0518 B060     		str	r0, [r6, #8]	@ float
 892 051a 0520     		movs	r0, #5
 893 051c FFF7FEFF 		bl	CyDelay
 894              	.LVL162:
 201:funciones.c   ****         calib[i].patron1=EEPROM_ReadByte(64+(i*12))+inttofloat(EEPROM_ReadByte(65+(i*12)));CyDelay(
 895              		.loc 1 201 0 discriminator 3
 896 0520 2378     		ldrb	r3, [r4]	@ zero_extendqisi2
 897 0522 0133     		adds	r3, r3, #1
 898 0524 2370     		strb	r3, [r4]
 899              	.L17:
 201:funciones.c   ****         calib[i].patron1=EEPROM_ReadByte(64+(i*12))+inttofloat(EEPROM_ReadByte(65+(i*12)));CyDelay(
 900              		.loc 1 201 0 is_stmt 0 discriminator 1
 901 0526 5A4B     		ldr	r3, .L30+8
 902 0528 1D78     		ldrb	r5, [r3]	@ zero_extendqisi2
 903 052a 022D     		cmp	r5, #2
 904 052c 7FF62CAF 		bls	.L18
 208:funciones.c   ****     }   
 209:funciones.c   ****    GananciaR=Ganancia;
 905              		.loc 1 209 0 is_stmt 1
 906 0530 594B     		ldr	r3, .L30+16
 907 0532 1868     		ldr	r0, [r3]	@ float
 908 0534 FFF7FEFF 		bl	__aeabi_f2uiz
 909              	.LVL163:
 910 0538 584B     		ldr	r3, .L30+20
 911 053a 1870     		strb	r0, [r3]
 210:funciones.c   ****    
 211:funciones.c   ****    for(i=0;i<20;i++){//Lee valores almacenados de ciclos personalizados
 912              		.loc 1 211 0
 913 053c 0022     		movs	r2, #0
 914 053e 544B     		ldr	r3, .L30+8
 915 0540 1A70     		strb	r2, [r3]
 916 0542 98E0     		b	.L19
 917              	.L26:
 212:funciones.c   ****       rampas[i].TemperaturaInt=EEPROM_ReadByte(100+(i*6)); 
 918              		.loc 1 212 0
 919 0544 04EB4403 		add	r3, r4, r4, lsl #1
 920 0548 5800     		lsls	r0, r3, #1
 921 054a 6430     		adds	r0, r0, #100
 922 054c 80B2     		uxth	r0, r0
 923 054e FFF7FEFF 		bl	EEPROM_ReadByte
 924              	.LVL164:
 925 0552 534D     		ldr	r5, .L30+24
ARM GAS  C:\Users\USUARIO\AppData\Local\Temp\ccWuTYF0.s 			page 21


 926 0554 04EB4404 		add	r4, r4, r4, lsl #1
 927 0558 A300     		lsls	r3, r4, #2
 928 055a 2B44     		add	r3, r3, r5
 929 055c 5870     		strb	r0, [r3, #1]
 213:funciones.c   ****       rampas[i].TemperaturaDec=EEPROM_ReadByte(101+(i*6)); 
 930              		.loc 1 213 0
 931 055e 4C4E     		ldr	r6, .L30+8
 932 0560 3478     		ldrb	r4, [r6]	@ zero_extendqisi2
 933 0562 04EB4403 		add	r3, r4, r4, lsl #1
 934 0566 5800     		lsls	r0, r3, #1
 935 0568 6530     		adds	r0, r0, #101
 936 056a 80B2     		uxth	r0, r0
 937 056c FFF7FEFF 		bl	EEPROM_ReadByte
 938              	.LVL165:
 939 0570 04EB4404 		add	r4, r4, r4, lsl #1
 940 0574 A300     		lsls	r3, r4, #2
 941 0576 E854     		strb	r0, [r5, r3]
 214:funciones.c   ****       rampas[i].Humedad=EEPROM_ReadByte(102+(i*6)); 
 942              		.loc 1 214 0
 943 0578 3478     		ldrb	r4, [r6]	@ zero_extendqisi2
 944 057a 04EB4403 		add	r3, r4, r4, lsl #1
 945 057e 5800     		lsls	r0, r3, #1
 946 0580 6630     		adds	r0, r0, #102
 947 0582 80B2     		uxth	r0, r0
 948 0584 FFF7FEFF 		bl	EEPROM_ReadByte
 949              	.LVL166:
 950 0588 04EB4404 		add	r4, r4, r4, lsl #1
 951 058c A300     		lsls	r3, r4, #2
 952 058e 2B44     		add	r3, r3, r5
 953 0590 1871     		strb	r0, [r3, #4]
 215:funciones.c   ****       rampas[i].Horas=EEPROM_ReadByte(103+(i*6)); 
 954              		.loc 1 215 0
 955 0592 3478     		ldrb	r4, [r6]	@ zero_extendqisi2
 956 0594 04EB4403 		add	r3, r4, r4, lsl #1
 957 0598 5800     		lsls	r0, r3, #1
 958 059a 6730     		adds	r0, r0, #103
 959 059c 80B2     		uxth	r0, r0
 960 059e FFF7FEFF 		bl	EEPROM_ReadByte
 961              	.LVL167:
 962 05a2 04EB4404 		add	r4, r4, r4, lsl #1
 963 05a6 A300     		lsls	r3, r4, #2
 964 05a8 2B44     		add	r3, r3, r5
 965 05aa 9870     		strb	r0, [r3, #2]
 216:funciones.c   ****       rampas[i].Minutos=EEPROM_ReadByte(104+(i*6)); 
 966              		.loc 1 216 0
 967 05ac 3478     		ldrb	r4, [r6]	@ zero_extendqisi2
 968 05ae 04EB4403 		add	r3, r4, r4, lsl #1
 969 05b2 5800     		lsls	r0, r3, #1
 970 05b4 6830     		adds	r0, r0, #104
 971 05b6 80B2     		uxth	r0, r0
 972 05b8 FFF7FEFF 		bl	EEPROM_ReadByte
 973              	.LVL168:
 974 05bc 04EB4404 		add	r4, r4, r4, lsl #1
 975 05c0 A300     		lsls	r3, r4, #2
 976 05c2 2B44     		add	r3, r3, r5
 977 05c4 D870     		strb	r0, [r3, #3]
 217:funciones.c   ****       
ARM GAS  C:\Users\USUARIO\AppData\Local\Temp\ccWuTYF0.s 			page 22


 218:funciones.c   ****       rampas[i].Temperatura=rampas[i].TemperaturaInt+inttofloat(rampas[i].TemperaturaDec);
 978              		.loc 1 218 0
 979 05c6 3478     		ldrb	r4, [r6]	@ zero_extendqisi2
 980 05c8 6300     		lsls	r3, r4, #1
 981 05ca 2344     		add	r3, r3, r4
 982 05cc 9A00     		lsls	r2, r3, #2
 983 05ce AE18     		adds	r6, r5, r2
 984 05d0 7778     		ldrb	r7, [r6, #1]	@ zero_extendqisi2
 985 05d2 A85C     		ldrb	r0, [r5, r2]	@ zero_extendqisi2
 986 05d4 FFF7FEFF 		bl	inttofloat
 987              	.LVL169:
 988 05d8 0546     		mov	r5, r0
 989 05da 3846     		mov	r0, r7
 990 05dc FFF7FEFF 		bl	__aeabi_i2f
 991              	.LVL170:
 992 05e0 2946     		mov	r1, r5
 993 05e2 FFF7FEFF 		bl	__aeabi_fadd
 994              	.LVL171:
 995 05e6 0546     		mov	r5, r0
 996 05e8 B060     		str	r0, [r6, #8]	@ float
 219:funciones.c   ****       if(rampas[i].Temperatura>60.0 || rampas[i].Temperatura<0.1)rampas[i].Temperatura=30.0;
 997              		.loc 1 219 0
 998 05ea 2E49     		ldr	r1, .L30+28
 999 05ec FFF7FEFF 		bl	__aeabi_fcmpgt
 1000              	.LVL172:
 1001 05f0 40B9     		cbnz	r0, .L20
 1002              		.loc 1 219 0 is_stmt 0 discriminator 2
 1003 05f2 2846     		mov	r0, r5
 1004 05f4 FFF7FEFF 		bl	__aeabi_f2d
 1005              	.LVL173:
 1006 05f8 23A3     		adr	r3, .L30
 1007 05fa D3E90023 		ldrd	r2, [r3]
 1008 05fe FFF7FEFF 		bl	__aeabi_dcmplt
 1009              	.LVL174:
 1010 0602 30B1     		cbz	r0, .L21
 1011              	.L20:
 1012              		.loc 1 219 0 discriminator 3
 1013 0604 04EB4402 		add	r2, r4, r4, lsl #1
 1014 0608 9300     		lsls	r3, r2, #2
 1015 060a 254A     		ldr	r2, .L30+24
 1016 060c 1344     		add	r3, r3, r2
 1017 060e 264A     		ldr	r2, .L30+32
 1018 0610 9A60     		str	r2, [r3, #8]	@ float
 1019              	.L21:
 220:funciones.c   ****       if(rampas[i].Humedad>95 || rampas[i].Humedad<10)rampas[i].Humedad=60.0;
 1020              		.loc 1 220 0 is_stmt 1
 1021 0612 04EB4402 		add	r2, r4, r4, lsl #1
 1022 0616 9300     		lsls	r3, r2, #2
 1023 0618 214A     		ldr	r2, .L30+24
 1024 061a 1344     		add	r3, r3, r2
 1025 061c 1B79     		ldrb	r3, [r3, #4]	@ zero_extendqisi2
 1026 061e 0A3B     		subs	r3, r3, #10
 1027 0620 DBB2     		uxtb	r3, r3
 1028 0622 552B     		cmp	r3, #85
 1029 0624 06D9     		bls	.L23
 1030              		.loc 1 220 0 is_stmt 0 discriminator 1
 1031 0626 04EB4402 		add	r2, r4, r4, lsl #1
ARM GAS  C:\Users\USUARIO\AppData\Local\Temp\ccWuTYF0.s 			page 23


 1032 062a 9300     		lsls	r3, r2, #2
 1033 062c 1C4A     		ldr	r2, .L30+24
 1034 062e 1344     		add	r3, r3, r2
 1035 0630 3C22     		movs	r2, #60
 1036 0632 1A71     		strb	r2, [r3, #4]
 1037              	.L23:
 221:funciones.c   ****       if(rampas[i].Horas>99)rampas[i].Horas=10;
 1038              		.loc 1 221 0 is_stmt 1
 1039 0634 04EB4402 		add	r2, r4, r4, lsl #1
 1040 0638 9300     		lsls	r3, r2, #2
 1041 063a 194A     		ldr	r2, .L30+24
 1042 063c 1344     		add	r3, r3, r2
 1043 063e 9B78     		ldrb	r3, [r3, #2]	@ zero_extendqisi2
 1044 0640 632B     		cmp	r3, #99
 1045 0642 06D9     		bls	.L24
 1046              		.loc 1 221 0 is_stmt 0 discriminator 1
 1047 0644 04EB4402 		add	r2, r4, r4, lsl #1
 1048 0648 9300     		lsls	r3, r2, #2
 1049 064a 154A     		ldr	r2, .L30+24
 1050 064c 1344     		add	r3, r3, r2
 1051 064e 0A22     		movs	r2, #10
 1052 0650 9A70     		strb	r2, [r3, #2]
 1053              	.L24:
 222:funciones.c   ****       if(rampas[i].Minutos>59)rampas[i].Minutos=10;
 1054              		.loc 1 222 0 is_stmt 1
 1055 0652 04EB4402 		add	r2, r4, r4, lsl #1
 1056 0656 9300     		lsls	r3, r2, #2
 1057 0658 114A     		ldr	r2, .L30+24
 1058 065a 1344     		add	r3, r3, r2
 1059 065c DB78     		ldrb	r3, [r3, #3]	@ zero_extendqisi2
 1060 065e 3B2B     		cmp	r3, #59
 1061 0660 06D9     		bls	.L25
 1062              		.loc 1 222 0 is_stmt 0 discriminator 1
 1063 0662 04EB4402 		add	r2, r4, r4, lsl #1
 1064 0666 9300     		lsls	r3, r2, #2
 1065 0668 0D4A     		ldr	r2, .L30+24
 1066 066a 1344     		add	r3, r3, r2
 1067 066c 0A22     		movs	r2, #10
 1068 066e DA70     		strb	r2, [r3, #3]
 1069              	.L25:
 211:funciones.c   ****       rampas[i].TemperaturaInt=EEPROM_ReadByte(100+(i*6)); 
 1070              		.loc 1 211 0 is_stmt 1 discriminator 2
 1071 0670 0134     		adds	r4, r4, #1
 1072 0672 074B     		ldr	r3, .L30+8
 1073 0674 1C70     		strb	r4, [r3]
 1074              	.L19:
 211:funciones.c   ****       rampas[i].TemperaturaInt=EEPROM_ReadByte(100+(i*6)); 
 1075              		.loc 1 211 0 is_stmt 0 discriminator 1
 1076 0676 064B     		ldr	r3, .L30+8
 1077 0678 1C78     		ldrb	r4, [r3]	@ zero_extendqisi2
 1078 067a 132C     		cmp	r4, #19
 1079 067c 7FF662AF 		bls	.L26
 223:funciones.c   ****    }
 224:funciones.c   **** }
 1080              		.loc 1 224 0 is_stmt 1
 1081 0680 BDE8F081 		pop	{r4, r5, r6, r7, r8, pc}
 1082              	.L31:
ARM GAS  C:\Users\USUARIO\AppData\Local\Temp\ccWuTYF0.s 			page 24


 1083 0684 AFF30080 		.align	3
 1084              	.L30:
 1085 0688 9A999999 		.word	-1717986918
 1086 068c 9999B93F 		.word	1069128089
 1087 0690 00000000 		.word	i
 1088 0694 00000000 		.word	calib
 1089 0698 00000000 		.word	Ganancia
 1090 069c 00000000 		.word	GananciaR
 1091 06a0 00000000 		.word	rampas
 1092 06a4 00007042 		.word	1114636288
 1093 06a8 0000F041 		.word	1106247680
 1094              		.cfi_endproc
 1095              	.LFE69:
 1096              		.size	LeeEEPROM, .-LeeEEPROM
 1097              		.global	__aeabi_fcmplt
 1098              		.section	.text.LimitaValores,"ax",%progbits
 1099              		.align	2
 1100              		.global	LimitaValores
 1101              		.thumb
 1102              		.thumb_func
 1103              		.type	LimitaValores, %function
 1104              	LimitaValores:
 1105              	.LFB70:
 225:funciones.c   **** 
 226:funciones.c   **** void LimitaValores(){
 1106              		.loc 1 226 0
 1107              		.cfi_startproc
 1108              		@ args = 0, pretend = 0, frame = 8
 1109              		@ frame_needed = 0, uses_anonymous_args = 0
 1110 0000 2DE9F04F 		push	{r4, r5, r6, r7, r8, r9, r10, fp, lr}
 1111              		.cfi_def_cfa_offset 36
 1112              		.cfi_offset 4, -36
 1113              		.cfi_offset 5, -32
 1114              		.cfi_offset 6, -28
 1115              		.cfi_offset 7, -24
 1116              		.cfi_offset 8, -20
 1117              		.cfi_offset 9, -16
 1118              		.cfi_offset 10, -12
 1119              		.cfi_offset 11, -8
 1120              		.cfi_offset 14, -4
 1121 0004 83B0     		sub	sp, sp, #12
 1122              		.cfi_def_cfa_offset 48
 227:funciones.c   ****    if(mEstp>59){
 1123              		.loc 1 227 0
 1124 0006 BB4B     		ldr	r3, .L104
 1125 0008 1B78     		ldrb	r3, [r3]	@ zero_extendqisi2
 1126 000a 3B2B     		cmp	r3, #59
 1127 000c 08D9     		bls	.L33
 228:funciones.c   ****       mEstp=10;EEPROM_WriteByte(10,0);CyDelay(20);
 1128              		.loc 1 228 0
 1129 000e 0A20     		movs	r0, #10
 1130 0010 B84B     		ldr	r3, .L104
 1131 0012 1870     		strb	r0, [r3]
 1132 0014 0021     		movs	r1, #0
 1133 0016 FFF7FEFF 		bl	EEPROM_WriteByte
 1134              	.LVL175:
 1135 001a 1420     		movs	r0, #20
ARM GAS  C:\Users\USUARIO\AppData\Local\Temp\ccWuTYF0.s 			page 25


 1136 001c FFF7FEFF 		bl	CyDelay
 1137              	.LVL176:
 1138              	.L33:
 229:funciones.c   ****    }
 230:funciones.c   ****    if(hEstp>99){
 1139              		.loc 1 230 0
 1140 0020 B54B     		ldr	r3, .L104+4
 1141 0022 1B78     		ldrb	r3, [r3]	@ zero_extendqisi2
 1142 0024 632B     		cmp	r3, #99
 1143 0026 08D9     		bls	.L34
 231:funciones.c   ****       hEstp=10;EEPROM_WriteByte(10,1);CyDelay(20);
 1144              		.loc 1 231 0
 1145 0028 0A20     		movs	r0, #10
 1146 002a B34B     		ldr	r3, .L104+4
 1147 002c 1870     		strb	r0, [r3]
 1148 002e 0121     		movs	r1, #1
 1149 0030 FFF7FEFF 		bl	EEPROM_WriteByte
 1150              	.LVL177:
 1151 0034 1420     		movs	r0, #20
 1152 0036 FFF7FEFF 		bl	CyDelay
 1153              	.LVL178:
 1154              	.L34:
 232:funciones.c   ****    }
 233:funciones.c   ****    if(Setpoint>60.0 || Setpoint<0.0){
 1155              		.loc 1 233 0
 1156 003a B04B     		ldr	r3, .L104+8
 1157 003c 1C68     		ldr	r4, [r3]	@ float
 1158 003e B049     		ldr	r1, .L104+12
 1159 0040 2046     		mov	r0, r4
 1160 0042 FFF7FEFF 		bl	__aeabi_fcmpgt
 1161              	.LVL179:
 1162 0046 20B9     		cbnz	r0, .L35
 1163              		.loc 1 233 0 is_stmt 0 discriminator 1
 1164 0048 0021     		movs	r1, #0
 1165 004a 2046     		mov	r0, r4
 1166 004c FFF7FEFF 		bl	__aeabi_fcmplt
 1167              	.LVL180:
 1168 0050 80B1     		cbz	r0, .L36
 1169              	.L35:
 234:funciones.c   ****       Setpoint=30.0;EEPROM_WriteByte(100,2);CyDelay(20);EEPROM_WriteByte(0,3);CyDelay(20);
 1170              		.loc 1 234 0 is_stmt 1
 1171 0052 AC4A     		ldr	r2, .L104+16
 1172 0054 A94B     		ldr	r3, .L104+8
 1173 0056 1A60     		str	r2, [r3]	@ float
 1174 0058 0221     		movs	r1, #2
 1175 005a 6420     		movs	r0, #100
 1176 005c FFF7FEFF 		bl	EEPROM_WriteByte
 1177              	.LVL181:
 1178 0060 1420     		movs	r0, #20
 1179 0062 FFF7FEFF 		bl	CyDelay
 1180              	.LVL182:
 1181 0066 0321     		movs	r1, #3
 1182 0068 0020     		movs	r0, #0
 1183 006a FFF7FEFF 		bl	EEPROM_WriteByte
 1184              	.LVL183:
 1185 006e 1420     		movs	r0, #20
 1186 0070 FFF7FEFF 		bl	CyDelay
ARM GAS  C:\Users\USUARIO\AppData\Local\Temp\ccWuTYF0.s 			page 26


 1187              	.LVL184:
 1188              	.L36:
 235:funciones.c   ****    }
 236:funciones.c   ****    if(SetpointH>95 || SetpointH<10){
 1189              		.loc 1 236 0
 1190 0074 A44B     		ldr	r3, .L104+20
 1191 0076 1B88     		ldrh	r3, [r3]
 1192 0078 0A3B     		subs	r3, r3, #10
 1193 007a 9BB2     		uxth	r3, r3
 1194 007c 552B     		cmp	r3, #85
 1195 007e 08D9     		bls	.L38
 237:funciones.c   ****       SetpointH=60.0;EEPROM_WriteByte(60,4);CyDelay(20);
 1196              		.loc 1 237 0
 1197 0080 3C20     		movs	r0, #60
 1198 0082 A14B     		ldr	r3, .L104+20
 1199 0084 1880     		strh	r0, [r3]	@ movhi
 1200 0086 0421     		movs	r1, #4
 1201 0088 FFF7FEFF 		bl	EEPROM_WriteByte
 1202              	.LVL185:
 1203 008c 1420     		movs	r0, #20
 1204 008e FFF7FEFF 		bl	CyDelay
 1205              	.LVL186:
 1206              	.L38:
 238:funciones.c   ****    }
 239:funciones.c   ****    if(tDefrost>120){
 1207              		.loc 1 239 0
 1208 0092 9E4B     		ldr	r3, .L104+24
 1209 0094 1B88     		ldrh	r3, [r3]
 1210 0096 782B     		cmp	r3, #120
 1211 0098 10D9     		bls	.L39
 240:funciones.c   ****       tDefrost=0;EEPROM_WriteByte(0,5);CyDelay(20);EEPROM_WriteByte(0,6);CyDelay(20);
 1212              		.loc 1 240 0
 1213 009a 0024     		movs	r4, #0
 1214 009c 9B4B     		ldr	r3, .L104+24
 1215 009e 1C80     		strh	r4, [r3]	@ movhi
 1216 00a0 0521     		movs	r1, #5
 1217 00a2 2046     		mov	r0, r4
 1218 00a4 FFF7FEFF 		bl	EEPROM_WriteByte
 1219              	.LVL187:
 1220 00a8 1420     		movs	r0, #20
 1221 00aa FFF7FEFF 		bl	CyDelay
 1222              	.LVL188:
 1223 00ae 0621     		movs	r1, #6
 1224 00b0 2046     		mov	r0, r4
 1225 00b2 FFF7FEFF 		bl	EEPROM_WriteByte
 1226              	.LVL189:
 1227 00b6 1420     		movs	r0, #20
 1228 00b8 FFF7FEFF 		bl	CyDelay
 1229              	.LVL190:
 1230              	.L39:
 241:funciones.c   ****    }
 242:funciones.c   ****    if(tCongela>120 || tCongela<1){
 1231              		.loc 1 242 0
 1232 00bc 934B     		ldr	r3, .L104+24
 1233 00be 5B88     		ldrh	r3, [r3, #2]
 1234 00c0 013B     		subs	r3, r3, #1
 1235 00c2 9BB2     		uxth	r3, r3
ARM GAS  C:\Users\USUARIO\AppData\Local\Temp\ccWuTYF0.s 			page 27


 1236 00c4 772B     		cmp	r3, #119
 1237 00c6 0FD9     		bls	.L40
 243:funciones.c   ****       tCongela=5;EEPROM_WriteByte(5,7);CyDelay(20);EEPROM_WriteByte(0,8);CyDelay(20);
 1238              		.loc 1 243 0
 1239 00c8 0520     		movs	r0, #5
 1240 00ca 904B     		ldr	r3, .L104+24
 1241 00cc 5880     		strh	r0, [r3, #2]	@ movhi
 1242 00ce 0721     		movs	r1, #7
 1243 00d0 FFF7FEFF 		bl	EEPROM_WriteByte
 1244              	.LVL191:
 1245 00d4 1420     		movs	r0, #20
 1246 00d6 FFF7FEFF 		bl	CyDelay
 1247              	.LVL192:
 1248 00da 0821     		movs	r1, #8
 1249 00dc 0020     		movs	r0, #0
 1250 00de FFF7FEFF 		bl	EEPROM_WriteByte
 1251              	.LVL193:
 1252 00e2 1420     		movs	r0, #20
 1253 00e4 FFF7FEFF 		bl	CyDelay
 1254              	.LVL194:
 1255              	.L40:
 244:funciones.c   ****    }
 245:funciones.c   ****    if(tDisplay>60 || tDisplay<5){
 1256              		.loc 1 245 0
 1257 00e8 884B     		ldr	r3, .L104+24
 1258 00ea 1B79     		ldrb	r3, [r3, #4]	@ zero_extendqisi2
 1259 00ec 053B     		subs	r3, r3, #5
 1260 00ee DBB2     		uxtb	r3, r3
 1261 00f0 372B     		cmp	r3, #55
 1262 00f2 08D9     		bls	.L41
 246:funciones.c   ****       tDisplay=10;EEPROM_WriteByte(10,9);CyDelay(20);
 1263              		.loc 1 246 0
 1264 00f4 0A20     		movs	r0, #10
 1265 00f6 854B     		ldr	r3, .L104+24
 1266 00f8 1871     		strb	r0, [r3, #4]
 1267 00fa 0921     		movs	r1, #9
 1268 00fc FFF7FEFF 		bl	EEPROM_WriteByte
 1269              	.LVL195:
 1270 0100 1420     		movs	r0, #20
 1271 0102 FFF7FEFF 		bl	CyDelay
 1272              	.LVL196:
 1273              	.L41:
 247:funciones.c   ****    }
 248:funciones.c   ****    if(Password[0]>9 || Password[0]<0){
 1274              		.loc 1 248 0
 1275 0106 824B     		ldr	r3, .L104+28
 1276 0108 1B78     		ldrb	r3, [r3]	@ zero_extendqisi2
 1277 010a 092B     		cmp	r3, #9
 1278 010c 08D9     		bls	.L42
 249:funciones.c   ****       Password[0]=0;EEPROM_WriteByte(0,10);CyDelay(20);
 1279              		.loc 1 249 0
 1280 010e 0020     		movs	r0, #0
 1281 0110 7F4B     		ldr	r3, .L104+28
 1282 0112 1870     		strb	r0, [r3]
 1283 0114 0A21     		movs	r1, #10
 1284 0116 FFF7FEFF 		bl	EEPROM_WriteByte
 1285              	.LVL197:
ARM GAS  C:\Users\USUARIO\AppData\Local\Temp\ccWuTYF0.s 			page 28


 1286 011a 1420     		movs	r0, #20
 1287 011c FFF7FEFF 		bl	CyDelay
 1288              	.LVL198:
 1289              	.L42:
 250:funciones.c   ****    }
 251:funciones.c   ****    if(Password[1]>9 || Password[1]<0){
 1290              		.loc 1 251 0
 1291 0120 7B4B     		ldr	r3, .L104+28
 1292 0122 5B78     		ldrb	r3, [r3, #1]	@ zero_extendqisi2
 1293 0124 092B     		cmp	r3, #9
 1294 0126 08D9     		bls	.L43
 252:funciones.c   ****       Password[1]=0;EEPROM_WriteByte(0,11);CyDelay(20);
 1295              		.loc 1 252 0
 1296 0128 0020     		movs	r0, #0
 1297 012a 794B     		ldr	r3, .L104+28
 1298 012c 5870     		strb	r0, [r3, #1]
 1299 012e 0B21     		movs	r1, #11
 1300 0130 FFF7FEFF 		bl	EEPROM_WriteByte
 1301              	.LVL199:
 1302 0134 1420     		movs	r0, #20
 1303 0136 FFF7FEFF 		bl	CyDelay
 1304              	.LVL200:
 1305              	.L43:
 253:funciones.c   ****    }
 254:funciones.c   ****    if(Password[2]>9 || Password[2]<0){
 1306              		.loc 1 254 0
 1307 013a 754B     		ldr	r3, .L104+28
 1308 013c 9B78     		ldrb	r3, [r3, #2]	@ zero_extendqisi2
 1309 013e 092B     		cmp	r3, #9
 1310 0140 08D9     		bls	.L44
 255:funciones.c   ****       Password[2]=0;EEPROM_WriteByte(0,12);CyDelay(20);
 1311              		.loc 1 255 0
 1312 0142 0020     		movs	r0, #0
 1313 0144 724B     		ldr	r3, .L104+28
 1314 0146 9870     		strb	r0, [r3, #2]
 1315 0148 0C21     		movs	r1, #12
 1316 014a FFF7FEFF 		bl	EEPROM_WriteByte
 1317              	.LVL201:
 1318 014e 1420     		movs	r0, #20
 1319 0150 FFF7FEFF 		bl	CyDelay
 1320              	.LVL202:
 1321              	.L44:
 256:funciones.c   ****    }
 257:funciones.c   ****    if(Password[3]>9 || Password[3]<0){
 1322              		.loc 1 257 0
 1323 0154 6E4B     		ldr	r3, .L104+28
 1324 0156 DB78     		ldrb	r3, [r3, #3]	@ zero_extendqisi2
 1325 0158 092B     		cmp	r3, #9
 1326 015a 08D9     		bls	.L45
 258:funciones.c   ****       Password[3]=0;EEPROM_WriteByte(0,13);CyDelay(20);
 1327              		.loc 1 258 0
 1328 015c 0020     		movs	r0, #0
 1329 015e 6C4B     		ldr	r3, .L104+28
 1330 0160 D870     		strb	r0, [r3, #3]
 1331 0162 0D21     		movs	r1, #13
 1332 0164 FFF7FEFF 		bl	EEPROM_WriteByte
 1333              	.LVL203:
ARM GAS  C:\Users\USUARIO\AppData\Local\Temp\ccWuTYF0.s 			page 29


 1334 0168 1420     		movs	r0, #20
 1335 016a FFF7FEFF 		bl	CyDelay
 1336              	.LVL204:
 1337              	.L45:
 259:funciones.c   ****    }
 260:funciones.c   ****    if(Ganancia>20 || Ganancia<1){
 1338              		.loc 1 260 0
 1339 016e 694B     		ldr	r3, .L104+32
 1340 0170 1C68     		ldr	r4, [r3]	@ float
 1341 0172 6949     		ldr	r1, .L104+36
 1342 0174 2046     		mov	r0, r4
 1343 0176 FFF7FEFF 		bl	__aeabi_fcmpgt
 1344              	.LVL205:
 1345 017a 28B9     		cbnz	r0, .L46
 1346              		.loc 1 260 0 is_stmt 0 discriminator 1
 1347 017c 4FF07E51 		mov	r1, #1065353216
 1348 0180 2046     		mov	r0, r4
 1349 0182 FFF7FEFF 		bl	__aeabi_fcmplt
 1350              	.LVL206:
 1351 0186 50B1     		cbz	r0, .L47
 1352              	.L46:
 261:funciones.c   ****       Ganancia=2;EEPROM_WriteByte(2,30);CyDelay(20);
 1353              		.loc 1 261 0 is_stmt 1
 1354 0188 4FF08042 		mov	r2, #1073741824
 1355 018c 614B     		ldr	r3, .L104+32
 1356 018e 1A60     		str	r2, [r3]	@ float
 1357 0190 1E21     		movs	r1, #30
 1358 0192 0220     		movs	r0, #2
 1359 0194 FFF7FEFF 		bl	EEPROM_WriteByte
 1360              	.LVL207:
 1361 0198 1420     		movs	r0, #20
 1362 019a FFF7FEFF 		bl	CyDelay
 1363              	.LVL208:
 1364              	.L47:
 262:funciones.c   ****    }
 263:funciones.c   ****    if(Derivativo>80 || Derivativo<5){
 1365              		.loc 1 263 0
 1366 019e 5F4B     		ldr	r3, .L104+40
 1367 01a0 1B78     		ldrb	r3, [r3]	@ zero_extendqisi2
 1368 01a2 053B     		subs	r3, r3, #5
 1369 01a4 DBB2     		uxtb	r3, r3
 1370 01a6 4B2B     		cmp	r3, #75
 1371 01a8 08D9     		bls	.L49
 264:funciones.c   ****       Derivativo=80;EEPROM_WriteByte(80,31);CyDelay(20);
 1372              		.loc 1 264 0
 1373 01aa 5020     		movs	r0, #80
 1374 01ac 5B4B     		ldr	r3, .L104+40
 1375 01ae 1870     		strb	r0, [r3]
 1376 01b0 1F21     		movs	r1, #31
 1377 01b2 FFF7FEFF 		bl	EEPROM_WriteByte
 1378              	.LVL209:
 1379 01b6 1420     		movs	r0, #20
 1380 01b8 FFF7FEFF 		bl	CyDelay
 1381              	.LVL210:
 1382              	.L49:
 265:funciones.c   ****    }
 266:funciones.c   ****    if(Integral>4 || Integral<1){
ARM GAS  C:\Users\USUARIO\AppData\Local\Temp\ccWuTYF0.s 			page 30


 1383              		.loc 1 266 0
 1384 01bc 584B     		ldr	r3, .L104+44
 1385 01be 1B78     		ldrb	r3, [r3]	@ zero_extendqisi2
 1386 01c0 013B     		subs	r3, r3, #1
 1387 01c2 DBB2     		uxtb	r3, r3
 1388 01c4 032B     		cmp	r3, #3
 1389 01c6 08D9     		bls	.L50
 267:funciones.c   ****       Integral=1;EEPROM_WriteByte(1,32);CyDelay(20);
 1390              		.loc 1 267 0
 1391 01c8 0120     		movs	r0, #1
 1392 01ca 554B     		ldr	r3, .L104+44
 1393 01cc 1870     		strb	r0, [r3]
 1394 01ce 2021     		movs	r1, #32
 1395 01d0 FFF7FEFF 		bl	EEPROM_WriteByte
 1396              	.LVL211:
 1397 01d4 1420     		movs	r0, #20
 1398 01d6 FFF7FEFF 		bl	CyDelay
 1399              	.LVL212:
 1400              	.L50:
 268:funciones.c   ****    }
 269:funciones.c   ****    if(Tciclo>20 || Tciclo<5){
 1401              		.loc 1 269 0
 1402 01da 524B     		ldr	r3, .L104+48
 1403 01dc 1B78     		ldrb	r3, [r3]	@ zero_extendqisi2
 1404 01de 053B     		subs	r3, r3, #5
 1405 01e0 DBB2     		uxtb	r3, r3
 1406 01e2 0F2B     		cmp	r3, #15
 1407 01e4 08D9     		bls	.L51
 270:funciones.c   ****       Tciclo=5;EEPROM_WriteByte(5,33);CyDelay(20);
 1408              		.loc 1 270 0
 1409 01e6 0520     		movs	r0, #5
 1410 01e8 4E4B     		ldr	r3, .L104+48
 1411 01ea 1870     		strb	r0, [r3]
 1412 01ec 2121     		movs	r1, #33
 1413 01ee FFF7FEFF 		bl	EEPROM_WriteByte
 1414              	.LVL213:
 1415 01f2 1420     		movs	r0, #20
 1416 01f4 FFF7FEFF 		bl	CyDelay
 1417              	.LVL214:
 1418              	.L51:
 271:funciones.c   ****    }
 272:funciones.c   ****    if(Ajuste>100){
 1419              		.loc 1 272 0
 1420 01f8 4B4B     		ldr	r3, .L104+52
 1421 01fa 1B78     		ldrb	r3, [r3]	@ zero_extendqisi2
 1422 01fc 642B     		cmp	r3, #100
 1423 01fe 08D9     		bls	.L52
 273:funciones.c   ****       Ajuste=0;EEPROM_WriteByte(0,34);CyDelay(20);
 1424              		.loc 1 273 0
 1425 0200 0020     		movs	r0, #0
 1426 0202 494B     		ldr	r3, .L104+52
 1427 0204 1870     		strb	r0, [r3]
 1428 0206 2221     		movs	r1, #34
 1429 0208 FFF7FEFF 		bl	EEPROM_WriteByte
 1430              	.LVL215:
 1431 020c 1420     		movs	r0, #20
 1432 020e FFF7FEFF 		bl	CyDelay
ARM GAS  C:\Users\USUARIO\AppData\Local\Temp\ccWuTYF0.s 			page 31


 1433              	.LVL216:
 1434              	.L52:
 274:funciones.c   ****    }
 275:funciones.c   ****    if(Ajusten>100){
 1435              		.loc 1 275 0
 1436 0212 464B     		ldr	r3, .L104+56
 1437 0214 1B78     		ldrb	r3, [r3]	@ zero_extendqisi2
 1438 0216 642B     		cmp	r3, #100
 1439 0218 08D9     		bls	.L53
 276:funciones.c   ****       Ajusten=0;EEPROM_WriteByte(0,35);CyDelay(20);
 1440              		.loc 1 276 0
 1441 021a 0020     		movs	r0, #0
 1442 021c 434B     		ldr	r3, .L104+56
 1443 021e 1870     		strb	r0, [r3]
 1444 0220 2321     		movs	r1, #35
 1445 0222 FFF7FEFF 		bl	EEPROM_WriteByte
 1446              	.LVL217:
 1447 0226 1420     		movs	r0, #20
 1448 0228 FFF7FEFF 		bl	CyDelay
 1449              	.LVL218:
 1450              	.L53:
 277:funciones.c   ****    }
 278:funciones.c   ****    if(MediaMovil>80 || MediaMovil<10){
 1451              		.loc 1 278 0
 1452 022c 404B     		ldr	r3, .L104+60
 1453 022e 1B78     		ldrb	r3, [r3]	@ zero_extendqisi2
 1454 0230 0A3B     		subs	r3, r3, #10
 1455 0232 DBB2     		uxtb	r3, r3
 1456 0234 462B     		cmp	r3, #70
 1457 0236 08D9     		bls	.L54
 279:funciones.c   ****       MediaMovil=80;EEPROM_WriteByte(80,36);CyDelay(20);
 1458              		.loc 1 279 0
 1459 0238 5020     		movs	r0, #80
 1460 023a 3D4B     		ldr	r3, .L104+60
 1461 023c 1870     		strb	r0, [r3]
 1462 023e 2421     		movs	r1, #36
 1463 0240 FFF7FEFF 		bl	EEPROM_WriteByte
 1464              	.LVL219:
 1465 0244 1420     		movs	r0, #20
 1466 0246 FFF7FEFF 		bl	CyDelay
 1467              	.LVL220:
 1468              	.L54:
 280:funciones.c   ****    }
 281:funciones.c   ****    if(Ajuste2>100){
 1469              		.loc 1 281 0
 1470 024a 3A4B     		ldr	r3, .L104+64
 1471 024c 1B78     		ldrb	r3, [r3]	@ zero_extendqisi2
 1472 024e 642B     		cmp	r3, #100
 1473 0250 08D9     		bls	.L55
 282:funciones.c   ****       Ajuste2=0;EEPROM_WriteByte(0,37);CyDelay(20);
 1474              		.loc 1 282 0
 1475 0252 0020     		movs	r0, #0
 1476 0254 374B     		ldr	r3, .L104+64
 1477 0256 1870     		strb	r0, [r3]
 1478 0258 2521     		movs	r1, #37
 1479 025a FFF7FEFF 		bl	EEPROM_WriteByte
 1480              	.LVL221:
ARM GAS  C:\Users\USUARIO\AppData\Local\Temp\ccWuTYF0.s 			page 32


 1481 025e 1420     		movs	r0, #20
 1482 0260 FFF7FEFF 		bl	CyDelay
 1483              	.LVL222:
 1484              	.L55:
 283:funciones.c   ****    }
 284:funciones.c   ****    if(Ajusten2>100){
 1485              		.loc 1 284 0
 1486 0264 344B     		ldr	r3, .L104+68
 1487 0266 1B78     		ldrb	r3, [r3]	@ zero_extendqisi2
 1488 0268 642B     		cmp	r3, #100
 1489 026a 08D9     		bls	.L56
 285:funciones.c   ****       Ajusten2=0;EEPROM_WriteByte(0,38);CyDelay(20);
 1490              		.loc 1 285 0
 1491 026c 0020     		movs	r0, #0
 1492 026e 324B     		ldr	r3, .L104+68
 1493 0270 1870     		strb	r0, [r3]
 1494 0272 2621     		movs	r1, #38
 1495 0274 FFF7FEFF 		bl	EEPROM_WriteByte
 1496              	.LVL223:
 1497 0278 1420     		movs	r0, #20
 1498 027a FFF7FEFF 		bl	CyDelay
 1499              	.LVL224:
 1500              	.L56:
 286:funciones.c   ****    }
 287:funciones.c   ****    if(MediaMovil2>80 || MediaMovil2<10){
 1501              		.loc 1 287 0
 1502 027e 2F4B     		ldr	r3, .L104+72
 1503 0280 1B78     		ldrb	r3, [r3]	@ zero_extendqisi2
 1504 0282 0A3B     		subs	r3, r3, #10
 1505 0284 DBB2     		uxtb	r3, r3
 1506 0286 462B     		cmp	r3, #70
 1507 0288 08D9     		bls	.L57
 288:funciones.c   ****       MediaMovil2=40;EEPROM_WriteByte(40,39);CyDelay(20);
 1508              		.loc 1 288 0
 1509 028a 2820     		movs	r0, #40
 1510 028c 2B4B     		ldr	r3, .L104+72
 1511 028e 1870     		strb	r0, [r3]
 1512 0290 2721     		movs	r1, #39
 1513 0292 FFF7FEFF 		bl	EEPROM_WriteByte
 1514              	.LVL225:
 1515 0296 1420     		movs	r0, #20
 1516 0298 FFF7FEFF 		bl	CyDelay
 1517              	.LVL226:
 1518              	.L57:
 289:funciones.c   ****    }
 290:funciones.c   ****    if(tmuestreoUSB<1){
 1519              		.loc 1 290 0
 1520 029c 284B     		ldr	r3, .L104+76
 1521 029e 1B78     		ldrb	r3, [r3]	@ zero_extendqisi2
 1522 02a0 4BB9     		cbnz	r3, .L58
 291:funciones.c   ****       tmuestreoUSB=20;EEPROM_WriteByte(20,40);CyDelay(20);
 1523              		.loc 1 291 0
 1524 02a2 1424     		movs	r4, #20
 1525 02a4 264B     		ldr	r3, .L104+76
 1526 02a6 1C70     		strb	r4, [r3]
 1527 02a8 2821     		movs	r1, #40
 1528 02aa 2046     		mov	r0, r4
ARM GAS  C:\Users\USUARIO\AppData\Local\Temp\ccWuTYF0.s 			page 33


 1529 02ac FFF7FEFF 		bl	EEPROM_WriteByte
 1530              	.LVL227:
 1531 02b0 2046     		mov	r0, r4
 1532 02b2 FFF7FEFF 		bl	CyDelay
 1533              	.LVL228:
 1534              	.L58:
 292:funciones.c   ****    }
 293:funciones.c   ****    if(controlT>1){
 1535              		.loc 1 293 0
 1536 02b6 234B     		ldr	r3, .L104+80
 1537 02b8 1B78     		ldrb	r3, [r3]	@ zero_extendqisi2
 1538 02ba 012B     		cmp	r3, #1
 1539 02bc 08D9     		bls	.L59
 294:funciones.c   ****       controlT=0;EEPROM_WriteByte(0,41);CyDelay(20);
 1540              		.loc 1 294 0
 1541 02be 0020     		movs	r0, #0
 1542 02c0 204B     		ldr	r3, .L104+80
 1543 02c2 1870     		strb	r0, [r3]
 1544 02c4 2921     		movs	r1, #41
 1545 02c6 FFF7FEFF 		bl	EEPROM_WriteByte
 1546              	.LVL229:
 1547 02ca 1420     		movs	r0, #20
 1548 02cc FFF7FEFF 		bl	CyDelay
 1549              	.LVL230:
 1550              	.L59:
 295:funciones.c   ****    }
 296:funciones.c   ****    if(controlH>1){
 1551              		.loc 1 296 0
 1552 02d0 1D4B     		ldr	r3, .L104+84
 1553 02d2 1B78     		ldrb	r3, [r3]	@ zero_extendqisi2
 1554 02d4 012B     		cmp	r3, #1
 1555 02d6 08D9     		bls	.L60
 297:funciones.c   ****       controlH=0;EEPROM_WriteByte(0,42);CyDelay(20);
 1556              		.loc 1 297 0
 1557 02d8 0020     		movs	r0, #0
 1558 02da 1B4B     		ldr	r3, .L104+84
 1559 02dc 1870     		strb	r0, [r3]
 1560 02de 2A21     		movs	r1, #42
 1561 02e0 FFF7FEFF 		bl	EEPROM_WriteByte
 1562              	.LVL231:
 1563 02e4 1420     		movs	r0, #20
 1564 02e6 FFF7FEFF 		bl	CyDelay
 1565              	.LVL232:
 1566              	.L60:
 298:funciones.c   ****    }
 299:funciones.c   ****    if(controlR>1){
 1567              		.loc 1 299 0
 1568 02ea 184B     		ldr	r3, .L104+88
 1569 02ec 1B78     		ldrb	r3, [r3]	@ zero_extendqisi2
 1570 02ee 012B     		cmp	r3, #1
 1571 02f0 37D9     		bls	.L61
 1572 02f2 2DE0     		b	.L105
 1573              	.L106:
 1574              		.align	2
 1575              	.L104:
 1576 02f4 00000000 		.word	mEstp
 1577 02f8 00000000 		.word	hEstp
ARM GAS  C:\Users\USUARIO\AppData\Local\Temp\ccWuTYF0.s 			page 34


 1578 02fc 00000000 		.word	Setpoint
 1579 0300 00007042 		.word	1114636288
 1580 0304 0000F041 		.word	1106247680
 1581 0308 00000000 		.word	SetpointH
 1582 030c 00000000 		.word	.LANCHOR0
 1583 0310 00000000 		.word	Password
 1584 0314 00000000 		.word	Ganancia
 1585 0318 0000A041 		.word	1101004800
 1586 031c 00000000 		.word	Derivativo
 1587 0320 00000000 		.word	Integral
 1588 0324 00000000 		.word	Tciclo
 1589 0328 00000000 		.word	Ajuste
 1590 032c 00000000 		.word	Ajusten
 1591 0330 00000000 		.word	MediaMovil
 1592 0334 00000000 		.word	Ajuste2
 1593 0338 00000000 		.word	Ajusten2
 1594 033c 00000000 		.word	MediaMovil2
 1595 0340 00000000 		.word	tmuestreoUSB
 1596 0344 00000000 		.word	controlT
 1597 0348 00000000 		.word	controlH
 1598 034c 00000000 		.word	controlR
 1599              	.L105:
 300:funciones.c   ****       controlR=0;EEPROM_WriteByte(0,43);CyDelay(20);
 1600              		.loc 1 300 0
 1601 0350 0020     		movs	r0, #0
 1602 0352 B14B     		ldr	r3, .L107
 1603 0354 1870     		strb	r0, [r3]
 1604 0356 2B21     		movs	r1, #43
 1605 0358 FFF7FEFF 		bl	EEPROM_WriteByte
 1606              	.LVL233:
 1607 035c 1420     		movs	r0, #20
 1608 035e FFF7FEFF 		bl	CyDelay
 1609              	.LVL234:
 1610              	.L61:
 301:funciones.c   ****    }
 302:funciones.c   ****    if(T1Humedad>60 || T1Humedad<1){
 1611              		.loc 1 302 0
 1612 0362 AE4B     		ldr	r3, .L107+4
 1613 0364 1B78     		ldrb	r3, [r3]	@ zero_extendqisi2
 1614 0366 013B     		subs	r3, r3, #1
 1615 0368 DBB2     		uxtb	r3, r3
 1616 036a 3B2B     		cmp	r3, #59
 1617 036c 08D9     		bls	.L62
 303:funciones.c   ****       T1Humedad=10;EEPROM_WriteByte(10,44);CyDelay(20);
 1618              		.loc 1 303 0
 1619 036e 0A20     		movs	r0, #10
 1620 0370 AA4B     		ldr	r3, .L107+4
 1621 0372 1870     		strb	r0, [r3]
 1622 0374 2C21     		movs	r1, #44
 1623 0376 FFF7FEFF 		bl	EEPROM_WriteByte
 1624              	.LVL235:
 1625 037a 1420     		movs	r0, #20
 1626 037c FFF7FEFF 		bl	CyDelay
 1627              	.LVL236:
 1628              	.L62:
 304:funciones.c   ****    }
 305:funciones.c   ****    if(T2Humedad>60 || T2Humedad<4){
ARM GAS  C:\Users\USUARIO\AppData\Local\Temp\ccWuTYF0.s 			page 35


 1629              		.loc 1 305 0
 1630 0380 A74B     		ldr	r3, .L107+8
 1631 0382 1B78     		ldrb	r3, [r3]	@ zero_extendqisi2
 1632 0384 043B     		subs	r3, r3, #4
 1633 0386 DBB2     		uxtb	r3, r3
 1634 0388 382B     		cmp	r3, #56
 1635 038a 08D9     		bls	.L63
 306:funciones.c   ****       T2Humedad=30;EEPROM_WriteByte(30,45);CyDelay(20);
 1636              		.loc 1 306 0
 1637 038c 1E20     		movs	r0, #30
 1638 038e A44B     		ldr	r3, .L107+8
 1639 0390 1870     		strb	r0, [r3]
 1640 0392 2D21     		movs	r1, #45
 1641 0394 FFF7FEFF 		bl	EEPROM_WriteByte
 1642              	.LVL237:
 1643 0398 1420     		movs	r0, #20
 1644 039a FFF7FEFF 		bl	CyDelay
 1645              	.LVL238:
 1646              	.L63:
 307:funciones.c   ****    }
 308:funciones.c   ****    if(T3Humedad>60 || T3Humedad<1){
 1647              		.loc 1 308 0
 1648 039e A14B     		ldr	r3, .L107+12
 1649 03a0 1B78     		ldrb	r3, [r3]	@ zero_extendqisi2
 1650 03a2 013B     		subs	r3, r3, #1
 1651 03a4 DBB2     		uxtb	r3, r3
 1652 03a6 3B2B     		cmp	r3, #59
 1653 03a8 08D9     		bls	.L64
 309:funciones.c   ****       T3Humedad=6;EEPROM_WriteByte(6,46);CyDelay(20);
 1654              		.loc 1 309 0
 1655 03aa 0620     		movs	r0, #6
 1656 03ac 9D4B     		ldr	r3, .L107+12
 1657 03ae 1870     		strb	r0, [r3]
 1658 03b0 2E21     		movs	r1, #46
 1659 03b2 FFF7FEFF 		bl	EEPROM_WriteByte
 1660              	.LVL239:
 1661 03b6 1420     		movs	r0, #20
 1662 03b8 FFF7FEFF 		bl	CyDelay
 1663              	.LVL240:
 1664              	.L64:
 310:funciones.c   ****    }
 311:funciones.c   ****     for(i=0;i<3;i++){
 1665              		.loc 1 311 0
 1666 03bc 0022     		movs	r2, #0
 1667 03be 9A4B     		ldr	r3, .L107+16
 1668 03c0 1A70     		strb	r2, [r3]
 1669 03c2 A6E2     		b	.L65
 1670              	.L102:
 312:funciones.c   ****         if(i<2){
 1671              		.loc 1 312 0
 1672 03c4 012C     		cmp	r4, #1
 1673 03c6 00F23D81 		bhi	.L66
 313:funciones.c   ****             if(calib[i].patron1>25 || calib[i].patron1<1){
 1674              		.loc 1 313 0
 1675 03ca 04EB4402 		add	r2, r4, r4, lsl #1
 1676 03ce 1301     		lsls	r3, r2, #4
 1677 03d0 964A     		ldr	r2, .L107+20
ARM GAS  C:\Users\USUARIO\AppData\Local\Temp\ccWuTYF0.s 			page 36


 1678 03d2 1344     		add	r3, r3, r2
 1679 03d4 9D69     		ldr	r5, [r3, #24]	@ float
 1680 03d6 9649     		ldr	r1, .L107+24
 1681 03d8 2846     		mov	r0, r5
 1682 03da FFF7FEFF 		bl	__aeabi_fcmpgt
 1683              	.LVL241:
 1684 03de 28B9     		cbnz	r0, .L67
 1685              		.loc 1 313 0 is_stmt 0 discriminator 1
 1686 03e0 4FF07E51 		mov	r1, #1065353216
 1687 03e4 2846     		mov	r0, r5
 1688 03e6 FFF7FEFF 		bl	__aeabi_fcmplt
 1689              	.LVL242:
 1690 03ea F0B1     		cbz	r0, .L68
 1691              	.L67:
 314:funciones.c   ****                 calib[i].patron1=10;EEPROM_WriteByte(10,64+(i*12));CyDelay(20);EEPROM_WriteByte(0,6
 1692              		.loc 1 314 0 is_stmt 1
 1693 03ec 04EB4402 		add	r2, r4, r4, lsl #1
 1694 03f0 1301     		lsls	r3, r2, #4
 1695 03f2 8E4A     		ldr	r2, .L107+20
 1696 03f4 1344     		add	r3, r3, r2
 1697 03f6 8F4A     		ldr	r2, .L107+28
 1698 03f8 9A61     		str	r2, [r3, #24]	@ float
 1699 03fa 04EB4404 		add	r4, r4, r4, lsl #1
 1700 03fe A100     		lsls	r1, r4, #2
 1701 0400 4031     		adds	r1, r1, #64
 1702 0402 89B2     		uxth	r1, r1
 1703 0404 0A20     		movs	r0, #10
 1704 0406 FFF7FEFF 		bl	EEPROM_WriteByte
 1705              	.LVL243:
 1706 040a 1420     		movs	r0, #20
 1707 040c FFF7FEFF 		bl	CyDelay
 1708              	.LVL244:
 1709 0410 854B     		ldr	r3, .L107+16
 1710 0412 1B78     		ldrb	r3, [r3]	@ zero_extendqisi2
 1711 0414 03EB4303 		add	r3, r3, r3, lsl #1
 1712 0418 9900     		lsls	r1, r3, #2
 1713 041a 4131     		adds	r1, r1, #65
 1714 041c 89B2     		uxth	r1, r1
 1715 041e 0020     		movs	r0, #0
 1716 0420 FFF7FEFF 		bl	EEPROM_WriteByte
 1717              	.LVL245:
 1718 0424 1420     		movs	r0, #20
 1719 0426 FFF7FEFF 		bl	CyDelay
 1720              	.LVL246:
 1721              	.L68:
 315:funciones.c   ****             }
 316:funciones.c   ****             if(calib[i].patron2>40 || calib[i].patron2<25){
 1722              		.loc 1 316 0
 1723 042a 7F4B     		ldr	r3, .L107+16
 1724 042c 1C78     		ldrb	r4, [r3]	@ zero_extendqisi2
 1725 042e 04EB4402 		add	r2, r4, r4, lsl #1
 1726 0432 1301     		lsls	r3, r2, #4
 1727 0434 7D4A     		ldr	r2, .L107+20
 1728 0436 1344     		add	r3, r3, r2
 1729 0438 DD69     		ldr	r5, [r3, #28]	@ float
 1730 043a 7F49     		ldr	r1, .L107+32
 1731 043c 2846     		mov	r0, r5
ARM GAS  C:\Users\USUARIO\AppData\Local\Temp\ccWuTYF0.s 			page 37


 1732 043e FFF7FEFF 		bl	__aeabi_fcmpgt
 1733              	.LVL247:
 1734 0442 20B9     		cbnz	r0, .L70
 1735              		.loc 1 316 0 is_stmt 0 discriminator 1
 1736 0444 7A49     		ldr	r1, .L107+24
 1737 0446 2846     		mov	r0, r5
 1738 0448 FFF7FEFF 		bl	__aeabi_fcmplt
 1739              	.LVL248:
 1740 044c F0B1     		cbz	r0, .L71
 1741              	.L70:
 317:funciones.c   ****                 calib[i].patron2=30;EEPROM_WriteByte(30,66+(i*12));CyDelay(20);EEPROM_WriteByte(0,6
 1742              		.loc 1 317 0 is_stmt 1
 1743 044e 04EB4402 		add	r2, r4, r4, lsl #1
 1744 0452 1301     		lsls	r3, r2, #4
 1745 0454 754A     		ldr	r2, .L107+20
 1746 0456 1344     		add	r3, r3, r2
 1747 0458 784A     		ldr	r2, .L107+36
 1748 045a DA61     		str	r2, [r3, #28]	@ float
 1749 045c 04EB4404 		add	r4, r4, r4, lsl #1
 1750 0460 A100     		lsls	r1, r4, #2
 1751 0462 4231     		adds	r1, r1, #66
 1752 0464 89B2     		uxth	r1, r1
 1753 0466 1E20     		movs	r0, #30
 1754 0468 FFF7FEFF 		bl	EEPROM_WriteByte
 1755              	.LVL249:
 1756 046c 1420     		movs	r0, #20
 1757 046e FFF7FEFF 		bl	CyDelay
 1758              	.LVL250:
 1759 0472 6D4B     		ldr	r3, .L107+16
 1760 0474 1B78     		ldrb	r3, [r3]	@ zero_extendqisi2
 1761 0476 03EB4303 		add	r3, r3, r3, lsl #1
 1762 047a 9900     		lsls	r1, r3, #2
 1763 047c 4331     		adds	r1, r1, #67
 1764 047e 89B2     		uxth	r1, r1
 1765 0480 0020     		movs	r0, #0
 1766 0482 FFF7FEFF 		bl	EEPROM_WriteByte
 1767              	.LVL251:
 1768 0486 1420     		movs	r0, #20
 1769 0488 FFF7FEFF 		bl	CyDelay
 1770              	.LVL252:
 1771              	.L71:
 318:funciones.c   ****             }
 319:funciones.c   ****             if(calib[i].patron3>80 || calib[i].patron3<40){
 1772              		.loc 1 319 0
 1773 048c 664B     		ldr	r3, .L107+16
 1774 048e 1C78     		ldrb	r4, [r3]	@ zero_extendqisi2
 1775 0490 04EB4402 		add	r2, r4, r4, lsl #1
 1776 0494 1301     		lsls	r3, r2, #4
 1777 0496 654A     		ldr	r2, .L107+20
 1778 0498 1344     		add	r3, r3, r2
 1779 049a 1D6A     		ldr	r5, [r3, #32]	@ float
 1780 049c 6849     		ldr	r1, .L107+40
 1781 049e 2846     		mov	r0, r5
 1782 04a0 FFF7FEFF 		bl	__aeabi_fcmpgt
 1783              	.LVL253:
 1784 04a4 20B9     		cbnz	r0, .L73
 1785              		.loc 1 319 0 is_stmt 0 discriminator 1
ARM GAS  C:\Users\USUARIO\AppData\Local\Temp\ccWuTYF0.s 			page 38


 1786 04a6 6449     		ldr	r1, .L107+32
 1787 04a8 2846     		mov	r0, r5
 1788 04aa FFF7FEFF 		bl	__aeabi_fcmplt
 1789              	.LVL254:
 1790 04ae F0B1     		cbz	r0, .L74
 1791              	.L73:
 320:funciones.c   ****                 calib[i].patron3=40;EEPROM_WriteByte(40,68+(i*12));CyDelay(20);EEPROM_WriteByte(0,6
 1792              		.loc 1 320 0 is_stmt 1
 1793 04b0 04EB4402 		add	r2, r4, r4, lsl #1
 1794 04b4 1301     		lsls	r3, r2, #4
 1795 04b6 5D4A     		ldr	r2, .L107+20
 1796 04b8 1344     		add	r3, r3, r2
 1797 04ba 5F4A     		ldr	r2, .L107+32
 1798 04bc 1A62     		str	r2, [r3, #32]	@ float
 1799 04be 04EB4404 		add	r4, r4, r4, lsl #1
 1800 04c2 A100     		lsls	r1, r4, #2
 1801 04c4 4431     		adds	r1, r1, #68
 1802 04c6 89B2     		uxth	r1, r1
 1803 04c8 2820     		movs	r0, #40
 1804 04ca FFF7FEFF 		bl	EEPROM_WriteByte
 1805              	.LVL255:
 1806 04ce 1420     		movs	r0, #20
 1807 04d0 FFF7FEFF 		bl	CyDelay
 1808              	.LVL256:
 1809 04d4 544B     		ldr	r3, .L107+16
 1810 04d6 1B78     		ldrb	r3, [r3]	@ zero_extendqisi2
 1811 04d8 03EB4303 		add	r3, r3, r3, lsl #1
 1812 04dc 9900     		lsls	r1, r3, #2
 1813 04de 4531     		adds	r1, r1, #69
 1814 04e0 89B2     		uxth	r1, r1
 1815 04e2 0020     		movs	r0, #0
 1816 04e4 FFF7FEFF 		bl	EEPROM_WriteByte
 1817              	.LVL257:
 1818 04e8 1420     		movs	r0, #20
 1819 04ea FFF7FEFF 		bl	CyDelay
 1820              	.LVL258:
 1821              	.L74:
 321:funciones.c   ****             }
 322:funciones.c   ****             if(calib[i].control1>25 || calib[i].control1<1){
 1822              		.loc 1 322 0
 1823 04ee 4E4B     		ldr	r3, .L107+16
 1824 04f0 1C78     		ldrb	r4, [r3]	@ zero_extendqisi2
 1825 04f2 04EB4402 		add	r2, r4, r4, lsl #1
 1826 04f6 1301     		lsls	r3, r2, #4
 1827 04f8 4C4A     		ldr	r2, .L107+20
 1828 04fa D558     		ldr	r5, [r2, r3]	@ float
 1829 04fc 4C49     		ldr	r1, .L107+24
 1830 04fe 2846     		mov	r0, r5
 1831 0500 FFF7FEFF 		bl	__aeabi_fcmpgt
 1832              	.LVL259:
 1833 0504 28B9     		cbnz	r0, .L76
 1834              		.loc 1 322 0 is_stmt 0 discriminator 1
 1835 0506 4FF07E51 		mov	r1, #1065353216
 1836 050a 2846     		mov	r0, r5
 1837 050c FFF7FEFF 		bl	__aeabi_fcmplt
 1838              	.LVL260:
 1839 0510 E8B1     		cbz	r0, .L77
ARM GAS  C:\Users\USUARIO\AppData\Local\Temp\ccWuTYF0.s 			page 39


 1840              	.L76:
 323:funciones.c   ****                 calib[i].control1=10;EEPROM_WriteByte(10,70+(i*12));CyDelay(20);EEPROM_WriteByte(0,
 1841              		.loc 1 323 0 is_stmt 1
 1842 0512 04EB4402 		add	r2, r4, r4, lsl #1
 1843 0516 1301     		lsls	r3, r2, #4
 1844 0518 4649     		ldr	r1, .L107+28
 1845 051a 444A     		ldr	r2, .L107+20
 1846 051c D150     		str	r1, [r2, r3]	@ float
 1847 051e 04EB4404 		add	r4, r4, r4, lsl #1
 1848 0522 A100     		lsls	r1, r4, #2
 1849 0524 4631     		adds	r1, r1, #70
 1850 0526 89B2     		uxth	r1, r1
 1851 0528 0A20     		movs	r0, #10
 1852 052a FFF7FEFF 		bl	EEPROM_WriteByte
 1853              	.LVL261:
 1854 052e 1420     		movs	r0, #20
 1855 0530 FFF7FEFF 		bl	CyDelay
 1856              	.LVL262:
 1857 0534 3C4B     		ldr	r3, .L107+16
 1858 0536 1B78     		ldrb	r3, [r3]	@ zero_extendqisi2
 1859 0538 03EB4303 		add	r3, r3, r3, lsl #1
 1860 053c 9900     		lsls	r1, r3, #2
 1861 053e 4731     		adds	r1, r1, #71
 1862 0540 89B2     		uxth	r1, r1
 1863 0542 0020     		movs	r0, #0
 1864 0544 FFF7FEFF 		bl	EEPROM_WriteByte
 1865              	.LVL263:
 1866 0548 1420     		movs	r0, #20
 1867 054a FFF7FEFF 		bl	CyDelay
 1868              	.LVL264:
 1869              	.L77:
 324:funciones.c   ****             }
 325:funciones.c   ****             if(calib[i].control2>40 || calib[i].control2<25){
 1870              		.loc 1 325 0
 1871 054e 364B     		ldr	r3, .L107+16
 1872 0550 1C78     		ldrb	r4, [r3]	@ zero_extendqisi2
 1873 0552 04EB4402 		add	r2, r4, r4, lsl #1
 1874 0556 1301     		lsls	r3, r2, #4
 1875 0558 344A     		ldr	r2, .L107+20
 1876 055a 1344     		add	r3, r3, r2
 1877 055c 5D68     		ldr	r5, [r3, #4]	@ float
 1878 055e 3649     		ldr	r1, .L107+32
 1879 0560 2846     		mov	r0, r5
 1880 0562 FFF7FEFF 		bl	__aeabi_fcmpgt
 1881              	.LVL265:
 1882 0566 20B9     		cbnz	r0, .L79
 1883              		.loc 1 325 0 is_stmt 0 discriminator 1
 1884 0568 3149     		ldr	r1, .L107+24
 1885 056a 2846     		mov	r0, r5
 1886 056c FFF7FEFF 		bl	__aeabi_fcmplt
 1887              	.LVL266:
 1888 0570 F0B1     		cbz	r0, .L80
 1889              	.L79:
 326:funciones.c   ****                 calib[i].control2=30;EEPROM_WriteByte(30,72+(i*12));CyDelay(20);EEPROM_WriteByte(0,
 1890              		.loc 1 326 0 is_stmt 1
 1891 0572 04EB4402 		add	r2, r4, r4, lsl #1
 1892 0576 1301     		lsls	r3, r2, #4
ARM GAS  C:\Users\USUARIO\AppData\Local\Temp\ccWuTYF0.s 			page 40


 1893 0578 2C4A     		ldr	r2, .L107+20
 1894 057a 1344     		add	r3, r3, r2
 1895 057c 2F4A     		ldr	r2, .L107+36
 1896 057e 5A60     		str	r2, [r3, #4]	@ float
 1897 0580 04EB4404 		add	r4, r4, r4, lsl #1
 1898 0584 A100     		lsls	r1, r4, #2
 1899 0586 4831     		adds	r1, r1, #72
 1900 0588 89B2     		uxth	r1, r1
 1901 058a 1E20     		movs	r0, #30
 1902 058c FFF7FEFF 		bl	EEPROM_WriteByte
 1903              	.LVL267:
 1904 0590 1420     		movs	r0, #20
 1905 0592 FFF7FEFF 		bl	CyDelay
 1906              	.LVL268:
 1907 0596 244B     		ldr	r3, .L107+16
 1908 0598 1B78     		ldrb	r3, [r3]	@ zero_extendqisi2
 1909 059a 03EB4303 		add	r3, r3, r3, lsl #1
 1910 059e 9900     		lsls	r1, r3, #2
 1911 05a0 4931     		adds	r1, r1, #73
 1912 05a2 89B2     		uxth	r1, r1
 1913 05a4 0020     		movs	r0, #0
 1914 05a6 FFF7FEFF 		bl	EEPROM_WriteByte
 1915              	.LVL269:
 1916 05aa 1420     		movs	r0, #20
 1917 05ac FFF7FEFF 		bl	CyDelay
 1918              	.LVL270:
 1919              	.L80:
 327:funciones.c   ****             }
 328:funciones.c   ****             if(calib[i].control3>80 || calib[i].control3<40){
 1920              		.loc 1 328 0
 1921 05b0 1D4B     		ldr	r3, .L107+16
 1922 05b2 1C78     		ldrb	r4, [r3]	@ zero_extendqisi2
 1923 05b4 04EB4402 		add	r2, r4, r4, lsl #1
 1924 05b8 1301     		lsls	r3, r2, #4
 1925 05ba 1C4A     		ldr	r2, .L107+20
 1926 05bc 1344     		add	r3, r3, r2
 1927 05be 9D68     		ldr	r5, [r3, #8]	@ float
 1928 05c0 1F49     		ldr	r1, .L107+40
 1929 05c2 2846     		mov	r0, r5
 1930 05c4 FFF7FEFF 		bl	__aeabi_fcmpgt
 1931              	.LVL271:
 1932 05c8 30B9     		cbnz	r0, .L82
 1933              		.loc 1 328 0 is_stmt 0 discriminator 1
 1934 05ca 1B49     		ldr	r1, .L107+32
 1935 05cc 2846     		mov	r0, r5
 1936 05ce FFF7FEFF 		bl	__aeabi_fcmplt
 1937              	.LVL272:
 1938 05d2 0028     		cmp	r0, #0
 1939 05d4 00F05D81 		beq	.L83
 1940              	.L82:
 329:funciones.c   ****                 calib[i].control3=40;EEPROM_WriteByte(40,74+(i*12));CyDelay(20);EEPROM_WriteByte(0,
 1941              		.loc 1 329 0 is_stmt 1
 1942 05d8 04EB4402 		add	r2, r4, r4, lsl #1
 1943 05dc 1301     		lsls	r3, r2, #4
 1944 05de 134A     		ldr	r2, .L107+20
 1945 05e0 1344     		add	r3, r3, r2
 1946 05e2 154A     		ldr	r2, .L107+32
ARM GAS  C:\Users\USUARIO\AppData\Local\Temp\ccWuTYF0.s 			page 41


 1947 05e4 9A60     		str	r2, [r3, #8]	@ float
 1948 05e6 04EB4404 		add	r4, r4, r4, lsl #1
 1949 05ea A100     		lsls	r1, r4, #2
 1950 05ec 4A31     		adds	r1, r1, #74
 1951 05ee 89B2     		uxth	r1, r1
 1952 05f0 2820     		movs	r0, #40
 1953 05f2 FFF7FEFF 		bl	EEPROM_WriteByte
 1954              	.LVL273:
 1955 05f6 1420     		movs	r0, #20
 1956 05f8 FFF7FEFF 		bl	CyDelay
 1957              	.LVL274:
 1958 05fc 0A4B     		ldr	r3, .L107+16
 1959 05fe 1B78     		ldrb	r3, [r3]	@ zero_extendqisi2
 1960 0600 03EB4303 		add	r3, r3, r3, lsl #1
 1961 0604 9900     		lsls	r1, r3, #2
 1962 0606 4B31     		adds	r1, r1, #75
 1963 0608 89B2     		uxth	r1, r1
 1964 060a 0020     		movs	r0, #0
 1965 060c FFF7FEFF 		bl	EEPROM_WriteByte
 1966              	.LVL275:
 1967 0610 1420     		movs	r0, #20
 1968 0612 FFF7FEFF 		bl	CyDelay
 1969              	.LVL276:
 1970 0616 3CE1     		b	.L83
 1971              	.L108:
 1972              		.align	2
 1973              	.L107:
 1974 0618 00000000 		.word	controlR
 1975 061c 00000000 		.word	T1Humedad
 1976 0620 00000000 		.word	T2Humedad
 1977 0624 00000000 		.word	T3Humedad
 1978 0628 00000000 		.word	i
 1979 062c 00000000 		.word	calib
 1980 0630 0000C841 		.word	1103626240
 1981 0634 00002041 		.word	1092616192
 1982 0638 00002042 		.word	1109393408
 1983 063c 0000F041 		.word	1106247680
 1984 0640 0000A042 		.word	1117782016
 1985              	.L66:
 330:funciones.c   ****             }
 331:funciones.c   ****         }else{
 332:funciones.c   ****             if(calib[i].patron1>100 || calib[i].patron1<10){
 1986              		.loc 1 332 0
 1987 0644 04EB4402 		add	r2, r4, r4, lsl #1
 1988 0648 1301     		lsls	r3, r2, #4
 1989 064a B54A     		ldr	r2, .L109
 1990 064c 1344     		add	r3, r3, r2
 1991 064e 9D69     		ldr	r5, [r3, #24]	@ float
 1992 0650 B449     		ldr	r1, .L109+4
 1993 0652 2846     		mov	r0, r5
 1994 0654 FFF7FEFF 		bl	__aeabi_fcmpgt
 1995              	.LVL277:
 1996 0658 20B9     		cbnz	r0, .L85
 1997              		.loc 1 332 0 is_stmt 0 discriminator 1
 1998 065a B349     		ldr	r1, .L109+8
 1999 065c 2846     		mov	r0, r5
 2000 065e FFF7FEFF 		bl	__aeabi_fcmplt
ARM GAS  C:\Users\USUARIO\AppData\Local\Temp\ccWuTYF0.s 			page 42


 2001              	.LVL278:
 2002 0662 F0B1     		cbz	r0, .L86
 2003              	.L85:
 333:funciones.c   ****                 calib[i].patron1=10;EEPROM_WriteByte(10,64+(i*12));CyDelay(20);EEPROM_WriteByte(0,6
 2004              		.loc 1 333 0 is_stmt 1
 2005 0664 04EB4402 		add	r2, r4, r4, lsl #1
 2006 0668 1301     		lsls	r3, r2, #4
 2007 066a AD4A     		ldr	r2, .L109
 2008 066c 1344     		add	r3, r3, r2
 2009 066e AE4A     		ldr	r2, .L109+8
 2010 0670 9A61     		str	r2, [r3, #24]	@ float
 2011 0672 04EB4404 		add	r4, r4, r4, lsl #1
 2012 0676 A100     		lsls	r1, r4, #2
 2013 0678 4031     		adds	r1, r1, #64
 2014 067a 89B2     		uxth	r1, r1
 2015 067c 0A20     		movs	r0, #10
 2016 067e FFF7FEFF 		bl	EEPROM_WriteByte
 2017              	.LVL279:
 2018 0682 1420     		movs	r0, #20
 2019 0684 FFF7FEFF 		bl	CyDelay
 2020              	.LVL280:
 2021 0688 A84B     		ldr	r3, .L109+12
 2022 068a 1B78     		ldrb	r3, [r3]	@ zero_extendqisi2
 2023 068c 03EB4303 		add	r3, r3, r3, lsl #1
 2024 0690 9900     		lsls	r1, r3, #2
 2025 0692 4131     		adds	r1, r1, #65
 2026 0694 89B2     		uxth	r1, r1
 2027 0696 0020     		movs	r0, #0
 2028 0698 FFF7FEFF 		bl	EEPROM_WriteByte
 2029              	.LVL281:
 2030 069c 1420     		movs	r0, #20
 2031 069e FFF7FEFF 		bl	CyDelay
 2032              	.LVL282:
 2033              	.L86:
 334:funciones.c   ****             }
 335:funciones.c   ****             if(calib[i].patron2>100 || calib[i].patron2<1){
 2034              		.loc 1 335 0
 2035 06a2 A24B     		ldr	r3, .L109+12
 2036 06a4 1C78     		ldrb	r4, [r3]	@ zero_extendqisi2
 2037 06a6 04EB4402 		add	r2, r4, r4, lsl #1
 2038 06aa 1301     		lsls	r3, r2, #4
 2039 06ac 9C4A     		ldr	r2, .L109
 2040 06ae 1344     		add	r3, r3, r2
 2041 06b0 DD69     		ldr	r5, [r3, #28]	@ float
 2042 06b2 9C49     		ldr	r1, .L109+4
 2043 06b4 2846     		mov	r0, r5
 2044 06b6 FFF7FEFF 		bl	__aeabi_fcmpgt
 2045              	.LVL283:
 2046 06ba 28B9     		cbnz	r0, .L88
 2047              		.loc 1 335 0 is_stmt 0 discriminator 1
 2048 06bc 4FF07E51 		mov	r1, #1065353216
 2049 06c0 2846     		mov	r0, r5
 2050 06c2 FFF7FEFF 		bl	__aeabi_fcmplt
 2051              	.LVL284:
 2052 06c6 F0B1     		cbz	r0, .L89
 2053              	.L88:
 336:funciones.c   ****                 calib[i].patron2=40;EEPROM_WriteByte(40,66+(i*12));CyDelay(20);EEPROM_WriteByte(0,6
ARM GAS  C:\Users\USUARIO\AppData\Local\Temp\ccWuTYF0.s 			page 43


 2054              		.loc 1 336 0 is_stmt 1
 2055 06c8 04EB4402 		add	r2, r4, r4, lsl #1
 2056 06cc 1301     		lsls	r3, r2, #4
 2057 06ce 944A     		ldr	r2, .L109
 2058 06d0 1344     		add	r3, r3, r2
 2059 06d2 974A     		ldr	r2, .L109+16
 2060 06d4 DA61     		str	r2, [r3, #28]	@ float
 2061 06d6 04EB4404 		add	r4, r4, r4, lsl #1
 2062 06da A100     		lsls	r1, r4, #2
 2063 06dc 4231     		adds	r1, r1, #66
 2064 06de 89B2     		uxth	r1, r1
 2065 06e0 2820     		movs	r0, #40
 2066 06e2 FFF7FEFF 		bl	EEPROM_WriteByte
 2067              	.LVL285:
 2068 06e6 1420     		movs	r0, #20
 2069 06e8 FFF7FEFF 		bl	CyDelay
 2070              	.LVL286:
 2071 06ec 8F4B     		ldr	r3, .L109+12
 2072 06ee 1B78     		ldrb	r3, [r3]	@ zero_extendqisi2
 2073 06f0 03EB4303 		add	r3, r3, r3, lsl #1
 2074 06f4 9900     		lsls	r1, r3, #2
 2075 06f6 4331     		adds	r1, r1, #67
 2076 06f8 89B2     		uxth	r1, r1
 2077 06fa 0020     		movs	r0, #0
 2078 06fc FFF7FEFF 		bl	EEPROM_WriteByte
 2079              	.LVL287:
 2080 0700 1420     		movs	r0, #20
 2081 0702 FFF7FEFF 		bl	CyDelay
 2082              	.LVL288:
 2083              	.L89:
 337:funciones.c   ****             }
 338:funciones.c   ****             if(calib[i].patron3>100 || calib[i].patron3<1){
 2084              		.loc 1 338 0
 2085 0706 894B     		ldr	r3, .L109+12
 2086 0708 1C78     		ldrb	r4, [r3]	@ zero_extendqisi2
 2087 070a 04EB4402 		add	r2, r4, r4, lsl #1
 2088 070e 1301     		lsls	r3, r2, #4
 2089 0710 834A     		ldr	r2, .L109
 2090 0712 1344     		add	r3, r3, r2
 2091 0714 1D6A     		ldr	r5, [r3, #32]	@ float
 2092 0716 8349     		ldr	r1, .L109+4
 2093 0718 2846     		mov	r0, r5
 2094 071a FFF7FEFF 		bl	__aeabi_fcmpgt
 2095              	.LVL289:
 2096 071e 28B9     		cbnz	r0, .L91
 2097              		.loc 1 338 0 is_stmt 0 discriminator 1
 2098 0720 4FF07E51 		mov	r1, #1065353216
 2099 0724 2846     		mov	r0, r5
 2100 0726 FFF7FEFF 		bl	__aeabi_fcmplt
 2101              	.LVL290:
 2102 072a F0B1     		cbz	r0, .L92
 2103              	.L91:
 339:funciones.c   ****                 calib[i].patron3=80;EEPROM_WriteByte(80,68+(i*12));CyDelay(20);EEPROM_WriteByte(0,6
 2104              		.loc 1 339 0 is_stmt 1
 2105 072c 04EB4402 		add	r2, r4, r4, lsl #1
 2106 0730 1301     		lsls	r3, r2, #4
 2107 0732 7B4A     		ldr	r2, .L109
ARM GAS  C:\Users\USUARIO\AppData\Local\Temp\ccWuTYF0.s 			page 44


 2108 0734 1344     		add	r3, r3, r2
 2109 0736 7F4A     		ldr	r2, .L109+20
 2110 0738 1A62     		str	r2, [r3, #32]	@ float
 2111 073a 04EB4404 		add	r4, r4, r4, lsl #1
 2112 073e A100     		lsls	r1, r4, #2
 2113 0740 4431     		adds	r1, r1, #68
 2114 0742 89B2     		uxth	r1, r1
 2115 0744 5020     		movs	r0, #80
 2116 0746 FFF7FEFF 		bl	EEPROM_WriteByte
 2117              	.LVL291:
 2118 074a 1420     		movs	r0, #20
 2119 074c FFF7FEFF 		bl	CyDelay
 2120              	.LVL292:
 2121 0750 764B     		ldr	r3, .L109+12
 2122 0752 1B78     		ldrb	r3, [r3]	@ zero_extendqisi2
 2123 0754 03EB4303 		add	r3, r3, r3, lsl #1
 2124 0758 9900     		lsls	r1, r3, #2
 2125 075a 4531     		adds	r1, r1, #69
 2126 075c 89B2     		uxth	r1, r1
 2127 075e 0020     		movs	r0, #0
 2128 0760 FFF7FEFF 		bl	EEPROM_WriteByte
 2129              	.LVL293:
 2130 0764 1420     		movs	r0, #20
 2131 0766 FFF7FEFF 		bl	CyDelay
 2132              	.LVL294:
 2133              	.L92:
 340:funciones.c   ****             }
 341:funciones.c   ****             if(calib[i].control1>100 || calib[i].control1<1){
 2134              		.loc 1 341 0
 2135 076a 704B     		ldr	r3, .L109+12
 2136 076c 1C78     		ldrb	r4, [r3]	@ zero_extendqisi2
 2137 076e 04EB4402 		add	r2, r4, r4, lsl #1
 2138 0772 1301     		lsls	r3, r2, #4
 2139 0774 6A4A     		ldr	r2, .L109
 2140 0776 D558     		ldr	r5, [r2, r3]	@ float
 2141 0778 6A49     		ldr	r1, .L109+4
 2142 077a 2846     		mov	r0, r5
 2143 077c FFF7FEFF 		bl	__aeabi_fcmpgt
 2144              	.LVL295:
 2145 0780 28B9     		cbnz	r0, .L94
 2146              		.loc 1 341 0 is_stmt 0 discriminator 1
 2147 0782 4FF07E51 		mov	r1, #1065353216
 2148 0786 2846     		mov	r0, r5
 2149 0788 FFF7FEFF 		bl	__aeabi_fcmplt
 2150              	.LVL296:
 2151 078c E8B1     		cbz	r0, .L95
 2152              	.L94:
 342:funciones.c   ****                 calib[i].control1=10;EEPROM_WriteByte(10,70+(i*12));CyDelay(20);EEPROM_WriteByte(0,
 2153              		.loc 1 342 0 is_stmt 1
 2154 078e 04EB4402 		add	r2, r4, r4, lsl #1
 2155 0792 1301     		lsls	r3, r2, #4
 2156 0794 6449     		ldr	r1, .L109+8
 2157 0796 624A     		ldr	r2, .L109
 2158 0798 D150     		str	r1, [r2, r3]	@ float
 2159 079a 04EB4404 		add	r4, r4, r4, lsl #1
 2160 079e A100     		lsls	r1, r4, #2
 2161 07a0 4631     		adds	r1, r1, #70
ARM GAS  C:\Users\USUARIO\AppData\Local\Temp\ccWuTYF0.s 			page 45


 2162 07a2 89B2     		uxth	r1, r1
 2163 07a4 0A20     		movs	r0, #10
 2164 07a6 FFF7FEFF 		bl	EEPROM_WriteByte
 2165              	.LVL297:
 2166 07aa 1420     		movs	r0, #20
 2167 07ac FFF7FEFF 		bl	CyDelay
 2168              	.LVL298:
 2169 07b0 5E4B     		ldr	r3, .L109+12
 2170 07b2 1B78     		ldrb	r3, [r3]	@ zero_extendqisi2
 2171 07b4 03EB4303 		add	r3, r3, r3, lsl #1
 2172 07b8 9900     		lsls	r1, r3, #2
 2173 07ba 4731     		adds	r1, r1, #71
 2174 07bc 89B2     		uxth	r1, r1
 2175 07be 0020     		movs	r0, #0
 2176 07c0 FFF7FEFF 		bl	EEPROM_WriteByte
 2177              	.LVL299:
 2178 07c4 1420     		movs	r0, #20
 2179 07c6 FFF7FEFF 		bl	CyDelay
 2180              	.LVL300:
 2181              	.L95:
 343:funciones.c   ****             }
 344:funciones.c   ****             if(calib[i].control2>100 || calib[i].control2<1){
 2182              		.loc 1 344 0
 2183 07ca 584B     		ldr	r3, .L109+12
 2184 07cc 1C78     		ldrb	r4, [r3]	@ zero_extendqisi2
 2185 07ce 04EB4402 		add	r2, r4, r4, lsl #1
 2186 07d2 1301     		lsls	r3, r2, #4
 2187 07d4 524A     		ldr	r2, .L109
 2188 07d6 1344     		add	r3, r3, r2
 2189 07d8 5D68     		ldr	r5, [r3, #4]	@ float
 2190 07da 5249     		ldr	r1, .L109+4
 2191 07dc 2846     		mov	r0, r5
 2192 07de FFF7FEFF 		bl	__aeabi_fcmpgt
 2193              	.LVL301:
 2194 07e2 28B9     		cbnz	r0, .L97
 2195              		.loc 1 344 0 is_stmt 0 discriminator 1
 2196 07e4 4FF07E51 		mov	r1, #1065353216
 2197 07e8 2846     		mov	r0, r5
 2198 07ea FFF7FEFF 		bl	__aeabi_fcmplt
 2199              	.LVL302:
 2200 07ee F0B1     		cbz	r0, .L98
 2201              	.L97:
 345:funciones.c   ****                 calib[i].control2=40;EEPROM_WriteByte(40,72+(i*12));CyDelay(20);EEPROM_WriteByte(0,
 2202              		.loc 1 345 0 is_stmt 1
 2203 07f0 04EB4402 		add	r2, r4, r4, lsl #1
 2204 07f4 1301     		lsls	r3, r2, #4
 2205 07f6 4A4A     		ldr	r2, .L109
 2206 07f8 1344     		add	r3, r3, r2
 2207 07fa 4D4A     		ldr	r2, .L109+16
 2208 07fc 5A60     		str	r2, [r3, #4]	@ float
 2209 07fe 04EB4404 		add	r4, r4, r4, lsl #1
 2210 0802 A100     		lsls	r1, r4, #2
 2211 0804 4831     		adds	r1, r1, #72
 2212 0806 89B2     		uxth	r1, r1
 2213 0808 2820     		movs	r0, #40
 2214 080a FFF7FEFF 		bl	EEPROM_WriteByte
 2215              	.LVL303:
ARM GAS  C:\Users\USUARIO\AppData\Local\Temp\ccWuTYF0.s 			page 46


 2216 080e 1420     		movs	r0, #20
 2217 0810 FFF7FEFF 		bl	CyDelay
 2218              	.LVL304:
 2219 0814 454B     		ldr	r3, .L109+12
 2220 0816 1B78     		ldrb	r3, [r3]	@ zero_extendqisi2
 2221 0818 03EB4303 		add	r3, r3, r3, lsl #1
 2222 081c 9900     		lsls	r1, r3, #2
 2223 081e 4931     		adds	r1, r1, #73
 2224 0820 89B2     		uxth	r1, r1
 2225 0822 0020     		movs	r0, #0
 2226 0824 FFF7FEFF 		bl	EEPROM_WriteByte
 2227              	.LVL305:
 2228 0828 1420     		movs	r0, #20
 2229 082a FFF7FEFF 		bl	CyDelay
 2230              	.LVL306:
 2231              	.L98:
 346:funciones.c   ****             }
 347:funciones.c   ****             if(calib[i].control3>100 || calib[i].control3<1){
 2232              		.loc 1 347 0
 2233 082e 3F4B     		ldr	r3, .L109+12
 2234 0830 1C78     		ldrb	r4, [r3]	@ zero_extendqisi2
 2235 0832 04EB4402 		add	r2, r4, r4, lsl #1
 2236 0836 1301     		lsls	r3, r2, #4
 2237 0838 394A     		ldr	r2, .L109
 2238 083a 1344     		add	r3, r3, r2
 2239 083c 9D68     		ldr	r5, [r3, #8]	@ float
 2240 083e 3949     		ldr	r1, .L109+4
 2241 0840 2846     		mov	r0, r5
 2242 0842 FFF7FEFF 		bl	__aeabi_fcmpgt
 2243              	.LVL307:
 2244 0846 28B9     		cbnz	r0, .L100
 2245              		.loc 1 347 0 is_stmt 0 discriminator 1
 2246 0848 4FF07E51 		mov	r1, #1065353216
 2247 084c 2846     		mov	r0, r5
 2248 084e FFF7FEFF 		bl	__aeabi_fcmplt
 2249              	.LVL308:
 2250 0852 F0B1     		cbz	r0, .L83
 2251              	.L100:
 348:funciones.c   ****                 calib[i].control3=80;EEPROM_WriteByte(80,74+(i*12));CyDelay(20);EEPROM_WriteByte(0,
 2252              		.loc 1 348 0 is_stmt 1
 2253 0854 04EB4402 		add	r2, r4, r4, lsl #1
 2254 0858 1301     		lsls	r3, r2, #4
 2255 085a 314A     		ldr	r2, .L109
 2256 085c 1344     		add	r3, r3, r2
 2257 085e 354A     		ldr	r2, .L109+20
 2258 0860 9A60     		str	r2, [r3, #8]	@ float
 2259 0862 04EB4404 		add	r4, r4, r4, lsl #1
 2260 0866 A100     		lsls	r1, r4, #2
 2261 0868 4A31     		adds	r1, r1, #74
 2262 086a 89B2     		uxth	r1, r1
 2263 086c 5020     		movs	r0, #80
 2264 086e FFF7FEFF 		bl	EEPROM_WriteByte
 2265              	.LVL309:
 2266 0872 1420     		movs	r0, #20
 2267 0874 FFF7FEFF 		bl	CyDelay
 2268              	.LVL310:
 2269 0878 2C4B     		ldr	r3, .L109+12
ARM GAS  C:\Users\USUARIO\AppData\Local\Temp\ccWuTYF0.s 			page 47


 2270 087a 1B78     		ldrb	r3, [r3]	@ zero_extendqisi2
 2271 087c 03EB4303 		add	r3, r3, r3, lsl #1
 2272 0880 9900     		lsls	r1, r3, #2
 2273 0882 4B31     		adds	r1, r1, #75
 2274 0884 89B2     		uxth	r1, r1
 2275 0886 0020     		movs	r0, #0
 2276 0888 FFF7FEFF 		bl	EEPROM_WriteByte
 2277              	.LVL311:
 2278 088c 1420     		movs	r0, #20
 2279 088e FFF7FEFF 		bl	CyDelay
 2280              	.LVL312:
 2281              	.L83:
 349:funciones.c   ****             }   
 350:funciones.c   ****         }
 351:funciones.c   ****         calib[i].m1=(calib[i].control2-calib[i].control1)/(calib[i].patron2-calib[i].patron1);
 2282              		.loc 1 351 0 discriminator 2
 2283 0892 DFF89890 		ldr	r9, .L109+12
 2284 0896 99F80050 		ldrb	r5, [r9]	@ zero_extendqisi2
 2285 089a 214F     		ldr	r7, .L109
 2286 089c 6E00     		lsls	r6, r5, #1
 2287 089e 7219     		adds	r2, r6, r5
 2288 08a0 1301     		lsls	r3, r2, #4
 2289 08a2 FC18     		adds	r4, r7, r3
 2290 08a4 D4F804B0 		ldr	fp, [r4, #4]	@ float
 2291 08a8 F958     		ldr	r1, [r7, r3]	@ float
 2292 08aa 5846     		mov	r0, fp
 2293 08ac FFF7FEFF 		bl	__aeabi_fsub
 2294              	.LVL313:
 2295 08b0 8246     		mov	r10, r0
 2296 08b2 D4F81C80 		ldr	r8, [r4, #28]	@ float
 2297 08b6 A169     		ldr	r1, [r4, #24]	@ float
 2298 08b8 4046     		mov	r0, r8
 2299 08ba FFF7FEFF 		bl	__aeabi_fsub
 2300              	.LVL314:
 2301 08be 0146     		mov	r1, r0
 2302 08c0 5046     		mov	r0, r10
 2303 08c2 FFF7FEFF 		bl	__aeabi_fdiv
 2304              	.LVL315:
 2305 08c6 E060     		str	r0, [r4, #12]	@ float
 352:funciones.c   ****         calib[i].b1=calib[i].control2-(calib[i].m1*calib[i].patron2);
 2306              		.loc 1 352 0 discriminator 2
 2307 08c8 4146     		mov	r1, r8
 2308 08ca FFF7FEFF 		bl	__aeabi_fmul
 2309              	.LVL316:
 2310 08ce 0146     		mov	r1, r0
 2311 08d0 5846     		mov	r0, fp
 2312 08d2 FFF7FEFF 		bl	__aeabi_fsub
 2313              	.LVL317:
 2314 08d6 6062     		str	r0, [r4, #36]	@ float
 353:funciones.c   ****         calib[i].m2=(calib[i].control3-calib[i].control2)/(calib[i].patron3-calib[i].patron2);
 2315              		.loc 1 353 0 discriminator 2
 2316 08d8 D4F808A0 		ldr	r10, [r4, #8]	@ float
 2317 08dc 5946     		mov	r1, fp
 2318 08de 5046     		mov	r0, r10
 2319 08e0 FFF7FEFF 		bl	__aeabi_fsub
 2320              	.LVL318:
 2321 08e4 0190     		str	r0, [sp, #4]	@ float
ARM GAS  C:\Users\USUARIO\AppData\Local\Temp\ccWuTYF0.s 			page 48


 2322 08e6 D4F820B0 		ldr	fp, [r4, #32]	@ float
 2323 08ea 4146     		mov	r1, r8
 2324 08ec 5846     		mov	r0, fp
 2325 08ee FFF7FEFF 		bl	__aeabi_fsub
 2326              	.LVL319:
 2327 08f2 0146     		mov	r1, r0
 2328 08f4 0198     		ldr	r0, [sp, #4]	@ float
 2329 08f6 FFF7FEFF 		bl	__aeabi_fdiv
 2330              	.LVL320:
 2331 08fa 2061     		str	r0, [r4, #16]	@ float
 354:funciones.c   ****         calib[i].b2=calib[i].control3-(calib[i].m2*calib[i].patron3);
 2332              		.loc 1 354 0 discriminator 2
 2333 08fc 5946     		mov	r1, fp
 2334 08fe FFF7FEFF 		bl	__aeabi_fmul
 2335              	.LVL321:
 2336 0902 0146     		mov	r1, r0
 2337 0904 5046     		mov	r0, r10
 2338 0906 FFF7FEFF 		bl	__aeabi_fsub
 2339              	.LVL322:
 2340 090a A062     		str	r0, [r4, #40]	@ float
 311:funciones.c   ****         if(i<2){
 2341              		.loc 1 311 0 discriminator 2
 2342 090c 0135     		adds	r5, r5, #1
 2343 090e 89F80050 		strb	r5, [r9]
 2344              	.L65:
 311:funciones.c   ****         if(i<2){
 2345              		.loc 1 311 0 is_stmt 0 discriminator 1
 2346 0912 064B     		ldr	r3, .L109+12
 2347 0914 1C78     		ldrb	r4, [r3]	@ zero_extendqisi2
 2348 0916 022C     		cmp	r4, #2
 2349 0918 7FF654AD 		bls	.L102
 2350 091c 0CE0     		b	.L110
 2351              	.L111:
 2352 091e 00BF     		.align	2
 2353              	.L109:
 2354 0920 00000000 		.word	calib
 2355 0924 0000C842 		.word	1120403456
 2356 0928 00002041 		.word	1092616192
 2357 092c 00000000 		.word	i
 2358 0930 00002042 		.word	1109393408
 2359 0934 0000A042 		.word	1117782016
 2360              	.L110:
 355:funciones.c   ****     }   
 356:funciones.c   **** }
 2361              		.loc 1 356 0 is_stmt 1
 2362 0938 03B0     		add	sp, sp, #12
 2363              		.cfi_def_cfa_offset 36
 2364              		@ sp needed
 2365 093a BDE8F08F 		pop	{r4, r5, r6, r7, r8, r9, r10, fp, pc}
 2366              		.cfi_endproc
 2367              	.LFE70:
 2368              		.size	LimitaValores, .-LimitaValores
 2369 093e 00BF     		.section	.text.ActualizaRecta,"ax",%progbits
 2370              		.align	2
 2371              		.global	ActualizaRecta
 2372              		.thumb
 2373              		.thumb_func
ARM GAS  C:\Users\USUARIO\AppData\Local\Temp\ccWuTYF0.s 			page 49


 2374              		.type	ActualizaRecta, %function
 2375              	ActualizaRecta:
 2376              	.LFB71:
 357:funciones.c   **** 
 358:funciones.c   **** void ActualizaRecta(){
 2377              		.loc 1 358 0
 2378              		.cfi_startproc
 2379              		@ args = 0, pretend = 0, frame = 0
 2380              		@ frame_needed = 0, uses_anonymous_args = 0
 2381 0000 70B5     		push	{r4, r5, r6, lr}
 2382              		.cfi_def_cfa_offset 16
 2383              		.cfi_offset 4, -16
 2384              		.cfi_offset 5, -12
 2385              		.cfi_offset 6, -8
 2386              		.cfi_offset 14, -4
 359:funciones.c   ****    X[y]=Temperatura;
 2387              		.loc 1 359 0
 2388 0002 2649     		ldr	r1, .L115
 2389 0004 0B78     		ldrb	r3, [r1]	@ zero_extendqisi2
 2390 0006 264A     		ldr	r2, .L115+4
 2391 0008 1468     		ldr	r4, [r2]	@ float
 2392 000a 264A     		ldr	r2, .L115+8
 2393 000c 02EB8302 		add	r2, r2, r3, lsl #2
 2394 0010 9460     		str	r4, [r2, #8]	@ float
 360:funciones.c   ****    y++;
 2395              		.loc 1 360 0
 2396 0012 0133     		adds	r3, r3, #1
 2397 0014 DBB2     		uxtb	r3, r3
 2398 0016 0B70     		strb	r3, [r1]
 361:funciones.c   ****    if(y>=2){
 2399              		.loc 1 361 0
 2400 0018 012B     		cmp	r3, #1
 2401 001a 3DD9     		bls	.L112
 362:funciones.c   ****       y=0;
 2402              		.loc 1 362 0
 2403 001c 0022     		movs	r2, #0
 2404 001e 0A70     		strb	r2, [r1]
 363:funciones.c   ****       Aumento=X[1]-X[0];
 2405              		.loc 1 363 0
 2406 0020 204B     		ldr	r3, .L115+8
 2407 0022 9968     		ldr	r1, [r3, #8]	@ float
 2408 0024 D868     		ldr	r0, [r3, #12]	@ float
 2409 0026 FFF7FEFF 		bl	__aeabi_fsub
 2410              	.LVL323:
 2411 002a 0546     		mov	r5, r0
 2412 002c 1E4B     		ldr	r3, .L115+12
 2413 002e 1860     		str	r0, [r3]	@ float
 364:funciones.c   ****       HorasActual=hEst;
 2414              		.loc 1 364 0
 2415 0030 1E4B     		ldr	r3, .L115+16
 2416 0032 1A78     		ldrb	r2, [r3]	@ zero_extendqisi2
 2417 0034 1E4B     		ldr	r3, .L115+20
 2418 0036 1A80     		strh	r2, [r3]	@ movhi
 365:funciones.c   ****       MinutosActual=mEst;
 2419              		.loc 1 365 0
 2420 0038 1E4B     		ldr	r3, .L115+24
 2421 003a 1B78     		ldrb	r3, [r3]	@ zero_extendqisi2
ARM GAS  C:\Users\USUARIO\AppData\Local\Temp\ccWuTYF0.s 			page 50


 2422 003c 1E49     		ldr	r1, .L115+28
 2423 003e 0B80     		strh	r3, [r1]	@ movhi
 366:funciones.c   ****       TiempoActual=Tiempo-((HorasActual*3600)+(MinutosActual*60)+tinicio);
 2424              		.loc 1 366 0
 2425 0040 C2EB0212 		rsb	r2, r2, r2, lsl #4
 2426 0044 C2EB0212 		rsb	r2, r2, r2, lsl #4
 2427 0048 C3EB0313 		rsb	r3, r3, r3, lsl #4
 2428 004c 9B00     		lsls	r3, r3, #2
 2429 004e 03EB0213 		add	r3, r3, r2, lsl #4
 2430 0052 1A4A     		ldr	r2, .L115+32
 2431 0054 1688     		ldrh	r6, [r2]
 2432 0056 1E44     		add	r6, r6, r3
 2433 0058 194B     		ldr	r3, .L115+36
 2434 005a 1A88     		ldrh	r2, [r3]
 2435 005c 961B     		subs	r6, r2, r6
 2436 005e B6B2     		uxth	r6, r6
 2437 0060 184B     		ldr	r3, .L115+40
 2438 0062 1E80     		strh	r6, [r3]	@ movhi
 367:funciones.c   ****       PendienteActual=((Setpoint-Temperatura)/TiempoActual);
 2439              		.loc 1 367 0
 2440 0064 2146     		mov	r1, r4
 2441 0066 184B     		ldr	r3, .L115+44
 2442 0068 1868     		ldr	r0, [r3]	@ float
 2443 006a FFF7FEFF 		bl	__aeabi_fsub
 2444              	.LVL324:
 2445 006e 0446     		mov	r4, r0
 2446 0070 3046     		mov	r0, r6
 2447 0072 FFF7FEFF 		bl	__aeabi_i2f
 2448              	.LVL325:
 2449 0076 0146     		mov	r1, r0
 2450 0078 2046     		mov	r0, r4
 2451 007a FFF7FEFF 		bl	__aeabi_fdiv
 2452              	.LVL326:
 2453 007e 134B     		ldr	r3, .L115+48
 2454 0080 1860     		str	r0, [r3]	@ float
 368:funciones.c   ****       DifPendiente=(PendienteActual*20)-Aumento;
 2455              		.loc 1 368 0
 2456 0082 1349     		ldr	r1, .L115+52
 2457 0084 FFF7FEFF 		bl	__aeabi_fmul
 2458              	.LVL327:
 2459 0088 2946     		mov	r1, r5
 2460 008a FFF7FEFF 		bl	__aeabi_fsub
 2461              	.LVL328:
 369:funciones.c   ****       DifPendiente=DifPendiente*5;
 2462              		.loc 1 369 0
 2463 008e 1149     		ldr	r1, .L115+56
 2464 0090 FFF7FEFF 		bl	__aeabi_fmul
 2465              	.LVL329:
 2466 0094 104B     		ldr	r3, .L115+60
 2467 0096 1860     		str	r0, [r3]	@ float
 2468              	.L112:
 2469 0098 70BD     		pop	{r4, r5, r6, pc}
 2470              	.L116:
 2471 009a 00BF     		.align	2
 2472              	.L115:
 2473 009c 00000000 		.word	y
 2474 00a0 00000000 		.word	Temperatura
ARM GAS  C:\Users\USUARIO\AppData\Local\Temp\ccWuTYF0.s 			page 51


 2475 00a4 00000000 		.word	.LANCHOR0
 2476 00a8 00000000 		.word	Aumento
 2477 00ac 00000000 		.word	hEst
 2478 00b0 00000000 		.word	HorasActual
 2479 00b4 00000000 		.word	mEst
 2480 00b8 00000000 		.word	MinutosActual
 2481 00bc 00000000 		.word	tinicio
 2482 00c0 00000000 		.word	Tiempo
 2483 00c4 00000000 		.word	TiempoActual
 2484 00c8 00000000 		.word	Setpoint
 2485 00cc 00000000 		.word	PendienteActual
 2486 00d0 0000A041 		.word	1101004800
 2487 00d4 0000A040 		.word	1084227584
 2488 00d8 00000000 		.word	DifPendiente
 2489              		.cfi_endproc
 2490              	.LFE71:
 2491              		.size	ActualizaRecta, .-ActualizaRecta
 2492              		.global	__aeabi_fcmpeq
 2493              		.global	__aeabi_dsub
 2494              		.global	__aeabi_d2f
 2495              		.global	__aeabi_dcmpgt
 2496              		.global	__aeabi_i2d
 2497              		.global	__aeabi_dmul
 2498              		.global	__aeabi_dadd
 2499              		.global	__aeabi_fcmpge
 2500              		.global	__aeabi_dcmple
 2501              		.global	__aeabi_fcmple
 2502              		.section	.text.Controla,"ax",%progbits
 2503              		.align	2
 2504              		.global	Controla
 2505              		.thumb
 2506              		.thumb_func
 2507              		.type	Controla, %function
 2508              	Controla:
 2509              	.LFB72:
 370:funciones.c   ****    }
 371:funciones.c   **** }
 372:funciones.c   **** 
 373:funciones.c   **** void Controla(){
 2510              		.loc 1 373 0
 2511              		.cfi_startproc
 2512              		@ args = 0, pretend = 0, frame = 0
 2513              		@ frame_needed = 0, uses_anonymous_args = 0
 2514 0000 2DE9F843 		push	{r3, r4, r5, r6, r7, r8, r9, lr}
 2515              		.cfi_def_cfa_offset 32
 2516              		.cfi_offset 3, -32
 2517              		.cfi_offset 4, -28
 2518              		.cfi_offset 5, -24
 2519              		.cfi_offset 6, -20
 2520              		.cfi_offset 7, -16
 2521              		.cfi_offset 8, -12
 2522              		.cfi_offset 9, -8
 2523              		.cfi_offset 14, -4
 2524              	.LVL330:
 374:funciones.c   **** //-------------------------------Control de Calentamiento------------------------------------------
 375:funciones.c   ****    float tmp=0.0;
 376:funciones.c   ****      if(!flagRampa){
ARM GAS  C:\Users\USUARIO\AppData\Local\Temp\ccWuTYF0.s 			page 52


 2525              		.loc 1 376 0
 2526 0004 974B     		ldr	r3, .L261
 2527 0006 B3F90030 		ldrsh	r3, [r3]
 2528 000a 5BB9     		cbnz	r3, .L118
 377:funciones.c   ****         if(tiemporecta>=Derivativo){
 2529              		.loc 1 377 0
 2530 000c 964B     		ldr	r3, .L261+4
 2531 000e 1A78     		ldrb	r2, [r3]	@ zero_extendqisi2
 2532 0010 964B     		ldr	r3, .L261+8
 2533 0012 1B88     		ldrh	r3, [r3]
 2534 0014 9A42     		cmp	r2, r3
 2535 0016 0ED8     		bhi	.L119
 378:funciones.c   ****             ActualizaRecta();
 2536              		.loc 1 378 0
 2537 0018 FFF7FEFF 		bl	ActualizaRecta
 2538              	.LVL331:
 379:funciones.c   ****             tiemporecta=0;
 2539              		.loc 1 379 0
 2540 001c 0022     		movs	r2, #0
 2541 001e 934B     		ldr	r3, .L261+8
 2542 0020 1A80     		strh	r2, [r3]	@ movhi
 2543 0022 08E0     		b	.L119
 2544              	.L118:
 380:funciones.c   ****         } 
 381:funciones.c   ****     }else{
 382:funciones.c   ****         if(tiemporecta>=10){
 2545              		.loc 1 382 0
 2546 0024 914B     		ldr	r3, .L261+8
 2547 0026 1B88     		ldrh	r3, [r3]
 2548 0028 092B     		cmp	r3, #9
 2549 002a 04D9     		bls	.L119
 383:funciones.c   ****             ActualizaRecta();
 2550              		.loc 1 383 0
 2551 002c FFF7FEFF 		bl	ActualizaRecta
 2552              	.LVL332:
 384:funciones.c   ****             tiemporecta=0;
 2553              		.loc 1 384 0
 2554 0030 0022     		movs	r2, #0
 2555 0032 8E4B     		ldr	r3, .L261+8
 2556 0034 1A80     		strh	r2, [r3]	@ movhi
 2557              	.L119:
 385:funciones.c   ****         }
 386:funciones.c   ****     }
 387:funciones.c   ****     
 388:funciones.c   ****     CR6_Write(0); // activa Ventiladores de Celda de Peltier
 2558              		.loc 1 388 0
 2559 0036 0020     		movs	r0, #0
 2560 0038 FFF7FEFF 		bl	CR6_Write
 2561              	.LVL333:
 389:funciones.c   ****     
 390:funciones.c   ****     if(flagRampa){
 2562              		.loc 1 390 0
 2563 003c 894B     		ldr	r3, .L261
 2564 003e B3F90050 		ldrsh	r5, [r3]
 2565 0042 002D     		cmp	r5, #0
 2566 0044 00F09280 		beq	.L120
 391:funciones.c   ****       if(Segmento==0){
ARM GAS  C:\Users\USUARIO\AppData\Local\Temp\ccWuTYF0.s 			page 53


 2567              		.loc 1 391 0
 2568 0048 894B     		ldr	r3, .L261+12
 2569 004a 1B78     		ldrb	r3, [r3]	@ zero_extendqisi2
 2570 004c 002B     		cmp	r3, #0
 2571 004e 45D1     		bne	.L121
 392:funciones.c   ****          if(flag_calcula==0){
 2572              		.loc 1 392 0
 2573 0050 884A     		ldr	r2, .L261+16
 2574 0052 B2F90020 		ldrsh	r2, [r2]
 2575 0056 002A     		cmp	r2, #0
 2576 0058 40F08880 		bne	.L120
 393:funciones.c   ****             Tiempo=(rampas[0].Horas*3600)+(rampas[0].Minutos*60);         
 2577              		.loc 1 393 0
 2578 005c 8648     		ldr	r0, .L261+20
 2579 005e 8678     		ldrb	r6, [r0, #2]	@ zero_extendqisi2
 2580 0060 C478     		ldrb	r4, [r0, #3]	@ zero_extendqisi2
 2581 0062 C6EB0612 		rsb	r2, r6, r6, lsl #4
 2582 0066 C2EB0212 		rsb	r2, r2, r2, lsl #4
 2583 006a 1701     		lsls	r7, r2, #4
 2584 006c C4EB0412 		rsb	r2, r4, r4, lsl #4
 2585 0070 9100     		lsls	r1, r2, #2
 2586 0072 3944     		add	r1, r1, r7
 2587 0074 8FB2     		uxth	r7, r1
 2588 0076 814A     		ldr	r2, .L261+24
 2589 0078 1780     		strh	r7, [r2]	@ movhi
 394:funciones.c   ****             Setpoint=rampas[0].Temperatura;
 2590              		.loc 1 394 0
 2591 007a D0F80880 		ldr	r8, [r0, #8]	@ float
 2592 007e 804A     		ldr	r2, .L261+28
 2593 0080 C2F80080 		str	r8, [r2]	@ float
 395:funciones.c   ****             SetpointH=rampas[Segmento].Humedad;
 2594              		.loc 1 395 0
 2595 0084 03EB4303 		add	r3, r3, r3, lsl #1
 2596 0088 9A00     		lsls	r2, r3, #2
 2597 008a 0244     		add	r2, r2, r0
 2598 008c 1279     		ldrb	r2, [r2, #4]	@ zero_extendqisi2
 2599 008e 7D4B     		ldr	r3, .L261+32
 2600 0090 1A80     		strh	r2, [r3]	@ movhi
 396:funciones.c   ****             Pendiente=(((float)Setpoint-TempeInicial)/(float)Tiempo);
 2601              		.loc 1 396 0
 2602 0092 7D4B     		ldr	r3, .L261+36
 2603 0094 1968     		ldr	r1, [r3]	@ float
 2604 0096 4046     		mov	r0, r8
 2605 0098 FFF7FEFF 		bl	__aeabi_fsub
 2606              	.LVL334:
 2607 009c 8146     		mov	r9, r0
 2608 009e 3846     		mov	r0, r7
 2609 00a0 FFF7FEFF 		bl	__aeabi_ui2f
 2610              	.LVL335:
 2611 00a4 0146     		mov	r1, r0
 2612 00a6 4846     		mov	r0, r9
 2613 00a8 FFF7FEFF 		bl	__aeabi_fdiv
 2614              	.LVL336:
 2615 00ac 774B     		ldr	r3, .L261+40
 2616 00ae 1860     		str	r0, [r3]	@ float
 397:funciones.c   ****             hEstp=rampas[0].Horas;
 2617              		.loc 1 397 0
ARM GAS  C:\Users\USUARIO\AppData\Local\Temp\ccWuTYF0.s 			page 54


 2618 00b0 774B     		ldr	r3, .L261+44
 2619 00b2 1E70     		strb	r6, [r3]
 398:funciones.c   ****             mEstp=rampas[0].Minutos;
 2620              		.loc 1 398 0
 2621 00b4 774B     		ldr	r3, .L261+48
 2622 00b6 1C70     		strb	r4, [r3]
 399:funciones.c   ****             flag_calcula=1;
 2623              		.loc 1 399 0
 2624 00b8 0122     		movs	r2, #1
 2625 00ba 6E4B     		ldr	r3, .L261+16
 2626 00bc 1A80     		strh	r2, [r3]	@ movhi
 400:funciones.c   ****             Ganancia=GananciaR*(Setpoint/200);
 2627              		.loc 1 400 0
 2628 00be 7649     		ldr	r1, .L261+52
 2629 00c0 4046     		mov	r0, r8
 2630 00c2 FFF7FEFF 		bl	__aeabi_fdiv
 2631              	.LVL337:
 2632 00c6 0446     		mov	r4, r0
 2633 00c8 744B     		ldr	r3, .L261+56
 2634 00ca 1878     		ldrb	r0, [r3]	@ zero_extendqisi2
 2635 00cc FFF7FEFF 		bl	__aeabi_i2f
 2636              	.LVL338:
 2637 00d0 2146     		mov	r1, r4
 2638 00d2 FFF7FEFF 		bl	__aeabi_fmul
 2639              	.LVL339:
 2640 00d6 724B     		ldr	r3, .L261+60
 2641 00d8 1860     		str	r0, [r3]	@ float
 2642 00da 47E0     		b	.L120
 2643              	.L121:
 401:funciones.c   ****          }
 402:funciones.c   ****       }else{
 403:funciones.c   ****          if(flag_calcula==0){
 2644              		.loc 1 403 0
 2645 00dc 654A     		ldr	r2, .L261+16
 2646 00de B2F90020 		ldrsh	r2, [r2]
 2647 00e2 002A     		cmp	r2, #0
 2648 00e4 42D1     		bne	.L120
 404:funciones.c   ****             Tiempo=(rampas[Segmento].Horas*3600)+(rampas[Segmento].Minutos*60);         
 2649              		.loc 1 404 0
 2650 00e6 6448     		ldr	r0, .L261+20
 2651 00e8 5900     		lsls	r1, r3, #1
 2652 00ea 1944     		add	r1, r1, r3
 2653 00ec 8A00     		lsls	r2, r1, #2
 2654 00ee 0244     		add	r2, r2, r0
 2655 00f0 92F80280 		ldrb	r8, [r2, #2]	@ zero_extendqisi2
 2656 00f4 D778     		ldrb	r7, [r2, #3]	@ zero_extendqisi2
 2657 00f6 C8EB0811 		rsb	r1, r8, r8, lsl #4
 2658 00fa C1EB0111 		rsb	r1, r1, r1, lsl #4
 2659 00fe 0C01     		lsls	r4, r1, #4
 2660 0100 C7EB0716 		rsb	r6, r7, r7, lsl #4
 2661 0104 B100     		lsls	r1, r6, #2
 2662 0106 0C44     		add	r4, r4, r1
 2663 0108 A4B2     		uxth	r4, r4
 2664 010a 5C49     		ldr	r1, .L261+24
 2665 010c 0C80     		strh	r4, [r1]	@ movhi
 405:funciones.c   ****             Setpoint=rampas[Segmento].Temperatura;
 2666              		.loc 1 405 0
ARM GAS  C:\Users\USUARIO\AppData\Local\Temp\ccWuTYF0.s 			page 55


 2667 010e 9668     		ldr	r6, [r2, #8]	@ float
 2668 0110 5B49     		ldr	r1, .L261+28
 2669 0112 0E60     		str	r6, [r1]	@ float
 406:funciones.c   ****             SetpointH=rampas[Segmento].Humedad;
 2670              		.loc 1 406 0
 2671 0114 1179     		ldrb	r1, [r2, #4]	@ zero_extendqisi2
 2672 0116 5B4A     		ldr	r2, .L261+32
 2673 0118 1180     		strh	r1, [r2]	@ movhi
 407:funciones.c   ****             Pendiente=(((float)rampas[Segmento].Temperatura-(float)rampas[Segmento-1].Temperatura)/
 2674              		.loc 1 407 0
 2675 011a 013B     		subs	r3, r3, #1
 2676 011c 03EB4303 		add	r3, r3, r3, lsl #1
 2677 0120 9A00     		lsls	r2, r3, #2
 2678 0122 0244     		add	r2, r2, r0
 2679 0124 9168     		ldr	r1, [r2, #8]	@ float
 2680 0126 3046     		mov	r0, r6
 2681 0128 FFF7FEFF 		bl	__aeabi_fsub
 2682              	.LVL340:
 2683 012c 8146     		mov	r9, r0
 2684 012e 2046     		mov	r0, r4
 2685 0130 FFF7FEFF 		bl	__aeabi_ui2f
 2686              	.LVL341:
 2687 0134 0146     		mov	r1, r0
 2688 0136 4846     		mov	r0, r9
 2689 0138 FFF7FEFF 		bl	__aeabi_fdiv
 2690              	.LVL342:
 2691 013c 534B     		ldr	r3, .L261+40
 2692 013e 1860     		str	r0, [r3]	@ float
 408:funciones.c   ****             hEstp=rampas[Segmento].Horas;
 2693              		.loc 1 408 0
 2694 0140 534B     		ldr	r3, .L261+44
 2695 0142 83F80080 		strb	r8, [r3]
 409:funciones.c   ****             mEstp=rampas[Segmento].Minutos;
 2696              		.loc 1 409 0
 2697 0146 534B     		ldr	r3, .L261+48
 2698 0148 1F70     		strb	r7, [r3]
 410:funciones.c   ****             flag_calcula=1;
 2699              		.loc 1 410 0
 2700 014a 0122     		movs	r2, #1
 2701 014c 494B     		ldr	r3, .L261+16
 2702 014e 1A80     		strh	r2, [r3]	@ movhi
 411:funciones.c   ****             Ganancia=GananciaR*(Setpoint/200);
 2703              		.loc 1 411 0
 2704 0150 5149     		ldr	r1, .L261+52
 2705 0152 3046     		mov	r0, r6
 2706 0154 FFF7FEFF 		bl	__aeabi_fdiv
 2707              	.LVL343:
 2708 0158 0446     		mov	r4, r0
 2709 015a 504B     		ldr	r3, .L261+56
 2710 015c 1878     		ldrb	r0, [r3]	@ zero_extendqisi2
 2711 015e FFF7FEFF 		bl	__aeabi_i2f
 2712              	.LVL344:
 2713 0162 2146     		mov	r1, r4
 2714 0164 FFF7FEFF 		bl	__aeabi_fmul
 2715              	.LVL345:
 2716 0168 4D4B     		ldr	r3, .L261+60
 2717 016a 1860     		str	r0, [r3]	@ float
ARM GAS  C:\Users\USUARIO\AppData\Local\Temp\ccWuTYF0.s 			page 56


 2718              	.L120:
 412:funciones.c   ****          }
 413:funciones.c   ****       }
 414:funciones.c   ****     }
 415:funciones.c   ****    
 416:funciones.c   ****   
 417:funciones.c   ****    if(Pendiente!=0 && flagRampa){// Si Esta realizando una Rampa debe realizar el control de acuerd
 2719              		.loc 1 417 0
 2720 016c 474B     		ldr	r3, .L261+40
 2721 016e 1C68     		ldr	r4, [r3]	@ float
 2722 0170 0021     		movs	r1, #0
 2723 0172 2046     		mov	r0, r4
 2724 0174 FFF7FEFF 		bl	__aeabi_fcmpeq
 2725              	.LVL346:
 2726 0178 0028     		cmp	r0, #0
 2727 017a 40F00081 		bne	.L122
 2728              		.loc 1 417 0 is_stmt 0 discriminator 1
 2729 017e 002D     		cmp	r5, #0
 2730 0180 00F0FD80 		beq	.L122
 418:funciones.c   ****       
 419:funciones.c   ****       TiempoRampa=((hEst*3600)+(mEst*60)+tinicio);
 2731              		.loc 1 419 0 is_stmt 1
 2732 0184 474B     		ldr	r3, .L261+64
 2733 0186 1B78     		ldrb	r3, [r3]	@ zero_extendqisi2
 2734 0188 C3EB0313 		rsb	r3, r3, r3, lsl #4
 2735 018c C3EB0313 		rsb	r3, r3, r3, lsl #4
 2736 0190 1801     		lsls	r0, r3, #4
 2737 0192 454B     		ldr	r3, .L261+68
 2738 0194 1B78     		ldrb	r3, [r3]	@ zero_extendqisi2
 2739 0196 C3EB0313 		rsb	r3, r3, r3, lsl #4
 2740 019a 9A00     		lsls	r2, r3, #2
 2741 019c 1044     		add	r0, r0, r2
 2742 019e 434B     		ldr	r3, .L261+72
 2743 01a0 1B88     		ldrh	r3, [r3]
 2744 01a2 1844     		add	r0, r0, r3
 2745 01a4 80B2     		uxth	r0, r0
 2746 01a6 424B     		ldr	r3, .L261+76
 2747 01a8 1880     		strh	r0, [r3]	@ movhi
 420:funciones.c   ****       if(Segmento==0){
 2748              		.loc 1 420 0
 2749 01aa 314B     		ldr	r3, .L261+12
 2750 01ac 1D78     		ldrb	r5, [r3]	@ zero_extendqisi2
 2751 01ae 5DB9     		cbnz	r5, .L124
 421:funciones.c   ****          TemperaturaIdeal=(Pendiente*TiempoRampa)+TempeInicial;
 2752              		.loc 1 421 0
 2753 01b0 FFF7FEFF 		bl	__aeabi_i2f
 2754              	.LVL347:
 2755 01b4 2146     		mov	r1, r4
 2756 01b6 FFF7FEFF 		bl	__aeabi_fmul
 2757              	.LVL348:
 2758 01ba 334B     		ldr	r3, .L261+36
 2759 01bc 1968     		ldr	r1, [r3]	@ float
 2760 01be FFF7FEFF 		bl	__aeabi_fadd
 2761              	.LVL349:
 2762 01c2 3C4B     		ldr	r3, .L261+80
 2763 01c4 1860     		str	r0, [r3]	@ float
 2764 01c6 0FE0     		b	.L125
ARM GAS  C:\Users\USUARIO\AppData\Local\Temp\ccWuTYF0.s 			page 57


 2765              	.L124:
 422:funciones.c   ****       }else{
 423:funciones.c   ****          TemperaturaIdeal=(Pendiente*TiempoRampa)+rampas[Segmento-1].Temperatura;
 2766              		.loc 1 423 0
 2767 01c8 FFF7FEFF 		bl	__aeabi_i2f
 2768              	.LVL350:
 2769 01cc 2146     		mov	r1, r4
 2770 01ce FFF7FEFF 		bl	__aeabi_fmul
 2771              	.LVL351:
 2772 01d2 013D     		subs	r5, r5, #1
 2773 01d4 05EB4505 		add	r5, r5, r5, lsl #1
 2774 01d8 AB00     		lsls	r3, r5, #2
 2775 01da 274A     		ldr	r2, .L261+20
 2776 01dc 1344     		add	r3, r3, r2
 2777 01de 9968     		ldr	r1, [r3, #8]	@ float
 2778 01e0 FFF7FEFF 		bl	__aeabi_fadd
 2779              	.LVL352:
 2780 01e4 334B     		ldr	r3, .L261+80
 2781 01e6 1860     		str	r0, [r3]	@ float
 2782              	.L125:
 424:funciones.c   ****       }
 425:funciones.c   ****       PotenciaEntregada=((TemperaturaIdeal-Temperatura)*100)/penMufla;
 2783              		.loc 1 425 0
 2784 01e8 334B     		ldr	r3, .L261+84
 2785 01ea 1968     		ldr	r1, [r3]	@ float
 2786 01ec 314B     		ldr	r3, .L261+80
 2787 01ee 1868     		ldr	r0, [r3]	@ float
 2788 01f0 FFF7FEFF 		bl	__aeabi_fsub
 2789              	.LVL353:
 2790 01f4 3149     		ldr	r1, .L261+88
 2791 01f6 FFF7FEFF 		bl	__aeabi_fmul
 2792              	.LVL354:
 2793 01fa 314B     		ldr	r3, .L261+92
 2794 01fc 1968     		ldr	r1, [r3]	@ float
 2795 01fe FFF7FEFF 		bl	__aeabi_fdiv
 2796              	.LVL355:
 2797 0202 0546     		mov	r5, r0
 2798 0204 2F4B     		ldr	r3, .L261+96
 2799 0206 1860     		str	r0, [r3]	@ float
 426:funciones.c   **** // Pendiente determinar si el comportamiento de la mufla es lineal 10C/min o si tiene un comporta
 427:funciones.c   ****       if(Pendiente<0){
 2800              		.loc 1 427 0
 2801 0208 0021     		movs	r1, #0
 2802 020a 2046     		mov	r0, r4
 2803 020c FFF7FEFF 		bl	__aeabi_fcmplt
 2804              	.LVL356:
 2805 0210 0028     		cmp	r0, #0
 2806 0212 5BD0     		beq	.L250
 428:funciones.c   ****          if(PotenciaEntregada<0 && PotenciaEntregada>-100.0){
 2807              		.loc 1 428 0
 2808 0214 0021     		movs	r1, #0
 2809 0216 2846     		mov	r0, r5
 2810 0218 FFF7FEFF 		bl	__aeabi_fcmplt
 2811              	.LVL357:
 2812 021c 78B1     		cbz	r0, .L128
 2813              		.loc 1 428 0 is_stmt 0 discriminator 1
 2814 021e 2A49     		ldr	r1, .L261+100
ARM GAS  C:\Users\USUARIO\AppData\Local\Temp\ccWuTYF0.s 			page 58


 2815 0220 2846     		mov	r0, r5
 2816 0222 FFF7FEFF 		bl	__aeabi_fcmpgt
 2817              	.LVL358:
 2818 0226 50B1     		cbz	r0, .L128
 429:funciones.c   ****             if(PotenciaEntregada<0)
 2819              		.loc 1 429 0 is_stmt 1
 2820 0228 0021     		movs	r1, #0
 2821 022a 2846     		mov	r0, r5
 2822 022c FFF7FEFF 		bl	__aeabi_fcmplt
 2823              	.LVL359:
 2824 0230 0028     		cmp	r0, #0
 2825 0232 5CD0     		beq	.L131
 430:funciones.c   ****                 PotenciaEntregada=PotenciaEntregada*-1;
 2826              		.loc 1 430 0
 2827 0234 05F10045 		add	r5, r5, #-2147483648
 2828 0238 224B     		ldr	r3, .L261+96
 2829 023a 1D60     		str	r5, [r3]	@ float
 2830 023c 57E0     		b	.L131
 2831              	.L128:
 431:funciones.c   ****          }else if(PotenciaEntregada<-100.0){
 2832              		.loc 1 431 0
 2833 023e 2249     		ldr	r1, .L261+100
 2834 0240 2846     		mov	r0, r5
 2835 0242 FFF7FEFF 		bl	__aeabi_fcmplt
 2836              	.LVL360:
 2837 0246 18B1     		cbz	r0, .L251
 432:funciones.c   ****             PotenciaEntregada=100.0;
 2838              		.loc 1 432 0
 2839 0248 1C4A     		ldr	r2, .L261+88
 2840 024a 1E4B     		ldr	r3, .L261+96
 2841 024c 1A60     		str	r2, [r3]	@ float
 2842 024e 4EE0     		b	.L131
 2843              	.L251:
 433:funciones.c   ****          }else if(PotenciaEntregada>0){
 2844              		.loc 1 433 0
 2845 0250 0021     		movs	r1, #0
 2846 0252 2846     		mov	r0, r5
 2847 0254 FFF7FEFF 		bl	__aeabi_fcmpgt
 2848              	.LVL361:
 2849 0258 0028     		cmp	r0, #0
 2850 025a 48D0     		beq	.L131
 434:funciones.c   ****             PotenciaEntregada=0; 
 2851              		.loc 1 434 0
 2852 025c 0022     		movs	r2, #0
 2853 025e 194B     		ldr	r3, .L261+96
 2854 0260 1A60     		str	r2, [r3]	@ float
 2855 0262 44E0     		b	.L131
 2856              	.L262:
 2857              		.align	2
 2858              	.L261:
 2859 0264 00000000 		.word	flagRampa
 2860 0268 00000000 		.word	Derivativo
 2861 026c 00000000 		.word	tiemporecta
 2862 0270 00000000 		.word	Segmento
 2863 0274 00000000 		.word	flag_calcula
 2864 0278 00000000 		.word	rampas
 2865 027c 00000000 		.word	Tiempo
ARM GAS  C:\Users\USUARIO\AppData\Local\Temp\ccWuTYF0.s 			page 59


 2866 0280 00000000 		.word	Setpoint
 2867 0284 00000000 		.word	SetpointH
 2868 0288 00000000 		.word	TempeInicial
 2869 028c 00000000 		.word	Pendiente
 2870 0290 00000000 		.word	hEstp
 2871 0294 00000000 		.word	mEstp
 2872 0298 00004843 		.word	1128792064
 2873 029c 00000000 		.word	GananciaR
 2874 02a0 00000000 		.word	Ganancia
 2875 02a4 00000000 		.word	hEst
 2876 02a8 00000000 		.word	mEst
 2877 02ac 00000000 		.word	tinicio
 2878 02b0 00000000 		.word	TiempoRampa
 2879 02b4 00000000 		.word	TemperaturaIdeal
 2880 02b8 00000000 		.word	Temperatura
 2881 02bc 0000C842 		.word	1120403456
 2882 02c0 00000000 		.word	.LANCHOR1
 2883 02c4 00000000 		.word	PotenciaEntregada
 2884 02c8 0000C8C2 		.word	-1027080192
 2885              	.L250:
 435:funciones.c   ****          }
 436:funciones.c   ****       }else{
 437:funciones.c   ****          if(PotenciaEntregada>100.0)
 2886              		.loc 1 437 0
 2887 02cc A849     		ldr	r1, .L263+40
 2888 02ce 2846     		mov	r0, r5
 2889 02d0 FFF7FEFF 		bl	__aeabi_fcmpgt
 2890              	.LVL362:
 2891 02d4 10B1     		cbz	r0, .L136
 438:funciones.c   ****             PotenciaEntregada=100.0;
 2892              		.loc 1 438 0
 2893 02d6 A64A     		ldr	r2, .L263+40
 2894 02d8 A64B     		ldr	r3, .L263+44
 2895 02da 1A60     		str	r2, [r3]	@ float
 2896              	.L136:
 439:funciones.c   ****      
 440:funciones.c   ****          if(PotenciaEntregada<0)
 2897              		.loc 1 440 0
 2898 02dc 0021     		movs	r1, #0
 2899 02de A54B     		ldr	r3, .L263+44
 2900 02e0 1868     		ldr	r0, [r3]	@ float
 2901 02e2 FFF7FEFF 		bl	__aeabi_fcmplt
 2902              	.LVL363:
 2903 02e6 10B1     		cbz	r0, .L131
 441:funciones.c   ****             PotenciaEntregada=0; 
 2904              		.loc 1 441 0
 2905 02e8 0022     		movs	r2, #0
 2906 02ea A24B     		ldr	r3, .L263+44
 2907 02ec 1A60     		str	r2, [r3]	@ float
 2908              	.L131:
 442:funciones.c   ****       }
 443:funciones.c   ****       Tpulso=(PotenciaEntregada*Tciclo)/100;  
 2909              		.loc 1 443 0
 2910 02ee A24B     		ldr	r3, .L263+48
 2911 02f0 1D78     		ldrb	r5, [r3]	@ zero_extendqisi2
 2912 02f2 2846     		mov	r0, r5
 2913 02f4 FFF7FEFF 		bl	__aeabi_i2f
ARM GAS  C:\Users\USUARIO\AppData\Local\Temp\ccWuTYF0.s 			page 60


 2914              	.LVL364:
 2915 02f8 9E4B     		ldr	r3, .L263+44
 2916 02fa 1968     		ldr	r1, [r3]	@ float
 2917 02fc FFF7FEFF 		bl	__aeabi_fmul
 2918              	.LVL365:
 2919 0300 9B49     		ldr	r1, .L263+40
 2920 0302 FFF7FEFF 		bl	__aeabi_fdiv
 2921              	.LVL366:
 2922 0306 0446     		mov	r4, r0
 2923 0308 9C4B     		ldr	r3, .L263+52
 2924 030a 1860     		str	r0, [r3]	@ float
 444:funciones.c   ****       if(Enfria==1){
 2925              		.loc 1 444 0
 2926 030c 9C4B     		ldr	r3, .L263+56
 2927 030e B3F90030 		ldrsh	r3, [r3]
 2928 0312 012B     		cmp	r3, #1
 2929 0314 19D1     		bne	.L139
 445:funciones.c   ****          pwm1=(uint16)(((1/(float)Tciclo)*Tpulso)*60000);
 2930              		.loc 1 445 0
 2931 0316 2846     		mov	r0, r5
 2932 0318 FFF7FEFF 		bl	__aeabi_ui2f
 2933              	.LVL367:
 2934 031c 0146     		mov	r1, r0
 2935 031e 4FF07E50 		mov	r0, #1065353216
 2936 0322 FFF7FEFF 		bl	__aeabi_fdiv
 2937              	.LVL368:
 2938 0326 0146     		mov	r1, r0
 2939 0328 2046     		mov	r0, r4
 2940 032a FFF7FEFF 		bl	__aeabi_fmul
 2941              	.LVL369:
 2942 032e 9549     		ldr	r1, .L263+60
 2943 0330 FFF7FEFF 		bl	__aeabi_fmul
 2944              	.LVL370:
 2945 0334 FFF7FEFF 		bl	__aeabi_f2uiz
 2946              	.LVL371:
 2947 0338 934C     		ldr	r4, .L263+64
 2948 033a 2082     		strh	r0, [r4, #16]	@ movhi
 446:funciones.c   ****          PWM_WriteCompare1(0);
 2949              		.loc 1 446 0
 2950 033c 0020     		movs	r0, #0
 2951 033e FFF7FEFF 		bl	PWM_WriteCompare1
 2952              	.LVL372:
 447:funciones.c   ****          PWM_WriteCompare2(pwm1);
 2953              		.loc 1 447 0
 2954 0342 208A     		ldrh	r0, [r4, #16]
 2955 0344 FFF7FEFF 		bl	PWM_WriteCompare2
 2956              	.LVL373:
 2957 0348 E0E3     		b	.L140
 2958              	.L139:
 448:funciones.c   ****       }else{
 449:funciones.c   ****          pwm1=(uint16)(((1/(float)Tciclo)*Tpulso)*60000);
 2959              		.loc 1 449 0
 2960 034a 2846     		mov	r0, r5
 2961 034c FFF7FEFF 		bl	__aeabi_ui2f
 2962              	.LVL374:
 2963 0350 0146     		mov	r1, r0
 2964 0352 4FF07E50 		mov	r0, #1065353216
ARM GAS  C:\Users\USUARIO\AppData\Local\Temp\ccWuTYF0.s 			page 61


 2965 0356 FFF7FEFF 		bl	__aeabi_fdiv
 2966              	.LVL375:
 2967 035a 0146     		mov	r1, r0
 2968 035c 2046     		mov	r0, r4
 2969 035e FFF7FEFF 		bl	__aeabi_fmul
 2970              	.LVL376:
 2971 0362 8849     		ldr	r1, .L263+60
 2972 0364 FFF7FEFF 		bl	__aeabi_fmul
 2973              	.LVL377:
 2974 0368 FFF7FEFF 		bl	__aeabi_f2uiz
 2975              	.LVL378:
 2976 036c 80B2     		uxth	r0, r0
 2977 036e 864B     		ldr	r3, .L263+64
 2978 0370 1882     		strh	r0, [r3, #16]	@ movhi
 450:funciones.c   ****          PWM_WriteCompare1(pwm1);
 2979              		.loc 1 450 0
 2980 0372 FFF7FEFF 		bl	PWM_WriteCompare1
 2981              	.LVL379:
 451:funciones.c   ****          PWM_WriteCompare2(0);
 2982              		.loc 1 451 0
 2983 0376 0020     		movs	r0, #0
 2984 0378 FFF7FEFF 		bl	PWM_WriteCompare2
 2985              	.LVL380:
 2986 037c C6E3     		b	.L140
 2987              	.L122:
 452:funciones.c   ****       }
 453:funciones.c   ****    }else{
 454:funciones.c   ****                
 455:funciones.c   ****       if(Enfria==1){//Control Enfriamiento
 2988              		.loc 1 455 0
 2989 037e 804B     		ldr	r3, .L263+56
 2990 0380 B3F90030 		ldrsh	r3, [r3]
 2991 0384 012B     		cmp	r3, #1
 2992 0386 40F01B81 		bne	.L141
 456:funciones.c   ****          //CR1_Write(0);
 457:funciones.c   ****          //CR2_Write(0);
 458:funciones.c   ****          //CR3_Write(0);
 459:funciones.c   ****          //CR4_Write(0);
 460:funciones.c   ****          error=Setpoint-(desvio-0.2)-Temperatura;      // Clculo del error ******
 2993              		.loc 1 460 0
 2994 038a 804B     		ldr	r3, .L263+68
 2995 038c 1D68     		ldr	r5, [r3]	@ float
 2996 038e 2846     		mov	r0, r5
 2997 0390 FFF7FEFF 		bl	__aeabi_f2d
 2998              	.LVL381:
 2999 0394 6CA3     		adr	r3, .L263
 3000 0396 D3E90023 		ldrd	r2, [r3]
 3001 039a FFF7FEFF 		bl	__aeabi_dsub
 3002              	.LVL382:
 3003 039e 0646     		mov	r6, r0
 3004 03a0 0F46     		mov	r7, r1
 3005 03a2 7B4B     		ldr	r3, .L263+72
 3006 03a4 1868     		ldr	r0, [r3]	@ float
 3007 03a6 FFF7FEFF 		bl	__aeabi_f2d
 3008              	.LVL383:
 3009 03aa 0246     		mov	r2, r0
 3010 03ac 0B46     		mov	r3, r1
ARM GAS  C:\Users\USUARIO\AppData\Local\Temp\ccWuTYF0.s 			page 62


 3011 03ae 3046     		mov	r0, r6
 3012 03b0 3946     		mov	r1, r7
 3013 03b2 FFF7FEFF 		bl	__aeabi_dsub
 3014              	.LVL384:
 3015 03b6 FFF7FEFF 		bl	__aeabi_d2f
 3016              	.LVL385:
 3017 03ba 0446     		mov	r4, r0
 3018 03bc 754B     		ldr	r3, .L263+76
 3019 03be 1860     		str	r0, [r3]	@ float
 461:funciones.c   ****          
 462:funciones.c   ****          if(error<-0.4 && Aumento>-0.2){
 3020              		.loc 1 462 0
 3021 03c0 FFF7FEFF 		bl	__aeabi_f2d
 3022              	.LVL386:
 3023 03c4 62A3     		adr	r3, .L263+8
 3024 03c6 D3E90023 		ldrd	r2, [r3]
 3025 03ca FFF7FEFF 		bl	__aeabi_dcmplt
 3026              	.LVL387:
 3027 03ce 0028     		cmp	r0, #0
 3028 03d0 61D0     		beq	.L142
 3029              		.loc 1 462 0 is_stmt 0 discriminator 1
 3030 03d2 714B     		ldr	r3, .L263+80
 3031 03d4 1E68     		ldr	r6, [r3]	@ float
 3032 03d6 3046     		mov	r0, r6
 3033 03d8 FFF7FEFF 		bl	__aeabi_f2d
 3034              	.LVL388:
 3035 03dc 8046     		mov	r8, r0
 3036 03de 8946     		mov	r9, r1
 3037 03e0 5DA3     		adr	r3, .L263+16
 3038 03e2 D3E90023 		ldrd	r2, [r3]
 3039 03e6 FFF7FEFF 		bl	__aeabi_dcmpgt
 3040              	.LVL389:
 3041 03ea 0028     		cmp	r0, #0
 3042 03ec 53D0     		beq	.L142
 463:funciones.c   ****             if(Potencia<90.0){
 3043              		.loc 1 463 0 is_stmt 1
 3044 03ee 6B49     		ldr	r1, .L263+84
 3045 03f0 6B4B     		ldr	r3, .L263+88
 3046 03f2 1868     		ldr	r0, [r3]	@ float
 3047 03f4 FFF7FEFF 		bl	__aeabi_fcmplt
 3048              	.LVL390:
 3049 03f8 0028     		cmp	r0, #0
 3050 03fa 4CD0     		beq	.L142
 464:funciones.c   ****                if(TiempoControl>=Derivativo*2){
 3051              		.loc 1 464 0
 3052 03fc 694B     		ldr	r3, .L263+92
 3053 03fe 1B88     		ldrh	r3, [r3]
 3054 0400 694A     		ldr	r2, .L263+96
 3055 0402 1278     		ldrb	r2, [r2]	@ zero_extendqisi2
 3056 0404 B3EB420F 		cmp	r3, r2, lsl #1
 3057 0408 45DB     		blt	.L142
 465:funciones.c   ****                   TiempoControl=0;
 3058              		.loc 1 465 0
 3059 040a 0022     		movs	r2, #0
 3060 040c 654B     		ldr	r3, .L263+92
 3061 040e 1A80     		strh	r2, [r3]	@ movhi
 466:funciones.c   ****                   if(Aumento>0.2){
ARM GAS  C:\Users\USUARIO\AppData\Local\Temp\ccWuTYF0.s 			page 63


 3062              		.loc 1 466 0
 3063 0410 53A3     		adr	r3, .L263+24
 3064 0412 D3E90023 		ldrd	r2, [r3]
 3065 0416 4046     		mov	r0, r8
 3066 0418 4946     		mov	r1, r9
 3067 041a FFF7FEFF 		bl	__aeabi_dcmpgt
 3068              	.LVL391:
 3069 041e 48B1     		cbz	r0, .L252
 467:funciones.c   ****                      Ganancia+=Integral;
 3070              		.loc 1 467 0
 3071 0420 624E     		ldr	r6, .L263+100
 3072 0422 634B     		ldr	r3, .L263+104
 3073 0424 1878     		ldrb	r0, [r3]	@ zero_extendqisi2
 3074 0426 FFF7FEFF 		bl	__aeabi_i2f
 3075              	.LVL392:
 3076 042a 3168     		ldr	r1, [r6]	@ float
 3077 042c FFF7FEFF 		bl	__aeabi_fadd
 3078              	.LVL393:
 3079 0430 3060     		str	r0, [r6]	@ float
 3080 0432 30E0     		b	.L142
 3081              	.L252:
 468:funciones.c   ****                   }else{
 469:funciones.c   ****                      if(Aumento>0.0){
 3082              		.loc 1 469 0
 3083 0434 0021     		movs	r1, #0
 3084 0436 3046     		mov	r0, r6
 3085 0438 FFF7FEFF 		bl	__aeabi_fcmpgt
 3086              	.LVL394:
 3087 043c A8B1     		cbz	r0, .L253
 470:funciones.c   ****                         Ganancia+=Integral*0.5;//1
 3088              		.loc 1 470 0
 3089 043e 5C4B     		ldr	r3, .L263+104
 3090 0440 1878     		ldrb	r0, [r3]	@ zero_extendqisi2
 3091 0442 FFF7FEFF 		bl	__aeabi_i2d
 3092              	.LVL395:
 3093 0446 0022     		movs	r2, #0
 3094 0448 5A4B     		ldr	r3, .L263+108
 3095 044a FFF7FEFF 		bl	__aeabi_dmul
 3096              	.LVL396:
 3097 044e 8046     		mov	r8, r0
 3098 0450 8946     		mov	r9, r1
 3099 0452 564E     		ldr	r6, .L263+100
 3100 0454 3068     		ldr	r0, [r6]	@ float
 3101 0456 FFF7FEFF 		bl	__aeabi_f2d
 3102              	.LVL397:
 3103 045a 4246     		mov	r2, r8
 3104 045c 4B46     		mov	r3, r9
 3105 045e FFF7FEFF 		bl	__aeabi_dadd
 3106              	.LVL398:
 3107 0462 FFF7FEFF 		bl	__aeabi_d2f
 3108              	.LVL399:
 3109 0466 3060     		str	r0, [r6]	@ float
 3110 0468 15E0     		b	.L142
 3111              	.L253:
 471:funciones.c   ****                      }else{
 472:funciones.c   ****                         Ganancia+=Integral*0.1;//1
 3112              		.loc 1 472 0
ARM GAS  C:\Users\USUARIO\AppData\Local\Temp\ccWuTYF0.s 			page 64


 3113 046a 514B     		ldr	r3, .L263+104
 3114 046c 1878     		ldrb	r0, [r3]	@ zero_extendqisi2
 3115 046e FFF7FEFF 		bl	__aeabi_i2d
 3116              	.LVL400:
 3117 0472 3DA3     		adr	r3, .L263+32
 3118 0474 D3E90023 		ldrd	r2, [r3]
 3119 0478 FFF7FEFF 		bl	__aeabi_dmul
 3120              	.LVL401:
 3121 047c 8046     		mov	r8, r0
 3122 047e 8946     		mov	r9, r1
 3123 0480 4A4E     		ldr	r6, .L263+100
 3124 0482 3068     		ldr	r0, [r6]	@ float
 3125 0484 FFF7FEFF 		bl	__aeabi_f2d
 3126              	.LVL402:
 3127 0488 4246     		mov	r2, r8
 3128 048a 4B46     		mov	r3, r9
 3129 048c FFF7FEFF 		bl	__aeabi_dadd
 3130              	.LVL403:
 3131 0490 FFF7FEFF 		bl	__aeabi_d2f
 3132              	.LVL404:
 3133 0494 3060     		str	r0, [r6]	@ float
 3134              	.L142:
 473:funciones.c   ****                      }
 474:funciones.c   ****                   }
 475:funciones.c   ****                }
 476:funciones.c   ****             }
 477:funciones.c   ****          }
 478:funciones.c   ****       
 479:funciones.c   ****          if(error>0.0)     // Anti Wind_DOWN
 3135              		.loc 1 479 0
 3136 0496 0021     		movs	r1, #0
 3137 0498 2046     		mov	r0, r4
 3138 049a FFF7FEFF 		bl	__aeabi_fcmpgt
 3139              	.LVL405:
 3140 049e 10B1     		cbz	r0, .L150
 480:funciones.c   ****             error=0.0;
 3141              		.loc 1 480 0
 3142 04a0 0022     		movs	r2, #0
 3143 04a2 3C4B     		ldr	r3, .L263+76
 3144 04a4 1A60     		str	r2, [r3]	@ float
 3145              	.L150:
 481:funciones.c   ****          
 482:funciones.c   ****          error=error*-1.0;
 3146              		.loc 1 482 0
 3147 04a6 3B4B     		ldr	r3, .L263+76
 3148 04a8 1C68     		ldr	r4, [r3]
 3149 04aa 04F10044 		add	r4, r4, #-2147483648
 3150 04ae 1C60     		str	r4, [r3]	@ float
 483:funciones.c   ****          
 484:funciones.c   ****          if(Ganancia<0.1)      
 3151              		.loc 1 484 0
 3152 04b0 3E4B     		ldr	r3, .L263+100
 3153 04b2 1868     		ldr	r0, [r3]	@ float
 3154 04b4 FFF7FEFF 		bl	__aeabi_f2d
 3155              	.LVL406:
 3156 04b8 2BA3     		adr	r3, .L263+32
 3157 04ba D3E90023 		ldrd	r2, [r3]
ARM GAS  C:\Users\USUARIO\AppData\Local\Temp\ccWuTYF0.s 			page 65


 3158 04be FFF7FEFF 		bl	__aeabi_dcmplt
 3159              	.LVL407:
 3160 04c2 10B1     		cbz	r0, .L152
 485:funciones.c   ****             Ganancia=0.1;
 3161              		.loc 1 485 0
 3162 04c4 3C4A     		ldr	r2, .L263+112
 3163 04c6 394B     		ldr	r3, .L263+100
 3164 04c8 1A60     		str	r2, [r3]	@ float
 3165              	.L152:
 486:funciones.c   ****       
 487:funciones.c   ****          tmp=error*Ganancia;  // Control Proporcional.
 3166              		.loc 1 487 0
 3167 04ca 384B     		ldr	r3, .L263+100
 3168 04cc 1968     		ldr	r1, [r3]	@ float
 3169 04ce 2046     		mov	r0, r4
 3170 04d0 FFF7FEFF 		bl	__aeabi_fmul
 3171              	.LVL408:
 3172 04d4 0446     		mov	r4, r0
 3173              	.LVL409:
 488:funciones.c   ****                
 489:funciones.c   ****          if(tmp>Setpoint)   // Anti Wind-UP      
 3174              		.loc 1 489 0
 3175 04d6 0146     		mov	r1, r0
 3176 04d8 2846     		mov	r0, r5
 3177              	.LVL410:
 3178 04da FFF7FEFF 		bl	__aeabi_fcmplt
 3179              	.LVL411:
 3180 04de 00B1     		cbz	r0, .L154
 490:funciones.c   ****             tmp=Setpoint;
 3181              		.loc 1 490 0
 3182 04e0 2C46     		mov	r4, r5
 3183              	.LVL412:
 3184              	.L154:
 491:funciones.c   ****                      
 492:funciones.c   ****          if(tmp<0.0)     // Anti Wind_DOWN    
 3185              		.loc 1 492 0
 3186 04e2 0021     		movs	r1, #0
 3187 04e4 2046     		mov	r0, r4
 3188 04e6 FFF7FEFF 		bl	__aeabi_fcmplt
 3189              	.LVL413:
 3190 04ea 00B1     		cbz	r0, .L155
 493:funciones.c   ****             tmp=0.0;
 3191              		.loc 1 493 0
 3192 04ec 0024     		movs	r4, #0
 3193              	.LVL414:
 3194              	.L155:
 494:funciones.c   ****          
 495:funciones.c   ****          // Tpulso(t)= Tciclo*(y(t)-ymin)/(ymax - ymin); calculo de ciclo util para control de resi
 496:funciones.c   ****          // Tpulso es float, hay que pasar ese ciclo a una salida de un puerto usando el TMR1.
 497:funciones.c   ****          Tpulso=(tmp/Setpoint)*Tciclo;  
 3195              		.loc 1 497 0
 3196 04ee 2946     		mov	r1, r5
 3197 04f0 2046     		mov	r0, r4
 3198 04f2 FFF7FEFF 		bl	__aeabi_fdiv
 3199              	.LVL415:
 3200 04f6 0446     		mov	r4, r0
 3201              	.LVL416:
ARM GAS  C:\Users\USUARIO\AppData\Local\Temp\ccWuTYF0.s 			page 66


 3202 04f8 1F4B     		ldr	r3, .L263+48
 3203 04fa 1D78     		ldrb	r5, [r3]	@ zero_extendqisi2
 3204 04fc 2846     		mov	r0, r5
 3205 04fe FFF7FEFF 		bl	__aeabi_i2f
 3206              	.LVL417:
 3207 0502 2146     		mov	r1, r4
 3208 0504 FFF7FEFF 		bl	__aeabi_fmul
 3209              	.LVL418:
 3210 0508 0446     		mov	r4, r0
 3211 050a 1C4B     		ldr	r3, .L263+52
 3212 050c 1860     		str	r0, [r3]	@ float
 498:funciones.c   ****          pwm1=(uint16)(((1/(float)Tciclo)*Tpulso)*60000);
 3213              		.loc 1 498 0
 3214 050e 2846     		mov	r0, r5
 3215 0510 FFF7FEFF 		bl	__aeabi_ui2f
 3216              	.LVL419:
 3217 0514 0146     		mov	r1, r0
 3218 0516 4FF07E50 		mov	r0, #1065353216
 3219 051a FFF7FEFF 		bl	__aeabi_fdiv
 3220              	.LVL420:
 3221 051e 0146     		mov	r1, r0
 3222 0520 2046     		mov	r0, r4
 3223 0522 FFF7FEFF 		bl	__aeabi_fmul
 3224              	.LVL421:
 3225 0526 1749     		ldr	r1, .L263+60
 3226 0528 FFF7FEFF 		bl	__aeabi_fmul
 3227              	.LVL422:
 3228 052c FFF7FEFF 		bl	__aeabi_f2uiz
 3229              	.LVL423:
 3230 0530 154C     		ldr	r4, .L263+64
 3231 0532 2082     		strh	r0, [r4, #16]	@ movhi
 499:funciones.c   ****          PWM_WriteCompare1(0);
 3232              		.loc 1 499 0
 3233 0534 0020     		movs	r0, #0
 3234 0536 FFF7FEFF 		bl	PWM_WriteCompare1
 3235              	.LVL424:
 500:funciones.c   ****          PWM_WriteCompare2(pwm1);
 3236              		.loc 1 500 0
 3237 053a 208A     		ldrh	r0, [r4, #16]
 3238 053c FFF7FEFF 		bl	PWM_WriteCompare2
 3239              	.LVL425:
 501:funciones.c   ****          //Tp=(Tpulso/0.005);
 502:funciones.c   ****          //Tc=(Tciclo/0.005);
 503:funciones.c   ****          Controlando=1;       
 3240              		.loc 1 503 0
 3241 0540 0122     		movs	r2, #1
 3242 0542 1E4B     		ldr	r3, .L263+116
 3243 0544 1A80     		strh	r2, [r3]	@ movhi
 3244 0546 E1E2     		b	.L140
 3245              	.L264:
 3246              		.align	3
 3247              	.L263:
 3248 0548 33333333 		.word	858993459
 3249 054c 3333D33F 		.word	1070805811
 3250 0550 9A999999 		.word	-1717986918
 3251 0554 9999D9BF 		.word	-1076258407
 3252 0558 9A999999 		.word	-1717986918
ARM GAS  C:\Users\USUARIO\AppData\Local\Temp\ccWuTYF0.s 			page 67


 3253 055c 9999C9BF 		.word	-1077306983
 3254 0560 9A999999 		.word	-1717986918
 3255 0564 9999C93F 		.word	1070176665
 3256 0568 9A999999 		.word	-1717986918
 3257 056c 9999B93F 		.word	1069128089
 3258 0570 0000C842 		.word	1120403456
 3259 0574 00000000 		.word	PotenciaEntregada
 3260 0578 00000000 		.word	Tciclo
 3261 057c 00000000 		.word	Tpulso
 3262 0580 00000000 		.word	Enfria
 3263 0584 00606A47 		.word	1198153728
 3264 0588 00000000 		.word	.LANCHOR0
 3265 058c 00000000 		.word	Setpoint
 3266 0590 00000000 		.word	Temperatura
 3267 0594 00000000 		.word	error
 3268 0598 00000000 		.word	Aumento
 3269 059c 0000B442 		.word	1119092736
 3270 05a0 00000000 		.word	Potencia
 3271 05a4 00000000 		.word	TiempoControl
 3272 05a8 00000000 		.word	Derivativo
 3273 05ac 00000000 		.word	Ganancia
 3274 05b0 00000000 		.word	Integral
 3275 05b4 0000E03F 		.word	1071644672
 3276 05b8 CDCCCC3D 		.word	1036831949
 3277 05bc 00000000 		.word	Controlando
 3278              	.LVL426:
 3279              	.L141:
 504:funciones.c   ****       }else{//Control Calentamiento
 505:funciones.c   ****          //CR1_Write(1);
 506:funciones.c   ****          //CR2_Write(1);
 507:funciones.c   ****          //CR3_Write(1);
 508:funciones.c   ****          //CR4_Write(1);
 509:funciones.c   ****          error=desvio+Setpoint-Temperatura;      // Clculo del error ******
 3280              		.loc 1 509 0
 3281 05c0 8F4B     		ldr	r3, .L265+32
 3282 05c2 1D68     		ldr	r5, [r3]	@ float
 3283 05c4 2846     		mov	r0, r5
 3284 05c6 FFF7FEFF 		bl	__aeabi_f2d
 3285              	.LVL427:
 3286 05ca 0022     		movs	r2, #0
 3287 05cc 8D4B     		ldr	r3, .L265+36
 3288 05ce FFF7FEFF 		bl	__aeabi_dadd
 3289              	.LVL428:
 3290 05d2 0646     		mov	r6, r0
 3291 05d4 0F46     		mov	r7, r1
 3292 05d6 8C4B     		ldr	r3, .L265+40
 3293 05d8 1868     		ldr	r0, [r3]	@ float
 3294 05da FFF7FEFF 		bl	__aeabi_f2d
 3295              	.LVL429:
 3296 05de 0246     		mov	r2, r0
 3297 05e0 0B46     		mov	r3, r1
 3298 05e2 3046     		mov	r0, r6
 3299 05e4 3946     		mov	r1, r7
 3300 05e6 FFF7FEFF 		bl	__aeabi_dsub
 3301              	.LVL430:
 3302 05ea FFF7FEFF 		bl	__aeabi_d2f
 3303              	.LVL431:
ARM GAS  C:\Users\USUARIO\AppData\Local\Temp\ccWuTYF0.s 			page 68


 3304 05ee 0446     		mov	r4, r0
 3305 05f0 864B     		ldr	r3, .L265+44
 3306 05f2 1860     		str	r0, [r3]	@ float
 510:funciones.c   ****       
 511:funciones.c   ****          if(error>=20.0 && Aumento<=0.7){
 3307              		.loc 1 511 0
 3308 05f4 8649     		ldr	r1, .L265+48
 3309 05f6 FFF7FEFF 		bl	__aeabi_fcmpge
 3310              	.LVL432:
 3311 05fa 0028     		cmp	r0, #0
 3312 05fc 73D0     		beq	.L156
 3313              		.loc 1 511 0 is_stmt 0 discriminator 1
 3314 05fe 854B     		ldr	r3, .L265+52
 3315 0600 D3F80090 		ldr	r9, [r3]	@ float
 3316 0604 4846     		mov	r0, r9
 3317 0606 FFF7FEFF 		bl	__aeabi_f2d
 3318              	.LVL433:
 3319 060a 0646     		mov	r6, r0
 3320 060c 0F46     		mov	r7, r1
 3321 060e 74A3     		adr	r3, .L265
 3322 0610 D3E90023 		ldrd	r2, [r3]
 3323 0614 FFF7FEFF 		bl	__aeabi_dcmple
 3324              	.LVL434:
 3325 0618 0028     		cmp	r0, #0
 3326 061a 64D0     		beq	.L156
 512:funciones.c   ****             derivativo_ant=Derivativo*4;
 3327              		.loc 1 512 0 is_stmt 1
 3328 061c 7E4B     		ldr	r3, .L265+56
 3329 061e 93F80080 		ldrb	r8, [r3]	@ zero_extendqisi2
 3330 0622 4FEA8808 		lsl	r8, r8, #2
 3331 0626 7D4B     		ldr	r3, .L265+60
 3332 0628 A3F80080 		strh	r8, [r3]	@ movhi
 513:funciones.c   ****             flag_ajuste=0;
 3333              		.loc 1 513 0
 3334 062c 0023     		movs	r3, #0
 3335 062e 7C4A     		ldr	r2, .L265+64
 3336 0630 1380     		strh	r3, [r2]	@ movhi
 514:funciones.c   ****             flag_ajuste2=0;
 3337              		.loc 1 514 0
 3338 0632 7C4A     		ldr	r2, .L265+68
 3339 0634 1380     		strh	r3, [r2]	@ movhi
 515:funciones.c   ****             Ajusto=10;
 3340              		.loc 1 515 0
 3341 0636 0A22     		movs	r2, #10
 3342 0638 7B4B     		ldr	r3, .L265+72
 3343 063a 1A70     		strb	r2, [r3]
 516:funciones.c   ****             if(Potencia<90.0){
 3344              		.loc 1 516 0
 3345 063c 7B49     		ldr	r1, .L265+76
 3346 063e 7C4B     		ldr	r3, .L265+80
 3347 0640 1868     		ldr	r0, [r3]	@ float
 3348 0642 FFF7FEFF 		bl	__aeabi_fcmplt
 3349              	.LVL435:
 3350 0646 0028     		cmp	r0, #0
 3351 0648 00F0A081 		beq	.L159
 517:funciones.c   ****                 if(TiempoControl>=derivativo_ant){
 3352              		.loc 1 517 0
ARM GAS  C:\Users\USUARIO\AppData\Local\Temp\ccWuTYF0.s 			page 69


 3353 064c 794B     		ldr	r3, .L265+84
 3354 064e 1B88     		ldrh	r3, [r3]
 3355 0650 9845     		cmp	r8, r3
 3356 0652 00F29B81 		bhi	.L159
 518:funciones.c   ****                     TiempoControl=0;
 3357              		.loc 1 518 0
 3358 0656 0022     		movs	r2, #0
 3359 0658 764B     		ldr	r3, .L265+84
 3360 065a 1A80     		strh	r2, [r3]	@ movhi
 519:funciones.c   ****                     if(Aumento<-0.5){
 3361              		.loc 1 519 0
 3362 065c 4FF03F41 		mov	r1, #-1090519040
 3363 0660 4846     		mov	r0, r9
 3364 0662 FFF7FEFF 		bl	__aeabi_fcmplt
 3365              	.LVL436:
 3366 0666 48B1     		cbz	r0, .L254
 520:funciones.c   ****                         Ganancia+=Integral;//2
 3367              		.loc 1 520 0
 3368 0668 734E     		ldr	r6, .L265+88
 3369 066a 744B     		ldr	r3, .L265+92
 3370 066c 1878     		ldrb	r0, [r3]	@ zero_extendqisi2
 3371 066e FFF7FEFF 		bl	__aeabi_i2f
 3372              	.LVL437:
 3373 0672 3168     		ldr	r1, [r6]	@ float
 3374 0674 FFF7FEFF 		bl	__aeabi_fadd
 3375              	.LVL438:
 3376 0678 3060     		str	r0, [r6]	@ float
 3377 067a 87E1     		b	.L159
 3378              	.L254:
 521:funciones.c   ****                     }else{
 522:funciones.c   ****                         if(Aumento<-0.1)
 3379              		.loc 1 522 0
 3380 067c 5AA3     		adr	r3, .L265+8
 3381 067e D3E90023 		ldrd	r2, [r3]
 3382 0682 3046     		mov	r0, r6
 3383 0684 3946     		mov	r1, r7
 3384 0686 FFF7FEFF 		bl	__aeabi_dcmplt
 3385              	.LVL439:
 3386 068a A8B1     		cbz	r0, .L255
 523:funciones.c   ****                             Ganancia+=Integral*0.5;//1
 3387              		.loc 1 523 0
 3388 068c 6B4B     		ldr	r3, .L265+92
 3389 068e 1878     		ldrb	r0, [r3]	@ zero_extendqisi2
 3390 0690 FFF7FEFF 		bl	__aeabi_i2d
 3391              	.LVL440:
 3392 0694 0022     		movs	r2, #0
 3393 0696 5B4B     		ldr	r3, .L265+36
 3394 0698 FFF7FEFF 		bl	__aeabi_dmul
 3395              	.LVL441:
 3396 069c 8046     		mov	r8, r0
 3397 069e 8946     		mov	r9, r1
 3398 06a0 654E     		ldr	r6, .L265+88
 3399 06a2 3068     		ldr	r0, [r6]	@ float
 3400 06a4 FFF7FEFF 		bl	__aeabi_f2d
 3401              	.LVL442:
 3402 06a8 4246     		mov	r2, r8
 3403 06aa 4B46     		mov	r3, r9
ARM GAS  C:\Users\USUARIO\AppData\Local\Temp\ccWuTYF0.s 			page 70


 3404 06ac FFF7FEFF 		bl	__aeabi_dadd
 3405              	.LVL443:
 3406 06b0 FFF7FEFF 		bl	__aeabi_d2f
 3407              	.LVL444:
 3408 06b4 3060     		str	r0, [r6]	@ float
 3409 06b6 69E1     		b	.L159
 3410              	.L255:
 524:funciones.c   ****                         else
 525:funciones.c   ****                             Ganancia+=Integral*0.3;//0.5
 3411              		.loc 1 525 0
 3412 06b8 604B     		ldr	r3, .L265+92
 3413 06ba 1878     		ldrb	r0, [r3]	@ zero_extendqisi2
 3414 06bc FFF7FEFF 		bl	__aeabi_i2d
 3415              	.LVL445:
 3416 06c0 4BA3     		adr	r3, .L265+16
 3417 06c2 D3E90023 		ldrd	r2, [r3]
 3418 06c6 FFF7FEFF 		bl	__aeabi_dmul
 3419              	.LVL446:
 3420 06ca 8046     		mov	r8, r0
 3421 06cc 8946     		mov	r9, r1
 3422 06ce 5A4E     		ldr	r6, .L265+88
 3423 06d0 3068     		ldr	r0, [r6]	@ float
 3424 06d2 FFF7FEFF 		bl	__aeabi_f2d
 3425              	.LVL447:
 3426 06d6 4246     		mov	r2, r8
 3427 06d8 4B46     		mov	r3, r9
 3428 06da FFF7FEFF 		bl	__aeabi_dadd
 3429              	.LVL448:
 3430 06de FFF7FEFF 		bl	__aeabi_d2f
 3431              	.LVL449:
 3432 06e2 3060     		str	r0, [r6]	@ float
 3433 06e4 52E1     		b	.L159
 3434              	.L156:
 526:funciones.c   ****                     }
 527:funciones.c   ****                 }
 528:funciones.c   ****             }
 529:funciones.c   ****          }else if(error>=6.0 && error<20 && Aumento<=0.5){
 3435              		.loc 1 529 0
 3436 06e6 5649     		ldr	r1, .L265+96
 3437 06e8 2046     		mov	r0, r4
 3438 06ea FFF7FEFF 		bl	__aeabi_fcmpge
 3439              	.LVL450:
 3440 06ee 0028     		cmp	r0, #0
 3441 06f0 00F0AA80 		beq	.L165
 3442              		.loc 1 529 0 is_stmt 0 discriminator 1
 3443 06f4 4649     		ldr	r1, .L265+48
 3444 06f6 2046     		mov	r0, r4
 3445 06f8 FFF7FEFF 		bl	__aeabi_fcmplt
 3446              	.LVL451:
 3447 06fc 0028     		cmp	r0, #0
 3448 06fe 00F0A380 		beq	.L165
 3449              		.loc 1 529 0 discriminator 2
 3450 0702 444B     		ldr	r3, .L265+52
 3451 0704 1F68     		ldr	r7, [r3]	@ float
 3452 0706 4FF07C51 		mov	r1, #1056964608
 3453 070a 3846     		mov	r0, r7
 3454 070c FFF7FEFF 		bl	__aeabi_fcmple
ARM GAS  C:\Users\USUARIO\AppData\Local\Temp\ccWuTYF0.s 			page 71


 3455              	.LVL452:
 3456 0710 0028     		cmp	r0, #0
 3457 0712 00F09980 		beq	.L165
 530:funciones.c   ****             derivativo_ant=Derivativo*3;
 3458              		.loc 1 530 0 is_stmt 1
 3459 0716 404B     		ldr	r3, .L265+56
 3460 0718 1B78     		ldrb	r3, [r3]	@ zero_extendqisi2
 3461 071a 03EB4306 		add	r6, r3, r3, lsl #1
 3462 071e 3F4B     		ldr	r3, .L265+60
 3463 0720 1E80     		strh	r6, [r3]	@ movhi
 531:funciones.c   ****             flag_ajuste=0;
 3464              		.loc 1 531 0
 3465 0722 0023     		movs	r3, #0
 3466 0724 3E4A     		ldr	r2, .L265+64
 3467 0726 1380     		strh	r3, [r2]	@ movhi
 532:funciones.c   ****             flag_ajuste2=0;
 3468              		.loc 1 532 0
 3469 0728 3E4A     		ldr	r2, .L265+68
 3470 072a 1380     		strh	r3, [r2]	@ movhi
 533:funciones.c   ****             Ajusto=10;
 3471              		.loc 1 533 0
 3472 072c 0A22     		movs	r2, #10
 3473 072e 3E4B     		ldr	r3, .L265+72
 3474 0730 1A70     		strb	r2, [r3]
 534:funciones.c   ****             if(Potencia<80.0){
 3475              		.loc 1 534 0
 3476 0732 4449     		ldr	r1, .L265+100
 3477 0734 3E4B     		ldr	r3, .L265+80
 3478 0736 1868     		ldr	r0, [r3]	@ float
 3479 0738 FFF7FEFF 		bl	__aeabi_fcmplt
 3480              	.LVL453:
 3481 073c 0028     		cmp	r0, #0
 3482 073e 00F02581 		beq	.L159
 535:funciones.c   ****                 if(TiempoControl>=derivativo_ant){//80
 3483              		.loc 1 535 0
 3484 0742 3C4B     		ldr	r3, .L265+84
 3485 0744 1B88     		ldrh	r3, [r3]
 3486 0746 9E42     		cmp	r6, r3
 3487 0748 00F22081 		bhi	.L159
 536:funciones.c   ****                     TiempoControl=0;
 3488              		.loc 1 536 0
 3489 074c 0022     		movs	r2, #0
 3490 074e 394B     		ldr	r3, .L265+84
 3491 0750 1A80     		strh	r2, [r3]	@ movhi
 537:funciones.c   ****                     if(Aumento<-0.5){
 3492              		.loc 1 537 0
 3493 0752 4FF03F41 		mov	r1, #-1090519040
 3494 0756 3846     		mov	r0, r7
 3495 0758 FFF7FEFF 		bl	__aeabi_fcmplt
 3496              	.LVL454:
 3497 075c 48B1     		cbz	r0, .L256
 538:funciones.c   ****                         Ganancia+=Integral;//2
 3498              		.loc 1 538 0
 3499 075e 364E     		ldr	r6, .L265+88
 3500 0760 364B     		ldr	r3, .L265+92
 3501 0762 1878     		ldrb	r0, [r3]	@ zero_extendqisi2
 3502 0764 FFF7FEFF 		bl	__aeabi_i2f
ARM GAS  C:\Users\USUARIO\AppData\Local\Temp\ccWuTYF0.s 			page 72


 3503              	.LVL455:
 3504 0768 3168     		ldr	r1, [r6]	@ float
 3505 076a FFF7FEFF 		bl	__aeabi_fadd
 3506              	.LVL456:
 3507 076e 3060     		str	r0, [r6]	@ float
 3508 0770 0CE1     		b	.L159
 3509              	.L256:
 539:funciones.c   ****                     }else{
 540:funciones.c   ****                         if(Aumento<-0.1)
 3510              		.loc 1 540 0
 3511 0772 3846     		mov	r0, r7
 3512 0774 FFF7FEFF 		bl	__aeabi_f2d
 3513              	.LVL457:
 3514 0778 1BA3     		adr	r3, .L265+8
 3515 077a D3E90023 		ldrd	r2, [r3]
 3516 077e FFF7FEFF 		bl	__aeabi_dcmplt
 3517              	.LVL458:
 3518 0782 B0B1     		cbz	r0, .L257
 541:funciones.c   ****                             Ganancia+=Integral*0.3;//1
 3519              		.loc 1 541 0
 3520 0784 2D4B     		ldr	r3, .L265+92
 3521 0786 1878     		ldrb	r0, [r3]	@ zero_extendqisi2
 3522 0788 FFF7FEFF 		bl	__aeabi_i2d
 3523              	.LVL459:
 3524 078c 18A3     		adr	r3, .L265+16
 3525 078e D3E90023 		ldrd	r2, [r3]
 3526 0792 FFF7FEFF 		bl	__aeabi_dmul
 3527              	.LVL460:
 3528 0796 8046     		mov	r8, r0
 3529 0798 8946     		mov	r9, r1
 3530 079a 274E     		ldr	r6, .L265+88
 3531 079c 3068     		ldr	r0, [r6]	@ float
 3532 079e FFF7FEFF 		bl	__aeabi_f2d
 3533              	.LVL461:
 3534 07a2 4246     		mov	r2, r8
 3535 07a4 4B46     		mov	r3, r9
 3536 07a6 FFF7FEFF 		bl	__aeabi_dadd
 3537              	.LVL462:
 3538 07aa FFF7FEFF 		bl	__aeabi_d2f
 3539              	.LVL463:
 3540 07ae 3060     		str	r0, [r6]	@ float
 3541 07b0 ECE0     		b	.L159
 3542              	.L257:
 542:funciones.c   ****                         else
 543:funciones.c   ****                             Ganancia+=Integral*0.1;//0.5
 3543              		.loc 1 543 0
 3544 07b2 224B     		ldr	r3, .L265+92
 3545 07b4 1878     		ldrb	r0, [r3]	@ zero_extendqisi2
 3546 07b6 FFF7FEFF 		bl	__aeabi_i2d
 3547              	.LVL464:
 3548 07ba 0FA3     		adr	r3, .L265+24
 3549 07bc D3E90023 		ldrd	r2, [r3]
 3550 07c0 FFF7FEFF 		bl	__aeabi_dmul
 3551              	.LVL465:
 3552 07c4 8046     		mov	r8, r0
 3553 07c6 8946     		mov	r9, r1
 3554 07c8 1B4E     		ldr	r6, .L265+88
ARM GAS  C:\Users\USUARIO\AppData\Local\Temp\ccWuTYF0.s 			page 73


 3555 07ca 3068     		ldr	r0, [r6]	@ float
 3556 07cc FFF7FEFF 		bl	__aeabi_f2d
 3557              	.LVL466:
 3558 07d0 4246     		mov	r2, r8
 3559 07d2 4B46     		mov	r3, r9
 3560 07d4 FFF7FEFF 		bl	__aeabi_dadd
 3561              	.LVL467:
 3562 07d8 FFF7FEFF 		bl	__aeabi_d2f
 3563              	.LVL468:
 3564 07dc 3060     		str	r0, [r6]	@ float
 3565 07de D5E0     		b	.L159
 3566              	.L266:
 3567              		.align	3
 3568              	.L265:
 3569 07e0 66666666 		.word	1717986918
 3570 07e4 6666E63F 		.word	1072064102
 3571 07e8 9A999999 		.word	-1717986918
 3572 07ec 9999B9BF 		.word	-1078355559
 3573 07f0 33333333 		.word	858993459
 3574 07f4 3333D33F 		.word	1070805811
 3575 07f8 9A999999 		.word	-1717986918
 3576 07fc 9999B93F 		.word	1069128089
 3577 0800 00000000 		.word	Setpoint
 3578 0804 0000E03F 		.word	1071644672
 3579 0808 00000000 		.word	Temperatura
 3580 080c 00000000 		.word	error
 3581 0810 0000A041 		.word	1101004800
 3582 0814 00000000 		.word	Aumento
 3583 0818 00000000 		.word	Derivativo
 3584 081c 00000000 		.word	derivativo_ant
 3585 0820 00000000 		.word	flag_ajuste
 3586 0824 00000000 		.word	flag_ajuste2
 3587 0828 00000000 		.word	Ajusto
 3588 082c 0000B442 		.word	1119092736
 3589 0830 00000000 		.word	Potencia
 3590 0834 00000000 		.word	TiempoControl
 3591 0838 00000000 		.word	Ganancia
 3592 083c 00000000 		.word	Integral
 3593 0840 0000C040 		.word	1086324736
 3594 0844 0000A042 		.word	1117782016
 3595              	.L165:
 544:funciones.c   ****                     }
 545:funciones.c   ****                 }
 546:funciones.c   ****             }
 547:funciones.c   ****          }else if(error>=desvio+0.5 && error<10 && Aumento<=0.3){
 3596              		.loc 1 547 0
 3597 0848 4FF07E51 		mov	r1, #1065353216
 3598 084c 2046     		mov	r0, r4
 3599 084e FFF7FEFF 		bl	__aeabi_fcmpge
 3600              	.LVL469:
 3601 0852 0028     		cmp	r0, #0
 3602 0854 00F09A80 		beq	.L159
 3603              		.loc 1 547 0 is_stmt 0 discriminator 1
 3604 0858 3549     		ldr	r1, .L267+16
 3605 085a 2046     		mov	r0, r4
 3606 085c FFF7FEFF 		bl	__aeabi_fcmplt
 3607              	.LVL470:
ARM GAS  C:\Users\USUARIO\AppData\Local\Temp\ccWuTYF0.s 			page 74


 3608 0860 0028     		cmp	r0, #0
 3609 0862 00F09380 		beq	.L159
 3610              		.loc 1 547 0 discriminator 2
 3611 0866 334B     		ldr	r3, .L267+20
 3612 0868 1F68     		ldr	r7, [r3]	@ float
 3613 086a 3846     		mov	r0, r7
 3614 086c FFF7FEFF 		bl	__aeabi_f2d
 3615              	.LVL471:
 3616 0870 8046     		mov	r8, r0
 3617 0872 8946     		mov	r9, r1
 3618 0874 2AA3     		adr	r3, .L267
 3619 0876 D3E90023 		ldrd	r2, [r3]
 3620 087a FFF7FEFF 		bl	__aeabi_dcmple
 3621              	.LVL472:
 3622 087e 0028     		cmp	r0, #0
 3623 0880 00F08480 		beq	.L159
 548:funciones.c   ****             derivativo_ant=Derivativo*2;
 3624              		.loc 1 548 0 is_stmt 1
 3625 0884 2C4B     		ldr	r3, .L267+24
 3626 0886 1E78     		ldrb	r6, [r3]	@ zero_extendqisi2
 3627 0888 7600     		lsls	r6, r6, #1
 3628 088a 2C4B     		ldr	r3, .L267+28
 3629 088c 1E80     		strh	r6, [r3]	@ movhi
 549:funciones.c   ****             flag_ajuste=0;
 3630              		.loc 1 549 0
 3631 088e 0023     		movs	r3, #0
 3632 0890 2B4A     		ldr	r2, .L267+32
 3633 0892 1380     		strh	r3, [r2]	@ movhi
 550:funciones.c   ****             flag_ajuste2=0;
 3634              		.loc 1 550 0
 3635 0894 2B4A     		ldr	r2, .L267+36
 3636 0896 1380     		strh	r3, [r2]	@ movhi
 551:funciones.c   ****             Ajusto=10;
 3637              		.loc 1 551 0
 3638 0898 0A22     		movs	r2, #10
 3639 089a 2B4B     		ldr	r3, .L267+40
 3640 089c 1A70     		strb	r2, [r3]
 552:funciones.c   ****             if(Potencia<70.0){
 3641              		.loc 1 552 0
 3642 089e 2B49     		ldr	r1, .L267+44
 3643 08a0 2B4B     		ldr	r3, .L267+48
 3644 08a2 1868     		ldr	r0, [r3]	@ float
 3645 08a4 FFF7FEFF 		bl	__aeabi_fcmplt
 3646              	.LVL473:
 3647 08a8 0028     		cmp	r0, #0
 3648 08aa 6FD0     		beq	.L159
 553:funciones.c   ****                 if(TiempoControl>=derivativo_ant){//80
 3649              		.loc 1 553 0
 3650 08ac 294B     		ldr	r3, .L267+52
 3651 08ae 1B88     		ldrh	r3, [r3]
 3652 08b0 9E42     		cmp	r6, r3
 3653 08b2 6BD8     		bhi	.L159
 554:funciones.c   ****                     TiempoControl=0;
 3654              		.loc 1 554 0
 3655 08b4 0022     		movs	r2, #0
 3656 08b6 274B     		ldr	r3, .L267+52
 3657 08b8 1A80     		strh	r2, [r3]	@ movhi
ARM GAS  C:\Users\USUARIO\AppData\Local\Temp\ccWuTYF0.s 			page 75


 555:funciones.c   ****                     if(Aumento<-0.5){
 3658              		.loc 1 555 0
 3659 08ba 4FF03F41 		mov	r1, #-1090519040
 3660 08be 3846     		mov	r0, r7
 3661 08c0 FFF7FEFF 		bl	__aeabi_fcmplt
 3662              	.LVL474:
 3663 08c4 48B1     		cbz	r0, .L258
 556:funciones.c   ****                         Ganancia+=Integral;//2
 3664              		.loc 1 556 0
 3665 08c6 244E     		ldr	r6, .L267+56
 3666 08c8 244B     		ldr	r3, .L267+60
 3667 08ca 1878     		ldrb	r0, [r3]	@ zero_extendqisi2
 3668 08cc FFF7FEFF 		bl	__aeabi_i2f
 3669              	.LVL475:
 3670 08d0 3168     		ldr	r1, [r6]	@ float
 3671 08d2 FFF7FEFF 		bl	__aeabi_fadd
 3672              	.LVL476:
 3673 08d6 3060     		str	r0, [r6]	@ float
 3674 08d8 58E0     		b	.L159
 3675              	.L258:
 557:funciones.c   ****                     }else{
 558:funciones.c   ****                         if(Aumento<-0.1)
 3676              		.loc 1 558 0
 3677 08da 13A3     		adr	r3, .L267+8
 3678 08dc D3E90023 		ldrd	r2, [r3]
 3679 08e0 4046     		mov	r0, r8
 3680 08e2 4946     		mov	r1, r9
 3681 08e4 FFF7FEFF 		bl	__aeabi_dcmplt
 3682              	.LVL477:
 3683 08e8 0028     		cmp	r0, #0
 3684 08ea 39D0     		beq	.L259
 559:funciones.c   ****                             Ganancia+=Integral*0.3;//1
 3685              		.loc 1 559 0
 3686 08ec 1B4B     		ldr	r3, .L267+60
 3687 08ee 1878     		ldrb	r0, [r3]	@ zero_extendqisi2
 3688 08f0 FFF7FEFF 		bl	__aeabi_i2d
 3689              	.LVL478:
 3690 08f4 0AA3     		adr	r3, .L267
 3691 08f6 D3E90023 		ldrd	r2, [r3]
 3692 08fa FFF7FEFF 		bl	__aeabi_dmul
 3693              	.LVL479:
 3694 08fe 8046     		mov	r8, r0
 3695 0900 8946     		mov	r9, r1
 3696 0902 154E     		ldr	r6, .L267+56
 3697 0904 3068     		ldr	r0, [r6]	@ float
 3698 0906 FFF7FEFF 		bl	__aeabi_f2d
 3699              	.LVL480:
 3700 090a 4246     		mov	r2, r8
 3701 090c 4B46     		mov	r3, r9
 3702 090e FFF7FEFF 		bl	__aeabi_dadd
 3703              	.LVL481:
 3704 0912 FFF7FEFF 		bl	__aeabi_d2f
 3705              	.LVL482:
 3706 0916 3060     		str	r0, [r6]	@ float
 3707 0918 38E0     		b	.L159
 3708              	.L268:
 3709 091a 00BFAFF3 		.align	3
ARM GAS  C:\Users\USUARIO\AppData\Local\Temp\ccWuTYF0.s 			page 76


 3709      0080
 3710              	.L267:
 3711 0920 33333333 		.word	858993459
 3712 0924 3333D33F 		.word	1070805811
 3713 0928 9A999999 		.word	-1717986918
 3714 092c 9999B9BF 		.word	-1078355559
 3715 0930 00002041 		.word	1092616192
 3716 0934 00000000 		.word	Aumento
 3717 0938 00000000 		.word	Derivativo
 3718 093c 00000000 		.word	derivativo_ant
 3719 0940 00000000 		.word	flag_ajuste
 3720 0944 00000000 		.word	flag_ajuste2
 3721 0948 00000000 		.word	Ajusto
 3722 094c 00008C42 		.word	1116471296
 3723 0950 00000000 		.word	Potencia
 3724 0954 00000000 		.word	TiempoControl
 3725 0958 00000000 		.word	Ganancia
 3726 095c 00000000 		.word	Integral
 3727              	.L259:
 560:funciones.c   ****                         else
 561:funciones.c   ****                             Ganancia+=Integral*0.1;//0.5
 3728              		.loc 1 561 0
 3729 0960 714B     		ldr	r3, .L269+16
 3730 0962 1878     		ldrb	r0, [r3]	@ zero_extendqisi2
 3731 0964 FFF7FEFF 		bl	__aeabi_i2d
 3732              	.LVL483:
 3733 0968 6BA3     		adr	r3, .L269
 3734 096a D3E90023 		ldrd	r2, [r3]
 3735 096e FFF7FEFF 		bl	__aeabi_dmul
 3736              	.LVL484:
 3737 0972 8046     		mov	r8, r0
 3738 0974 8946     		mov	r9, r1
 3739 0976 6D4E     		ldr	r6, .L269+20
 3740 0978 3068     		ldr	r0, [r6]	@ float
 3741 097a FFF7FEFF 		bl	__aeabi_f2d
 3742              	.LVL485:
 3743 097e 4246     		mov	r2, r8
 3744 0980 4B46     		mov	r3, r9
 3745 0982 FFF7FEFF 		bl	__aeabi_dadd
 3746              	.LVL486:
 3747 0986 FFF7FEFF 		bl	__aeabi_d2f
 3748              	.LVL487:
 3749 098a 3060     		str	r0, [r6]	@ float
 3750              	.L159:
 562:funciones.c   ****                     }
 563:funciones.c   ****                 }
 564:funciones.c   ****              }
 565:funciones.c   ****          }
 566:funciones.c   ****          
 567:funciones.c   ****          if(error<0.0){
 3751              		.loc 1 567 0
 3752 098c 0021     		movs	r1, #0
 3753 098e 2046     		mov	r0, r4
 3754 0990 FFF7FEFF 		bl	__aeabi_fcmplt
 3755              	.LVL488:
 3756 0994 68B1     		cbz	r0, .L182
 568:funciones.c   ****             Ganancia=GananciaR*(Setpoint/200);
ARM GAS  C:\Users\USUARIO\AppData\Local\Temp\ccWuTYF0.s 			page 77


 3757              		.loc 1 568 0
 3758 0996 6649     		ldr	r1, .L269+24
 3759 0998 2846     		mov	r0, r5
 3760 099a FFF7FEFF 		bl	__aeabi_fdiv
 3761              	.LVL489:
 3762 099e 0646     		mov	r6, r0
 3763 09a0 644B     		ldr	r3, .L269+28
 3764 09a2 1878     		ldrb	r0, [r3]	@ zero_extendqisi2
 3765 09a4 FFF7FEFF 		bl	__aeabi_i2f
 3766              	.LVL490:
 3767 09a8 3146     		mov	r1, r6
 3768 09aa FFF7FEFF 		bl	__aeabi_fmul
 3769              	.LVL491:
 3770 09ae 5F4B     		ldr	r3, .L269+20
 3771 09b0 1860     		str	r0, [r3]	@ float
 3772              	.L182:
 569:funciones.c   ****             //flag_ajuste=0;
 570:funciones.c   ****             //flag_ajuste2=0;
 571:funciones.c   ****          }
 572:funciones.c   ****          
 573:funciones.c   ****          if(Ganancia<0.1){
 3773              		.loc 1 573 0
 3774 09b2 5E4B     		ldr	r3, .L269+20
 3775 09b4 1868     		ldr	r0, [r3]	@ float
 3776 09b6 FFF7FEFF 		bl	__aeabi_f2d
 3777              	.LVL492:
 3778 09ba 57A3     		adr	r3, .L269
 3779 09bc D3E90023 		ldrd	r2, [r3]
 3780 09c0 FFF7FEFF 		bl	__aeabi_dcmplt
 3781              	.LVL493:
 3782 09c4 10B1     		cbz	r0, .L184
 574:funciones.c   ****             Ganancia=0.1;
 3783              		.loc 1 574 0
 3784 09c6 5C4A     		ldr	r2, .L269+32
 3785 09c8 584B     		ldr	r3, .L269+20
 3786 09ca 1A60     		str	r2, [r3]	@ float
 3787              	.L184:
 575:funciones.c   ****          }
 576:funciones.c   ****       
 577:funciones.c   ****          if(error<0.0)     // Anti Wind_DOWN     
 3788              		.loc 1 577 0
 3789 09cc 0021     		movs	r1, #0
 3790 09ce 2046     		mov	r0, r4
 3791 09d0 FFF7FEFF 		bl	__aeabi_fcmplt
 3792              	.LVL494:
 3793 09d4 10B1     		cbz	r0, .L186
 578:funciones.c   ****             error=0.0;
 3794              		.loc 1 578 0
 3795 09d6 0022     		movs	r2, #0
 3796 09d8 584B     		ldr	r3, .L269+36
 3797 09da 1A60     		str	r2, [r3]	@ float
 3798              	.L186:
 579:funciones.c   ****          
 580:funciones.c   ****          //tmp=(Setpoint-Prom)*Ganancia;  // Control Proporcional.
 581:funciones.c   ****          tmp=error*Ganancia;  // Control Proporcional.
 3799              		.loc 1 581 0
 3800 09dc 574B     		ldr	r3, .L269+36
ARM GAS  C:\Users\USUARIO\AppData\Local\Temp\ccWuTYF0.s 			page 78


 3801 09de 1E68     		ldr	r6, [r3]	@ float
 3802 09e0 524B     		ldr	r3, .L269+20
 3803 09e2 1968     		ldr	r1, [r3]	@ float
 3804 09e4 3046     		mov	r0, r6
 3805 09e6 FFF7FEFF 		bl	__aeabi_fmul
 3806              	.LVL495:
 3807 09ea 0446     		mov	r4, r0
 3808              	.LVL496:
 582:funciones.c   ****                
 583:funciones.c   ****          if(tmp>Setpoint)   // Anti Wind-UP      
 3809              		.loc 1 583 0
 3810 09ec 0146     		mov	r1, r0
 3811 09ee 2846     		mov	r0, r5
 3812              	.LVL497:
 3813 09f0 FFF7FEFF 		bl	__aeabi_fcmplt
 3814              	.LVL498:
 3815 09f4 00B1     		cbz	r0, .L188
 584:funciones.c   ****             tmp=Setpoint;
 3816              		.loc 1 584 0
 3817 09f6 2C46     		mov	r4, r5
 3818              	.LVL499:
 3819              	.L188:
 585:funciones.c   ****                      
 586:funciones.c   ****          if(tmp<0.0)     // Anti Wind_DOWN    
 3820              		.loc 1 586 0
 3821 09f8 0021     		movs	r1, #0
 3822 09fa 2046     		mov	r0, r4
 3823 09fc FFF7FEFF 		bl	__aeabi_fcmplt
 3824              	.LVL500:
 3825 0a00 00B1     		cbz	r0, .L189
 587:funciones.c   ****             tmp=0.0;
 3826              		.loc 1 587 0
 3827 0a02 0024     		movs	r4, #0
 3828              	.LVL501:
 3829              	.L189:
 588:funciones.c   ****       
 589:funciones.c   ****          Tpulso=(tmp/Setpoint)*Tciclo; 
 3830              		.loc 1 589 0
 3831 0a04 2946     		mov	r1, r5
 3832 0a06 2046     		mov	r0, r4
 3833 0a08 FFF7FEFF 		bl	__aeabi_fdiv
 3834              	.LVL502:
 3835 0a0c 0546     		mov	r5, r0
 3836 0a0e 4C4B     		ldr	r3, .L269+40
 3837 0a10 1C78     		ldrb	r4, [r3]	@ zero_extendqisi2
 3838              	.LVL503:
 3839 0a12 2046     		mov	r0, r4
 3840 0a14 FFF7FEFF 		bl	__aeabi_i2f
 3841              	.LVL504:
 3842 0a18 2946     		mov	r1, r5
 3843 0a1a FFF7FEFF 		bl	__aeabi_fmul
 3844              	.LVL505:
 3845 0a1e 0546     		mov	r5, r0
 3846 0a20 484B     		ldr	r3, .L269+44
 3847 0a22 1860     		str	r0, [r3]	@ float
 590:funciones.c   ****          if(error<desvio+0.5 && error>0){
 3848              		.loc 1 590 0
ARM GAS  C:\Users\USUARIO\AppData\Local\Temp\ccWuTYF0.s 			page 79


 3849 0a24 4FF07E51 		mov	r1, #1065353216
 3850 0a28 3046     		mov	r0, r6
 3851 0a2a FFF7FEFF 		bl	__aeabi_fcmplt
 3852              	.LVL506:
 3853 0a2e 0028     		cmp	r0, #0
 3854 0a30 53D0     		beq	.L190
 3855              		.loc 1 590 0 is_stmt 0 discriminator 1
 3856 0a32 0021     		movs	r1, #0
 3857 0a34 3046     		mov	r0, r6
 3858 0a36 FFF7FEFF 		bl	__aeabi_fcmpgt
 3859              	.LVL507:
 3860 0a3a 0028     		cmp	r0, #0
 3861 0a3c 4DD0     		beq	.L190
 591:funciones.c   ****             if(error<=desvio && error>0){   
 3862              		.loc 1 591 0 is_stmt 1
 3863 0a3e 4FF07C51 		mov	r1, #1056964608
 3864 0a42 3046     		mov	r0, r6
 3865 0a44 FFF7FEFF 		bl	__aeabi_fcmple
 3866              	.LVL508:
 3867 0a48 80B1     		cbz	r0, .L193
 3868              		.loc 1 591 0 is_stmt 0 discriminator 1
 3869 0a4a 0021     		movs	r1, #0
 3870 0a4c 3046     		mov	r0, r6
 3871 0a4e FFF7FEFF 		bl	__aeabi_fcmpgt
 3872              	.LVL509:
 3873 0a52 58B1     		cbz	r0, .L193
 592:funciones.c   ****                 if(flag_ajuste==0){
 3874              		.loc 1 592 0 is_stmt 1
 3875 0a54 3C4B     		ldr	r3, .L269+48
 3876 0a56 B3F90030 		ldrsh	r3, [r3]
 3877 0a5a 3BB9     		cbnz	r3, .L193
 593:funciones.c   ****                     TpulsoMax=Tpulso;
 3878              		.loc 1 593 0
 3879 0a5c 3B4B     		ldr	r3, .L269+52
 3880 0a5e 1D60     		str	r5, [r3]	@ float
 594:funciones.c   ****                     flag_ajuste=1;  
 3881              		.loc 1 594 0
 3882 0a60 0122     		movs	r2, #1
 3883 0a62 394B     		ldr	r3, .L269+48
 3884 0a64 1A80     		strh	r2, [r3]	@ movhi
 595:funciones.c   ****                     Ajusto=5;
 3885              		.loc 1 595 0
 3886 0a66 0522     		movs	r2, #5
 3887 0a68 394B     		ldr	r3, .L269+56
 3888 0a6a 1A70     		strb	r2, [r3]
 3889              	.L193:
 596:funciones.c   ****                 }
 597:funciones.c   ****             }
 598:funciones.c   ****          
 599:funciones.c   ****             if(error<=desvio-0.1 && error>0){   
 3890              		.loc 1 599 0
 3891 0a6c 3046     		mov	r0, r6
 3892 0a6e FFF7FEFF 		bl	__aeabi_f2d
 3893              	.LVL510:
 3894 0a72 2BA3     		adr	r3, .L269+8
 3895 0a74 D3E90023 		ldrd	r2, [r3]
 3896 0a78 FFF7FEFF 		bl	__aeabi_dcmple
ARM GAS  C:\Users\USUARIO\AppData\Local\Temp\ccWuTYF0.s 			page 80


 3897              	.LVL511:
 3898 0a7c 80B1     		cbz	r0, .L196
 3899              		.loc 1 599 0 is_stmt 0 discriminator 1
 3900 0a7e 0021     		movs	r1, #0
 3901 0a80 3046     		mov	r0, r6
 3902 0a82 FFF7FEFF 		bl	__aeabi_fcmpgt
 3903              	.LVL512:
 3904 0a86 58B1     		cbz	r0, .L196
 600:funciones.c   ****                 if(flag_ajuste2==0){
 3905              		.loc 1 600 0 is_stmt 1
 3906 0a88 324B     		ldr	r3, .L269+60
 3907 0a8a B3F90030 		ldrsh	r3, [r3]
 3908 0a8e 3BB9     		cbnz	r3, .L196
 601:funciones.c   ****                     Tpulsomin=Tpulso;
 3909              		.loc 1 601 0
 3910 0a90 314B     		ldr	r3, .L269+64
 3911 0a92 1D60     		str	r5, [r3]	@ float
 602:funciones.c   ****                     flag_ajuste2=1;           
 3912              		.loc 1 602 0
 3913 0a94 0122     		movs	r2, #1
 3914 0a96 2F4B     		ldr	r3, .L269+60
 3915 0a98 1A80     		strh	r2, [r3]	@ movhi
 603:funciones.c   ****                     Ajusto=5;
 3916              		.loc 1 603 0
 3917 0a9a 0522     		movs	r2, #5
 3918 0a9c 2C4B     		ldr	r3, .L269+56
 3919 0a9e 1A70     		strb	r2, [r3]
 3920              	.L196:
 604:funciones.c   ****                 }
 605:funciones.c   ****             }
 606:funciones.c   ****          
 607:funciones.c   ****             if(flag_ajuste2==1){
 3921              		.loc 1 607 0
 3922 0aa0 2C4B     		ldr	r3, .L269+60
 3923 0aa2 B3F90030 		ldrsh	r3, [r3]
 3924 0aa6 012B     		cmp	r3, #1
 3925 0aa8 08D1     		bne	.L199
 608:funciones.c   ****                 if(Tpulso<Tpulsomin)
 3926              		.loc 1 608 0
 3927 0aaa 2B4B     		ldr	r3, .L269+64
 3928 0aac 1E68     		ldr	r6, [r3]	@ float
 3929 0aae 3146     		mov	r1, r6
 3930 0ab0 2846     		mov	r0, r5
 3931 0ab2 FFF7FEFF 		bl	__aeabi_fcmplt
 3932              	.LVL513:
 3933 0ab6 08B1     		cbz	r0, .L199
 609:funciones.c   ****                     Tpulso=Tpulsomin;
 3934              		.loc 1 609 0
 3935 0ab8 224B     		ldr	r3, .L269+44
 3936 0aba 1E60     		str	r6, [r3]	@ float
 3937              	.L199:
 610:funciones.c   ****             }
 611:funciones.c   ****             if(flag_ajuste==1){   
 3938              		.loc 1 611 0
 3939 0abc 224B     		ldr	r3, .L269+48
 3940 0abe B3F90030 		ldrsh	r3, [r3]
 3941 0ac2 012B     		cmp	r3, #1
ARM GAS  C:\Users\USUARIO\AppData\Local\Temp\ccWuTYF0.s 			page 81


 3942 0ac4 09D1     		bne	.L190
 612:funciones.c   ****                 if(Tpulso>TpulsoMax)
 3943              		.loc 1 612 0
 3944 0ac6 214B     		ldr	r3, .L269+52
 3945 0ac8 1D68     		ldr	r5, [r3]	@ float
 3946 0aca 2946     		mov	r1, r5
 3947 0acc 1D4B     		ldr	r3, .L269+44
 3948 0ace 1868     		ldr	r0, [r3]	@ float
 3949 0ad0 FFF7FEFF 		bl	__aeabi_fcmpgt
 3950              	.LVL514:
 3951 0ad4 08B1     		cbz	r0, .L190
 613:funciones.c   ****                     Tpulso=TpulsoMax;
 3952              		.loc 1 613 0
 3953 0ad6 1B4B     		ldr	r3, .L269+44
 3954 0ad8 1D60     		str	r5, [r3]	@ float
 3955              	.L190:
 614:funciones.c   ****             }
 615:funciones.c   ****          }
 616:funciones.c   ****          pwm1=(uint16)(((1/(float)Tciclo)*Tpulso)*60000);
 3956              		.loc 1 616 0
 3957 0ada 2046     		mov	r0, r4
 3958 0adc FFF7FEFF 		bl	__aeabi_ui2f
 3959              	.LVL515:
 3960 0ae0 0146     		mov	r1, r0
 3961 0ae2 4FF07E50 		mov	r0, #1065353216
 3962 0ae6 FFF7FEFF 		bl	__aeabi_fdiv
 3963              	.LVL516:
 3964 0aea 164B     		ldr	r3, .L269+44
 3965 0aec 1968     		ldr	r1, [r3]	@ float
 3966 0aee FFF7FEFF 		bl	__aeabi_fmul
 3967              	.LVL517:
 3968 0af2 1A49     		ldr	r1, .L269+68
 3969 0af4 FFF7FEFF 		bl	__aeabi_fmul
 3970              	.LVL518:
 3971 0af8 FFF7FEFF 		bl	__aeabi_f2uiz
 3972              	.LVL519:
 3973 0afc 184C     		ldr	r4, .L269+72
 3974 0afe 2082     		strh	r0, [r4, #16]	@ movhi
 617:funciones.c   ****          PWM_WriteCompare2(0);
 3975              		.loc 1 617 0
 3976 0b00 0020     		movs	r0, #0
 3977 0b02 FFF7FEFF 		bl	PWM_WriteCompare2
 3978              	.LVL520:
 618:funciones.c   ****          PWM_WriteCompare1(pwm1);
 3979              		.loc 1 618 0
 3980 0b06 208A     		ldrh	r0, [r4, #16]
 3981 0b08 FFF7FEFF 		bl	PWM_WriteCompare1
 3982              	.LVL521:
 3983              	.L140:
 619:funciones.c   ****       }   
 620:funciones.c   ****    }
 621:funciones.c   ****    //Tp=(Tpulso/0.002);
 622:funciones.c   ****    //Tc=(Tciclo/0.002);
 623:funciones.c   ****    Control=1;     
 3984              		.loc 1 623 0
 3985 0b0c 0122     		movs	r2, #1
 3986 0b0e 154B     		ldr	r3, .L269+76
ARM GAS  C:\Users\USUARIO\AppData\Local\Temp\ccWuTYF0.s 			page 82


 3987 0b10 1A80     		strh	r2, [r3]	@ movhi
 3988 0b12 BDE8F883 		pop	{r3, r4, r5, r6, r7, r8, r9, pc}
 3989              	.L270:
 3990 0b16 00BF     		.align	3
 3991              	.L269:
 3992 0b18 9A999999 		.word	-1717986918
 3993 0b1c 9999B93F 		.word	1069128089
 3994 0b20 9A999999 		.word	-1717986918
 3995 0b24 9999D93F 		.word	1071225241
 3996 0b28 00000000 		.word	Integral
 3997 0b2c 00000000 		.word	Ganancia
 3998 0b30 00004843 		.word	1128792064
 3999 0b34 00000000 		.word	GananciaR
 4000 0b38 CDCCCC3D 		.word	1036831949
 4001 0b3c 00000000 		.word	error
 4002 0b40 00000000 		.word	Tciclo
 4003 0b44 00000000 		.word	Tpulso
 4004 0b48 00000000 		.word	flag_ajuste
 4005 0b4c 00000000 		.word	TpulsoMax
 4006 0b50 00000000 		.word	Ajusto
 4007 0b54 00000000 		.word	flag_ajuste2
 4008 0b58 00000000 		.word	Tpulsomin
 4009 0b5c 00606A47 		.word	1198153728
 4010 0b60 00000000 		.word	.LANCHOR0
 4011 0b64 00000000 		.word	Control
 4012              		.cfi_endproc
 4013              	.LFE72:
 4014              		.size	Controla, .-Controla
 4015              		.global	__aeabi_d2uiz
 4016              		.section	.text.CuentaTiempo,"ax",%progbits
 4017              		.align	2
 4018              		.global	CuentaTiempo
 4019              		.thumb
 4020              		.thumb_func
 4021              		.type	CuentaTiempo, %function
 4022              	CuentaTiempo:
 4023              	.LFB73:
 624:funciones.c   **** //-------------------------------------------------------------------------------------------------
 625:funciones.c   ****   
 626:funciones.c   **** }
 627:funciones.c   **** 
 628:funciones.c   **** void CuentaTiempo(){
 4024              		.loc 1 628 0
 4025              		.cfi_startproc
 4026              		@ args = 0, pretend = 0, frame = 0
 4027              		@ frame_needed = 0, uses_anonymous_args = 0
 629:funciones.c   ****       if(tinicio>=60){
 4028              		.loc 1 629 0
 4029 0000 124B     		ldr	r3, .L275
 4030 0002 1B88     		ldrh	r3, [r3]
 4031 0004 3B2B     		cmp	r3, #59
 4032 0006 1FD9     		bls	.L274
 628:funciones.c   ****       if(tinicio>=60){
 4033              		.loc 1 628 0
 4034 0008 10B5     		push	{r4, lr}
 4035              		.cfi_def_cfa_offset 8
 4036              		.cfi_offset 4, -8
ARM GAS  C:\Users\USUARIO\AppData\Local\Temp\ccWuTYF0.s 			page 83


 4037              		.cfi_offset 14, -4
 630:funciones.c   ****          tinicio=0;
 4038              		.loc 1 630 0
 4039 000a 0022     		movs	r2, #0
 4040 000c 0F4B     		ldr	r3, .L275
 4041 000e 1A80     		strh	r2, [r3]	@ movhi
 631:funciones.c   ****          mEst+=1.0;
 4042              		.loc 1 631 0
 4043 0010 0F4C     		ldr	r4, .L275+4
 4044 0012 2078     		ldrb	r0, [r4]	@ zero_extendqisi2
 4045 0014 FFF7FEFF 		bl	__aeabi_i2d
 4046              	.LVL522:
 4047 0018 0022     		movs	r2, #0
 4048 001a 0E4B     		ldr	r3, .L275+8
 4049 001c FFF7FEFF 		bl	__aeabi_dadd
 4050              	.LVL523:
 4051 0020 FFF7FEFF 		bl	__aeabi_d2uiz
 4052              	.LVL524:
 4053 0024 C0B2     		uxtb	r0, r0
 4054 0026 2070     		strb	r0, [r4]
 632:funciones.c   ****          if(mEst>59){
 4055              		.loc 1 632 0
 4056 0028 3B28     		cmp	r0, #59
 4057 002a 0CD9     		bls	.L271
 633:funciones.c   ****             mEst=0;
 4058              		.loc 1 633 0
 4059 002c 0022     		movs	r2, #0
 4060 002e 2270     		strb	r2, [r4]
 634:funciones.c   ****             hEst+=1.0;
 4061              		.loc 1 634 0
 4062 0030 094C     		ldr	r4, .L275+12
 4063 0032 2078     		ldrb	r0, [r4]	@ zero_extendqisi2
 4064 0034 FFF7FEFF 		bl	__aeabi_i2d
 4065              	.LVL525:
 4066 0038 0022     		movs	r2, #0
 4067 003a 064B     		ldr	r3, .L275+8
 4068 003c FFF7FEFF 		bl	__aeabi_dadd
 4069              	.LVL526:
 4070 0040 FFF7FEFF 		bl	__aeabi_d2uiz
 4071              	.LVL527:
 4072 0044 2070     		strb	r0, [r4]
 4073              	.L271:
 4074 0046 10BD     		pop	{r4, pc}
 4075              	.L274:
 4076              		.cfi_def_cfa_offset 0
 4077              		.cfi_restore 4
 4078              		.cfi_restore 14
 4079 0048 7047     		bx	lr
 4080              	.L276:
 4081 004a 00BF     		.align	2
 4082              	.L275:
 4083 004c 00000000 		.word	tinicio
 4084 0050 00000000 		.word	mEst
 4085 0054 0000F03F 		.word	1072693248
 4086 0058 00000000 		.word	hEst
 4087              		.cfi_endproc
 4088              	.LFE73:
ARM GAS  C:\Users\USUARIO\AppData\Local\Temp\ccWuTYF0.s 			page 84


 4089              		.size	CuentaTiempo, .-CuentaTiempo
 4090              		.section	.text.iniciaConteo,"ax",%progbits
 4091              		.align	2
 4092              		.global	iniciaConteo
 4093              		.thumb
 4094              		.thumb_func
 4095              		.type	iniciaConteo, %function
 4096              	iniciaConteo:
 4097              	.LFB74:
 635:funciones.c   ****          }
 636:funciones.c   ****       }
 637:funciones.c   **** }
 638:funciones.c   **** 
 639:funciones.c   **** void iniciaConteo(){
 4098              		.loc 1 639 0
 4099              		.cfi_startproc
 4100              		@ args = 0, pretend = 0, frame = 0
 4101              		@ frame_needed = 0, uses_anonymous_args = 0
 4102 0000 10B5     		push	{r4, lr}
 4103              		.cfi_def_cfa_offset 8
 4104              		.cfi_offset 4, -8
 4105              		.cfi_offset 14, -4
 640:funciones.c   ****    if(flagRampa && Pendiente!=0){
 4106              		.loc 1 640 0
 4107 0002 314B     		ldr	r3, .L293
 4108 0004 B3F90040 		ldrsh	r4, [r3]
 4109 0008 4CB1     		cbz	r4, .L278
 4110              		.loc 1 640 0 is_stmt 0 discriminator 1
 4111 000a 0021     		movs	r1, #0
 4112 000c 2F4B     		ldr	r3, .L293+4
 4113 000e 1868     		ldr	r0, [r3]	@ float
 4114 0010 FFF7FEFF 		bl	__aeabi_fcmpeq
 4115              	.LVL528:
 4116 0014 18B9     		cbnz	r0, .L278
 641:funciones.c   ****       tiempo_esterilizacion=1;
 4117              		.loc 1 641 0 is_stmt 1
 4118 0016 0122     		movs	r2, #1
 4119 0018 2D4B     		ldr	r3, .L293+8
 4120 001a 1A70     		strb	r2, [r3]
 4121 001c 10BD     		pop	{r4, pc}
 4122              	.L278:
 642:funciones.c   ****    }else if(flagRampa && Pendiente==0){
 4123              		.loc 1 642 0
 4124 001e 8CB1     		cbz	r4, .L281
 4125              		.loc 1 642 0 is_stmt 0 discriminator 1
 4126 0020 0021     		movs	r1, #0
 4127 0022 2A4B     		ldr	r3, .L293+4
 4128 0024 1868     		ldr	r0, [r3]	@ float
 4129 0026 FFF7FEFF 		bl	__aeabi_fcmpeq
 4130              	.LVL529:
 4131 002a 58B1     		cbz	r0, .L281
 643:funciones.c   ****       if(flagTemperatura)
 4132              		.loc 1 643 0 is_stmt 1
 4133 002c 294B     		ldr	r3, .L293+12
 4134 002e B3F90030 		ldrsh	r3, [r3]
 4135 0032 1BB1     		cbz	r3, .L283
 644:funciones.c   ****          tiempo_esterilizacion=1;
ARM GAS  C:\Users\USUARIO\AppData\Local\Temp\ccWuTYF0.s 			page 85


 4136              		.loc 1 644 0
 4137 0034 0122     		movs	r2, #1
 4138 0036 264B     		ldr	r3, .L293+8
 4139 0038 1A70     		strb	r2, [r3]
 4140 003a 10BD     		pop	{r4, pc}
 4141              	.L283:
 645:funciones.c   ****       else
 646:funciones.c   ****          tiempo_esterilizacion=0;
 4142              		.loc 1 646 0
 4143 003c 0022     		movs	r2, #0
 4144 003e 244B     		ldr	r3, .L293+8
 4145 0040 1A70     		strb	r2, [r3]
 4146 0042 10BD     		pop	{r4, pc}
 4147              	.L281:
 647:funciones.c   ****    }else{
 648:funciones.c   ****       if(!flagControlT && !flagControlH){
 4148              		.loc 1 648 0
 4149 0044 244B     		ldr	r3, .L293+16
 4150 0046 B3F90030 		ldrsh	r3, [r3]
 4151 004a 33B9     		cbnz	r3, .L284
 4152              		.loc 1 648 0 is_stmt 0 discriminator 1
 4153 004c 234A     		ldr	r2, .L293+20
 4154 004e B2F90020 		ldrsh	r2, [r2]
 4155 0052 12B9     		cbnz	r2, .L284
 649:funciones.c   ****          tiempo_esterilizacion=0;
 4156              		.loc 1 649 0 is_stmt 1
 4157 0054 1E4B     		ldr	r3, .L293+8
 4158 0056 1A70     		strb	r2, [r3]
 4159 0058 10BD     		pop	{r4, pc}
 4160              	.L284:
 650:funciones.c   ****        }else if(flagControlT && !flagControlH){
 4161              		.loc 1 650 0
 4162 005a 7BB1     		cbz	r3, .L285
 4163              		.loc 1 650 0 is_stmt 0 discriminator 1
 4164 005c 1F4A     		ldr	r2, .L293+20
 4165 005e B2F90020 		ldrsh	r2, [r2]
 4166 0062 5AB9     		cbnz	r2, .L285
 651:funciones.c   ****           if(flagTemperatura)
 4167              		.loc 1 651 0 is_stmt 1
 4168 0064 1B4B     		ldr	r3, .L293+12
 4169 0066 B3F90030 		ldrsh	r3, [r3]
 4170 006a 1BB1     		cbz	r3, .L286
 652:funciones.c   ****              tiempo_esterilizacion=1;
 4171              		.loc 1 652 0
 4172 006c 0122     		movs	r2, #1
 4173 006e 184B     		ldr	r3, .L293+8
 4174 0070 1A70     		strb	r2, [r3]
 4175 0072 10BD     		pop	{r4, pc}
 4176              	.L286:
 653:funciones.c   ****           else
 654:funciones.c   ****              tiempo_esterilizacion=0;
 4177              		.loc 1 654 0
 4178 0074 0022     		movs	r2, #0
 4179 0076 164B     		ldr	r3, .L293+8
 4180 0078 1A70     		strb	r2, [r3]
 4181 007a 10BD     		pop	{r4, pc}
 4182              	.L285:
ARM GAS  C:\Users\USUARIO\AppData\Local\Temp\ccWuTYF0.s 			page 86


 655:funciones.c   ****        }else if(!flagControlT && flagControlH){
 4183              		.loc 1 655 0
 4184 007c 7BB9     		cbnz	r3, .L287
 4185              		.loc 1 655 0 is_stmt 0 discriminator 1
 4186 007e 174A     		ldr	r2, .L293+20
 4187 0080 B2F90020 		ldrsh	r2, [r2]
 4188 0084 5AB1     		cbz	r2, .L287
 656:funciones.c   ****          if(flagHumedad)
 4189              		.loc 1 656 0 is_stmt 1
 4190 0086 164B     		ldr	r3, .L293+24
 4191 0088 B3F91230 		ldrsh	r3, [r3, #18]
 4192 008c 1BB1     		cbz	r3, .L288
 657:funciones.c   ****             tiempo_esterilizacion=1;
 4193              		.loc 1 657 0
 4194 008e 0122     		movs	r2, #1
 4195 0090 0F4B     		ldr	r3, .L293+8
 4196 0092 1A70     		strb	r2, [r3]
 4197 0094 10BD     		pop	{r4, pc}
 4198              	.L288:
 658:funciones.c   ****          else
 659:funciones.c   ****             tiempo_esterilizacion=0;
 4199              		.loc 1 659 0
 4200 0096 0022     		movs	r2, #0
 4201 0098 0D4B     		ldr	r3, .L293+8
 4202 009a 1A70     		strb	r2, [r3]
 4203 009c 10BD     		pop	{r4, pc}
 4204              	.L287:
 660:funciones.c   ****       }else if(flagControlT && flagControlH){
 4205              		.loc 1 660 0
 4206 009e 93B1     		cbz	r3, .L277
 4207              		.loc 1 660 0 is_stmt 0 discriminator 1
 4208 00a0 0E4B     		ldr	r3, .L293+20
 4209 00a2 B3F90030 		ldrsh	r3, [r3]
 4210 00a6 73B1     		cbz	r3, .L277
 661:funciones.c   ****          if(flagTemperatura && flagHumedad)
 4211              		.loc 1 661 0 is_stmt 1
 4212 00a8 0A4B     		ldr	r3, .L293+12
 4213 00aa B3F90030 		ldrsh	r3, [r3]
 4214 00ae 3BB1     		cbz	r3, .L289
 4215              		.loc 1 661 0 is_stmt 0 discriminator 1
 4216 00b0 0B4B     		ldr	r3, .L293+24
 4217 00b2 B3F91230 		ldrsh	r3, [r3, #18]
 4218 00b6 1BB1     		cbz	r3, .L289
 662:funciones.c   ****             tiempo_esterilizacion=1;
 4219              		.loc 1 662 0 is_stmt 1
 4220 00b8 0122     		movs	r2, #1
 4221 00ba 054B     		ldr	r3, .L293+8
 4222 00bc 1A70     		strb	r2, [r3]
 4223 00be 10BD     		pop	{r4, pc}
 4224              	.L289:
 663:funciones.c   ****          else
 664:funciones.c   ****             tiempo_esterilizacion=0;
 4225              		.loc 1 664 0
 4226 00c0 0022     		movs	r2, #0
 4227 00c2 034B     		ldr	r3, .L293+8
 4228 00c4 1A70     		strb	r2, [r3]
 4229              	.L277:
ARM GAS  C:\Users\USUARIO\AppData\Local\Temp\ccWuTYF0.s 			page 87


 4230 00c6 10BD     		pop	{r4, pc}
 4231              	.L294:
 4232              		.align	2
 4233              	.L293:
 4234 00c8 00000000 		.word	flagRampa
 4235 00cc 00000000 		.word	Pendiente
 4236 00d0 00000000 		.word	tiempo_esterilizacion
 4237 00d4 00000000 		.word	flagTemperatura
 4238 00d8 00000000 		.word	flagControlT
 4239 00dc 00000000 		.word	flagControlH
 4240 00e0 00000000 		.word	.LANCHOR0
 4241              		.cfi_endproc
 4242              	.LFE74:
 4243              		.size	iniciaConteo, .-iniciaConteo
 4244              		.section	.text.escribeDisplay1,"ax",%progbits
 4245              		.align	2
 4246              		.global	escribeDisplay1
 4247              		.thumb
 4248              		.thumb_func
 4249              		.type	escribeDisplay1, %function
 4250              	escribeDisplay1:
 4251              	.LFB75:
 665:funciones.c   ****       }
 666:funciones.c   ****    }
 667:funciones.c   **** }
 668:funciones.c   **** 
 669:funciones.c   **** void escribeDisplay1(char Buffer[30]){
 4252              		.loc 1 669 0
 4253              		.cfi_startproc
 4254              		@ args = 0, pretend = 0, frame = 0
 4255              		@ frame_needed = 0, uses_anonymous_args = 0
 4256              	.LVL530:
 4257 0000 08B5     		push	{r3, lr}
 4258              		.cfi_def_cfa_offset 8
 4259              		.cfi_offset 3, -8
 4260              		.cfi_offset 14, -4
 670:funciones.c   ****     UART_1_PutString(Buffer);
 4261              		.loc 1 670 0
 4262 0002 FFF7FEFF 		bl	UART_1_PutString
 4263              	.LVL531:
 671:funciones.c   ****     CyDelayUs(10);
 4264              		.loc 1 671 0
 4265 0006 0A20     		movs	r0, #10
 4266 0008 FFF7FEFF 		bl	CyDelayUs
 4267              	.LVL532:
 672:funciones.c   ****     UART_1_PutChar(0xFF);
 4268              		.loc 1 672 0
 4269 000c FF20     		movs	r0, #255
 4270 000e FFF7FEFF 		bl	UART_1_PutChar
 4271              	.LVL533:
 673:funciones.c   ****     CyDelayUs(10);
 4272              		.loc 1 673 0
 4273 0012 0A20     		movs	r0, #10
 4274 0014 FFF7FEFF 		bl	CyDelayUs
 4275              	.LVL534:
 674:funciones.c   ****     UART_1_PutChar(0xFF);
 4276              		.loc 1 674 0
ARM GAS  C:\Users\USUARIO\AppData\Local\Temp\ccWuTYF0.s 			page 88


 4277 0018 FF20     		movs	r0, #255
 4278 001a FFF7FEFF 		bl	UART_1_PutChar
 4279              	.LVL535:
 675:funciones.c   ****     CyDelayUs(10);
 4280              		.loc 1 675 0
 4281 001e 0A20     		movs	r0, #10
 4282 0020 FFF7FEFF 		bl	CyDelayUs
 4283              	.LVL536:
 676:funciones.c   ****     UART_1_PutChar(0xFF);
 4284              		.loc 1 676 0
 4285 0024 FF20     		movs	r0, #255
 4286 0026 FFF7FEFF 		bl	UART_1_PutChar
 4287              	.LVL537:
 677:funciones.c   ****     CyDelayUs(10);
 4288              		.loc 1 677 0
 4289 002a 0A20     		movs	r0, #10
 4290 002c FFF7FEFF 		bl	CyDelayUs
 4291              	.LVL538:
 4292 0030 08BD     		pop	{r3, pc}
 4293              		.cfi_endproc
 4294              	.LFE75:
 4295              		.size	escribeDisplay1, .-escribeDisplay1
 4296 0032 00BF     		.section	.text.escribeDisplay2,"ax",%progbits
 4297              		.align	2
 4298              		.global	escribeDisplay2
 4299              		.thumb
 4300              		.thumb_func
 4301              		.type	escribeDisplay2, %function
 4302              	escribeDisplay2:
 4303              	.LFB76:
 678:funciones.c   **** }
 679:funciones.c   **** 
 680:funciones.c   **** void escribeDisplay2(char Buffer[30]){
 4304              		.loc 1 680 0
 4305              		.cfi_startproc
 4306              		@ args = 0, pretend = 0, frame = 0
 4307              		@ frame_needed = 0, uses_anonymous_args = 0
 4308              	.LVL539:
 4309 0000 08B5     		push	{r3, lr}
 4310              		.cfi_def_cfa_offset 8
 4311              		.cfi_offset 3, -8
 4312              		.cfi_offset 14, -4
 681:funciones.c   ****     UART_2_PutString(Buffer);
 4313              		.loc 1 681 0
 4314 0002 FFF7FEFF 		bl	UART_2_PutString
 4315              	.LVL540:
 682:funciones.c   ****     CyDelayUs(10);
 4316              		.loc 1 682 0
 4317 0006 0A20     		movs	r0, #10
 4318 0008 FFF7FEFF 		bl	CyDelayUs
 4319              	.LVL541:
 683:funciones.c   ****     UART_2_PutChar(0xFF);
 4320              		.loc 1 683 0
 4321 000c FF20     		movs	r0, #255
 4322 000e FFF7FEFF 		bl	UART_2_PutChar
 4323              	.LVL542:
 684:funciones.c   ****     CyDelayUs(10);
ARM GAS  C:\Users\USUARIO\AppData\Local\Temp\ccWuTYF0.s 			page 89


 4324              		.loc 1 684 0
 4325 0012 0A20     		movs	r0, #10
 4326 0014 FFF7FEFF 		bl	CyDelayUs
 4327              	.LVL543:
 685:funciones.c   ****     UART_2_PutChar(0xFF);
 4328              		.loc 1 685 0
 4329 0018 FF20     		movs	r0, #255
 4330 001a FFF7FEFF 		bl	UART_2_PutChar
 4331              	.LVL544:
 686:funciones.c   ****     CyDelayUs(10);
 4332              		.loc 1 686 0
 4333 001e 0A20     		movs	r0, #10
 4334 0020 FFF7FEFF 		bl	CyDelayUs
 4335              	.LVL545:
 687:funciones.c   ****     UART_2_PutChar(0xFF);
 4336              		.loc 1 687 0
 4337 0024 FF20     		movs	r0, #255
 4338 0026 FFF7FEFF 		bl	UART_2_PutChar
 4339              	.LVL546:
 688:funciones.c   ****     CyDelayUs(10);
 4340              		.loc 1 688 0
 4341 002a 0A20     		movs	r0, #10
 4342 002c FFF7FEFF 		bl	CyDelayUs
 4343              	.LVL547:
 4344 0030 08BD     		pop	{r3, pc}
 4345              		.cfi_endproc
 4346              	.LFE76:
 4347              		.size	escribeDisplay2, .-escribeDisplay2
 4348 0032 00BF     		.section	.text.LeeDisplay,"ax",%progbits
 4349              		.align	2
 4350              		.global	LeeDisplay
 4351              		.thumb
 4352              		.thumb_func
 4353              		.type	LeeDisplay, %function
 4354              	LeeDisplay:
 4355              	.LFB77:
 689:funciones.c   **** }
 690:funciones.c   **** 
 691:funciones.c   **** void LeeDisplay(void){    
 4356              		.loc 1 691 0
 4357              		.cfi_startproc
 4358              		@ args = 0, pretend = 0, frame = 0
 4359              		@ frame_needed = 0, uses_anonymous_args = 0
 4360              		@ link register save eliminated.
 692:funciones.c   ****     if(Dato_Exitoso==5){
 4361              		.loc 1 692 0
 4362 0000 A24B     		ldr	r3, .L340
 4363 0002 1B78     		ldrb	r3, [r3]	@ zero_extendqisi2
 4364 0004 052B     		cmp	r3, #5
 4365 0006 40F0E680 		bne	.L300
 693:funciones.c   ****          Rx_Buffer[0]=Rx_Buffer2[0];
 4366              		.loc 1 693 0
 4367 000a A14A     		ldr	r2, .L340+4
 4368 000c 1178     		ldrb	r1, [r2]	@ zero_extendqisi2
 4369 000e A14B     		ldr	r3, .L340+8
 4370 0010 1970     		strb	r1, [r3]
 694:funciones.c   ****          Rx_Buffer[1]=Rx_Buffer2[1];
ARM GAS  C:\Users\USUARIO\AppData\Local\Temp\ccWuTYF0.s 			page 90


 4371              		.loc 1 694 0
 4372 0012 5178     		ldrb	r1, [r2, #1]	@ zero_extendqisi2
 4373 0014 5970     		strb	r1, [r3, #1]
 695:funciones.c   ****          Rx_Buffer[2]=Rx_Buffer2[2];
 4374              		.loc 1 695 0
 4375 0016 9178     		ldrb	r1, [r2, #2]	@ zero_extendqisi2
 4376 0018 9970     		strb	r1, [r3, #2]
 696:funciones.c   ****          Rx_Buffer[3]=Rx_Buffer2[3];
 4377              		.loc 1 696 0
 4378 001a D178     		ldrb	r1, [r2, #3]	@ zero_extendqisi2
 4379 001c D970     		strb	r1, [r3, #3]
 697:funciones.c   ****          Rx_Buffer[4]=Rx_Buffer2[4];
 4380              		.loc 1 697 0
 4381 001e 1079     		ldrb	r0, [r2, #4]	@ zero_extendqisi2
 4382 0020 1871     		strb	r0, [r3, #4]
 698:funciones.c   ****          Rx_Buffer[5]=Rx_Buffer2[5];
 4383              		.loc 1 698 0
 4384 0022 5079     		ldrb	r0, [r2, #5]	@ zero_extendqisi2
 4385 0024 5871     		strb	r0, [r3, #5]
 699:funciones.c   ****          Rx_Buffer[6]=Rx_Buffer2[6];
 4386              		.loc 1 699 0
 4387 0026 9079     		ldrb	r0, [r2, #6]	@ zero_extendqisi2
 4388 0028 9871     		strb	r0, [r3, #6]
 700:funciones.c   ****          Rx_Buffer[7]=Rx_Buffer2[7];
 4389              		.loc 1 700 0
 4390 002a D079     		ldrb	r0, [r2, #7]	@ zero_extendqisi2
 4391 002c D871     		strb	r0, [r3, #7]
 701:funciones.c   ****          Rx_Buffer[8]=Rx_Buffer2[8];
 4392              		.loc 1 701 0
 4393 002e 107A     		ldrb	r0, [r2, #8]	@ zero_extendqisi2
 4394 0030 1872     		strb	r0, [r3, #8]
 702:funciones.c   ****          Rx_Buffer[9]=Rx_Buffer2[9];
 4395              		.loc 1 702 0
 4396 0032 527A     		ldrb	r2, [r2, #9]	@ zero_extendqisi2
 4397 0034 5A72     		strb	r2, [r3, #9]
 703:funciones.c   ****          
 704:funciones.c   ****       if(Rx_Buffer[3]==0x01){// Pregunta por la pagina en la que esta el display,01 es Contrasea 
 4398              		.loc 1 704 0
 4399 0036 0129     		cmp	r1, #1
 4400 0038 0AD1     		bne	.L301
 705:funciones.c   ****          Menu=0;
 4401              		.loc 1 705 0
 4402 003a 0022     		movs	r2, #0
 4403 003c 964B     		ldr	r3, .L340+12
 4404 003e 1A70     		strb	r2, [r3]
 706:funciones.c   ****          if(MenuAntt!=Menu)
 4405              		.loc 1 706 0
 4406 0040 964B     		ldr	r3, .L340+16
 4407 0042 1B78     		ldrb	r3, [r3]	@ zero_extendqisi2
 4408 0044 002B     		cmp	r3, #0
 4409 0046 00F0D180 		beq	.L302
 707:funciones.c   ****             MenuAntt=Menu;
 4410              		.loc 1 707 0
 4411 004a 944B     		ldr	r3, .L340+16
 4412 004c 1A70     		strb	r2, [r3]
 4413 004e CDE0     		b	.L302
 4414              	.L301:
ARM GAS  C:\Users\USUARIO\AppData\Local\Temp\ccWuTYF0.s 			page 91


 708:funciones.c   ****       }else if(Rx_Buffer[3]==0x02){//02 es Menu Principal con PantallaPriincipal=0, y con PantallaP
 4415              		.loc 1 708 0
 4416 0050 0229     		cmp	r1, #2
 4417 0052 0AD1     		bne	.L303
 709:funciones.c   ****          Menu=1;
 4418              		.loc 1 709 0
 4419 0054 0122     		movs	r2, #1
 4420 0056 904B     		ldr	r3, .L340+12
 4421 0058 1A70     		strb	r2, [r3]
 710:funciones.c   ****          if(MenuAntt!=Menu)
 4422              		.loc 1 710 0
 4423 005a 904B     		ldr	r3, .L340+16
 4424 005c 1B78     		ldrb	r3, [r3]	@ zero_extendqisi2
 4425 005e 9342     		cmp	r3, r2
 4426 0060 00F0C480 		beq	.L302
 711:funciones.c   ****             MenuAntt=Menu;
 4427              		.loc 1 711 0
 4428 0064 8D4B     		ldr	r3, .L340+16
 4429 0066 1A70     		strb	r2, [r3]
 4430 0068 C0E0     		b	.L302
 4431              	.L303:
 712:funciones.c   ****       }else if(Rx_Buffer[3]==0x04){//03 es Tiempo Esterilizacion
 4432              		.loc 1 712 0
 4433 006a 0429     		cmp	r1, #4
 4434 006c 0AD1     		bne	.L304
 713:funciones.c   ****          Menu=2;
 4435              		.loc 1 713 0
 4436 006e 0222     		movs	r2, #2
 4437 0070 894B     		ldr	r3, .L340+12
 4438 0072 1A70     		strb	r2, [r3]
 714:funciones.c   ****          if(MenuAntt!=Menu)
 4439              		.loc 1 714 0
 4440 0074 894B     		ldr	r3, .L340+16
 4441 0076 1B78     		ldrb	r3, [r3]	@ zero_extendqisi2
 4442 0078 9342     		cmp	r3, r2
 4443 007a 00F0B780 		beq	.L302
 715:funciones.c   ****             MenuAntt=Menu;
 4444              		.loc 1 715 0
 4445 007e 874B     		ldr	r3, .L340+16
 4446 0080 1A70     		strb	r2, [r3]
 4447 0082 B3E0     		b	.L302
 4448              	.L304:
 716:funciones.c   ****       }else if(Rx_Buffer[3]==0x05){//05 es Temperatura
 4449              		.loc 1 716 0
 4450 0084 0529     		cmp	r1, #5
 4451 0086 0AD1     		bne	.L305
 717:funciones.c   ****          Menu=3;
 4452              		.loc 1 717 0
 4453 0088 0322     		movs	r2, #3
 4454 008a 834B     		ldr	r3, .L340+12
 4455 008c 1A70     		strb	r2, [r3]
 718:funciones.c   ****          if(MenuAntt!=Menu)
 4456              		.loc 1 718 0
 4457 008e 834B     		ldr	r3, .L340+16
 4458 0090 1B78     		ldrb	r3, [r3]	@ zero_extendqisi2
 4459 0092 9342     		cmp	r3, r2
 4460 0094 00F0AA80 		beq	.L302
ARM GAS  C:\Users\USUARIO\AppData\Local\Temp\ccWuTYF0.s 			page 92


 719:funciones.c   ****             MenuAntt=Menu;
 4461              		.loc 1 719 0
 4462 0098 804B     		ldr	r3, .L340+16
 4463 009a 1A70     		strb	r2, [r3]
 4464 009c A6E0     		b	.L302
 4465              	.L305:
 720:funciones.c   ****       }else if(Rx_Buffer[3]==0x06){//06 es Humedad
 4466              		.loc 1 720 0
 4467 009e 0629     		cmp	r1, #6
 4468 00a0 0AD1     		bne	.L306
 721:funciones.c   ****          Menu=4;
 4469              		.loc 1 721 0
 4470 00a2 0422     		movs	r2, #4
 4471 00a4 7C4B     		ldr	r3, .L340+12
 4472 00a6 1A70     		strb	r2, [r3]
 722:funciones.c   ****          if(MenuAntt!=Menu)
 4473              		.loc 1 722 0
 4474 00a8 7C4B     		ldr	r3, .L340+16
 4475 00aa 1B78     		ldrb	r3, [r3]	@ zero_extendqisi2
 4476 00ac 9342     		cmp	r3, r2
 4477 00ae 00F09D80 		beq	.L302
 723:funciones.c   ****             MenuAntt=Menu;
 4478              		.loc 1 723 0
 4479 00b2 7A4B     		ldr	r3, .L340+16
 4480 00b4 1A70     		strb	r2, [r3]
 4481 00b6 99E0     		b	.L302
 4482              	.L306:
 724:funciones.c   ****       }else if(Rx_Buffer[3]==0x07){//07 es Test de Componentes
 4483              		.loc 1 724 0
 4484 00b8 0729     		cmp	r1, #7
 4485 00ba 0AD1     		bne	.L307
 725:funciones.c   ****          Menu=6;
 4486              		.loc 1 725 0
 4487 00bc 0622     		movs	r2, #6
 4488 00be 764B     		ldr	r3, .L340+12
 4489 00c0 1A70     		strb	r2, [r3]
 726:funciones.c   ****          if(MenuAntt!=Menu)
 4490              		.loc 1 726 0
 4491 00c2 764B     		ldr	r3, .L340+16
 4492 00c4 1B78     		ldrb	r3, [r3]	@ zero_extendqisi2
 4493 00c6 9342     		cmp	r3, r2
 4494 00c8 00F09080 		beq	.L302
 727:funciones.c   ****             MenuAntt=Menu;
 4495              		.loc 1 727 0
 4496 00cc 734B     		ldr	r3, .L340+16
 4497 00ce 1A70     		strb	r2, [r3]
 4498 00d0 8CE0     		b	.L302
 4499              	.L307:
 728:funciones.c   ****       }else if(Rx_Buffer[3]==0x08){//08 es Fecha y hora
 4500              		.loc 1 728 0
 4501 00d2 0829     		cmp	r1, #8
 4502 00d4 0AD1     		bne	.L308
 729:funciones.c   ****          Menu=7;
 4503              		.loc 1 729 0
 4504 00d6 0722     		movs	r2, #7
 4505 00d8 6F4B     		ldr	r3, .L340+12
 4506 00da 1A70     		strb	r2, [r3]
ARM GAS  C:\Users\USUARIO\AppData\Local\Temp\ccWuTYF0.s 			page 93


 730:funciones.c   ****          if(MenuAntt!=Menu)
 4507              		.loc 1 730 0
 4508 00dc 6F4B     		ldr	r3, .L340+16
 4509 00de 1B78     		ldrb	r3, [r3]	@ zero_extendqisi2
 4510 00e0 9342     		cmp	r3, r2
 4511 00e2 00F08380 		beq	.L302
 731:funciones.c   ****             MenuAntt=Menu;
 4512              		.loc 1 731 0
 4513 00e6 6D4B     		ldr	r3, .L340+16
 4514 00e8 1A70     		strb	r2, [r3]
 4515 00ea 7FE0     		b	.L302
 4516              	.L308:
 732:funciones.c   ****       }else if(Rx_Buffer[3]==0x09){//09 es Rampas
 4517              		.loc 1 732 0
 4518 00ec 0929     		cmp	r1, #9
 4519 00ee 09D1     		bne	.L309
 733:funciones.c   ****          Menu=8;
 4520              		.loc 1 733 0
 4521 00f0 0822     		movs	r2, #8
 4522 00f2 694B     		ldr	r3, .L340+12
 4523 00f4 1A70     		strb	r2, [r3]
 734:funciones.c   ****          if(MenuAntt!=Menu)
 4524              		.loc 1 734 0
 4525 00f6 694B     		ldr	r3, .L340+16
 4526 00f8 1B78     		ldrb	r3, [r3]	@ zero_extendqisi2
 4527 00fa 9342     		cmp	r3, r2
 4528 00fc 76D0     		beq	.L302
 735:funciones.c   ****             MenuAntt=Menu;
 4529              		.loc 1 735 0
 4530 00fe 674B     		ldr	r3, .L340+16
 4531 0100 1A70     		strb	r2, [r3]
 4532 0102 73E0     		b	.L302
 4533              	.L309:
 736:funciones.c   ****       }else if(Rx_Buffer[3]==0x0a){//0a es Pulsos de Vacio
 4534              		.loc 1 736 0
 4535 0104 0A29     		cmp	r1, #10
 4536 0106 09D1     		bne	.L310
 737:funciones.c   ****          Menu=9;
 4537              		.loc 1 737 0
 4538 0108 0922     		movs	r2, #9
 4539 010a 634B     		ldr	r3, .L340+12
 4540 010c 1A70     		strb	r2, [r3]
 738:funciones.c   ****          if(MenuAntt!=Menu)
 4541              		.loc 1 738 0
 4542 010e 634B     		ldr	r3, .L340+16
 4543 0110 1B78     		ldrb	r3, [r3]	@ zero_extendqisi2
 4544 0112 9342     		cmp	r3, r2
 4545 0114 6AD0     		beq	.L302
 739:funciones.c   ****             MenuAntt=Menu;
 4546              		.loc 1 739 0
 4547 0116 614B     		ldr	r3, .L340+16
 4548 0118 1A70     		strb	r2, [r3]
 4549 011a 67E0     		b	.L302
 4550              	.L310:
 740:funciones.c   ****       }else if(Rx_Buffer[3]==0x0f){//0f es Recibe caracteres de contrasea desde display
 4551              		.loc 1 740 0
 4552 011c 0F29     		cmp	r1, #15
ARM GAS  C:\Users\USUARIO\AppData\Local\Temp\ccWuTYF0.s 			page 94


 4553 011e 65D0     		beq	.L302
 741:funciones.c   ****          
 742:funciones.c   ****       }else if(Rx_Buffer[3]==0x1a){//1a es Menu de Funcionamiento
 4554              		.loc 1 742 0
 4555 0120 1A29     		cmp	r1, #26
 4556 0122 09D1     		bne	.L311
 743:funciones.c   ****          Menu=20;
 4557              		.loc 1 743 0
 4558 0124 1422     		movs	r2, #20
 4559 0126 5C4B     		ldr	r3, .L340+12
 4560 0128 1A70     		strb	r2, [r3]
 744:funciones.c   ****          if(MenuAntt!=Menu)
 4561              		.loc 1 744 0
 4562 012a 5C4B     		ldr	r3, .L340+16
 4563 012c 1B78     		ldrb	r3, [r3]	@ zero_extendqisi2
 4564 012e 9342     		cmp	r3, r2
 4565 0130 5CD0     		beq	.L302
 745:funciones.c   ****             MenuAntt=Menu;
 4566              		.loc 1 745 0
 4567 0132 5A4B     		ldr	r3, .L340+16
 4568 0134 1A70     		strb	r2, [r3]
 4569 0136 59E0     		b	.L302
 4570              	.L311:
 746:funciones.c   ****       }else if(Rx_Buffer[3]==0x1b){//1b es Menu de clave correcta
 4571              		.loc 1 746 0
 4572 0138 1B29     		cmp	r1, #27
 4573 013a 09D1     		bne	.L312
 747:funciones.c   ****          Menu=15;
 4574              		.loc 1 747 0
 4575 013c 0F22     		movs	r2, #15
 4576 013e 564B     		ldr	r3, .L340+12
 4577 0140 1A70     		strb	r2, [r3]
 748:funciones.c   ****          if(MenuAntt!=Menu)
 4578              		.loc 1 748 0
 4579 0142 564B     		ldr	r3, .L340+16
 4580 0144 1B78     		ldrb	r3, [r3]	@ zero_extendqisi2
 4581 0146 9342     		cmp	r3, r2
 4582 0148 50D0     		beq	.L302
 749:funciones.c   ****             MenuAntt=Menu;
 4583              		.loc 1 749 0
 4584 014a 544B     		ldr	r3, .L340+16
 4585 014c 1A70     		strb	r2, [r3]
 4586 014e 4DE0     		b	.L302
 4587              	.L312:
 750:funciones.c   ****       }else if(Rx_Buffer[3]==0x1c){//1c es Menu de clave incorrecta
 4588              		.loc 1 750 0
 4589 0150 1C29     		cmp	r1, #28
 4590 0152 09D1     		bne	.L313
 751:funciones.c   ****          Menu=16;
 4591              		.loc 1 751 0
 4592 0154 1022     		movs	r2, #16
 4593 0156 504B     		ldr	r3, .L340+12
 4594 0158 1A70     		strb	r2, [r3]
 752:funciones.c   ****          if(MenuAntt!=Menu)
 4595              		.loc 1 752 0
 4596 015a 504B     		ldr	r3, .L340+16
 4597 015c 1B78     		ldrb	r3, [r3]	@ zero_extendqisi2
ARM GAS  C:\Users\USUARIO\AppData\Local\Temp\ccWuTYF0.s 			page 95


 4598 015e 9342     		cmp	r3, r2
 4599 0160 44D0     		beq	.L302
 753:funciones.c   ****             MenuAntt=Menu;
 4600              		.loc 1 753 0
 4601 0162 4E4B     		ldr	r3, .L340+16
 4602 0164 1A70     		strb	r2, [r3]
 4603 0166 41E0     		b	.L302
 4604              	.L313:
 754:funciones.c   ****       }else if(Rx_Buffer[3]==0x1d){//1d es Menu de Eliminado Programa
 4605              		.loc 1 754 0
 4606 0168 1D29     		cmp	r1, #29
 4607 016a 09D1     		bne	.L314
 755:funciones.c   ****          Menu=17;
 4608              		.loc 1 755 0
 4609 016c 1122     		movs	r2, #17
 4610 016e 4A4B     		ldr	r3, .L340+12
 4611 0170 1A70     		strb	r2, [r3]
 756:funciones.c   ****          if(MenuAntt!=Menu)
 4612              		.loc 1 756 0
 4613 0172 4A4B     		ldr	r3, .L340+16
 4614 0174 1B78     		ldrb	r3, [r3]	@ zero_extendqisi2
 4615 0176 9342     		cmp	r3, r2
 4616 0178 38D0     		beq	.L302
 757:funciones.c   ****             MenuAntt=Menu;
 4617              		.loc 1 757 0
 4618 017a 484B     		ldr	r3, .L340+16
 4619 017c 1A70     		strb	r2, [r3]
 4620 017e 35E0     		b	.L302
 4621              	.L314:
 758:funciones.c   ****       }else if(Rx_Buffer[3]==0x1e){//1d es Menu de Pregunta
 4622              		.loc 1 758 0
 4623 0180 1E29     		cmp	r1, #30
 4624 0182 09D1     		bne	.L315
 759:funciones.c   ****          Menu=18;
 4625              		.loc 1 759 0
 4626 0184 1222     		movs	r2, #18
 4627 0186 444B     		ldr	r3, .L340+12
 4628 0188 1A70     		strb	r2, [r3]
 760:funciones.c   ****          if(MenuAntt!=Menu)
 4629              		.loc 1 760 0
 4630 018a 444B     		ldr	r3, .L340+16
 4631 018c 1B78     		ldrb	r3, [r3]	@ zero_extendqisi2
 4632 018e 9342     		cmp	r3, r2
 4633 0190 2CD0     		beq	.L302
 761:funciones.c   ****             MenuAntt=Menu;
 4634              		.loc 1 761 0
 4635 0192 424B     		ldr	r3, .L340+16
 4636 0194 1A70     		strb	r2, [r3]
 4637 0196 29E0     		b	.L302
 4638              	.L315:
 762:funciones.c   ****       }else if(Rx_Buffer[3]==0x2c){//2c es Menu de Configuracion de Parametros
 4639              		.loc 1 762 0
 4640 0198 2C29     		cmp	r1, #44
 4641 019a 09D1     		bne	.L316
 763:funciones.c   ****          Menu=100;
 4642              		.loc 1 763 0
 4643 019c 6422     		movs	r2, #100
ARM GAS  C:\Users\USUARIO\AppData\Local\Temp\ccWuTYF0.s 			page 96


 4644 019e 3E4B     		ldr	r3, .L340+12
 4645 01a0 1A70     		strb	r2, [r3]
 764:funciones.c   ****          if(MenuAntt!=Menu)
 4646              		.loc 1 764 0
 4647 01a2 3E4B     		ldr	r3, .L340+16
 4648 01a4 1B78     		ldrb	r3, [r3]	@ zero_extendqisi2
 4649 01a6 9342     		cmp	r3, r2
 4650 01a8 20D0     		beq	.L302
 765:funciones.c   ****             MenuAntt=Menu;
 4651              		.loc 1 765 0
 4652 01aa 3C4B     		ldr	r3, .L340+16
 4653 01ac 1A70     		strb	r2, [r3]
 4654 01ae 1DE0     		b	.L302
 4655              	.L316:
 766:funciones.c   ****       }else if(Rx_Buffer[3]==0xcc){//cc es Menu de Bienvenida
 4656              		.loc 1 766 0
 4657 01b0 CC29     		cmp	r1, #204
 4658 01b2 1BD1     		bne	.L302
 767:funciones.c   ****         if(controlT==0 && controlH==0 && controlR==0)
 4659              		.loc 1 767 0
 4660 01b4 3A4B     		ldr	r3, .L340+20
 4661 01b6 1B78     		ldrb	r3, [r3]	@ zero_extendqisi2
 4662 01b8 4BB9     		cbnz	r3, .L317
 4663              		.loc 1 767 0 is_stmt 0 discriminator 1
 4664 01ba 3A4B     		ldr	r3, .L340+24
 4665 01bc 1B78     		ldrb	r3, [r3]	@ zero_extendqisi2
 4666 01be 33B9     		cbnz	r3, .L317
 4667              		.loc 1 767 0 discriminator 2
 4668 01c0 394B     		ldr	r3, .L340+28
 4669 01c2 1B78     		ldrb	r3, [r3]	@ zero_extendqisi2
 4670 01c4 1BB9     		cbnz	r3, .L317
 768:funciones.c   ****             Menu=120;
 4671              		.loc 1 768 0 is_stmt 1
 4672 01c6 7822     		movs	r2, #120
 4673 01c8 334B     		ldr	r3, .L340+12
 4674 01ca 1A70     		strb	r2, [r3]
 4675 01cc 0EE0     		b	.L302
 4676              	.L317:
 769:funciones.c   ****         else
 770:funciones.c   ****             Menu=20;
 4677              		.loc 1 770 0
 4678 01ce 1422     		movs	r2, #20
 4679 01d0 314B     		ldr	r3, .L340+12
 4680 01d2 1A70     		strb	r2, [r3]
 4681 01d4 0AE0     		b	.L302
 4682              	.L300:
 771:funciones.c   ****          //if(MenuAntt!=120)
 772:funciones.c   ****             //reset_cpu();
 773:funciones.c   ****       }
 774:funciones.c   ****    }else{
 775:funciones.c   ****       for(z=0;z<RX_BUFFER_SIZE;z++){
 4683              		.loc 1 775 0
 4684 01d6 0022     		movs	r2, #0
 4685 01d8 344B     		ldr	r3, .L340+32
 4686 01da 1A70     		strb	r2, [r3]
 4687 01dc 02E0     		b	.L318
 4688              	.L319:
ARM GAS  C:\Users\USUARIO\AppData\Local\Temp\ccWuTYF0.s 			page 97


 4689              		.loc 1 775 0 is_stmt 0 discriminator 3
 4690 01de 0133     		adds	r3, r3, #1
 4691 01e0 324A     		ldr	r2, .L340+32
 4692 01e2 1370     		strb	r3, [r2]
 4693              	.L318:
 4694              		.loc 1 775 0 discriminator 1
 4695 01e4 314B     		ldr	r3, .L340+32
 4696 01e6 1B78     		ldrb	r3, [r3]	@ zero_extendqisi2
 4697 01e8 092B     		cmp	r3, #9
 4698 01ea F8D9     		bls	.L319
 4699              	.L302:
 776:funciones.c   ****             //Rx_Buffer[z]=0;
 777:funciones.c   ****             //Rx_Buffer2[z]=0;
 778:funciones.c   ****          }
 779:funciones.c   ****    }
 780:funciones.c   **** 
 781:funciones.c   ****        if(Dato_Exitoso2==5){
 4700              		.loc 1 781 0 is_stmt 1
 4701 01ec 304B     		ldr	r3, .L340+36
 4702 01ee 1B78     		ldrb	r3, [r3]	@ zero_extendqisi2
 4703 01f0 052B     		cmp	r3, #5
 4704 01f2 40F00281 		bne	.L320
 782:funciones.c   ****          Rx_Buffer3[0]=Rx_Buffer4[0];
 4705              		.loc 1 782 0
 4706 01f6 2F4A     		ldr	r2, .L340+40
 4707 01f8 1178     		ldrb	r1, [r2]	@ zero_extendqisi2
 4708 01fa 2F4B     		ldr	r3, .L340+44
 4709 01fc 1970     		strb	r1, [r3]
 783:funciones.c   ****          Rx_Buffer3[1]=Rx_Buffer4[1];
 4710              		.loc 1 783 0
 4711 01fe 5178     		ldrb	r1, [r2, #1]	@ zero_extendqisi2
 4712 0200 5970     		strb	r1, [r3, #1]
 784:funciones.c   ****          Rx_Buffer3[2]=Rx_Buffer4[2];
 4713              		.loc 1 784 0
 4714 0202 9178     		ldrb	r1, [r2, #2]	@ zero_extendqisi2
 4715 0204 9970     		strb	r1, [r3, #2]
 785:funciones.c   ****          Rx_Buffer3[3]=Rx_Buffer4[3];
 4716              		.loc 1 785 0
 4717 0206 D178     		ldrb	r1, [r2, #3]	@ zero_extendqisi2
 4718 0208 D970     		strb	r1, [r3, #3]
 786:funciones.c   ****          Rx_Buffer3[4]=Rx_Buffer4[4];
 4719              		.loc 1 786 0
 4720 020a 1079     		ldrb	r0, [r2, #4]	@ zero_extendqisi2
 4721 020c 1871     		strb	r0, [r3, #4]
 787:funciones.c   ****          Rx_Buffer3[5]=Rx_Buffer4[5];
 4722              		.loc 1 787 0
 4723 020e 5079     		ldrb	r0, [r2, #5]	@ zero_extendqisi2
 4724 0210 5871     		strb	r0, [r3, #5]
 788:funciones.c   ****          Rx_Buffer3[6]=Rx_Buffer4[6];
 4725              		.loc 1 788 0
 4726 0212 9079     		ldrb	r0, [r2, #6]	@ zero_extendqisi2
 4727 0214 9871     		strb	r0, [r3, #6]
 789:funciones.c   ****          Rx_Buffer3[7]=Rx_Buffer4[7];
 4728              		.loc 1 789 0
 4729 0216 D079     		ldrb	r0, [r2, #7]	@ zero_extendqisi2
 4730 0218 D871     		strb	r0, [r3, #7]
 790:funciones.c   ****          Rx_Buffer3[8]=Rx_Buffer4[8];
ARM GAS  C:\Users\USUARIO\AppData\Local\Temp\ccWuTYF0.s 			page 98


 4731              		.loc 1 790 0
 4732 021a 107A     		ldrb	r0, [r2, #8]	@ zero_extendqisi2
 4733 021c 1872     		strb	r0, [r3, #8]
 791:funciones.c   ****          Rx_Buffer3[9]=Rx_Buffer4[9];
 4734              		.loc 1 791 0
 4735 021e 527A     		ldrb	r2, [r2, #9]	@ zero_extendqisi2
 4736 0220 5A72     		strb	r2, [r3, #9]
 792:funciones.c   ****          
 793:funciones.c   ****       if(Rx_Buffer3[3]==0x01){// Pregunta por la pagina en la que esta el display,01 es Contrasea
 4737              		.loc 1 793 0
 4738 0222 0129     		cmp	r1, #1
 4739 0224 0AD1     		bne	.L321
 794:funciones.c   ****          Menu2=0;
 4740              		.loc 1 794 0
 4741 0226 0022     		movs	r2, #0
 4742 0228 244B     		ldr	r3, .L340+48
 4743 022a 1A70     		strb	r2, [r3]
 795:funciones.c   ****          if(MenuAntt2!=Menu2)
 4744              		.loc 1 795 0
 4745 022c 244B     		ldr	r3, .L340+52
 4746 022e 1B78     		ldrb	r3, [r3]	@ zero_extendqisi2
 4747 0230 002B     		cmp	r3, #0
 4748 0232 00F0ED80 		beq	.L299
 796:funciones.c   ****             MenuAntt2=Menu2;
 4749              		.loc 1 796 0
 4750 0236 224B     		ldr	r3, .L340+52
 4751 0238 1A70     		strb	r2, [r3]
 4752 023a 7047     		bx	lr
 4753              	.L321:
 797:funciones.c   ****       }else if(Rx_Buffer3[3]==0x02){//02 es Menu Principal con PantallaPriincipal=0, y con Pantalla
 4754              		.loc 1 797 0
 4755 023c 0229     		cmp	r1, #2
 4756 023e 0AD1     		bne	.L323
 798:funciones.c   ****          Menu2=1;
 4757              		.loc 1 798 0
 4758 0240 0122     		movs	r2, #1
 4759 0242 1E4B     		ldr	r3, .L340+48
 4760 0244 1A70     		strb	r2, [r3]
 799:funciones.c   ****          if(MenuAntt2!=Menu2)
 4761              		.loc 1 799 0
 4762 0246 1E4B     		ldr	r3, .L340+52
 4763 0248 1B78     		ldrb	r3, [r3]	@ zero_extendqisi2
 4764 024a 9342     		cmp	r3, r2
 4765 024c 00F0E080 		beq	.L299
 800:funciones.c   ****             MenuAntt2=Menu2;
 4766              		.loc 1 800 0
 4767 0250 1B4B     		ldr	r3, .L340+52
 4768 0252 1A70     		strb	r2, [r3]
 4769 0254 7047     		bx	lr
 4770              	.L323:
 801:funciones.c   ****       }else if(Rx_Buffer3[3]==0x04){//03 es Tiempo Esterilizacion
 4771              		.loc 1 801 0
 4772 0256 0429     		cmp	r1, #4
 4773 0258 0AD1     		bne	.L324
 802:funciones.c   ****          Menu2=2;
 4774              		.loc 1 802 0
 4775 025a 0222     		movs	r2, #2
ARM GAS  C:\Users\USUARIO\AppData\Local\Temp\ccWuTYF0.s 			page 99


 4776 025c 174B     		ldr	r3, .L340+48
 4777 025e 1A70     		strb	r2, [r3]
 803:funciones.c   ****          if(MenuAntt2!=Menu2)
 4778              		.loc 1 803 0
 4779 0260 174B     		ldr	r3, .L340+52
 4780 0262 1B78     		ldrb	r3, [r3]	@ zero_extendqisi2
 4781 0264 9342     		cmp	r3, r2
 4782 0266 00F0D380 		beq	.L299
 804:funciones.c   ****             MenuAntt2=Menu2;
 4783              		.loc 1 804 0
 4784 026a 154B     		ldr	r3, .L340+52
 4785 026c 1A70     		strb	r2, [r3]
 4786 026e 7047     		bx	lr
 4787              	.L324:
 805:funciones.c   ****       }else if(Rx_Buffer3[3]==0x05){//05 es Temperatura
 4788              		.loc 1 805 0
 4789 0270 0529     		cmp	r1, #5
 4790 0272 27D1     		bne	.L325
 806:funciones.c   ****          Menu2=3;
 4791              		.loc 1 806 0
 4792 0274 0322     		movs	r2, #3
 4793 0276 114B     		ldr	r3, .L340+48
 4794 0278 1A70     		strb	r2, [r3]
 807:funciones.c   ****          if(MenuAntt2!=Menu2)
 4795              		.loc 1 807 0
 4796 027a 114B     		ldr	r3, .L340+52
 4797 027c 1B78     		ldrb	r3, [r3]	@ zero_extendqisi2
 4798 027e 9342     		cmp	r3, r2
 4799 0280 00F0C680 		beq	.L299
 808:funciones.c   ****             MenuAntt2=Menu2;
 4800              		.loc 1 808 0
 4801 0284 0E4B     		ldr	r3, .L340+52
 4802 0286 1A70     		strb	r2, [r3]
 4803 0288 7047     		bx	lr
 4804              	.L341:
 4805 028a 00BF     		.align	2
 4806              	.L340:
 4807 028c 00000000 		.word	Dato_Exitoso
 4808 0290 00000000 		.word	Rx_Buffer2
 4809 0294 00000000 		.word	Rx_Buffer
 4810 0298 00000000 		.word	Menu
 4811 029c 00000000 		.word	MenuAntt
 4812 02a0 00000000 		.word	controlT
 4813 02a4 00000000 		.word	controlH
 4814 02a8 00000000 		.word	controlR
 4815 02ac 00000000 		.word	z
 4816 02b0 00000000 		.word	Dato_Exitoso2
 4817 02b4 00000000 		.word	Rx_Buffer4
 4818 02b8 00000000 		.word	Rx_Buffer3
 4819 02bc 00000000 		.word	Menu2
 4820 02c0 00000000 		.word	MenuAntt2
 4821              	.L325:
 809:funciones.c   ****       }else if(Rx_Buffer3[3]==0x06){//06 es Nivel
 4822              		.loc 1 809 0
 4823 02c4 0629     		cmp	r1, #6
 4824 02c6 0AD1     		bne	.L326
 810:funciones.c   ****          Menu2=5;
ARM GAS  C:\Users\USUARIO\AppData\Local\Temp\ccWuTYF0.s 			page 100


 4825              		.loc 1 810 0
 4826 02c8 0522     		movs	r2, #5
 4827 02ca 524B     		ldr	r3, .L342
 4828 02cc 1A70     		strb	r2, [r3]
 811:funciones.c   ****          if(MenuAntt2!=Menu2)
 4829              		.loc 1 811 0
 4830 02ce 524B     		ldr	r3, .L342+4
 4831 02d0 1B78     		ldrb	r3, [r3]	@ zero_extendqisi2
 4832 02d2 9342     		cmp	r3, r2
 4833 02d4 00F09C80 		beq	.L299
 812:funciones.c   ****             MenuAntt2=Menu2;
 4834              		.loc 1 812 0
 4835 02d8 4F4B     		ldr	r3, .L342+4
 4836 02da 1A70     		strb	r2, [r3]
 4837 02dc 7047     		bx	lr
 4838              	.L326:
 813:funciones.c   ****       }else if(Rx_Buffer3[3]==0x07){//07 es Test de Componentes
 4839              		.loc 1 813 0
 4840 02de 0729     		cmp	r1, #7
 4841 02e0 0AD1     		bne	.L327
 814:funciones.c   ****          Menu2=6;
 4842              		.loc 1 814 0
 4843 02e2 0622     		movs	r2, #6
 4844 02e4 4B4B     		ldr	r3, .L342
 4845 02e6 1A70     		strb	r2, [r3]
 815:funciones.c   ****          if(MenuAntt2!=Menu2)
 4846              		.loc 1 815 0
 4847 02e8 4B4B     		ldr	r3, .L342+4
 4848 02ea 1B78     		ldrb	r3, [r3]	@ zero_extendqisi2
 4849 02ec 9342     		cmp	r3, r2
 4850 02ee 00F08F80 		beq	.L299
 816:funciones.c   ****             MenuAntt2=Menu2;
 4851              		.loc 1 816 0
 4852 02f2 494B     		ldr	r3, .L342+4
 4853 02f4 1A70     		strb	r2, [r3]
 4854 02f6 7047     		bx	lr
 4855              	.L327:
 817:funciones.c   ****       }else if(Rx_Buffer3[3]==0x08){//08 es Fecha y hora
 4856              		.loc 1 817 0
 4857 02f8 0829     		cmp	r1, #8
 4858 02fa 0AD1     		bne	.L328
 818:funciones.c   ****          Menu2=7;
 4859              		.loc 1 818 0
 4860 02fc 0722     		movs	r2, #7
 4861 02fe 454B     		ldr	r3, .L342
 4862 0300 1A70     		strb	r2, [r3]
 819:funciones.c   ****          if(MenuAntt2!=Menu2)
 4863              		.loc 1 819 0
 4864 0302 454B     		ldr	r3, .L342+4
 4865 0304 1B78     		ldrb	r3, [r3]	@ zero_extendqisi2
 4866 0306 9342     		cmp	r3, r2
 4867 0308 00F08280 		beq	.L299
 820:funciones.c   ****             MenuAntt2=Menu2;
 4868              		.loc 1 820 0
 4869 030c 424B     		ldr	r3, .L342+4
 4870 030e 1A70     		strb	r2, [r3]
 4871 0310 7047     		bx	lr
ARM GAS  C:\Users\USUARIO\AppData\Local\Temp\ccWuTYF0.s 			page 101


 4872              	.L328:
 821:funciones.c   ****       }else if(Rx_Buffer3[3]==0x09){//09 es Rampas
 4873              		.loc 1 821 0
 4874 0312 0929     		cmp	r1, #9
 4875 0314 09D1     		bne	.L329
 822:funciones.c   ****          Menu2=8;
 4876              		.loc 1 822 0
 4877 0316 0822     		movs	r2, #8
 4878 0318 3E4B     		ldr	r3, .L342
 4879 031a 1A70     		strb	r2, [r3]
 823:funciones.c   ****          if(MenuAntt2!=Menu2)
 4880              		.loc 1 823 0
 4881 031c 3E4B     		ldr	r3, .L342+4
 4882 031e 1B78     		ldrb	r3, [r3]	@ zero_extendqisi2
 4883 0320 9342     		cmp	r3, r2
 4884 0322 75D0     		beq	.L299
 824:funciones.c   ****             MenuAntt2=Menu2;
 4885              		.loc 1 824 0
 4886 0324 3C4B     		ldr	r3, .L342+4
 4887 0326 1A70     		strb	r2, [r3]
 4888 0328 7047     		bx	lr
 4889              	.L329:
 825:funciones.c   ****       }else if(Rx_Buffer3[3]==0x0a){//0a es Grafica
 4890              		.loc 1 825 0
 4891 032a 0A29     		cmp	r1, #10
 4892 032c 09D1     		bne	.L330
 826:funciones.c   ****          Menu2=9;
 4893              		.loc 1 826 0
 4894 032e 0922     		movs	r2, #9
 4895 0330 384B     		ldr	r3, .L342
 4896 0332 1A70     		strb	r2, [r3]
 827:funciones.c   ****          if(MenuAntt2!=Menu2)
 4897              		.loc 1 827 0
 4898 0334 384B     		ldr	r3, .L342+4
 4899 0336 1B78     		ldrb	r3, [r3]	@ zero_extendqisi2
 4900 0338 9342     		cmp	r3, r2
 4901 033a 69D0     		beq	.L299
 828:funciones.c   ****             MenuAntt2=Menu2;
 4902              		.loc 1 828 0
 4903 033c 364B     		ldr	r3, .L342+4
 4904 033e 1A70     		strb	r2, [r3]
 4905 0340 7047     		bx	lr
 4906              	.L330:
 829:funciones.c   ****       }else if(Rx_Buffer3[3]==0x0b){//0b es Red
 4907              		.loc 1 829 0
 4908 0342 0B29     		cmp	r1, #11
 4909 0344 09D1     		bne	.L331
 830:funciones.c   ****          Menu2=10;
 4910              		.loc 1 830 0
 4911 0346 0A22     		movs	r2, #10
 4912 0348 324B     		ldr	r3, .L342
 4913 034a 1A70     		strb	r2, [r3]
 831:funciones.c   ****          if(MenuAntt2!=Menu2)
 4914              		.loc 1 831 0
 4915 034c 324B     		ldr	r3, .L342+4
 4916 034e 1B78     		ldrb	r3, [r3]	@ zero_extendqisi2
 4917 0350 9342     		cmp	r3, r2
ARM GAS  C:\Users\USUARIO\AppData\Local\Temp\ccWuTYF0.s 			page 102


 4918 0352 5DD0     		beq	.L299
 832:funciones.c   ****             MenuAntt2=Menu2;
 4919              		.loc 1 832 0
 4920 0354 304B     		ldr	r3, .L342+4
 4921 0356 1A70     		strb	r2, [r3]
 4922 0358 7047     		bx	lr
 4923              	.L331:
 833:funciones.c   ****       }else if(Rx_Buffer3[3]==0x0c){//0c es Calibracion Temperatura
 4924              		.loc 1 833 0
 4925 035a 0C29     		cmp	r1, #12
 4926 035c 09D1     		bne	.L332
 834:funciones.c   ****          Menu2=11;
 4927              		.loc 1 834 0
 4928 035e 0B22     		movs	r2, #11
 4929 0360 2C4B     		ldr	r3, .L342
 4930 0362 1A70     		strb	r2, [r3]
 835:funciones.c   ****          if(MenuAntt2!=Menu2)
 4931              		.loc 1 835 0
 4932 0364 2C4B     		ldr	r3, .L342+4
 4933 0366 1B78     		ldrb	r3, [r3]	@ zero_extendqisi2
 4934 0368 9342     		cmp	r3, r2
 4935 036a 51D0     		beq	.L299
 836:funciones.c   ****             MenuAntt2=Menu2;
 4936              		.loc 1 836 0
 4937 036c 2A4B     		ldr	r3, .L342+4
 4938 036e 1A70     		strb	r2, [r3]
 4939 0370 7047     		bx	lr
 4940              	.L332:
 837:funciones.c   ****       }else if(Rx_Buffer3[3]==0x0d){//0c es Calibracion Humedad
 4941              		.loc 1 837 0
 4942 0372 0D29     		cmp	r1, #13
 4943 0374 09D1     		bne	.L333
 838:funciones.c   ****          Menu2=12;
 4944              		.loc 1 838 0
 4945 0376 0C22     		movs	r2, #12
 4946 0378 264B     		ldr	r3, .L342
 4947 037a 1A70     		strb	r2, [r3]
 839:funciones.c   ****          if(MenuAntt2!=Menu2)
 4948              		.loc 1 839 0
 4949 037c 264B     		ldr	r3, .L342+4
 4950 037e 1B78     		ldrb	r3, [r3]	@ zero_extendqisi2
 4951 0380 9342     		cmp	r3, r2
 4952 0382 45D0     		beq	.L299
 840:funciones.c   ****             MenuAntt2=Menu2;
 4953              		.loc 1 840 0
 4954 0384 244B     		ldr	r3, .L342+4
 4955 0386 1A70     		strb	r2, [r3]
 4956 0388 7047     		bx	lr
 4957              	.L333:
 841:funciones.c   ****       }else if(Rx_Buffer3[3]==0x0f){//0f es Recibe caracteres de contrasea desde display
 4958              		.loc 1 841 0
 4959 038a 0F29     		cmp	r1, #15
 4960 038c 40D0     		beq	.L299
 842:funciones.c   ****          
 843:funciones.c   ****       }else if(Rx_Buffer3[3]==0x1a){//1a es Menu de Funcionamiento
 4961              		.loc 1 843 0
 4962 038e 1A29     		cmp	r1, #26
ARM GAS  C:\Users\USUARIO\AppData\Local\Temp\ccWuTYF0.s 			page 103


 4963 0390 09D1     		bne	.L334
 844:funciones.c   ****          Menu2=20;
 4964              		.loc 1 844 0
 4965 0392 1422     		movs	r2, #20
 4966 0394 1F4B     		ldr	r3, .L342
 4967 0396 1A70     		strb	r2, [r3]
 845:funciones.c   ****          if(MenuAntt2!=Menu2)
 4968              		.loc 1 845 0
 4969 0398 1F4B     		ldr	r3, .L342+4
 4970 039a 1B78     		ldrb	r3, [r3]	@ zero_extendqisi2
 4971 039c 9342     		cmp	r3, r2
 4972 039e 37D0     		beq	.L299
 846:funciones.c   ****             MenuAntt2=Menu2;
 4973              		.loc 1 846 0
 4974 03a0 1D4B     		ldr	r3, .L342+4
 4975 03a2 1A70     		strb	r2, [r3]
 4976 03a4 7047     		bx	lr
 4977              	.L334:
 847:funciones.c   ****       }else if(Rx_Buffer3[3]==0x1b){//1b es Menu de clave correcta
 4978              		.loc 1 847 0
 4979 03a6 1B29     		cmp	r1, #27
 4980 03a8 09D1     		bne	.L335
 848:funciones.c   ****          Menu2=15;
 4981              		.loc 1 848 0
 4982 03aa 0F22     		movs	r2, #15
 4983 03ac 194B     		ldr	r3, .L342
 4984 03ae 1A70     		strb	r2, [r3]
 849:funciones.c   ****          if(MenuAntt2!=Menu2)
 4985              		.loc 1 849 0
 4986 03b0 194B     		ldr	r3, .L342+4
 4987 03b2 1B78     		ldrb	r3, [r3]	@ zero_extendqisi2
 4988 03b4 9342     		cmp	r3, r2
 4989 03b6 2BD0     		beq	.L299
 850:funciones.c   ****             MenuAntt2=Menu2;
 4990              		.loc 1 850 0
 4991 03b8 174B     		ldr	r3, .L342+4
 4992 03ba 1A70     		strb	r2, [r3]
 4993 03bc 7047     		bx	lr
 4994              	.L335:
 851:funciones.c   ****       }else if(Rx_Buffer3[3]==0x1c){//1c es Menu de clave incorrecta
 4995              		.loc 1 851 0
 4996 03be 1C29     		cmp	r1, #28
 4997 03c0 09D1     		bne	.L336
 852:funciones.c   ****          Menu2=16;
 4998              		.loc 1 852 0
 4999 03c2 1022     		movs	r2, #16
 5000 03c4 134B     		ldr	r3, .L342
 5001 03c6 1A70     		strb	r2, [r3]
 853:funciones.c   ****          if(MenuAntt2!=Menu2)
 5002              		.loc 1 853 0
 5003 03c8 134B     		ldr	r3, .L342+4
 5004 03ca 1B78     		ldrb	r3, [r3]	@ zero_extendqisi2
 5005 03cc 9342     		cmp	r3, r2
 5006 03ce 1FD0     		beq	.L299
 854:funciones.c   ****             MenuAntt2=Menu2;
 5007              		.loc 1 854 0
 5008 03d0 114B     		ldr	r3, .L342+4
ARM GAS  C:\Users\USUARIO\AppData\Local\Temp\ccWuTYF0.s 			page 104


 5009 03d2 1A70     		strb	r2, [r3]
 5010 03d4 7047     		bx	lr
 5011              	.L336:
 855:funciones.c   ****       }else if(Rx_Buffer3[3]==0x2c){//2c es Menu de Configuracion de Parametros
 5012              		.loc 1 855 0
 5013 03d6 2C29     		cmp	r1, #44
 5014 03d8 09D1     		bne	.L337
 856:funciones.c   ****          Menu2=100;
 5015              		.loc 1 856 0
 5016 03da 6422     		movs	r2, #100
 5017 03dc 0D4B     		ldr	r3, .L342
 5018 03de 1A70     		strb	r2, [r3]
 857:funciones.c   ****          if(MenuAntt2!=Menu2)
 5019              		.loc 1 857 0
 5020 03e0 0D4B     		ldr	r3, .L342+4
 5021 03e2 1B78     		ldrb	r3, [r3]	@ zero_extendqisi2
 5022 03e4 9342     		cmp	r3, r2
 5023 03e6 13D0     		beq	.L299
 858:funciones.c   ****             MenuAntt2=Menu2;
 5024              		.loc 1 858 0
 5025 03e8 0B4B     		ldr	r3, .L342+4
 5026 03ea 1A70     		strb	r2, [r3]
 5027 03ec 7047     		bx	lr
 5028              	.L337:
 859:funciones.c   ****       }else if(Rx_Buffer3[3]==0xcc){//cc es Menu de Bienvenida
 5029              		.loc 1 859 0
 5030 03ee CC29     		cmp	r1, #204
 5031 03f0 0ED1     		bne	.L299
 860:funciones.c   ****          Menu2=120;
 5032              		.loc 1 860 0
 5033 03f2 7822     		movs	r2, #120
 5034 03f4 074B     		ldr	r3, .L342
 5035 03f6 1A70     		strb	r2, [r3]
 5036 03f8 7047     		bx	lr
 5037              	.L320:
 861:funciones.c   ****          //if(MenuAntt!=120)
 862:funciones.c   ****             //reset_cpu();
 863:funciones.c   ****       }
 864:funciones.c   ****    }else{
 865:funciones.c   ****          for(z=0;z<RX_BUFFER_SIZE;z++){
 5038              		.loc 1 865 0
 5039 03fa 0022     		movs	r2, #0
 5040 03fc 074B     		ldr	r3, .L342+8
 5041 03fe 1A70     		strb	r2, [r3]
 5042 0400 02E0     		b	.L338
 5043              	.L339:
 5044              		.loc 1 865 0 is_stmt 0 discriminator 3
 5045 0402 0133     		adds	r3, r3, #1
 5046 0404 054A     		ldr	r2, .L342+8
 5047 0406 1370     		strb	r3, [r2]
 5048              	.L338:
 5049              		.loc 1 865 0 discriminator 1
 5050 0408 044B     		ldr	r3, .L342+8
 5051 040a 1B78     		ldrb	r3, [r3]	@ zero_extendqisi2
 5052 040c 092B     		cmp	r3, #9
 5053 040e F8D9     		bls	.L339
 5054              	.L299:
ARM GAS  C:\Users\USUARIO\AppData\Local\Temp\ccWuTYF0.s 			page 105


 5055 0410 7047     		bx	lr
 5056              	.L343:
 5057 0412 00BF     		.align	2
 5058              	.L342:
 5059 0414 00000000 		.word	Menu2
 5060 0418 00000000 		.word	MenuAntt2
 5061 041c 00000000 		.word	z
 5062              		.cfi_endproc
 5063              	.LFE77:
 5064              		.size	LeeDisplay, .-LeeDisplay
 5065              		.global	__aeabi_dcmpge
 5066              		.section	.text.controlaRampa,"ax",%progbits
 5067              		.align	2
 5068              		.global	controlaRampa
 5069              		.thumb
 5070              		.thumb_func
 5071              		.type	controlaRampa, %function
 5072              	controlaRampa:
 5073              	.LFB78:
 866:funciones.c   ****             //Rx_Buffer[z]=0;
 867:funciones.c   ****             //Rx_Buffer2[z]=0;
 868:funciones.c   ****          }
 869:funciones.c   ****    }
 870:funciones.c   **** }
 871:funciones.c   **** 
 872:funciones.c   **** void controlaRampa(){
 5074              		.loc 1 872 0 is_stmt 1
 5075              		.cfi_startproc
 5076              		@ args = 0, pretend = 0, frame = 0
 5077              		@ frame_needed = 0, uses_anonymous_args = 0
 5078 0000 2DE9F041 		push	{r4, r5, r6, r7, r8, lr}
 5079              		.cfi_def_cfa_offset 24
 5080              		.cfi_offset 4, -24
 5081              		.cfi_offset 5, -20
 5082              		.cfi_offset 6, -16
 5083              		.cfi_offset 7, -12
 5084              		.cfi_offset 8, -8
 5085              		.cfi_offset 14, -4
 873:funciones.c   ****       if(Enfria==1){
 5086              		.loc 1 873 0
 5087 0004 9E4B     		ldr	r3, .L394+8
 5088 0006 B3F90030 		ldrsh	r3, [r3]
 5089 000a 012B     		cmp	r3, #1
 5090 000c 40F09980 		bne	.L345
 874:funciones.c   ****       if(Temperatura<=Setpoint+0.5 && Temperatura>=Setpoint-0.5){
 5091              		.loc 1 874 0
 5092 0010 9C4B     		ldr	r3, .L394+12
 5093 0012 1868     		ldr	r0, [r3]	@ float
 5094 0014 FFF7FEFF 		bl	__aeabi_f2d
 5095              	.LVL548:
 5096 0018 0446     		mov	r4, r0
 5097 001a 0D46     		mov	r5, r1
 5098 001c 9A4B     		ldr	r3, .L394+16
 5099 001e D3F80080 		ldr	r8, [r3]	@ float
 5100 0022 4046     		mov	r0, r8
 5101 0024 FFF7FEFF 		bl	__aeabi_f2d
 5102              	.LVL549:
ARM GAS  C:\Users\USUARIO\AppData\Local\Temp\ccWuTYF0.s 			page 106


 5103 0028 0646     		mov	r6, r0
 5104 002a 0F46     		mov	r7, r1
 5105 002c 0022     		movs	r2, #0
 5106 002e 974B     		ldr	r3, .L394+20
 5107 0030 FFF7FEFF 		bl	__aeabi_dadd
 5108              	.LVL550:
 5109 0034 0246     		mov	r2, r0
 5110 0036 0B46     		mov	r3, r1
 5111 0038 2046     		mov	r0, r4
 5112 003a 2946     		mov	r1, r5
 5113 003c FFF7FEFF 		bl	__aeabi_dcmple
 5114              	.LVL551:
 5115 0040 58B3     		cbz	r0, .L346
 5116              		.loc 1 874 0 is_stmt 0 discriminator 1
 5117 0042 0022     		movs	r2, #0
 5118 0044 914B     		ldr	r3, .L394+20
 5119 0046 3046     		mov	r0, r6
 5120 0048 3946     		mov	r1, r7
 5121 004a FFF7FEFF 		bl	__aeabi_dsub
 5122              	.LVL552:
 5123 004e 0246     		mov	r2, r0
 5124 0050 0B46     		mov	r3, r1
 5125 0052 2046     		mov	r0, r4
 5126 0054 2946     		mov	r1, r5
 5127 0056 FFF7FEFF 		bl	__aeabi_dcmpge
 5128              	.LVL553:
 5129 005a F0B1     		cbz	r0, .L346
 875:funciones.c   ****          if(Pendiente!=0){
 5130              		.loc 1 875 0 is_stmt 1
 5131 005c 0021     		movs	r1, #0
 5132 005e 8C4B     		ldr	r3, .L394+24
 5133 0060 1868     		ldr	r0, [r3]	@ float
 5134 0062 FFF7FEFF 		bl	__aeabi_fcmpeq
 5135              	.LVL554:
 5136 0066 28B9     		cbnz	r0, .L349
 876:funciones.c   ****             escribeDisplay1("statusT.txt=\"Controlando\"");
 5137              		.loc 1 876 0
 5138 0068 8A48     		ldr	r0, .L394+28
 5139 006a FFF7FEFF 		bl	escribeDisplay1
 5140              	.LVL555:
 877:funciones.c   ****             flagTemperatura=ON;            
 5141              		.loc 1 877 0
 5142 006e 0122     		movs	r2, #1
 5143 0070 894B     		ldr	r3, .L394+32
 5144 0072 1A80     		strh	r2, [r3]	@ movhi
 5145              	.L349:
 878:funciones.c   ****          }
 879:funciones.c   ****          
 880:funciones.c   ****          if(Pendiente==0){
 5146              		.loc 1 880 0
 5147 0074 0021     		movs	r1, #0
 5148 0076 864B     		ldr	r3, .L394+24
 5149 0078 1868     		ldr	r0, [r3]	@ float
 5150 007a FFF7FEFF 		bl	__aeabi_fcmpeq
 5151              	.LVL556:
 5152 007e 28B1     		cbz	r0, .L351
 881:funciones.c   ****             escribeDisplay1("statusT.txt=\"Meseta\"");
ARM GAS  C:\Users\USUARIO\AppData\Local\Temp\ccWuTYF0.s 			page 107


 5153              		.loc 1 881 0
 5154 0080 8648     		ldr	r0, .L394+36
 5155 0082 FFF7FEFF 		bl	escribeDisplay1
 5156              	.LVL557:
 882:funciones.c   ****             flagTemperatura=ON;
 5157              		.loc 1 882 0
 5158 0086 0122     		movs	r2, #1
 5159 0088 834B     		ldr	r3, .L394+32
 5160 008a 1A80     		strh	r2, [r3]	@ movhi
 5161              	.L351:
 883:funciones.c   ****          }
 884:funciones.c   ****          Controla();
 5162              		.loc 1 884 0
 5163 008c FFF7FEFF 		bl	Controla
 5164              	.LVL558:
 885:funciones.c   ****          flag_tiempocalentamiento=0;
 5165              		.loc 1 885 0
 5166 0090 0022     		movs	r2, #0
 5167 0092 834B     		ldr	r3, .L394+40
 5168 0094 1A80     		strh	r2, [r3]	@ movhi
 5169 0096 BDE8F081 		pop	{r4, r5, r6, r7, r8, pc}
 5170              	.L346:
 886:funciones.c   ****       }else if(Temperatura<Setpoint-0.5){
 5171              		.loc 1 886 0
 5172 009a 0022     		movs	r2, #0
 5173 009c 7B4B     		ldr	r3, .L394+20
 5174 009e 3046     		mov	r0, r6
 5175 00a0 3946     		mov	r1, r7
 5176 00a2 FFF7FEFF 		bl	__aeabi_dsub
 5177              	.LVL559:
 5178 00a6 0246     		mov	r2, r0
 5179 00a8 0B46     		mov	r3, r1
 5180 00aa 2046     		mov	r0, r4
 5181 00ac 2946     		mov	r1, r5
 5182 00ae FFF7FEFF 		bl	__aeabi_dcmplt
 5183              	.LVL560:
 5184 00b2 D0B1     		cbz	r0, .L391
 887:funciones.c   ****          Enfria=0;
 5185              		.loc 1 887 0
 5186 00b4 0024     		movs	r4, #0
 5187 00b6 724B     		ldr	r3, .L394+8
 5188 00b8 1C80     		strh	r4, [r3]	@ movhi
 888:funciones.c   ****          Ganancia=GananciaR*(Setpoint/200);
 5189              		.loc 1 888 0
 5190 00ba 7A49     		ldr	r1, .L394+44
 5191 00bc 4046     		mov	r0, r8
 5192 00be FFF7FEFF 		bl	__aeabi_fdiv
 5193              	.LVL561:
 5194 00c2 0546     		mov	r5, r0
 5195 00c4 784B     		ldr	r3, .L394+48
 5196 00c6 1878     		ldrb	r0, [r3]	@ zero_extendqisi2
 5197 00c8 FFF7FEFF 		bl	__aeabi_i2f
 5198              	.LVL562:
 5199 00cc 2946     		mov	r1, r5
 5200 00ce FFF7FEFF 		bl	__aeabi_fmul
 5201              	.LVL563:
 5202 00d2 764B     		ldr	r3, .L394+52
ARM GAS  C:\Users\USUARIO\AppData\Local\Temp\ccWuTYF0.s 			page 108


 5203 00d4 1860     		str	r0, [r3]	@ float
 889:funciones.c   ****          //Gananciamax=(0.21)*Setpoint;
 890:funciones.c   ****          //SSR_Write(0);
 891:funciones.c   ****          PWM_WriteCompare1(0);
 5204              		.loc 1 891 0
 5205 00d6 2046     		mov	r0, r4
 5206 00d8 FFF7FEFF 		bl	PWM_WriteCompare1
 5207              	.LVL564:
 892:funciones.c   ****          PWM_WriteCompare2(0);
 5208              		.loc 1 892 0
 5209 00dc 2046     		mov	r0, r4
 5210 00de FFF7FEFF 		bl	PWM_WriteCompare2
 5211              	.LVL565:
 893:funciones.c   ****          Control=0;
 5212              		.loc 1 893 0
 5213 00e2 734B     		ldr	r3, .L394+56
 5214 00e4 1C80     		strh	r4, [r3]	@ movhi
 5215 00e6 BDE8F081 		pop	{r4, r5, r6, r7, r8, pc}
 5216              	.L391:
 894:funciones.c   ****       }else if(Temperatura>Setpoint+0.6){
 5217              		.loc 1 894 0
 5218 00ea 63A3     		adr	r3, .L394
 5219 00ec D3E90023 		ldrd	r2, [r3]
 5220 00f0 3046     		mov	r0, r6
 5221 00f2 3946     		mov	r1, r7
 5222 00f4 FFF7FEFF 		bl	__aeabi_dadd
 5223              	.LVL566:
 5224 00f8 0246     		mov	r2, r0
 5225 00fa 0B46     		mov	r3, r1
 5226 00fc 2046     		mov	r0, r4
 5227 00fe 2946     		mov	r1, r5
 5228 0100 FFF7FEFF 		bl	__aeabi_dcmpgt
 5229              	.LVL567:
 5230 0104 0028     		cmp	r0, #0
 5231 0106 00F0B280 		beq	.L344
 895:funciones.c   ****          if(Pendiente!=0){
 5232              		.loc 1 895 0
 5233 010a 0021     		movs	r1, #0
 5234 010c 604B     		ldr	r3, .L394+24
 5235 010e 1868     		ldr	r0, [r3]	@ float
 5236 0110 FFF7FEFF 		bl	__aeabi_fcmpeq
 5237              	.LVL568:
 5238 0114 28B9     		cbnz	r0, .L357
 896:funciones.c   ****             escribeDisplay1("statusT.txt=\"Rampa -\"");
 5239              		.loc 1 896 0
 5240 0116 6748     		ldr	r0, .L394+60
 5241 0118 FFF7FEFF 		bl	escribeDisplay1
 5242              	.LVL569:
 897:funciones.c   ****             flagTemperatura=ON;            
 5243              		.loc 1 897 0
 5244 011c 0122     		movs	r2, #1
 5245 011e 5E4B     		ldr	r3, .L394+32
 5246 0120 1A80     		strh	r2, [r3]	@ movhi
 5247              	.L357:
 898:funciones.c   ****          }
 899:funciones.c   ****          if(Pendiente==0){
 5248              		.loc 1 899 0
ARM GAS  C:\Users\USUARIO\AppData\Local\Temp\ccWuTYF0.s 			page 109


 5249 0122 0021     		movs	r1, #0
 5250 0124 5A4B     		ldr	r3, .L394+24
 5251 0126 1868     		ldr	r0, [r3]	@ float
 5252 0128 FFF7FEFF 		bl	__aeabi_fcmpeq
 5253              	.LVL570:
 5254 012c 28B1     		cbz	r0, .L359
 900:funciones.c   ****             escribeDisplay1("statusT.txt=\"Enfriando\"");
 5255              		.loc 1 900 0
 5256 012e 6248     		ldr	r0, .L394+64
 5257 0130 FFF7FEFF 		bl	escribeDisplay1
 5258              	.LVL571:
 901:funciones.c   ****             flagTemperatura=OFF;            
 5259              		.loc 1 901 0
 5260 0134 0022     		movs	r2, #0
 5261 0136 584B     		ldr	r3, .L394+32
 5262 0138 1A80     		strh	r2, [r3]	@ movhi
 5263              	.L359:
 902:funciones.c   ****          }
 903:funciones.c   ****          Controla();
 5264              		.loc 1 903 0
 5265 013a FFF7FEFF 		bl	Controla
 5266              	.LVL572:
 5267 013e BDE8F081 		pop	{r4, r5, r6, r7, r8, pc}
 5268              	.L345:
 904:funciones.c   ****       }
 905:funciones.c   ****    }else{  
 906:funciones.c   ****       if(Temperatura>=Setpoint-0.5 && Temperatura<=Setpoint+0.5){
 5269              		.loc 1 906 0
 5270 0142 504B     		ldr	r3, .L394+12
 5271 0144 1868     		ldr	r0, [r3]	@ float
 5272 0146 FFF7FEFF 		bl	__aeabi_f2d
 5273              	.LVL573:
 5274 014a 0446     		mov	r4, r0
 5275 014c 0D46     		mov	r5, r1
 5276 014e 4E4B     		ldr	r3, .L394+16
 5277 0150 D3F80080 		ldr	r8, [r3]	@ float
 5278 0154 4046     		mov	r0, r8
 5279 0156 FFF7FEFF 		bl	__aeabi_f2d
 5280              	.LVL574:
 5281 015a 0646     		mov	r6, r0
 5282 015c 0F46     		mov	r7, r1
 5283 015e 0022     		movs	r2, #0
 5284 0160 4A4B     		ldr	r3, .L394+20
 5285 0162 FFF7FEFF 		bl	__aeabi_dsub
 5286              	.LVL575:
 5287 0166 0246     		mov	r2, r0
 5288 0168 0B46     		mov	r3, r1
 5289 016a 2046     		mov	r0, r4
 5290 016c 2946     		mov	r1, r5
 5291 016e FFF7FEFF 		bl	__aeabi_dcmpge
 5292              	.LVL576:
 5293 0172 58B3     		cbz	r0, .L361
 5294              		.loc 1 906 0 is_stmt 0 discriminator 1
 5295 0174 0022     		movs	r2, #0
 5296 0176 454B     		ldr	r3, .L394+20
 5297 0178 3046     		mov	r0, r6
 5298 017a 3946     		mov	r1, r7
ARM GAS  C:\Users\USUARIO\AppData\Local\Temp\ccWuTYF0.s 			page 110


 5299 017c FFF7FEFF 		bl	__aeabi_dadd
 5300              	.LVL577:
 5301 0180 0246     		mov	r2, r0
 5302 0182 0B46     		mov	r3, r1
 5303 0184 2046     		mov	r0, r4
 5304 0186 2946     		mov	r1, r5
 5305 0188 FFF7FEFF 		bl	__aeabi_dcmple
 5306              	.LVL578:
 5307 018c F0B1     		cbz	r0, .L361
 907:funciones.c   ****          if(Pendiente!=0){
 5308              		.loc 1 907 0 is_stmt 1
 5309 018e 0021     		movs	r1, #0
 5310 0190 3F4B     		ldr	r3, .L394+24
 5311 0192 1868     		ldr	r0, [r3]	@ float
 5312 0194 FFF7FEFF 		bl	__aeabi_fcmpeq
 5313              	.LVL579:
 5314 0198 28B9     		cbnz	r0, .L364
 908:funciones.c   ****             escribeDisplay1("statusT.txt=\"Controlando\"");
 5315              		.loc 1 908 0
 5316 019a 3E48     		ldr	r0, .L394+28
 5317 019c FFF7FEFF 		bl	escribeDisplay1
 5318              	.LVL580:
 909:funciones.c   ****             flagTemperatura=ON;            
 5319              		.loc 1 909 0
 5320 01a0 0122     		movs	r2, #1
 5321 01a2 3D4B     		ldr	r3, .L394+32
 5322 01a4 1A80     		strh	r2, [r3]	@ movhi
 5323              	.L364:
 910:funciones.c   ****          }
 911:funciones.c   ****          
 912:funciones.c   ****          if(Pendiente==0){
 5324              		.loc 1 912 0
 5325 01a6 0021     		movs	r1, #0
 5326 01a8 394B     		ldr	r3, .L394+24
 5327 01aa 1868     		ldr	r0, [r3]	@ float
 5328 01ac FFF7FEFF 		bl	__aeabi_fcmpeq
 5329              	.LVL581:
 5330 01b0 28B1     		cbz	r0, .L366
 913:funciones.c   ****             escribeDisplay1("statusT.txt=\"Meseta\"");
 5331              		.loc 1 913 0
 5332 01b2 3A48     		ldr	r0, .L394+36
 5333 01b4 FFF7FEFF 		bl	escribeDisplay1
 5334              	.LVL582:
 914:funciones.c   ****             flagTemperatura=ON;
 5335              		.loc 1 914 0
 5336 01b8 0122     		movs	r2, #1
 5337 01ba 374B     		ldr	r3, .L394+32
 5338 01bc 1A80     		strh	r2, [r3]	@ movhi
 5339              	.L366:
 915:funciones.c   ****          }
 916:funciones.c   ****          Controla();
 5340              		.loc 1 916 0
 5341 01be FFF7FEFF 		bl	Controla
 5342              	.LVL583:
 917:funciones.c   ****          flag_tiempocalentamiento=0;
 5343              		.loc 1 917 0
 5344 01c2 0022     		movs	r2, #0
ARM GAS  C:\Users\USUARIO\AppData\Local\Temp\ccWuTYF0.s 			page 111


 5345 01c4 364B     		ldr	r3, .L394+40
 5346 01c6 1A80     		strh	r2, [r3]	@ movhi
 5347 01c8 BDE8F081 		pop	{r4, r5, r6, r7, r8, pc}
 5348              	.L361:
 918:funciones.c   ****       }else if(Temperatura>Setpoint+0.5){
 5349              		.loc 1 918 0
 5350 01cc 0022     		movs	r2, #0
 5351 01ce 2F4B     		ldr	r3, .L394+20
 5352 01d0 3046     		mov	r0, r6
 5353 01d2 3946     		mov	r1, r7
 5354 01d4 FFF7FEFF 		bl	__aeabi_dadd
 5355              	.LVL584:
 5356 01d8 0246     		mov	r2, r0
 5357 01da 0B46     		mov	r3, r1
 5358 01dc 2046     		mov	r0, r4
 5359 01de 2946     		mov	r1, r5
 5360 01e0 FFF7FEFF 		bl	__aeabi_dcmpgt
 5361              	.LVL585:
 5362 01e4 D8B1     		cbz	r0, .L392
 919:funciones.c   ****          Enfria=1;
 5363              		.loc 1 919 0
 5364 01e6 0122     		movs	r2, #1
 5365 01e8 254B     		ldr	r3, .L394+8
 5366 01ea 1A80     		strh	r2, [r3]	@ movhi
 920:funciones.c   ****          Ganancia=GananciaR*(Setpoint/200);
 5367              		.loc 1 920 0
 5368 01ec 2D49     		ldr	r1, .L394+44
 5369 01ee 4046     		mov	r0, r8
 5370 01f0 FFF7FEFF 		bl	__aeabi_fdiv
 5371              	.LVL586:
 5372 01f4 0446     		mov	r4, r0
 5373 01f6 2C4B     		ldr	r3, .L394+48
 5374 01f8 1878     		ldrb	r0, [r3]	@ zero_extendqisi2
 5375 01fa FFF7FEFF 		bl	__aeabi_i2f
 5376              	.LVL587:
 5377 01fe 2146     		mov	r1, r4
 5378 0200 FFF7FEFF 		bl	__aeabi_fmul
 5379              	.LVL588:
 5380 0204 294B     		ldr	r3, .L394+52
 5381 0206 1860     		str	r0, [r3]	@ float
 921:funciones.c   ****          //SSR_Write(0);
 922:funciones.c   ****         PWM_WriteCompare1(0);
 5382              		.loc 1 922 0
 5383 0208 0020     		movs	r0, #0
 5384 020a FFF7FEFF 		bl	PWM_WriteCompare1
 5385              	.LVL589:
 923:funciones.c   ****          PWM_WriteCompare2(0);
 5386              		.loc 1 923 0
 5387 020e 0020     		movs	r0, #0
 5388 0210 FFF7FEFF 		bl	PWM_WriteCompare2
 5389              	.LVL590:
 924:funciones.c   ****          Control=0;
 5390              		.loc 1 924 0
 5391 0214 0022     		movs	r2, #0
 5392 0216 264B     		ldr	r3, .L394+56
 5393 0218 1A80     		strh	r2, [r3]	@ movhi
 5394 021a BDE8F081 		pop	{r4, r5, r6, r7, r8, pc}
ARM GAS  C:\Users\USUARIO\AppData\Local\Temp\ccWuTYF0.s 			page 112


 5395              	.L392:
 925:funciones.c   ****       }else if(Temperatura<Setpoint-0.6){
 5396              		.loc 1 925 0
 5397 021e 16A3     		adr	r3, .L394
 5398 0220 D3E90023 		ldrd	r2, [r3]
 5399 0224 3046     		mov	r0, r6
 5400 0226 3946     		mov	r1, r7
 5401 0228 FFF7FEFF 		bl	__aeabi_dsub
 5402              	.LVL591:
 5403 022c 0246     		mov	r2, r0
 5404 022e 0B46     		mov	r3, r1
 5405 0230 2046     		mov	r0, r4
 5406 0232 2946     		mov	r1, r5
 5407 0234 FFF7FEFF 		bl	__aeabi_dcmplt
 5408              	.LVL592:
 5409 0238 C8B1     		cbz	r0, .L344
 926:funciones.c   ****          if(Pendiente!=0){
 5410              		.loc 1 926 0
 5411 023a 0021     		movs	r1, #0
 5412 023c 144B     		ldr	r3, .L394+24
 5413 023e 1868     		ldr	r0, [r3]	@ float
 5414 0240 FFF7FEFF 		bl	__aeabi_fcmpeq
 5415              	.LVL593:
 5416 0244 28B9     		cbnz	r0, .L371
 927:funciones.c   ****             escribeDisplay1("statusT.txt=\"Rampa +\"");
 5417              		.loc 1 927 0
 5418 0246 1D48     		ldr	r0, .L394+68
 5419 0248 FFF7FEFF 		bl	escribeDisplay1
 5420              	.LVL594:
 928:funciones.c   ****             flagTemperatura=ON;            
 5421              		.loc 1 928 0
 5422 024c 0122     		movs	r2, #1
 5423 024e 124B     		ldr	r3, .L394+32
 5424 0250 1A80     		strh	r2, [r3]	@ movhi
 5425              	.L371:
 929:funciones.c   ****          }
 930:funciones.c   ****          if(Pendiente==0){
 5426              		.loc 1 930 0
 5427 0252 0021     		movs	r1, #0
 5428 0254 0E4B     		ldr	r3, .L394+24
 5429 0256 1868     		ldr	r0, [r3]	@ float
 5430 0258 FFF7FEFF 		bl	__aeabi_fcmpeq
 5431              	.LVL595:
 5432 025c 28B1     		cbz	r0, .L373
 931:funciones.c   ****             escribeDisplay1("statusT.txt=\"Calentando\"");
 5433              		.loc 1 931 0
 5434 025e 1848     		ldr	r0, .L394+72
 5435 0260 FFF7FEFF 		bl	escribeDisplay1
 5436              	.LVL596:
 932:funciones.c   ****             flagTemperatura=OFF;            
 5437              		.loc 1 932 0
 5438 0264 0022     		movs	r2, #0
 5439 0266 0C4B     		ldr	r3, .L394+32
 5440 0268 1A80     		strh	r2, [r3]	@ movhi
 5441              	.L373:
 933:funciones.c   ****          }
 934:funciones.c   ****          Controla();
ARM GAS  C:\Users\USUARIO\AppData\Local\Temp\ccWuTYF0.s 			page 113


 5442              		.loc 1 934 0
 5443 026a FFF7FEFF 		bl	Controla
 5444              	.LVL597:
 5445              	.L344:
 5446 026e BDE8F081 		pop	{r4, r5, r6, r7, r8, pc}
 5447              	.L395:
 5448 0272 00BFAFF3 		.align	3
 5448      0080
 5449              	.L394:
 5450 0278 33333333 		.word	858993459
 5451 027c 3333E33F 		.word	1071854387
 5452 0280 00000000 		.word	Enfria
 5453 0284 00000000 		.word	Temperatura
 5454 0288 00000000 		.word	Setpoint
 5455 028c 0000E03F 		.word	1071644672
 5456 0290 00000000 		.word	Pendiente
 5457 0294 00000000 		.word	.LC0
 5458 0298 00000000 		.word	flagTemperatura
 5459 029c 1C000000 		.word	.LC1
 5460 02a0 00000000 		.word	flag_tiempocalentamiento
 5461 02a4 00004843 		.word	1128792064
 5462 02a8 00000000 		.word	GananciaR
 5463 02ac 00000000 		.word	Ganancia
 5464 02b0 00000000 		.word	Control
 5465 02b4 34000000 		.word	.LC2
 5466 02b8 4C000000 		.word	.LC3
 5467 02bc 64000000 		.word	.LC4
 5468 02c0 7C000000 		.word	.LC5
 5469              		.cfi_endproc
 5470              	.LFE78:
 5471              		.size	controlaRampa, .-controlaRampa
 5472              		.global	__aeabi_ddiv
 5473              		.section	.text.leePt100,"ax",%progbits
 5474              		.align	2
 5475              		.global	leePt100
 5476              		.thumb
 5477              		.thumb_func
 5478              		.type	leePt100, %function
 5479              	leePt100:
 5480              	.LFB79:
 935:funciones.c   ****       }
 936:funciones.c   ****    }
 937:funciones.c   **** }
 938:funciones.c   **** 
 939:funciones.c   **** float leePt100(uint8 media){
 5481              		.loc 1 939 0
 5482              		.cfi_startproc
 5483              		@ args = 0, pretend = 0, frame = 0
 5484              		@ frame_needed = 0, uses_anonymous_args = 0
 5485              	.LVL598:
 5486 0000 F8B5     		push	{r3, r4, r5, r6, r7, lr}
 5487              		.cfi_def_cfa_offset 24
 5488              		.cfi_offset 3, -24
 5489              		.cfi_offset 4, -20
 5490              		.cfi_offset 5, -16
 5491              		.cfi_offset 6, -12
 5492              		.cfi_offset 7, -8
ARM GAS  C:\Users\USUARIO\AppData\Local\Temp\ccWuTYF0.s 			page 114


 5493              		.cfi_offset 14, -4
 5494 0002 0646     		mov	r6, r0
 940:funciones.c   ****     float tmp2,ajp,ajn;
 941:funciones.c   ****     float Tref;
 942:funciones.c   ****     Prom=0.0;    
 5495              		.loc 1 942 0
 5496 0004 0022     		movs	r2, #0
 5497 0006 4C4B     		ldr	r3, .L407
 5498 0008 1A60     		str	r2, [r3]	@ float
 5499              	.LVL599:
 943:funciones.c   ****     tmp2=0;
 944:funciones.c   ****     
 945:funciones.c   ****     /* Measure the voltage across reference resistance */
 946:funciones.c   ****     vRef = MeasureRefResVoltage();
 5500              		.loc 1 946 0
 5501 000a FFF7FEFF 		bl	MeasureRefResVoltage
 5502              	.LVL600:
 5503 000e 4B4B     		ldr	r3, .L407+4
 5504 0010 1860     		str	r0, [r3]
 947:funciones.c   **** 	/* Find the RTD resistance */
 948:funciones.c   **** 	rtdRes[0] = GetRTDRes(vRef,0);
 5505              		.loc 1 948 0
 5506 0012 0021     		movs	r1, #0
 5507 0014 FFF7FEFF 		bl	GetRTDRes
 5508              	.LVL601:
 5509 0018 494B     		ldr	r3, .L407+8
 5510 001a 1860     		str	r0, [r3]
 949:funciones.c   **** 	/* Calculate RTD temperature from resistance */
 950:funciones.c   **** 	rtdTemp[0] = RTD_GetTemperature(rtdRes[0]);
 5511              		.loc 1 950 0
 5512 001c FFF7FEFF 		bl	RTD_GetTemperature
 5513              	.LVL602:
 5514 0020 484B     		ldr	r3, .L407+12
 5515 0022 1860     		str	r0, [r3]
 951:funciones.c   ****     /*Determine decimal portion of temperature by dividing temperature by 100*/
 952:funciones.c   ****     decTemp[0] = rtdTemp[0]/100;
 5516              		.loc 1 952 0
 5517 0024 484C     		ldr	r4, .L407+16
 5518 0026 84FB0023 		smull	r2, r3, r4, r0
 5519 002a C417     		asrs	r4, r0, #31
 5520 002c C4EB6314 		rsb	r4, r4, r3, asr #5
 5521 0030 464B     		ldr	r3, .L407+20
 5522 0032 1C60     		str	r4, [r3]
 953:funciones.c   ****     /*Determine fraction portion of temperature by subtracting decimal portion from result*/
 954:funciones.c   ****     fracTemp[0] = rtdTemp[0] - (decTemp[0] * 100);
 5523              		.loc 1 954 0
 5524 0034 6FF06303 		mvn	r3, #99
 5525 0038 03FB0400 		mla	r0, r3, r4, r0
 5526 003c 444B     		ldr	r3, .L407+24
 5527 003e 1860     		str	r0, [r3]
 955:funciones.c   ****     /*If fractional temperature is negative make it positive*/
 956:funciones.c   ****     if(fracTemp[0] < 0){
 5528              		.loc 1 956 0
 5529 0040 0028     		cmp	r0, #0
 5530 0042 01DA     		bge	.L397
 957:funciones.c   ****         fracTemp[0] *= -1;
 5531              		.loc 1 957 0
ARM GAS  C:\Users\USUARIO\AppData\Local\Temp\ccWuTYF0.s 			page 115


 5532 0044 4042     		negs	r0, r0
 5533 0046 1860     		str	r0, [r3]
 5534              	.L397:
 958:funciones.c   ****     }
 959:funciones.c   ****     tmp2=(float)fracTemp[0];    
 5535              		.loc 1 959 0
 5536 0048 414B     		ldr	r3, .L407+24
 5537 004a 1868     		ldr	r0, [r3]
 5538 004c FFF7FEFF 		bl	__aeabi_i2f
 5539              	.LVL603:
 5540 0050 0546     		mov	r5, r0
 5541              	.LVL604:
 960:funciones.c   ****     V0=(float)decTemp[0]+(tmp2/100.0);
 5542              		.loc 1 960 0
 5543 0052 2046     		mov	r0, r4
 5544              	.LVL605:
 5545 0054 FFF7FEFF 		bl	__aeabi_i2f
 5546              	.LVL606:
 5547 0058 0746     		mov	r7, r0
 5548 005a 2846     		mov	r0, r5
 5549 005c FFF7FEFF 		bl	__aeabi_f2d
 5550              	.LVL607:
 5551 0060 0022     		movs	r2, #0
 5552 0062 3C4B     		ldr	r3, .L407+28
 5553 0064 FFF7FEFF 		bl	__aeabi_ddiv
 5554              	.LVL608:
 5555 0068 0446     		mov	r4, r0
 5556 006a 0D46     		mov	r5, r1
 5557              	.LVL609:
 5558 006c 3846     		mov	r0, r7
 5559 006e FFF7FEFF 		bl	__aeabi_f2d
 5560              	.LVL610:
 5561 0072 2246     		mov	r2, r4
 5562 0074 2B46     		mov	r3, r5
 5563 0076 FFF7FEFF 		bl	__aeabi_dadd
 5564              	.LVL611:
 5565 007a FFF7FEFF 		bl	__aeabi_d2f
 5566              	.LVL612:
 5567 007e 364B     		ldr	r3, .L407+32
 5568 0080 1860     		str	r0, [r3]	@ float
 961:funciones.c   ****     
 962:funciones.c   ****     if(l>(media-1))
 5569              		.loc 1 962 0
 5570 0082 364B     		ldr	r3, .L407+36
 5571 0084 1A78     		ldrb	r2, [r3]	@ zero_extendqisi2
 5572 0086 731E     		subs	r3, r6, #1
 5573 0088 9A42     		cmp	r2, r3
 5574 008a 02DD     		ble	.L398
 963:funciones.c   ****          l=0;
 5575              		.loc 1 963 0
 5576 008c 0022     		movs	r2, #0
 5577 008e 334B     		ldr	r3, .L407+36
 5578 0090 1A70     		strb	r2, [r3]
 5579              	.L398:
 964:funciones.c   ****     
 965:funciones.c   ****     promedioT1[l]=V0;l++;
 5580              		.loc 1 965 0
ARM GAS  C:\Users\USUARIO\AppData\Local\Temp\ccWuTYF0.s 			page 116


 5581 0092 324A     		ldr	r2, .L407+36
 5582 0094 1378     		ldrb	r3, [r2]	@ zero_extendqisi2
 5583 0096 3249     		ldr	r1, .L407+40
 5584 0098 41F82300 		str	r0, [r1, r3, lsl #2]	@ float
 5585 009c 0133     		adds	r3, r3, #1
 5586 009e 1370     		strb	r3, [r2]
 966:funciones.c   ****              
 967:funciones.c   ****     for(h=0;h<media;h++){
 5587              		.loc 1 967 0
 5588 00a0 0022     		movs	r2, #0
 5589 00a2 304B     		ldr	r3, .L407+44
 5590 00a4 1A70     		strb	r2, [r3]
 5591 00a6 0AE0     		b	.L399
 5592              	.L400:
 968:funciones.c   ****         Prom+=promedioT1[h];
 5593              		.loc 1 968 0 discriminator 3
 5594 00a8 234D     		ldr	r5, .L407
 5595 00aa 2D4B     		ldr	r3, .L407+40
 5596 00ac 53F82410 		ldr	r1, [r3, r4, lsl #2]	@ float
 5597 00b0 2868     		ldr	r0, [r5]	@ float
 5598 00b2 FFF7FEFF 		bl	__aeabi_fadd
 5599              	.LVL613:
 5600 00b6 2860     		str	r0, [r5]	@ float
 967:funciones.c   ****         Prom+=promedioT1[h];
 5601              		.loc 1 967 0 discriminator 3
 5602 00b8 0134     		adds	r4, r4, #1
 5603 00ba 2A4B     		ldr	r3, .L407+44
 5604 00bc 1C70     		strb	r4, [r3]
 5605              	.L399:
 967:funciones.c   ****         Prom+=promedioT1[h];
 5606              		.loc 1 967 0 is_stmt 0 discriminator 1
 5607 00be 294B     		ldr	r3, .L407+44
 5608 00c0 1C78     		ldrb	r4, [r3]	@ zero_extendqisi2
 5609 00c2 A642     		cmp	r6, r4
 5610 00c4 F0D8     		bhi	.L400
 969:funciones.c   ****     } 
 970:funciones.c   ****     
 971:funciones.c   ****     ajp=(float)Ajuste;
 5611              		.loc 1 971 0 is_stmt 1
 5612 00c6 284B     		ldr	r3, .L407+48
 5613 00c8 1878     		ldrb	r0, [r3]	@ zero_extendqisi2
 5614 00ca FFF7FEFF 		bl	__aeabi_ui2f
 5615              	.LVL614:
 972:funciones.c   ****     ajp=ajp/10.0;
 5616              		.loc 1 972 0
 5617 00ce 2749     		ldr	r1, .L407+52
 5618 00d0 FFF7FEFF 		bl	__aeabi_fdiv
 5619              	.LVL615:
 5620 00d4 0746     		mov	r7, r0
 5621              	.LVL616:
 973:funciones.c   ****     ajn=(float)Ajusten;
 5622              		.loc 1 973 0
 5623 00d6 264B     		ldr	r3, .L407+56
 5624 00d8 1878     		ldrb	r0, [r3]	@ zero_extendqisi2
 5625              	.LVL617:
 5626 00da FFF7FEFF 		bl	__aeabi_ui2f
 5627              	.LVL618:
ARM GAS  C:\Users\USUARIO\AppData\Local\Temp\ccWuTYF0.s 			page 117


 974:funciones.c   ****     ajn=ajn/10.0;
 5628              		.loc 1 974 0
 5629 00de 2349     		ldr	r1, .L407+52
 5630 00e0 FFF7FEFF 		bl	__aeabi_fdiv
 5631              	.LVL619:
 5632 00e4 0546     		mov	r5, r0
 5633              	.LVL620:
 975:funciones.c   ****     Prom=(Prom/media)+ajp-ajn;   
 5634              		.loc 1 975 0
 5635 00e6 144C     		ldr	r4, .L407
 5636 00e8 3046     		mov	r0, r6
 5637              	.LVL621:
 5638 00ea FFF7FEFF 		bl	__aeabi_i2f
 5639              	.LVL622:
 5640 00ee 0146     		mov	r1, r0
 5641 00f0 2068     		ldr	r0, [r4]	@ float
 5642 00f2 FFF7FEFF 		bl	__aeabi_fdiv
 5643              	.LVL623:
 5644 00f6 0146     		mov	r1, r0
 5645 00f8 3846     		mov	r0, r7
 5646 00fa FFF7FEFF 		bl	__aeabi_fadd
 5647              	.LVL624:
 5648 00fe 2946     		mov	r1, r5
 5649 0100 FFF7FEFF 		bl	__aeabi_fsub
 5650              	.LVL625:
 5651 0104 0546     		mov	r5, r0
 5652              	.LVL626:
 5653 0106 2060     		str	r0, [r4]	@ float
 976:funciones.c   ****     
 977:funciones.c   ****     if(Prom<=calib[0].control2){
 5654              		.loc 1 977 0
 5655 0108 1A4B     		ldr	r3, .L407+60
 5656 010a 5968     		ldr	r1, [r3, #4]	@ float
 5657 010c FFF7FEFF 		bl	__aeabi_fcmple
 5658              	.LVL627:
 5659 0110 40B1     		cbz	r0, .L405
 978:funciones.c   ****         Tref=(Prom-calib[0].b1)/calib[0].m1;
 5660              		.loc 1 978 0
 5661 0112 184C     		ldr	r4, .L407+60
 5662 0114 616A     		ldr	r1, [r4, #36]	@ float
 5663 0116 2846     		mov	r0, r5
 5664 0118 FFF7FEFF 		bl	__aeabi_fsub
 5665              	.LVL628:
 5666 011c E168     		ldr	r1, [r4, #12]	@ float
 5667 011e FFF7FEFF 		bl	__aeabi_fdiv
 5668              	.LVL629:
 5669 0122 F8BD     		pop	{r3, r4, r5, r6, r7, pc}
 5670              	.LVL630:
 5671              	.L405:
 979:funciones.c   ****     }else{
 980:funciones.c   ****         Tref=(Prom-calib[0].b2)/calib[0].m2;
 5672              		.loc 1 980 0
 5673 0124 134C     		ldr	r4, .L407+60
 5674 0126 A16A     		ldr	r1, [r4, #40]	@ float
 5675 0128 2846     		mov	r0, r5
 5676 012a FFF7FEFF 		bl	__aeabi_fsub
 5677              	.LVL631:
ARM GAS  C:\Users\USUARIO\AppData\Local\Temp\ccWuTYF0.s 			page 118


 5678 012e 2169     		ldr	r1, [r4, #16]	@ float
 5679 0130 FFF7FEFF 		bl	__aeabi_fdiv
 5680              	.LVL632:
 981:funciones.c   ****     }
 982:funciones.c   ****     return Tref;
 983:funciones.c   **** }
 5681              		.loc 1 983 0
 5682 0134 F8BD     		pop	{r3, r4, r5, r6, r7, pc}
 5683              	.LVL633:
 5684              	.L408:
 5685 0136 00BF     		.align	2
 5686              	.L407:
 5687 0138 00000000 		.word	Prom
 5688 013c 00000000 		.word	vRef
 5689 0140 00000000 		.word	rtdRes
 5690 0144 00000000 		.word	rtdTemp
 5691 0148 1F85EB51 		.word	1374389535
 5692 014c 00000000 		.word	decTemp
 5693 0150 00000000 		.word	fracTemp
 5694 0154 00005940 		.word	1079574528
 5695 0158 00000000 		.word	V0
 5696 015c 00000000 		.word	l
 5697 0160 00000000 		.word	promedioT1
 5698 0164 00000000 		.word	h
 5699 0168 00000000 		.word	Ajuste
 5700 016c 00002041 		.word	1092616192
 5701 0170 00000000 		.word	Ajusten
 5702 0174 00000000 		.word	calib
 5703              		.cfi_endproc
 5704              	.LFE79:
 5705              		.size	leePt100, .-leePt100
 5706              		.section	.text.leePt1002,"ax",%progbits
 5707              		.align	2
 5708              		.global	leePt1002
 5709              		.thumb
 5710              		.thumb_func
 5711              		.type	leePt1002, %function
 5712              	leePt1002:
 5713              	.LFB80:
 984:funciones.c   **** 
 985:funciones.c   **** float leePt1002(uint8 media2){
 5714              		.loc 1 985 0
 5715              		.cfi_startproc
 5716              		@ args = 0, pretend = 0, frame = 0
 5717              		@ frame_needed = 0, uses_anonymous_args = 0
 5718              	.LVL634:
 5719 0000 F8B5     		push	{r3, r4, r5, r6, r7, lr}
 5720              		.cfi_def_cfa_offset 24
 5721              		.cfi_offset 3, -24
 5722              		.cfi_offset 4, -20
 5723              		.cfi_offset 5, -16
 5724              		.cfi_offset 6, -12
 5725              		.cfi_offset 7, -8
 5726              		.cfi_offset 14, -4
 5727 0002 0646     		mov	r6, r0
 986:funciones.c   ****     float tmp3,ajp2,ajn2;
 987:funciones.c   ****     float Tref;
ARM GAS  C:\Users\USUARIO\AppData\Local\Temp\ccWuTYF0.s 			page 119


 988:funciones.c   ****     Prom2=0.0;
 5728              		.loc 1 988 0
 5729 0004 0022     		movs	r2, #0
 5730 0006 4C4B     		ldr	r3, .L420
 5731 0008 1A60     		str	r2, [r3]	@ float
 5732              	.LVL635:
 989:funciones.c   ****     tmp3=0;
 990:funciones.c   ****     
 991:funciones.c   ****     /* Measure the voltage across reference resistance */
 992:funciones.c   ****     vRef = MeasureRefResVoltage();
 5733              		.loc 1 992 0
 5734 000a FFF7FEFF 		bl	MeasureRefResVoltage
 5735              	.LVL636:
 5736 000e 4B4B     		ldr	r3, .L420+4
 5737 0010 1860     		str	r0, [r3]
 993:funciones.c   **** 	/* Find the RTD resistance */
 994:funciones.c   **** 	rtdRes[1] = GetRTDRes(vRef,1);
 5738              		.loc 1 994 0
 5739 0012 0121     		movs	r1, #1
 5740 0014 FFF7FEFF 		bl	GetRTDRes
 5741              	.LVL637:
 5742 0018 494B     		ldr	r3, .L420+8
 5743 001a 5860     		str	r0, [r3, #4]
 995:funciones.c   **** 	/* Calculate RTD temperature from resistance */
 996:funciones.c   **** 	rtdTemp[1] = RTD_GetTemperature(rtdRes[1]);
 5744              		.loc 1 996 0
 5745 001c FFF7FEFF 		bl	RTD_GetTemperature
 5746              	.LVL638:
 5747 0020 484B     		ldr	r3, .L420+12
 5748 0022 5860     		str	r0, [r3, #4]
 997:funciones.c   ****     /*Determine decimal portion of temperature by dividing temperature by 100*/
 998:funciones.c   ****     decTemp[1] = rtdTemp[1]/100;
 5749              		.loc 1 998 0
 5750 0024 484C     		ldr	r4, .L420+16
 5751 0026 84FB0023 		smull	r2, r3, r4, r0
 5752 002a C417     		asrs	r4, r0, #31
 5753 002c C4EB6314 		rsb	r4, r4, r3, asr #5
 5754 0030 464B     		ldr	r3, .L420+20
 5755 0032 5C60     		str	r4, [r3, #4]
 999:funciones.c   ****     /*Determine fraction portion of temperature by subtracting decimal portion from result*/
1000:funciones.c   ****     fracTemp[1] = rtdTemp[1] - (decTemp[1] * 100);
 5756              		.loc 1 1000 0
 5757 0034 6FF06303 		mvn	r3, #99
 5758 0038 03FB0400 		mla	r0, r3, r4, r0
 5759 003c 444B     		ldr	r3, .L420+24
 5760 003e 5860     		str	r0, [r3, #4]
1001:funciones.c   ****     /*If fractional temperature is negative make it positive*/
1002:funciones.c   ****     if(fracTemp[1] < 0){
 5761              		.loc 1 1002 0
 5762 0040 0028     		cmp	r0, #0
 5763 0042 01DA     		bge	.L410
1003:funciones.c   ****         fracTemp[1] *= -1;
 5764              		.loc 1 1003 0
 5765 0044 4042     		negs	r0, r0
 5766 0046 5860     		str	r0, [r3, #4]
 5767              	.L410:
1004:funciones.c   ****     }
ARM GAS  C:\Users\USUARIO\AppData\Local\Temp\ccWuTYF0.s 			page 120


1005:funciones.c   ****     tmp3=(float)fracTemp[1];    
 5768              		.loc 1 1005 0
 5769 0048 414B     		ldr	r3, .L420+24
 5770 004a 5868     		ldr	r0, [r3, #4]
 5771 004c FFF7FEFF 		bl	__aeabi_i2f
 5772              	.LVL639:
 5773 0050 0546     		mov	r5, r0
 5774              	.LVL640:
1006:funciones.c   ****     V1=(float)decTemp[1]+(tmp3/100.0);
 5775              		.loc 1 1006 0
 5776 0052 2046     		mov	r0, r4
 5777              	.LVL641:
 5778 0054 FFF7FEFF 		bl	__aeabi_i2f
 5779              	.LVL642:
 5780 0058 0746     		mov	r7, r0
 5781 005a 2846     		mov	r0, r5
 5782 005c FFF7FEFF 		bl	__aeabi_f2d
 5783              	.LVL643:
 5784 0060 0022     		movs	r2, #0
 5785 0062 3C4B     		ldr	r3, .L420+28
 5786 0064 FFF7FEFF 		bl	__aeabi_ddiv
 5787              	.LVL644:
 5788 0068 0446     		mov	r4, r0
 5789 006a 0D46     		mov	r5, r1
 5790              	.LVL645:
 5791 006c 3846     		mov	r0, r7
 5792 006e FFF7FEFF 		bl	__aeabi_f2d
 5793              	.LVL646:
 5794 0072 2246     		mov	r2, r4
 5795 0074 2B46     		mov	r3, r5
 5796 0076 FFF7FEFF 		bl	__aeabi_dadd
 5797              	.LVL647:
 5798 007a FFF7FEFF 		bl	__aeabi_d2f
 5799              	.LVL648:
 5800 007e 364B     		ldr	r3, .L420+32
 5801 0080 1860     		str	r0, [r3]	@ float
1007:funciones.c   ****     
1008:funciones.c   ****     if(ll>(media2-1))
 5802              		.loc 1 1008 0
 5803 0082 364B     		ldr	r3, .L420+36
 5804 0084 1A78     		ldrb	r2, [r3]	@ zero_extendqisi2
 5805 0086 731E     		subs	r3, r6, #1
 5806 0088 9A42     		cmp	r2, r3
 5807 008a 02DD     		ble	.L411
1009:funciones.c   ****         ll=0;
 5808              		.loc 1 1009 0
 5809 008c 0022     		movs	r2, #0
 5810 008e 334B     		ldr	r3, .L420+36
 5811 0090 1A70     		strb	r2, [r3]
 5812              	.L411:
1010:funciones.c   **** 
1011:funciones.c   ****     promedioT2[ll]=V1;ll++;
 5813              		.loc 1 1011 0
 5814 0092 324A     		ldr	r2, .L420+36
 5815 0094 1378     		ldrb	r3, [r2]	@ zero_extendqisi2
 5816 0096 3249     		ldr	r1, .L420+40
 5817 0098 41F82300 		str	r0, [r1, r3, lsl #2]	@ float
ARM GAS  C:\Users\USUARIO\AppData\Local\Temp\ccWuTYF0.s 			page 121


 5818 009c 0133     		adds	r3, r3, #1
 5819 009e 1370     		strb	r3, [r2]
1012:funciones.c   ****              
1013:funciones.c   ****     for(hh=0;hh<media2;hh++){
 5820              		.loc 1 1013 0
 5821 00a0 0022     		movs	r2, #0
 5822 00a2 304B     		ldr	r3, .L420+44
 5823 00a4 1A70     		strb	r2, [r3]
 5824 00a6 0AE0     		b	.L412
 5825              	.L413:
1014:funciones.c   ****         Prom2+=promedioT2[hh];
 5826              		.loc 1 1014 0 discriminator 3
 5827 00a8 234D     		ldr	r5, .L420
 5828 00aa 2D4B     		ldr	r3, .L420+40
 5829 00ac 53F82410 		ldr	r1, [r3, r4, lsl #2]	@ float
 5830 00b0 2868     		ldr	r0, [r5]	@ float
 5831 00b2 FFF7FEFF 		bl	__aeabi_fadd
 5832              	.LVL649:
 5833 00b6 2860     		str	r0, [r5]	@ float
1013:funciones.c   ****         Prom2+=promedioT2[hh];
 5834              		.loc 1 1013 0 discriminator 3
 5835 00b8 0134     		adds	r4, r4, #1
 5836 00ba 2A4B     		ldr	r3, .L420+44
 5837 00bc 1C70     		strb	r4, [r3]
 5838              	.L412:
1013:funciones.c   ****         Prom2+=promedioT2[hh];
 5839              		.loc 1 1013 0 is_stmt 0 discriminator 1
 5840 00be 294B     		ldr	r3, .L420+44
 5841 00c0 1C78     		ldrb	r4, [r3]	@ zero_extendqisi2
 5842 00c2 A642     		cmp	r6, r4
 5843 00c4 F0D8     		bhi	.L413
1015:funciones.c   ****     }
1016:funciones.c   ****     ajp2=(float)Ajuste2;
 5844              		.loc 1 1016 0 is_stmt 1
 5845 00c6 284B     		ldr	r3, .L420+48
 5846 00c8 1878     		ldrb	r0, [r3]	@ zero_extendqisi2
 5847 00ca FFF7FEFF 		bl	__aeabi_ui2f
 5848              	.LVL650:
1017:funciones.c   ****     ajp2=ajp2/10.0;
 5849              		.loc 1 1017 0
 5850 00ce 2749     		ldr	r1, .L420+52
 5851 00d0 FFF7FEFF 		bl	__aeabi_fdiv
 5852              	.LVL651:
 5853 00d4 0746     		mov	r7, r0
 5854              	.LVL652:
1018:funciones.c   ****     ajn2=(float)Ajusten2;
 5855              		.loc 1 1018 0
 5856 00d6 264B     		ldr	r3, .L420+56
 5857 00d8 1878     		ldrb	r0, [r3]	@ zero_extendqisi2
 5858              	.LVL653:
 5859 00da FFF7FEFF 		bl	__aeabi_ui2f
 5860              	.LVL654:
1019:funciones.c   ****     ajn2=ajn2/10.0;
 5861              		.loc 1 1019 0
 5862 00de 2349     		ldr	r1, .L420+52
 5863 00e0 FFF7FEFF 		bl	__aeabi_fdiv
 5864              	.LVL655:
ARM GAS  C:\Users\USUARIO\AppData\Local\Temp\ccWuTYF0.s 			page 122


 5865 00e4 0546     		mov	r5, r0
 5866              	.LVL656:
1020:funciones.c   ****     Prom2=(Prom2/media2)+ajp2-ajn2;   
 5867              		.loc 1 1020 0
 5868 00e6 144C     		ldr	r4, .L420
 5869 00e8 3046     		mov	r0, r6
 5870              	.LVL657:
 5871 00ea FFF7FEFF 		bl	__aeabi_i2f
 5872              	.LVL658:
 5873 00ee 0146     		mov	r1, r0
 5874 00f0 2068     		ldr	r0, [r4]	@ float
 5875 00f2 FFF7FEFF 		bl	__aeabi_fdiv
 5876              	.LVL659:
 5877 00f6 0146     		mov	r1, r0
 5878 00f8 3846     		mov	r0, r7
 5879 00fa FFF7FEFF 		bl	__aeabi_fadd
 5880              	.LVL660:
 5881 00fe 2946     		mov	r1, r5
 5882 0100 FFF7FEFF 		bl	__aeabi_fsub
 5883              	.LVL661:
 5884 0104 0546     		mov	r5, r0
 5885              	.LVL662:
 5886 0106 2060     		str	r0, [r4]	@ float
1021:funciones.c   ****     
1022:funciones.c   ****     if(Prom2<=calib[1].control2){
 5887              		.loc 1 1022 0
 5888 0108 1A4B     		ldr	r3, .L420+60
 5889 010a 596B     		ldr	r1, [r3, #52]	@ float
 5890 010c FFF7FEFF 		bl	__aeabi_fcmple
 5891              	.LVL663:
 5892 0110 40B1     		cbz	r0, .L418
1023:funciones.c   ****         Tref=(Prom2-calib[1].b1)/calib[1].m1;
 5893              		.loc 1 1023 0
 5894 0112 184C     		ldr	r4, .L420+60
 5895 0114 616D     		ldr	r1, [r4, #84]	@ float
 5896 0116 2846     		mov	r0, r5
 5897 0118 FFF7FEFF 		bl	__aeabi_fsub
 5898              	.LVL664:
 5899 011c E16B     		ldr	r1, [r4, #60]	@ float
 5900 011e FFF7FEFF 		bl	__aeabi_fdiv
 5901              	.LVL665:
 5902 0122 F8BD     		pop	{r3, r4, r5, r6, r7, pc}
 5903              	.LVL666:
 5904              	.L418:
1024:funciones.c   ****     }else{
1025:funciones.c   ****         Tref=(Prom2-calib[1].b2)/calib[1].m2;
 5905              		.loc 1 1025 0
 5906 0124 134C     		ldr	r4, .L420+60
 5907 0126 A16D     		ldr	r1, [r4, #88]	@ float
 5908 0128 2846     		mov	r0, r5
 5909 012a FFF7FEFF 		bl	__aeabi_fsub
 5910              	.LVL667:
 5911 012e 216C     		ldr	r1, [r4, #64]	@ float
 5912 0130 FFF7FEFF 		bl	__aeabi_fdiv
 5913              	.LVL668:
1026:funciones.c   ****     }
1027:funciones.c   ****     return Tref;
ARM GAS  C:\Users\USUARIO\AppData\Local\Temp\ccWuTYF0.s 			page 123


1028:funciones.c   **** }
 5914              		.loc 1 1028 0
 5915 0134 F8BD     		pop	{r3, r4, r5, r6, r7, pc}
 5916              	.LVL669:
 5917              	.L421:
 5918 0136 00BF     		.align	2
 5919              	.L420:
 5920 0138 00000000 		.word	Prom2
 5921 013c 00000000 		.word	vRef
 5922 0140 00000000 		.word	rtdRes
 5923 0144 00000000 		.word	rtdTemp
 5924 0148 1F85EB51 		.word	1374389535
 5925 014c 00000000 		.word	decTemp
 5926 0150 00000000 		.word	fracTemp
 5927 0154 00005940 		.word	1079574528
 5928 0158 00000000 		.word	V1
 5929 015c 00000000 		.word	ll
 5930 0160 00000000 		.word	promedioT2
 5931 0164 00000000 		.word	hh
 5932 0168 00000000 		.word	Ajuste2
 5933 016c 00002041 		.word	1092616192
 5934 0170 00000000 		.word	Ajusten2
 5935 0174 00000000 		.word	calib
 5936              		.cfi_endproc
 5937              	.LFE80:
 5938              		.size	leePt1002, .-leePt1002
 5939              		.section	.text.LowPassFilter,"ax",%progbits
 5940              		.align	2
 5941              		.global	LowPassFilter
 5942              		.thumb
 5943              		.thumb_func
 5944              		.type	LowPassFilter, %function
 5945              	LowPassFilter:
 5946              	.LFB81:
1029:funciones.c   **** 
1030:funciones.c   **** int32 LowPassFilter(int32 input){
 5947              		.loc 1 1030 0
 5948              		.cfi_startproc
 5949              		@ args = 0, pretend = 0, frame = 0
 5950              		@ frame_needed = 0, uses_anonymous_args = 0
 5951              		@ link register save eliminated.
 5952              	.LVL670:
1031:funciones.c   ****     int32 k;
1032:funciones.c   ****     input <<= 8;
1033:funciones.c   ****     filt = filt + (((input-filt) >> 8) * 40);
 5953              		.loc 1 1033 0
 5954 0000 074A     		ldr	r2, .L423
 5955 0002 1168     		ldr	r1, [r2]
 5956 0004 C1EB0020 		rsb	r0, r1, r0, lsl #8
 5957              	.LVL671:
 5958 0008 0312     		asrs	r3, r0, #8
 5959 000a 03EB8303 		add	r3, r3, r3, lsl #2
 5960 000e D800     		lsls	r0, r3, #3
 5961 0010 0B18     		adds	r3, r1, r0
 5962 0012 1360     		str	r3, [r2]
1034:funciones.c   ****     k = (filt>>8) + ((filt & 0x00000080) >> 7);
 5963              		.loc 1 1034 0
ARM GAS  C:\Users\USUARIO\AppData\Local\Temp\ccWuTYF0.s 			page 124


 5964 0014 C3F3C010 		ubfx	r0, r3, #7, #1
 5965              	.LVL672:
1035:funciones.c   ****     return k;
1036:funciones.c   **** }
 5966              		.loc 1 1036 0
 5967 0018 00EB2320 		add	r0, r0, r3, asr #8
 5968              	.LVL673:
 5969 001c 7047     		bx	lr
 5970              	.L424:
 5971 001e 00BF     		.align	2
 5972              	.L423:
 5973 0020 00000000 		.word	filt
 5974              		.cfi_endproc
 5975              	.LFE81:
 5976              		.size	LowPassFilter, .-LowPassFilter
 5977              		.section	.text.leeLM35,"ax",%progbits
 5978              		.align	2
 5979              		.global	leeLM35
 5980              		.thumb
 5981              		.thumb_func
 5982              		.type	leeLM35, %function
 5983              	leeLM35:
 5984              	.LFB82:
1037:funciones.c   **** 
1038:funciones.c   **** int32 leeLM35(){ //Falta hacerle promedio
 5985              		.loc 1 1038 0
 5986              		.cfi_startproc
 5987              		@ args = 0, pretend = 0, frame = 0
 5988              		@ frame_needed = 0, uses_anonymous_args = 0
 5989 0000 38B5     		push	{r3, r4, r5, lr}
 5990              		.cfi_def_cfa_offset 16
 5991              		.cfi_offset 3, -16
 5992              		.cfi_offset 4, -12
 5993              		.cfi_offset 5, -8
 5994              		.cfi_offset 14, -4
 5995              	.LVL674:
1039:funciones.c   ****     float Promlm35;
1040:funciones.c   ****     Promlm35=0.0;
1041:funciones.c   ****     ADC_SAR_IsEndConversion(ADC_SAR_WAIT_FOR_RESULT);
 5996              		.loc 1 1041 0
 5997 0002 0020     		movs	r0, #0
 5998 0004 FFF7FEFF 		bl	ADC_SAR_IsEndConversion
 5999              	.LVL675:
1042:funciones.c   ****     tmp=ADC_SAR_GetResult16(0u);
 6000              		.loc 1 1042 0
 6001 0008 0020     		movs	r0, #0
 6002 000a FFF7FEFF 		bl	ADC_SAR_GetResult16
 6003              	.LVL676:
 6004 000e 194B     		ldr	r3, .L430
 6005 0010 1860     		str	r0, [r3]
1043:funciones.c   ****     lm35=LowPassFilter(ADC_SAR_CountsTo_mVolts(tmp));
 6006              		.loc 1 1043 0
 6007 0012 FFF7FEFF 		bl	ADC_SAR_CountsTo_mVolts
 6008              	.LVL677:
 6009 0016 FFF7FEFF 		bl	LowPassFilter
 6010              	.LVL678:
 6011 001a 174B     		ldr	r3, .L430+4
ARM GAS  C:\Users\USUARIO\AppData\Local\Temp\ccWuTYF0.s 			page 125


 6012 001c 1860     		str	r0, [r3]
1044:funciones.c   ****     if(k>(4))
 6013              		.loc 1 1044 0
 6014 001e 174B     		ldr	r3, .L430+8
 6015 0020 1B78     		ldrb	r3, [r3]	@ zero_extendqisi2
 6016 0022 042B     		cmp	r3, #4
 6017 0024 02D9     		bls	.L426
1045:funciones.c   ****       k=0;
 6018              		.loc 1 1045 0
 6019 0026 0022     		movs	r2, #0
 6020 0028 144B     		ldr	r3, .L430+8
 6021 002a 1A70     		strb	r2, [r3]
 6022              	.L426:
1046:funciones.c   ****     promediolm35[k]=lm35;k++;
 6023              		.loc 1 1046 0
 6024 002c 134D     		ldr	r5, .L430+8
 6025 002e 2C78     		ldrb	r4, [r5]	@ zero_extendqisi2
 6026 0030 FFF7FEFF 		bl	__aeabi_ui2f
 6027              	.LVL679:
 6028 0034 124B     		ldr	r3, .L430+12
 6029 0036 43F82400 		str	r0, [r3, r4, lsl #2]	@ float
 6030 003a 0134     		adds	r4, r4, #1
 6031 003c 2C70     		strb	r4, [r5]
1047:funciones.c   ****          
1048:funciones.c   ****     for(kk=0;kk<5;kk++)
 6032              		.loc 1 1048 0
 6033 003e 0022     		movs	r2, #0
 6034 0040 104B     		ldr	r3, .L430+16
 6035 0042 1A70     		strb	r2, [r3]
1040:funciones.c   ****     ADC_SAR_IsEndConversion(ADC_SAR_WAIT_FOR_RESULT);
 6036              		.loc 1 1040 0
 6037 0044 0020     		movs	r0, #0
 6038              		.loc 1 1048 0
 6039 0046 07E0     		b	.L427
 6040              	.LVL680:
 6041              	.L428:
1049:funciones.c   ****       Promlm35+=promediolm35[kk]; 
 6042              		.loc 1 1049 0 discriminator 3
 6043 0048 0D4B     		ldr	r3, .L430+12
 6044 004a 53F82410 		ldr	r1, [r3, r4, lsl #2]	@ float
 6045 004e FFF7FEFF 		bl	__aeabi_fadd
 6046              	.LVL681:
1048:funciones.c   ****       Promlm35+=promediolm35[kk]; 
 6047              		.loc 1 1048 0 discriminator 3
 6048 0052 0134     		adds	r4, r4, #1
 6049 0054 0B4B     		ldr	r3, .L430+16
 6050 0056 1C70     		strb	r4, [r3]
 6051              	.LVL682:
 6052              	.L427:
1048:funciones.c   ****       Promlm35+=promediolm35[kk]; 
 6053              		.loc 1 1048 0 is_stmt 0 discriminator 1
 6054 0058 0A4B     		ldr	r3, .L430+16
 6055 005a 1C78     		ldrb	r4, [r3]	@ zero_extendqisi2
 6056 005c 042C     		cmp	r4, #4
 6057 005e F3D9     		bls	.L428
1050:funciones.c   ****     Promlm35=Promlm35/5;
 6058              		.loc 1 1050 0 is_stmt 1
ARM GAS  C:\Users\USUARIO\AppData\Local\Temp\ccWuTYF0.s 			page 126


 6059 0060 0949     		ldr	r1, .L430+20
 6060 0062 FFF7FEFF 		bl	__aeabi_fdiv
 6061              	.LVL683:
1051:funciones.c   ****     return Promlm35*10;
 6062              		.loc 1 1051 0
 6063 0066 0949     		ldr	r1, .L430+24
 6064 0068 FFF7FEFF 		bl	__aeabi_fmul
 6065              	.LVL684:
 6066 006c FFF7FEFF 		bl	__aeabi_f2iz
 6067              	.LVL685:
1052:funciones.c   **** }
 6068              		.loc 1 1052 0
 6069 0070 38BD     		pop	{r3, r4, r5, pc}
 6070              	.L431:
 6071 0072 00BF     		.align	2
 6072              	.L430:
 6073 0074 00000000 		.word	tmp
 6074 0078 00000000 		.word	lm35
 6075 007c 00000000 		.word	k
 6076 0080 00000000 		.word	promediolm35
 6077 0084 00000000 		.word	kk
 6078 0088 0000A040 		.word	1084227584
 6079 008c 00002041 		.word	1092616192
 6080              		.cfi_endproc
 6081              	.LFE82:
 6082              		.size	leeLM35, .-leeLM35
 6083              		.section	.text.leeHumedad,"ax",%progbits
 6084              		.align	2
 6085              		.global	leeHumedad
 6086              		.thumb
 6087              		.thumb_func
 6088              		.type	leeHumedad, %function
 6089              	leeHumedad:
 6090              	.LFB83:
1053:funciones.c   **** 
1054:funciones.c   **** float leeHumedad(int8 media){
 6091              		.loc 1 1054 0
 6092              		.cfi_startproc
 6093              		@ args = 0, pretend = 0, frame = 0
 6094              		@ frame_needed = 0, uses_anonymous_args = 0
 6095              	.LVL686:
 6096 0000 2DE9F84F 		push	{r3, r4, r5, r6, r7, r8, r9, r10, fp, lr}
 6097              		.cfi_def_cfa_offset 40
 6098              		.cfi_offset 3, -40
 6099              		.cfi_offset 4, -36
 6100              		.cfi_offset 5, -32
 6101              		.cfi_offset 6, -28
 6102              		.cfi_offset 7, -24
 6103              		.cfi_offset 8, -20
 6104              		.cfi_offset 9, -16
 6105              		.cfi_offset 10, -12
 6106              		.cfi_offset 11, -8
 6107              		.cfi_offset 14, -4
 6108 0004 0446     		mov	r4, r0
 6109              	.LVL687:
1055:funciones.c   ****    float VH=0.0,RH=0.0,Ta=0.0,VT=0.0;
1056:funciones.c   ****    float PromH,PromTa;
ARM GAS  C:\Users\USUARIO\AppData\Local\Temp\ccWuTYF0.s 			page 127


1057:funciones.c   ****     float Href;
1058:funciones.c   ****    PromH=0.0;
1059:funciones.c   ****    PromTa=0.0;
1060:funciones.c   ****    ADC_SAR_IsEndConversion(ADC_SAR_WAIT_FOR_RESULT);
 6110              		.loc 1 1060 0
 6111 0006 0020     		movs	r0, #0
 6112              	.LVL688:
 6113 0008 FFF7FEFF 		bl	ADC_SAR_IsEndConversion
 6114              	.LVL689:
1061:funciones.c   ****    //VH=ADC_SAR_CountsTo_Volts(LowPassFilter(tmp));
1062:funciones.c   ****    VH=ADC_SAR_CountsTo_Volts(ADC_SAR_GetResult16(1u));
 6115              		.loc 1 1062 0
 6116 000c 0120     		movs	r0, #1
 6117 000e FFF7FEFF 		bl	ADC_SAR_GetResult16
 6118              	.LVL690:
 6119 0012 FFF7FEFF 		bl	ADC_SAR_CountsTo_Volts
 6120              	.LVL691:
 6121 0016 0546     		mov	r5, r0
 6122              	.LVL692:
1063:funciones.c   ****    VT=ADC_SAR_CountsTo_Volts(ADC_SAR_GetResult16(2u));
 6123              		.loc 1 1063 0
 6124 0018 0220     		movs	r0, #2
 6125              	.LVL693:
 6126 001a FFF7FEFF 		bl	ADC_SAR_GetResult16
 6127              	.LVL694:
 6128 001e FFF7FEFF 		bl	ADC_SAR_CountsTo_Volts
 6129              	.LVL695:
 6130 0022 0646     		mov	r6, r0
 6131              	.LVL696:
1064:funciones.c   ****    VH=VH*1000;
 6132              		.loc 1 1064 0
 6133 0024 A049     		ldr	r1, .L447+88
 6134 0026 2846     		mov	r0, r5
 6135              	.LVL697:
 6136 0028 FFF7FEFF 		bl	__aeabi_fmul
 6137              	.LVL698:
 6138 002c 0546     		mov	r5, r0
 6139              	.LVL699:
1065:funciones.c   ****    //VT=VT*1000;
1066:funciones.c   ****    Ta=(pow(VT,3)*aa)+(pow(VT,2)*bb)+(VT*cc)+dd;
 6140              		.loc 1 1066 0
 6141 002e 3046     		mov	r0, r6
 6142              	.LVL700:
 6143 0030 FFF7FEFF 		bl	__aeabi_f2d
 6144              	.LVL701:
 6145 0034 0646     		mov	r6, r0
 6146              	.LVL702:
 6147 0036 0F46     		mov	r7, r1
 6148 0038 0022     		movs	r2, #0
 6149 003a 9C4B     		ldr	r3, .L447+92
 6150 003c FFF7FEFF 		bl	pow
 6151              	.LVL703:
 6152 0040 83A3     		adr	r3, .L447
 6153 0042 D3E90023 		ldrd	r2, [r3]
 6154 0046 FFF7FEFF 		bl	__aeabi_dmul
 6155              	.LVL704:
 6156 004a 8046     		mov	r8, r0
ARM GAS  C:\Users\USUARIO\AppData\Local\Temp\ccWuTYF0.s 			page 128


 6157 004c 8946     		mov	r9, r1
 6158 004e 0022     		movs	r2, #0
 6159 0050 4FF08043 		mov	r3, #1073741824
 6160 0054 3046     		mov	r0, r6
 6161 0056 3946     		mov	r1, r7
 6162 0058 FFF7FEFF 		bl	pow
 6163              	.LVL705:
 6164 005c 7EA3     		adr	r3, .L447+8
 6165 005e D3E90023 		ldrd	r2, [r3]
 6166 0062 FFF7FEFF 		bl	__aeabi_dmul
 6167              	.LVL706:
 6168 0066 0246     		mov	r2, r0
 6169 0068 0B46     		mov	r3, r1
 6170 006a 4046     		mov	r0, r8
 6171 006c 4946     		mov	r1, r9
 6172 006e FFF7FEFF 		bl	__aeabi_dadd
 6173              	.LVL707:
 6174 0072 8046     		mov	r8, r0
 6175 0074 8946     		mov	r9, r1
 6176 0076 7AA3     		adr	r3, .L447+16
 6177 0078 D3E90023 		ldrd	r2, [r3]
 6178 007c 3046     		mov	r0, r6
 6179 007e 3946     		mov	r1, r7
 6180 0080 FFF7FEFF 		bl	__aeabi_dmul
 6181              	.LVL708:
 6182 0084 0246     		mov	r2, r0
 6183 0086 0B46     		mov	r3, r1
 6184 0088 4046     		mov	r0, r8
 6185 008a 4946     		mov	r1, r9
 6186 008c FFF7FEFF 		bl	__aeabi_dadd
 6187              	.LVL709:
 6188 0090 75A3     		adr	r3, .L447+24
 6189 0092 D3E90023 		ldrd	r2, [r3]
 6190 0096 FFF7FEFF 		bl	__aeabi_dadd
 6191              	.LVL710:
 6192 009a FFF7FEFF 		bl	__aeabi_d2f
 6193              	.LVL711:
1067:funciones.c   **** 
1068:funciones.c   ****    if(f>(media-1))
 6194              		.loc 1 1068 0
 6195 009e 844B     		ldr	r3, .L447+96
 6196 00a0 1B78     		ldrb	r3, [r3]	@ zero_extendqisi2
 6197 00a2 2646     		mov	r6, r4
 6198 00a4 671E     		subs	r7, r4, #1
 6199 00a6 BB42     		cmp	r3, r7
 6200 00a8 02DD     		ble	.L433
1069:funciones.c   ****       f=0;
 6201              		.loc 1 1069 0
 6202 00aa 0022     		movs	r2, #0
 6203 00ac 804B     		ldr	r3, .L447+96
 6204 00ae 1A70     		strb	r2, [r3]
 6205              	.L433:
1070:funciones.c   ****    promedioTa[f]=Ta;f++;
 6206              		.loc 1 1070 0
 6207 00b0 7F4A     		ldr	r2, .L447+96
 6208 00b2 1378     		ldrb	r3, [r2]	@ zero_extendqisi2
 6209 00b4 7F49     		ldr	r1, .L447+100
ARM GAS  C:\Users\USUARIO\AppData\Local\Temp\ccWuTYF0.s 			page 129


 6210 00b6 41F82300 		str	r0, [r1, r3, lsl #2]	@ float
 6211 00ba 0133     		adds	r3, r3, #1
 6212 00bc 1370     		strb	r3, [r2]
1071:funciones.c   ****          
1072:funciones.c   ****    for(h=0;h<media;h++)
 6213              		.loc 1 1072 0
 6214 00be 0022     		movs	r2, #0
 6215 00c0 7D4B     		ldr	r3, .L447+104
 6216 00c2 1A70     		strb	r2, [r3]
1059:funciones.c   ****    ADC_SAR_IsEndConversion(ADC_SAR_WAIT_FOR_RESULT);
 6217              		.loc 1 1059 0
 6218 00c4 4FF00009 		mov	r9, #0
 6219              		.loc 1 1072 0
 6220 00c8 0BE0     		b	.L434
 6221              	.LVL712:
 6222              	.L435:
1073:funciones.c   ****       PromTa+=promedioTa[h]; 
 6223              		.loc 1 1073 0 discriminator 3
 6224 00ca 7A4B     		ldr	r3, .L447+100
 6225 00cc 53F82810 		ldr	r1, [r3, r8, lsl #2]	@ float
 6226 00d0 4846     		mov	r0, r9
 6227 00d2 FFF7FEFF 		bl	__aeabi_fadd
 6228              	.LVL713:
 6229 00d6 8146     		mov	r9, r0
 6230              	.LVL714:
1072:funciones.c   ****       PromTa+=promedioTa[h]; 
 6231              		.loc 1 1072 0 discriminator 3
 6232 00d8 08F10108 		add	r8, r8, #1
 6233 00dc 764B     		ldr	r3, .L447+104
 6234 00de 83F80080 		strb	r8, [r3]
 6235              	.LVL715:
 6236              	.L434:
1072:funciones.c   ****       PromTa+=promedioTa[h]; 
 6237              		.loc 1 1072 0 is_stmt 0 discriminator 1
 6238 00e2 754B     		ldr	r3, .L447+104
 6239 00e4 93F80080 		ldrb	r8, [r3]	@ zero_extendqisi2
 6240 00e8 4645     		cmp	r6, r8
 6241 00ea EEDC     		bgt	.L435
1074:funciones.c   ****    PromTa=PromTa/media;
 6242              		.loc 1 1074 0 is_stmt 1
 6243 00ec 2046     		mov	r0, r4
 6244 00ee FFF7FEFF 		bl	__aeabi_i2f
 6245              	.LVL716:
 6246 00f2 8346     		mov	fp, r0
 6247 00f4 0146     		mov	r1, r0
 6248 00f6 4846     		mov	r0, r9
 6249 00f8 FFF7FEFF 		bl	__aeabi_fdiv
 6250              	.LVL717:
 6251 00fc 8246     		mov	r10, r0
 6252              	.LVL718:
1075:funciones.c   ****    
1076:funciones.c   ****    Tam=PromTa;
 6253              		.loc 1 1076 0
 6254 00fe 6F4B     		ldr	r3, .L447+108
 6255 0100 1860     		str	r0, [r3]	@ float
1077:funciones.c   ****    RH =((-0.0000000019206*pow(VH,3))+( 0.000014370*pow(VH,2))+( 0.0034210*VH)-12.4)/(1+(PromTa-23)*
 6256              		.loc 1 1077 0
ARM GAS  C:\Users\USUARIO\AppData\Local\Temp\ccWuTYF0.s 			page 130


 6257 0102 2846     		mov	r0, r5
 6258              	.LVL719:
 6259 0104 FFF7FEFF 		bl	__aeabi_f2d
 6260              	.LVL720:
 6261 0108 0446     		mov	r4, r0
 6262 010a 0D46     		mov	r5, r1
 6263              	.LVL721:
 6264 010c 0022     		movs	r2, #0
 6265 010e 674B     		ldr	r3, .L447+92
 6266 0110 FFF7FEFF 		bl	pow
 6267              	.LVL722:
 6268 0114 56A3     		adr	r3, .L447+32
 6269 0116 D3E90023 		ldrd	r2, [r3]
 6270 011a FFF7FEFF 		bl	__aeabi_dmul
 6271              	.LVL723:
 6272 011e 8046     		mov	r8, r0
 6273 0120 8946     		mov	r9, r1
 6274 0122 0022     		movs	r2, #0
 6275 0124 4FF08043 		mov	r3, #1073741824
 6276 0128 2046     		mov	r0, r4
 6277 012a 2946     		mov	r1, r5
 6278 012c FFF7FEFF 		bl	pow
 6279              	.LVL724:
 6280 0130 51A3     		adr	r3, .L447+40
 6281 0132 D3E90023 		ldrd	r2, [r3]
 6282 0136 FFF7FEFF 		bl	__aeabi_dmul
 6283              	.LVL725:
 6284 013a 0246     		mov	r2, r0
 6285 013c 0B46     		mov	r3, r1
 6286 013e 4046     		mov	r0, r8
 6287 0140 4946     		mov	r1, r9
 6288 0142 FFF7FEFF 		bl	__aeabi_dadd
 6289              	.LVL726:
 6290 0146 8046     		mov	r8, r0
 6291 0148 8946     		mov	r9, r1
 6292 014a 4DA3     		adr	r3, .L447+48
 6293 014c D3E90023 		ldrd	r2, [r3]
 6294 0150 2046     		mov	r0, r4
 6295 0152 2946     		mov	r1, r5
 6296 0154 FFF7FEFF 		bl	__aeabi_dmul
 6297              	.LVL727:
 6298 0158 0246     		mov	r2, r0
 6299 015a 0B46     		mov	r3, r1
 6300 015c 4046     		mov	r0, r8
 6301 015e 4946     		mov	r1, r9
 6302 0160 FFF7FEFF 		bl	__aeabi_dadd
 6303              	.LVL728:
 6304 0164 48A3     		adr	r3, .L447+56
 6305 0166 D3E90023 		ldrd	r2, [r3]
 6306 016a FFF7FEFF 		bl	__aeabi_dsub
 6307              	.LVL729:
 6308 016e 8046     		mov	r8, r0
 6309 0170 8946     		mov	r9, r1
 6310 0172 5349     		ldr	r1, .L447+112
 6311 0174 5046     		mov	r0, r10
 6312 0176 FFF7FEFF 		bl	__aeabi_fsub
 6313              	.LVL730:
ARM GAS  C:\Users\USUARIO\AppData\Local\Temp\ccWuTYF0.s 			page 131


 6314 017a FFF7FEFF 		bl	__aeabi_f2d
 6315              	.LVL731:
 6316 017e 44A3     		adr	r3, .L447+64
 6317 0180 D3E90023 		ldrd	r2, [r3]
 6318 0184 FFF7FEFF 		bl	__aeabi_dmul
 6319              	.LVL732:
 6320 0188 0022     		movs	r2, #0
 6321 018a 4E4B     		ldr	r3, .L447+116
 6322 018c FFF7FEFF 		bl	__aeabi_dadd
 6323              	.LVL733:
 6324 0190 0246     		mov	r2, r0
 6325 0192 0B46     		mov	r3, r1
 6326 0194 4046     		mov	r0, r8
 6327 0196 4946     		mov	r1, r9
 6328 0198 FFF7FEFF 		bl	__aeabi_ddiv
 6329              	.LVL734:
 6330 019c FFF7FEFF 		bl	__aeabi_d2f
 6331              	.LVL735:
 6332 01a0 8046     		mov	r8, r0
 6333              	.LVL736:
1078:funciones.c   ****    if(RH<0)
 6334              		.loc 1 1078 0
 6335 01a2 0021     		movs	r1, #0
 6336 01a4 FFF7FEFF 		bl	__aeabi_fcmplt
 6337              	.LVL737:
 6338 01a8 08B1     		cbz	r0, .L436
1079:funciones.c   ****         RH=0.0;
 6339              		.loc 1 1079 0
 6340 01aa 4FF00008 		mov	r8, #0
 6341              	.LVL738:
 6342              	.L436:
1080:funciones.c   ****    //if(RH>100.0)
1081:funciones.c   ****         //RH=100.0;
1082:funciones.c   ****    //RH =((-0.0000000019206*pow(VH,3))+( 0.000014370*pow(VH,2))+( 0.0034210*VH)-12.4)/(1+(Temperatu
1083:funciones.c   ****    RH2 = 0.0375 * VH - 37.7; //Lineal sin compensacion de Temperatura
 6343              		.loc 1 1083 0
 6344 01ae 3AA3     		adr	r3, .L447+72
 6345 01b0 D3E90023 		ldrd	r2, [r3]
 6346 01b4 2046     		mov	r0, r4
 6347 01b6 2946     		mov	r1, r5
 6348 01b8 FFF7FEFF 		bl	__aeabi_dmul
 6349              	.LVL739:
 6350 01bc 38A3     		adr	r3, .L447+80
 6351 01be D3E90023 		ldrd	r2, [r3]
 6352 01c2 FFF7FEFF 		bl	__aeabi_dsub
 6353              	.LVL740:
 6354 01c6 FFF7FEFF 		bl	__aeabi_d2f
 6355              	.LVL741:
 6356 01ca 3F4B     		ldr	r3, .L447+120
 6357 01cc 1860     		str	r0, [r3]	@ float
1084:funciones.c   ****    if(n>(media-1))
 6358              		.loc 1 1084 0
 6359 01ce 3F4B     		ldr	r3, .L447+124
 6360 01d0 1B78     		ldrb	r3, [r3]	@ zero_extendqisi2
 6361 01d2 9F42     		cmp	r7, r3
 6362 01d4 02DA     		bge	.L437
1085:funciones.c   ****       n=0;
ARM GAS  C:\Users\USUARIO\AppData\Local\Temp\ccWuTYF0.s 			page 132


 6363              		.loc 1 1085 0
 6364 01d6 0022     		movs	r2, #0
 6365 01d8 3C4B     		ldr	r3, .L447+124
 6366 01da 1A70     		strb	r2, [r3]
 6367              	.L437:
1086:funciones.c   ****    promedioH[n]=RH;n++;
 6368              		.loc 1 1086 0
 6369 01dc 3B4A     		ldr	r2, .L447+124
 6370 01de 1378     		ldrb	r3, [r2]	@ zero_extendqisi2
 6371 01e0 3B49     		ldr	r1, .L447+128
 6372 01e2 41F82380 		str	r8, [r1, r3, lsl #2]	@ float
 6373 01e6 0133     		adds	r3, r3, #1
 6374 01e8 1370     		strb	r3, [r2]
1087:funciones.c   ****          
1088:funciones.c   ****    for(h=0;h<media;h++)
 6375              		.loc 1 1088 0
 6376 01ea 0022     		movs	r2, #0
 6377 01ec 324B     		ldr	r3, .L447+104
 6378 01ee 1A70     		strb	r2, [r3]
1058:funciones.c   ****    PromTa=0.0;
 6379              		.loc 1 1058 0
 6380 01f0 0020     		movs	r0, #0
 6381              		.loc 1 1088 0
 6382 01f2 07E0     		b	.L438
 6383              	.LVL742:
 6384              	.L439:
1089:funciones.c   ****       PromH+=promedioH[h]; 
 6385              		.loc 1 1089 0 discriminator 3
 6386 01f4 364B     		ldr	r3, .L447+128
 6387 01f6 53F82410 		ldr	r1, [r3, r4, lsl #2]	@ float
 6388 01fa FFF7FEFF 		bl	__aeabi_fadd
 6389              	.LVL743:
1088:funciones.c   ****       PromH+=promedioH[h]; 
 6390              		.loc 1 1088 0 discriminator 3
 6391 01fe 0134     		adds	r4, r4, #1
 6392 0200 2D4B     		ldr	r3, .L447+104
 6393 0202 1C70     		strb	r4, [r3]
 6394              	.LVL744:
 6395              	.L438:
1088:funciones.c   ****       PromH+=promedioH[h]; 
 6396              		.loc 1 1088 0 is_stmt 0 discriminator 1
 6397 0204 2C4B     		ldr	r3, .L447+104
 6398 0206 1C78     		ldrb	r4, [r3]	@ zero_extendqisi2
 6399 0208 A642     		cmp	r6, r4
 6400 020a F3DC     		bgt	.L439
1090:funciones.c   ****    PromH=PromH/media;
 6401              		.loc 1 1090 0 is_stmt 1
 6402 020c 5946     		mov	r1, fp
 6403 020e FFF7FEFF 		bl	__aeabi_fdiv
 6404              	.LVL745:
 6405 0212 0446     		mov	r4, r0
 6406              	.LVL746:
1091:funciones.c   ****     
1092:funciones.c   ****     if(PromH<=calib[2].control2){
 6407              		.loc 1 1092 0
 6408 0214 2F4B     		ldr	r3, .L447+132
 6409 0216 596E     		ldr	r1, [r3, #100]	@ float
ARM GAS  C:\Users\USUARIO\AppData\Local\Temp\ccWuTYF0.s 			page 133


 6410 0218 FFF7FEFF 		bl	__aeabi_fcmple
 6411              	.LVL747:
 6412 021c 50B1     		cbz	r0, .L445
1093:funciones.c   ****         Href=(PromH-calib[2].b1)/calib[2].m1;
 6413              		.loc 1 1093 0
 6414 021e 2D4D     		ldr	r5, .L447+132
 6415 0220 D5F88410 		ldr	r1, [r5, #132]	@ float
 6416 0224 2046     		mov	r0, r4
 6417 0226 FFF7FEFF 		bl	__aeabi_fsub
 6418              	.LVL748:
 6419 022a E96E     		ldr	r1, [r5, #108]	@ float
 6420 022c FFF7FEFF 		bl	__aeabi_fdiv
 6421              	.LVL749:
 6422 0230 BDE8F88F 		pop	{r3, r4, r5, r6, r7, r8, r9, r10, fp, pc}
 6423              	.LVL750:
 6424              	.L445:
1094:funciones.c   ****     }else{
1095:funciones.c   ****         Href=(PromH-calib[2].b2)/calib[2].m2;
 6425              		.loc 1 1095 0
 6426 0234 274D     		ldr	r5, .L447+132
 6427 0236 D5F88810 		ldr	r1, [r5, #136]	@ float
 6428 023a 2046     		mov	r0, r4
 6429 023c FFF7FEFF 		bl	__aeabi_fsub
 6430              	.LVL751:
 6431 0240 296F     		ldr	r1, [r5, #112]	@ float
 6432 0242 FFF7FEFF 		bl	__aeabi_fdiv
 6433              	.LVL752:
1096:funciones.c   ****     }
1097:funciones.c   ****    return Href;
1098:funciones.c   **** }
 6434              		.loc 1 1098 0
 6435 0246 BDE8F88F 		pop	{r3, r4, r5, r6, r7, r8, r9, r10, fp, pc}
 6436              	.LVL753:
 6437              	.L448:
 6438 024a 00BFAFF3 		.align	3
 6438      0080
 6439              	.L447:
 6440 0250 D9CEF753 		.word	1408749273
 6441 0254 E3A503C0 		.word	-1073502749
 6442 0258 93180456 		.word	1443109011
 6443 025c 0ECD3340 		.word	1077136654
 6444 0260 14AE47E1 		.word	-515396076
 6445 0264 7A4C52C0 		.word	-1068348294
 6446 0268 33333333 		.word	858993459
 6447 026c 33A35E40 		.word	1079943987
 6448 0270 E2EE37AE 		.word	-1372066078
 6449 0274 717F20BE 		.word	-1105166479
 6450 0278 C8A0EAC2 		.word	-1024810808
 6451 027c D522EE3E 		.word	1055793877
 6452 0280 EFE4D363 		.word	1674831087
 6453 0284 5B066C3F 		.word	1064044123
 6454 0288 CDCCCCCC 		.word	-858993459
 6455 028c CCCC2840 		.word	1076415692
 6456 0290 61325530 		.word	810889825
 6457 0294 2AA9633F 		.word	1063495978
 6458 0298 33333333 		.word	858993459
 6459 029c 3333A33F 		.word	1067660083
ARM GAS  C:\Users\USUARIO\AppData\Local\Temp\ccWuTYF0.s 			page 134


 6460 02a0 9A999999 		.word	-1717986918
 6461 02a4 99D94240 		.word	1078122905
 6462 02a8 00007A44 		.word	1148846080
 6463 02ac 00000840 		.word	1074266112
 6464 02b0 00000000 		.word	f
 6465 02b4 00000000 		.word	promedioTa
 6466 02b8 00000000 		.word	h
 6467 02bc 00000000 		.word	Tam
 6468 02c0 0000B841 		.word	1102577664
 6469 02c4 0000F03F 		.word	1072693248
 6470 02c8 00000000 		.word	RH2
 6471 02cc 00000000 		.word	n
 6472 02d0 00000000 		.word	promedioH
 6473 02d4 00000000 		.word	calib
 6474              		.cfi_endproc
 6475              	.LFE83:
 6476              		.size	leeHumedad, .-leeHumedad
 6477              		.section	.text.esBisiesto,"ax",%progbits
 6478              		.align	2
 6479              		.global	esBisiesto
 6480              		.thumb
 6481              		.thumb_func
 6482              		.type	esBisiesto, %function
 6483              	esBisiesto:
 6484              	.LFB84:
1099:funciones.c   **** 
1100:funciones.c   **** short esBisiesto(uint8 year) {
 6485              		.loc 1 1100 0
 6486              		.cfi_startproc
 6487              		@ args = 0, pretend = 0, frame = 0
 6488              		@ frame_needed = 0, uses_anonymous_args = 0
 6489              		@ link register save eliminated.
 6490              	.LVL754:
1101:funciones.c   ****      return ((year % 4 == 0 && year % 100 != 0) || year % 400 == 0);
 6491              		.loc 1 1101 0
 6492 0000 10F0030F 		tst	r0, #3
 6493 0004 09D1     		bne	.L450
 6494              		.loc 1 1101 0 is_stmt 0 discriminator 1
 6495 0006 084B     		ldr	r3, .L454
 6496 0008 A3FB0023 		umull	r2, r3, r3, r0
 6497 000c 5B09     		lsrs	r3, r3, #5
 6498 000e 6422     		movs	r2, #100
 6499 0010 02FB1303 		mls	r3, r2, r3, r0
 6500 0014 13F0FF0F 		tst	r3, #255
 6501 0018 02D1     		bne	.L452
 6502              	.L450:
 6503              		.loc 1 1101 0 discriminator 4
 6504 001a 18B9     		cbnz	r0, .L453
 6505              		.loc 1 1101 0
 6506 001c 0120     		movs	r0, #1
 6507              	.LVL755:
 6508 001e 7047     		bx	lr
 6509              	.LVL756:
 6510              	.L452:
 6511 0020 0120     		movs	r0, #1
 6512              	.LVL757:
 6513 0022 7047     		bx	lr
ARM GAS  C:\Users\USUARIO\AppData\Local\Temp\ccWuTYF0.s 			page 135


 6514              	.LVL758:
 6515              	.L453:
 6516 0024 0020     		movs	r0, #0
 6517              	.LVL759:
1102:funciones.c   **** }
 6518              		.loc 1 1102 0 is_stmt 1
 6519 0026 7047     		bx	lr
 6520              	.L455:
 6521              		.align	2
 6522              	.L454:
 6523 0028 1F85EB51 		.word	1374389535
 6524              		.cfi_endproc
 6525              	.LFE84:
 6526              		.size	esBisiesto, .-esBisiesto
 6527              		.section	.text.LimitaDia,"ax",%progbits
 6528              		.align	2
 6529              		.global	LimitaDia
 6530              		.thumb
 6531              		.thumb_func
 6532              		.type	LimitaDia, %function
 6533              	LimitaDia:
 6534              	.LFB85:
1103:funciones.c   **** 
1104:funciones.c   **** void LimitaDia(){
 6535              		.loc 1 1104 0
 6536              		.cfi_startproc
 6537              		@ args = 0, pretend = 0, frame = 0
 6538              		@ frame_needed = 0, uses_anonymous_args = 0
 6539 0000 08B5     		push	{r3, lr}
 6540              		.cfi_def_cfa_offset 8
 6541              		.cfi_offset 3, -8
 6542              		.cfi_offset 14, -4
1105:funciones.c   ****    if(MesTx>12)
 6543              		.loc 1 1105 0
 6544 0002 2A4B     		ldr	r3, .L467
 6545 0004 1B7D     		ldrb	r3, [r3, #20]	@ zero_extendqisi2
 6546 0006 0C2B     		cmp	r3, #12
 6547 0008 02D9     		bls	.L457
1106:funciones.c   ****       MesTx=10;
 6548              		.loc 1 1106 0
 6549 000a 0A22     		movs	r2, #10
 6550 000c 274B     		ldr	r3, .L467
 6551 000e 1A75     		strb	r2, [r3, #20]
 6552              	.L457:
1107:funciones.c   ****    if(DiaTx>31)
 6553              		.loc 1 1107 0
 6554 0010 264B     		ldr	r3, .L467
 6555 0012 5B7D     		ldrb	r3, [r3, #21]	@ zero_extendqisi2
 6556 0014 1F2B     		cmp	r3, #31
 6557 0016 02D9     		bls	.L458
1108:funciones.c   ****       DiaTx=16;
 6558              		.loc 1 1108 0
 6559 0018 1022     		movs	r2, #16
 6560 001a 244B     		ldr	r3, .L467
 6561 001c 5A75     		strb	r2, [r3, #21]
 6562              	.L458:
1109:funciones.c   ****    if(YearTx>99)
ARM GAS  C:\Users\USUARIO\AppData\Local\Temp\ccWuTYF0.s 			page 136


 6563              		.loc 1 1109 0
 6564 001e 234B     		ldr	r3, .L467
 6565 0020 9B7D     		ldrb	r3, [r3, #22]	@ zero_extendqisi2
 6566 0022 632B     		cmp	r3, #99
 6567 0024 02D9     		bls	.L459
1110:funciones.c   ****       YearTx=18;   
 6568              		.loc 1 1110 0
 6569 0026 1222     		movs	r2, #18
 6570 0028 204B     		ldr	r3, .L467
 6571 002a 9A75     		strb	r2, [r3, #22]
 6572              	.L459:
1111:funciones.c   ****    if(HoraTx>24)
 6573              		.loc 1 1111 0
 6574 002c 1F4B     		ldr	r3, .L467
 6575 002e DB7D     		ldrb	r3, [r3, #23]	@ zero_extendqisi2
 6576 0030 182B     		cmp	r3, #24
 6577 0032 02D9     		bls	.L460
1112:funciones.c   ****       HoraTx=11;      
 6578              		.loc 1 1112 0
 6579 0034 0B22     		movs	r2, #11
 6580 0036 1D4B     		ldr	r3, .L467
 6581 0038 DA75     		strb	r2, [r3, #23]
 6582              	.L460:
1113:funciones.c   ****    if(MinutoTx>59)
 6583              		.loc 1 1113 0
 6584 003a 1C4B     		ldr	r3, .L467
 6585 003c 1B7E     		ldrb	r3, [r3, #24]	@ zero_extendqisi2
 6586 003e 3B2B     		cmp	r3, #59
 6587 0040 02D9     		bls	.L461
1114:funciones.c   ****       MinutoTx=30;      
 6588              		.loc 1 1114 0
 6589 0042 1E22     		movs	r2, #30
 6590 0044 194B     		ldr	r3, .L467
 6591 0046 1A76     		strb	r2, [r3, #24]
 6592              	.L461:
1115:funciones.c   ****    
1116:funciones.c   ****       if(MesTx==2){
 6593              		.loc 1 1116 0
 6594 0048 184B     		ldr	r3, .L467
 6595 004a 1B7D     		ldrb	r3, [r3, #20]	@ zero_extendqisi2
 6596 004c 022B     		cmp	r3, #2
 6597 004e 14D1     		bne	.L462
1117:funciones.c   ****          if(esBisiesto(YearTx)){
 6598              		.loc 1 1117 0
 6599 0050 164B     		ldr	r3, .L467
 6600 0052 987D     		ldrb	r0, [r3, #22]	@ zero_extendqisi2
 6601 0054 FFF7FEFF 		bl	esBisiesto
 6602              	.LVL760:
 6603 0058 38B1     		cbz	r0, .L463
1118:funciones.c   ****             if(DiaTx>29){
 6604              		.loc 1 1118 0
 6605 005a 144B     		ldr	r3, .L467
 6606 005c 5B7D     		ldrb	r3, [r3, #21]	@ zero_extendqisi2
 6607 005e 1D2B     		cmp	r3, #29
 6608 0060 22D9     		bls	.L456
1119:funciones.c   ****                DiaTx=29;
 6609              		.loc 1 1119 0
ARM GAS  C:\Users\USUARIO\AppData\Local\Temp\ccWuTYF0.s 			page 137


 6610 0062 1D22     		movs	r2, #29
 6611 0064 114B     		ldr	r3, .L467
 6612 0066 5A75     		strb	r2, [r3, #21]
 6613 0068 08BD     		pop	{r3, pc}
 6614              	.L463:
1120:funciones.c   ****                //glcd_fillScreen(OFF);
1121:funciones.c   ****             }
1122:funciones.c   ****          }else{
1123:funciones.c   ****             if(DiaTx>28){
 6615              		.loc 1 1123 0
 6616 006a 104B     		ldr	r3, .L467
 6617 006c 5B7D     		ldrb	r3, [r3, #21]	@ zero_extendqisi2
 6618 006e 1C2B     		cmp	r3, #28
 6619 0070 1AD9     		bls	.L456
1124:funciones.c   ****                DiaTx=28;
 6620              		.loc 1 1124 0
 6621 0072 1C22     		movs	r2, #28
 6622 0074 0D4B     		ldr	r3, .L467
 6623 0076 5A75     		strb	r2, [r3, #21]
 6624 0078 08BD     		pop	{r3, pc}
 6625              	.L462:
1125:funciones.c   ****                //glcd_fillScreen(OFF);
1126:funciones.c   ****             }
1127:funciones.c   ****          }
1128:funciones.c   ****       }else{
1129:funciones.c   ****          if(MesTx<=7){
 6626              		.loc 1 1129 0
 6627 007a 072B     		cmp	r3, #7
 6628 007c 0AD8     		bhi	.L465
1130:funciones.c   ****             if(MesTx % 2 ==0){
 6629              		.loc 1 1130 0
 6630 007e 13F0010F 		tst	r3, #1
 6631 0082 11D1     		bne	.L456
1131:funciones.c   ****                if(DiaTx>30){
 6632              		.loc 1 1131 0
 6633 0084 094B     		ldr	r3, .L467
 6634 0086 5B7D     		ldrb	r3, [r3, #21]	@ zero_extendqisi2
 6635 0088 1E2B     		cmp	r3, #30
 6636 008a 0DD9     		bls	.L456
1132:funciones.c   ****                   DiaTx=30; 
 6637              		.loc 1 1132 0
 6638 008c 1E22     		movs	r2, #30
 6639 008e 074B     		ldr	r3, .L467
 6640 0090 5A75     		strb	r2, [r3, #21]
 6641 0092 08BD     		pop	{r3, pc}
 6642              	.L465:
1133:funciones.c   ****                   //glcd_fillScreen(OFF);
1134:funciones.c   ****                }
1135:funciones.c   ****             }
1136:funciones.c   ****          }else{
1137:funciones.c   ****             if(MesTx % 2 ==1){
 6643              		.loc 1 1137 0
 6644 0094 13F0010F 		tst	r3, #1
 6645 0098 06D0     		beq	.L456
1138:funciones.c   ****                if(DiaTx>30){
 6646              		.loc 1 1138 0
 6647 009a 044B     		ldr	r3, .L467
ARM GAS  C:\Users\USUARIO\AppData\Local\Temp\ccWuTYF0.s 			page 138


 6648 009c 5B7D     		ldrb	r3, [r3, #21]	@ zero_extendqisi2
 6649 009e 1E2B     		cmp	r3, #30
 6650 00a0 02D9     		bls	.L456
1139:funciones.c   ****                   DiaTx=30; 
 6651              		.loc 1 1139 0
 6652 00a2 1E22     		movs	r2, #30
 6653 00a4 014B     		ldr	r3, .L467
 6654 00a6 5A75     		strb	r2, [r3, #21]
 6655              	.L456:
 6656 00a8 08BD     		pop	{r3, pc}
 6657              	.L468:
 6658 00aa 00BF     		.align	2
 6659              	.L467:
 6660 00ac 00000000 		.word	.LANCHOR0
 6661              		.cfi_endproc
 6662              	.LFE85:
 6663              		.size	LimitaDia, .-LimitaDia
 6664              		.section	.text.ApagaSalidas,"ax",%progbits
 6665              		.align	2
 6666              		.global	ApagaSalidas
 6667              		.thumb
 6668              		.thumb_func
 6669              		.type	ApagaSalidas, %function
 6670              	ApagaSalidas:
 6671              	.LFB86:
1140:funciones.c   ****                   //glcd_fillScreen(OFF);
1141:funciones.c   ****                }
1142:funciones.c   ****             }
1143:funciones.c   ****          }
1144:funciones.c   ****       }
1145:funciones.c   **** }
1146:funciones.c   **** 
1147:funciones.c   **** void ApagaSalidas(){
 6672              		.loc 1 1147 0
 6673              		.cfi_startproc
 6674              		@ args = 0, pretend = 0, frame = 0
 6675              		@ frame_needed = 0, uses_anonymous_args = 0
 6676 0000 08B5     		push	{r3, lr}
 6677              		.cfi_def_cfa_offset 8
 6678              		.cfi_offset 3, -8
 6679              		.cfi_offset 14, -4
1148:funciones.c   ****     BUZZER_Write(0);
 6680              		.loc 1 1148 0
 6681 0002 0020     		movs	r0, #0
 6682 0004 FFF7FEFF 		bl	BUZZER_Write
 6683              	.LVL761:
1149:funciones.c   ****     CR1_Write(0);
 6684              		.loc 1 1149 0
 6685 0008 0020     		movs	r0, #0
 6686 000a FFF7FEFF 		bl	CR1_Write
 6687              	.LVL762:
1150:funciones.c   ****     CR2_Write(0);
 6688              		.loc 1 1150 0
 6689 000e 0020     		movs	r0, #0
 6690 0010 FFF7FEFF 		bl	CR2_Write
 6691              	.LVL763:
1151:funciones.c   ****     CR3_Write(0);
ARM GAS  C:\Users\USUARIO\AppData\Local\Temp\ccWuTYF0.s 			page 139


 6692              		.loc 1 1151 0
 6693 0014 0020     		movs	r0, #0
 6694 0016 FFF7FEFF 		bl	CR3_Write
 6695              	.LVL764:
1152:funciones.c   ****     CR4_Write(0);
 6696              		.loc 1 1152 0
 6697 001a 0020     		movs	r0, #0
 6698 001c FFF7FEFF 		bl	CR4_Write
 6699              	.LVL765:
1153:funciones.c   ****     CR5_Write(0);
 6700              		.loc 1 1153 0
 6701 0020 0020     		movs	r0, #0
 6702 0022 FFF7FEFF 		bl	CR5_Write
 6703              	.LVL766:
1154:funciones.c   ****     CR6_Write(1);
 6704              		.loc 1 1154 0
 6705 0026 0120     		movs	r0, #1
 6706 0028 FFF7FEFF 		bl	CR6_Write
 6707              	.LVL767:
1155:funciones.c   ****     CR7_Write(1);
 6708              		.loc 1 1155 0
 6709 002c 0120     		movs	r0, #1
 6710 002e FFF7FEFF 		bl	CR7_Write
 6711              	.LVL768:
1156:funciones.c   ****     CR8_Write(0);
 6712              		.loc 1 1156 0
 6713 0032 0020     		movs	r0, #0
 6714 0034 FFF7FEFF 		bl	CR8_Write
 6715              	.LVL769:
1157:funciones.c   ****     //SSR_Write(0);
1158:funciones.c   ****     PWM_WriteCompare1(0);
 6716              		.loc 1 1158 0
 6717 0038 0020     		movs	r0, #0
 6718 003a FFF7FEFF 		bl	PWM_WriteCompare1
 6719              	.LVL770:
1159:funciones.c   ****     PWM_WriteCompare2(0);
 6720              		.loc 1 1159 0
 6721 003e 0020     		movs	r0, #0
 6722 0040 FFF7FEFF 		bl	PWM_WriteCompare2
 6723              	.LVL771:
 6724 0044 08BD     		pop	{r3, pc}
 6725              		.cfi_endproc
 6726              	.LFE86:
 6727              		.size	ApagaSalidas, .-ApagaSalidas
 6728 0046 00BF     		.section	.text.controlaHumedad,"ax",%progbits
 6729              		.align	2
 6730              		.global	controlaHumedad
 6731              		.thumb
 6732              		.thumb_func
 6733              		.type	controlaHumedad, %function
 6734              	controlaHumedad:
 6735              	.LFB87:
1160:funciones.c   **** }
1161:funciones.c   **** 
1162:funciones.c   **** void controlaHumedad(){
 6736              		.loc 1 1162 0
 6737              		.cfi_startproc
ARM GAS  C:\Users\USUARIO\AppData\Local\Temp\ccWuTYF0.s 			page 140


 6738              		@ args = 0, pretend = 0, frame = 0
 6739              		@ frame_needed = 0, uses_anonymous_args = 0
 6740 0000 2DE9F843 		push	{r3, r4, r5, r6, r7, r8, r9, lr}
 6741              		.cfi_def_cfa_offset 32
 6742              		.cfi_offset 3, -32
 6743              		.cfi_offset 4, -28
 6744              		.cfi_offset 5, -24
 6745              		.cfi_offset 6, -20
 6746              		.cfi_offset 7, -16
 6747              		.cfi_offset 8, -12
 6748              		.cfi_offset 9, -8
 6749              		.cfi_offset 14, -4
1163:funciones.c   ****    if(Humidificar){
 6750              		.loc 1 1163 0
 6751 0004 A04B     		ldr	r3, .L533+16
 6752 0006 B3F91A30 		ldrsh	r3, [r3, #26]
 6753 000a 002B     		cmp	r3, #0
 6754 000c 00F05C81 		beq	.L472
1164:funciones.c   ****       CR4_Write(1);
 6755              		.loc 1 1164 0
 6756 0010 0120     		movs	r0, #1
 6757 0012 FFF7FEFF 		bl	CR4_Write
 6758              	.LVL772:
1165:funciones.c   ****       dehumidificador=OFF;
 6759              		.loc 1 1165 0
 6760 0016 0023     		movs	r3, #0
 6761 0018 9C4A     		ldr	r2, .L533+20
 6762 001a 1380     		strh	r3, [r2]	@ movhi
1166:funciones.c   ****       tdehumidificador=0;
 6763              		.loc 1 1166 0
 6764 001c 9C4A     		ldr	r2, .L533+24
 6765 001e 1380     		strh	r3, [r2]	@ movhi
1167:funciones.c   ****       if(Humedad<SetpointH-5.0){
 6766              		.loc 1 1167 0
 6767 0020 9C4B     		ldr	r3, .L533+28
 6768 0022 D3F80080 		ldr	r8, [r3]	@ float
 6769 0026 4046     		mov	r0, r8
 6770 0028 FFF7FEFF 		bl	__aeabi_f2d
 6771              	.LVL773:
 6772 002c 0446     		mov	r4, r0
 6773 002e 0D46     		mov	r5, r1
 6774 0030 994B     		ldr	r3, .L533+32
 6775 0032 B3F80090 		ldrh	r9, [r3]
 6776 0036 4846     		mov	r0, r9
 6777 0038 FFF7FEFF 		bl	__aeabi_i2d
 6778              	.LVL774:
 6779 003c 0646     		mov	r6, r0
 6780 003e 0F46     		mov	r7, r1
 6781 0040 0022     		movs	r2, #0
 6782 0042 964B     		ldr	r3, .L533+36
 6783 0044 FFF7FEFF 		bl	__aeabi_dsub
 6784              	.LVL775:
 6785 0048 0246     		mov	r2, r0
 6786 004a 0B46     		mov	r3, r1
 6787 004c 2046     		mov	r0, r4
 6788 004e 2946     		mov	r1, r5
 6789 0050 FFF7FEFF 		bl	__aeabi_dcmplt
ARM GAS  C:\Users\USUARIO\AppData\Local\Temp\ccWuTYF0.s 			page 141


 6790              	.LVL776:
 6791 0054 0028     		cmp	r0, #0
 6792 0056 65D0     		beq	.L529
1168:funciones.c   ****          flagSobrepasoHumedad=OFF;
 6793              		.loc 1 1168 0
 6794 0058 8B4D     		ldr	r5, .L533+16
 6795 005a 0024     		movs	r4, #0
 6796 005c AC83     		strh	r4, [r5, #28]	@ movhi
1169:funciones.c   ****          tSobrepaso=0;
 6797              		.loc 1 1169 0
 6798 005e EC83     		strh	r4, [r5, #30]	@ movhi
1170:funciones.c   ****          escribeDisplay1("statusH.txt=\"Humidificando\"");
 6799              		.loc 1 1170 0
 6800 0060 8F48     		ldr	r0, .L533+40
 6801 0062 FFF7FEFF 		bl	escribeDisplay1
 6802              	.LVL777:
1171:funciones.c   ****          humidificador=ON;
 6803              		.loc 1 1171 0
 6804 0066 0123     		movs	r3, #1
 6805 0068 2B84     		strh	r3, [r5, #32]	@ movhi
1172:funciones.c   ****          CR5_Write(0);//Dehumidificador_off;
 6806              		.loc 1 1172 0
 6807 006a 2046     		mov	r0, r4
 6808 006c FFF7FEFF 		bl	CR5_Write
 6809              	.LVL778:
1173:funciones.c   ****          if(LEVEL_Read()==0){//Si detecta el nivel de agua en el humidificador
 6810              		.loc 1 1173 0
 6811 0070 FFF7FEFF 		bl	LEVEL_Read
 6812              	.LVL779:
 6813 0074 0028     		cmp	r0, #0
 6814 0076 36D1     		bne	.L475
1174:funciones.c   ****             tllenado=0;
 6815              		.loc 1 1174 0
 6816 0078 8A4B     		ldr	r3, .L533+44
 6817 007a 1C80     		strh	r4, [r3]	@ movhi
1175:funciones.c   ****             if(Humedad<SetpointH-10.0){
 6818              		.loc 1 1175 0
 6819 007c 854B     		ldr	r3, .L533+28
 6820 007e 1868     		ldr	r0, [r3]	@ float
 6821 0080 FFF7FEFF 		bl	__aeabi_f2d
 6822              	.LVL780:
 6823 0084 0446     		mov	r4, r0
 6824 0086 0D46     		mov	r5, r1
 6825 0088 834B     		ldr	r3, .L533+32
 6826 008a 1888     		ldrh	r0, [r3]
 6827 008c FFF7FEFF 		bl	__aeabi_i2d
 6828              	.LVL781:
 6829 0090 0022     		movs	r2, #0
 6830 0092 854B     		ldr	r3, .L533+48
 6831 0094 FFF7FEFF 		bl	__aeabi_dsub
 6832              	.LVL782:
 6833 0098 0246     		mov	r2, r0
 6834 009a 0B46     		mov	r3, r1
 6835 009c 2046     		mov	r0, r4
 6836 009e 2946     		mov	r1, r5
 6837 00a0 FFF7FEFF 		bl	__aeabi_dcmplt
 6838              	.LVL783:
ARM GAS  C:\Users\USUARIO\AppData\Local\Temp\ccWuTYF0.s 			page 142


 6839 00a4 18B1     		cbz	r0, .L530
1176:funciones.c   ****                 CR7_Write(0);//Humidificador_on;
 6840              		.loc 1 1176 0
 6841 00a6 0020     		movs	r0, #0
 6842 00a8 FFF7FEFF 		bl	CR7_Write
 6843              	.LVL784:
 6844 00ac 1EE0     		b	.L478
 6845              	.L530:
1177:funciones.c   ****             }else{
1178:funciones.c   ****                 if(thumidificador<=T1){
 6846              		.loc 1 1178 0
 6847 00ae 7F4B     		ldr	r3, .L533+52
 6848 00b0 1A78     		ldrb	r2, [r3]	@ zero_extendqisi2
 6849 00b2 7F4B     		ldr	r3, .L533+56
 6850 00b4 1B88     		ldrh	r3, [r3]
 6851 00b6 9A42     		cmp	r2, r3
 6852 00b8 03D3     		bcc	.L479
1179:funciones.c   ****                     CR7_Write(0);//Humidificador_on;
 6853              		.loc 1 1179 0
 6854 00ba 0020     		movs	r0, #0
 6855 00bc FFF7FEFF 		bl	CR7_Write
 6856              	.LVL785:
 6857 00c0 14E0     		b	.L478
 6858              	.L479:
1180:funciones.c   ****                 }else if(thumidificador>T1&& thumidificador<T2Humedad){
 6859              		.loc 1 1180 0
 6860 00c2 9A42     		cmp	r2, r3
 6861 00c4 07D2     		bcs	.L480
 6862              		.loc 1 1180 0 is_stmt 0 discriminator 1
 6863 00c6 7B4A     		ldr	r2, .L533+60
 6864 00c8 1278     		ldrb	r2, [r2]	@ zero_extendqisi2
 6865 00ca 9342     		cmp	r3, r2
 6866 00cc 03D2     		bcs	.L480
1181:funciones.c   ****                     CR7_Write(1);//Humidificador_off;    
 6867              		.loc 1 1181 0 is_stmt 1
 6868 00ce 0120     		movs	r0, #1
 6869 00d0 FFF7FEFF 		bl	CR7_Write
 6870              	.LVL786:
 6871 00d4 0AE0     		b	.L478
 6872              	.L480:
1182:funciones.c   ****                 }else if(thumidificador>T2Humedad){
 6873              		.loc 1 1182 0
 6874 00d6 774A     		ldr	r2, .L533+60
 6875 00d8 1278     		ldrb	r2, [r2]	@ zero_extendqisi2
 6876 00da 9342     		cmp	r3, r2
 6877 00dc 06D9     		bls	.L478
1183:funciones.c   ****                     thumidificador=0;   
 6878              		.loc 1 1183 0
 6879 00de 0022     		movs	r2, #0
 6880 00e0 734B     		ldr	r3, .L533+56
 6881 00e2 1A80     		strh	r2, [r3]	@ movhi
 6882 00e4 02E0     		b	.L478
 6883              	.L475:
1184:funciones.c   ****                 }
1185:funciones.c   ****             }
1186:funciones.c   ****          }else{
1187:funciones.c   ****             CR7_Write(1);//Humidificador_off;
ARM GAS  C:\Users\USUARIO\AppData\Local\Temp\ccWuTYF0.s 			page 143


 6884              		.loc 1 1187 0
 6885 00e6 0120     		movs	r0, #1
 6886 00e8 FFF7FEFF 		bl	CR7_Write
 6887              	.LVL787:
 6888              	.L478:
1188:funciones.c   ****         }
1189:funciones.c   ****         if(Humedad<SetpointH-10.0)
 6889              		.loc 1 1189 0
 6890 00ec 694B     		ldr	r3, .L533+28
 6891 00ee 1868     		ldr	r0, [r3]	@ float
 6892 00f0 FFF7FEFF 		bl	__aeabi_f2d
 6893              	.LVL788:
 6894 00f4 0446     		mov	r4, r0
 6895 00f6 0D46     		mov	r5, r1
 6896 00f8 674B     		ldr	r3, .L533+32
 6897 00fa 1888     		ldrh	r0, [r3]
 6898 00fc FFF7FEFF 		bl	__aeabi_i2d
 6899              	.LVL789:
 6900 0100 0022     		movs	r2, #0
 6901 0102 694B     		ldr	r3, .L533+48
 6902 0104 FFF7FEFF 		bl	__aeabi_dsub
 6903              	.LVL790:
 6904 0108 0246     		mov	r2, r0
 6905 010a 0B46     		mov	r3, r1
 6906 010c 2046     		mov	r0, r4
 6907 010e 2946     		mov	r1, r5
 6908 0110 FFF7FEFF 		bl	__aeabi_dcmplt
 6909              	.LVL791:
 6910 0114 0028     		cmp	r0, #0
 6911 0116 00F0DE81 		beq	.L471
1190:funciones.c   ****             flagHumedad=OFF;
 6912              		.loc 1 1190 0
 6913 011a 0022     		movs	r2, #0
 6914 011c 5A4B     		ldr	r3, .L533+16
 6915 011e 5A82     		strh	r2, [r3, #18]	@ movhi
 6916 0120 BDE8F883 		pop	{r3, r4, r5, r6, r7, r8, r9, pc}
 6917              	.L529:
1191:funciones.c   ****       }else if(Humedad<SetpointH-0.3 && Humedad>SetpointH-4.8){
 6918              		.loc 1 1191 0
 6919 0124 54A3     		adr	r3, .L533
 6920 0126 D3E90023 		ldrd	r2, [r3]
 6921 012a 3046     		mov	r0, r6
 6922 012c 3946     		mov	r1, r7
 6923 012e FFF7FEFF 		bl	__aeabi_dsub
 6924              	.LVL792:
 6925 0132 0246     		mov	r2, r0
 6926 0134 0B46     		mov	r3, r1
 6927 0136 2046     		mov	r0, r4
 6928 0138 2946     		mov	r1, r5
 6929 013a FFF7FEFF 		bl	__aeabi_dcmplt
 6930              	.LVL793:
 6931 013e 0028     		cmp	r0, #0
 6932 0140 4CD0     		beq	.L483
 6933              		.loc 1 1191 0 is_stmt 0 discriminator 1
 6934 0142 4FA3     		adr	r3, .L533+8
 6935 0144 D3E90023 		ldrd	r2, [r3]
 6936 0148 3046     		mov	r0, r6
ARM GAS  C:\Users\USUARIO\AppData\Local\Temp\ccWuTYF0.s 			page 144


 6937 014a 3946     		mov	r1, r7
 6938 014c FFF7FEFF 		bl	__aeabi_dsub
 6939              	.LVL794:
 6940 0150 0246     		mov	r2, r0
 6941 0152 0B46     		mov	r3, r1
 6942 0154 2046     		mov	r0, r4
 6943 0156 2946     		mov	r1, r5
 6944 0158 FFF7FEFF 		bl	__aeabi_dcmpgt
 6945              	.LVL795:
 6946 015c 0028     		cmp	r0, #0
 6947 015e 3DD0     		beq	.L483
1192:funciones.c   ****          flagSobrepasoHumedad=OFF;
 6948              		.loc 1 1192 0 is_stmt 1
 6949 0160 494D     		ldr	r5, .L533+16
 6950 0162 0024     		movs	r4, #0
 6951 0164 AC83     		strh	r4, [r5, #28]	@ movhi
1193:funciones.c   ****          tSobrepaso=0;
 6952              		.loc 1 1193 0
 6953 0166 EC83     		strh	r4, [r5, #30]	@ movhi
1194:funciones.c   ****          escribeDisplay1("statusH.txt=\"Controlando\"");
 6954              		.loc 1 1194 0
 6955 0168 5348     		ldr	r0, .L533+64
 6956 016a FFF7FEFF 		bl	escribeDisplay1
 6957              	.LVL796:
1195:funciones.c   ****          humidificador=ON;
 6958              		.loc 1 1195 0
 6959 016e 0123     		movs	r3, #1
 6960 0170 2B84     		strh	r3, [r5, #32]	@ movhi
1196:funciones.c   ****          CR5_Write(0);//Dehumidificador_off;
 6961              		.loc 1 1196 0
 6962 0172 2046     		mov	r0, r4
 6963 0174 FFF7FEFF 		bl	CR5_Write
 6964              	.LVL797:
1197:funciones.c   ****          if(LEVEL_Read()==0){//Si detecta el nivel de agua en el humidificador
 6965              		.loc 1 1197 0
 6966 0178 FFF7FEFF 		bl	LEVEL_Read
 6967              	.LVL798:
 6968 017c E8B9     		cbnz	r0, .L486
1198:funciones.c   ****             tllenado=0;
 6969              		.loc 1 1198 0
 6970 017e 494B     		ldr	r3, .L533+44
 6971 0180 1C80     		strh	r4, [r3]	@ movhi
1199:funciones.c   ****             //CR7_Write(0);//Humidificador_on;
1200:funciones.c   ****             if(thumidificador<=T3){
 6972              		.loc 1 1200 0
 6973 0182 4E4B     		ldr	r3, .L533+68
 6974 0184 1A78     		ldrb	r2, [r3]	@ zero_extendqisi2
 6975 0186 4A4B     		ldr	r3, .L533+56
 6976 0188 1B88     		ldrh	r3, [r3]
 6977 018a 9A42     		cmp	r2, r3
 6978 018c 03D3     		bcc	.L487
1201:funciones.c   ****                 CR7_Write(0);//Humidificador_on;
 6979              		.loc 1 1201 0
 6980 018e 2046     		mov	r0, r4
 6981 0190 FFF7FEFF 		bl	CR7_Write
 6982              	.LVL799:
 6983 0194 14E0     		b	.L488
ARM GAS  C:\Users\USUARIO\AppData\Local\Temp\ccWuTYF0.s 			page 145


 6984              	.L487:
1202:funciones.c   ****             }else if(thumidificador>T3&& thumidificador<T2Humedad){
 6985              		.loc 1 1202 0
 6986 0196 9A42     		cmp	r2, r3
 6987 0198 07D2     		bcs	.L489
 6988              		.loc 1 1202 0 is_stmt 0 discriminator 1
 6989 019a 464A     		ldr	r2, .L533+60
 6990 019c 1278     		ldrb	r2, [r2]	@ zero_extendqisi2
 6991 019e 9342     		cmp	r3, r2
 6992 01a0 03D2     		bcs	.L489
1203:funciones.c   ****                 CR7_Write(1);//Humidificador_off;    
 6993              		.loc 1 1203 0 is_stmt 1
 6994 01a2 0120     		movs	r0, #1
 6995 01a4 FFF7FEFF 		bl	CR7_Write
 6996              	.LVL800:
 6997 01a8 0AE0     		b	.L488
 6998              	.L489:
1204:funciones.c   ****             }else if(thumidificador>T2Humedad){
 6999              		.loc 1 1204 0
 7000 01aa 424A     		ldr	r2, .L533+60
 7001 01ac 1278     		ldrb	r2, [r2]	@ zero_extendqisi2
 7002 01ae 9342     		cmp	r3, r2
 7003 01b0 06D9     		bls	.L488
1205:funciones.c   ****                 thumidificador=0;   
 7004              		.loc 1 1205 0
 7005 01b2 0022     		movs	r2, #0
 7006 01b4 3E4B     		ldr	r3, .L533+56
 7007 01b6 1A80     		strh	r2, [r3]	@ movhi
 7008 01b8 02E0     		b	.L488
 7009              	.L486:
1206:funciones.c   ****             }
1207:funciones.c   ****          }else{
1208:funciones.c   ****             CR7_Write(1);//Humidificador_off;
 7010              		.loc 1 1208 0
 7011 01ba 0120     		movs	r0, #1
 7012 01bc FFF7FEFF 		bl	CR7_Write
 7013              	.LVL801:
 7014              	.L488:
1209:funciones.c   ****          }
1210:funciones.c   ****          if(!Infinito)   
 7015              		.loc 1 1210 0
 7016 01c0 3F4B     		ldr	r3, .L533+72
 7017 01c2 B3F90030 		ldrsh	r3, [r3]
 7018 01c6 23B9     		cbnz	r3, .L490
1211:funciones.c   ****             flagHumedad=ON;
 7019              		.loc 1 1211 0
 7020 01c8 0122     		movs	r2, #1
 7021 01ca 2F4B     		ldr	r3, .L533+16
 7022 01cc 5A82     		strh	r2, [r3, #18]	@ movhi
 7023 01ce BDE8F883 		pop	{r3, r4, r5, r6, r7, r8, r9, pc}
 7024              	.L490:
1212:funciones.c   ****          else
1213:funciones.c   ****             flagHumedad=OFF;
 7025              		.loc 1 1213 0
 7026 01d2 0022     		movs	r2, #0
 7027 01d4 2C4B     		ldr	r3, .L533+16
 7028 01d6 5A82     		strh	r2, [r3, #18]	@ movhi
ARM GAS  C:\Users\USUARIO\AppData\Local\Temp\ccWuTYF0.s 			page 146


 7029 01d8 BDE8F883 		pop	{r3, r4, r5, r6, r7, r8, r9, pc}
 7030              	.L483:
1214:funciones.c   ****       }else if(Humedad>SetpointH && Humedad<SetpointH+3.0){
 7031              		.loc 1 1214 0
 7032 01dc 4846     		mov	r0, r9
 7033 01de FFF7FEFF 		bl	__aeabi_i2f
 7034              	.LVL802:
 7035 01e2 0146     		mov	r1, r0
 7036 01e4 4046     		mov	r0, r8
 7037 01e6 FFF7FEFF 		bl	__aeabi_fcmpgt
 7038              	.LVL803:
 7039 01ea 30B3     		cbz	r0, .L491
 7040              		.loc 1 1214 0 is_stmt 0 discriminator 1
 7041 01ec 0022     		movs	r2, #0
 7042 01ee 354B     		ldr	r3, .L533+76
 7043 01f0 3046     		mov	r0, r6
 7044 01f2 3946     		mov	r1, r7
 7045 01f4 FFF7FEFF 		bl	__aeabi_dadd
 7046              	.LVL804:
 7047 01f8 0246     		mov	r2, r0
 7048 01fa 0B46     		mov	r3, r1
 7049 01fc 2046     		mov	r0, r4
 7050 01fe 2946     		mov	r1, r5
 7051 0200 FFF7FEFF 		bl	__aeabi_dcmplt
 7052              	.LVL805:
 7053 0204 C8B1     		cbz	r0, .L491
1215:funciones.c   ****          flagSobrepasoHumedad=OFF;
 7054              		.loc 1 1215 0 is_stmt 1
 7055 0206 204D     		ldr	r5, .L533+16
 7056 0208 0024     		movs	r4, #0
 7057 020a AC83     		strh	r4, [r5, #28]	@ movhi
1216:funciones.c   ****          tSobrepaso=0;
 7058              		.loc 1 1216 0
 7059 020c EC83     		strh	r4, [r5, #30]	@ movhi
1217:funciones.c   ****          CR7_Write(1);//Humidificador_off;
 7060              		.loc 1 1217 0
 7061 020e 0120     		movs	r0, #1
 7062 0210 FFF7FEFF 		bl	CR7_Write
 7063              	.LVL806:
1218:funciones.c   ****          CR5_Write(0);//Dehumidificador_off;
 7064              		.loc 1 1218 0
 7065 0214 2046     		mov	r0, r4
 7066 0216 FFF7FEFF 		bl	CR5_Write
 7067              	.LVL807:
1219:funciones.c   ****          humidificador=OFF;
 7068              		.loc 1 1219 0
 7069 021a 2C84     		strh	r4, [r5, #32]	@ movhi
1220:funciones.c   ****          thumidificador=0;
 7070              		.loc 1 1220 0
 7071 021c 244B     		ldr	r3, .L533+56
 7072 021e 1C80     		strh	r4, [r3]	@ movhi
1221:funciones.c   ****          if(!Infinito)   
 7073              		.loc 1 1221 0
 7074 0220 274B     		ldr	r3, .L533+72
 7075 0222 B3F90030 		ldrsh	r3, [r3]
 7076 0226 1BB9     		cbnz	r3, .L494
1222:funciones.c   ****             flagHumedad=ON;
ARM GAS  C:\Users\USUARIO\AppData\Local\Temp\ccWuTYF0.s 			page 147


 7077              		.loc 1 1222 0
 7078 0228 0122     		movs	r2, #1
 7079 022a 6A82     		strh	r2, [r5, #18]	@ movhi
 7080 022c BDE8F883 		pop	{r3, r4, r5, r6, r7, r8, r9, pc}
 7081              	.L494:
1223:funciones.c   ****          else
1224:funciones.c   ****             flagHumedad=OFF;
 7082              		.loc 1 1224 0
 7083 0230 0022     		movs	r2, #0
 7084 0232 154B     		ldr	r3, .L533+16
 7085 0234 5A82     		strh	r2, [r3, #18]	@ movhi
 7086 0236 BDE8F883 		pop	{r3, r4, r5, r6, r7, r8, r9, pc}
 7087              	.L491:
1225:funciones.c   ****       }else if(Humedad>SetpointH+3.0){
 7088              		.loc 1 1225 0
 7089 023a 0022     		movs	r2, #0
 7090 023c 214B     		ldr	r3, .L533+76
 7091 023e 3046     		mov	r0, r6
 7092 0240 3946     		mov	r1, r7
 7093 0242 FFF7FEFF 		bl	__aeabi_dadd
 7094              	.LVL808:
 7095 0246 0246     		mov	r2, r0
 7096 0248 0B46     		mov	r3, r1
 7097 024a 2046     		mov	r0, r4
 7098 024c 2946     		mov	r1, r5
 7099 024e FFF7FEFF 		bl	__aeabi_dcmpgt
 7100              	.LVL809:
 7101 0252 0028     		cmp	r0, #0
 7102 0254 00F03F81 		beq	.L471
1226:funciones.c   ****          flagSobrepasoHumedad=ON;
 7103              		.loc 1 1226 0
 7104 0258 0B4B     		ldr	r3, .L533+16
 7105 025a 0122     		movs	r2, #1
 7106 025c 9A83     		strh	r2, [r3, #28]	@ movhi
1227:funciones.c   ****          if(tSobrepaso>300)
 7107              		.loc 1 1227 0
 7108 025e DB8B     		ldrh	r3, [r3, #30]
 7109 0260 B3F5967F 		cmp	r3, #300
 7110 0264 40F23781 		bls	.L471
1228:funciones.c   ****             Humidificar=OFF; 
 7111              		.loc 1 1228 0
 7112 0268 0022     		movs	r2, #0
 7113 026a 074B     		ldr	r3, .L533+16
 7114 026c 5A83     		strh	r2, [r3, #26]	@ movhi
 7115 026e BDE8F883 		pop	{r3, r4, r5, r6, r7, r8, r9, pc}
 7116              	.L534:
 7117 0272 00BFAFF3 		.align	3
 7117      0080
 7118              	.L533:
 7119 0278 33333333 		.word	858993459
 7120 027c 3333D33F 		.word	1070805811
 7121 0280 33333333 		.word	858993459
 7122 0284 33331340 		.word	1075000115
 7123 0288 00000000 		.word	.LANCHOR0
 7124 028c 00000000 		.word	dehumidificador
 7125 0290 00000000 		.word	tdehumidificador
 7126 0294 00000000 		.word	Humedad
ARM GAS  C:\Users\USUARIO\AppData\Local\Temp\ccWuTYF0.s 			page 148


 7127 0298 00000000 		.word	SetpointH
 7128 029c 00001440 		.word	1075052544
 7129 02a0 98000000 		.word	.LC6
 7130 02a4 00000000 		.word	tllenado
 7131 02a8 00002440 		.word	1076101120
 7132 02ac 00000000 		.word	T1
 7133 02b0 00000000 		.word	thumidificador
 7134 02b4 00000000 		.word	T2Humedad
 7135 02b8 B4000000 		.word	.LC7
 7136 02bc 00000000 		.word	T3
 7137 02c0 00000000 		.word	Infinito
 7138 02c4 00000840 		.word	1074266112
 7139              	.L472:
1229:funciones.c   ****       }
1230:funciones.c   ****    }else{
1231:funciones.c   ****         CR4_Write(0);
 7140              		.loc 1 1231 0
 7141 02c8 0020     		movs	r0, #0
 7142 02ca FFF7FEFF 		bl	CR4_Write
 7143              	.LVL810:
1232:funciones.c   ****         humidificador=OFF;
 7144              		.loc 1 1232 0
 7145 02ce 0023     		movs	r3, #0
 7146 02d0 874A     		ldr	r2, .L535+16
 7147 02d2 1384     		strh	r3, [r2, #32]	@ movhi
1233:funciones.c   ****         thumidificador=0;
 7148              		.loc 1 1233 0
 7149 02d4 874A     		ldr	r2, .L535+20
 7150 02d6 1380     		strh	r3, [r2]	@ movhi
1234:funciones.c   ****       if(Humedad>SetpointH+2.0){
 7151              		.loc 1 1234 0
 7152 02d8 874B     		ldr	r3, .L535+24
 7153 02da D3F80080 		ldr	r8, [r3]	@ float
 7154 02de 4046     		mov	r0, r8
 7155 02e0 FFF7FEFF 		bl	__aeabi_f2d
 7156              	.LVL811:
 7157 02e4 0446     		mov	r4, r0
 7158 02e6 0D46     		mov	r5, r1
 7159 02e8 844B     		ldr	r3, .L535+28
 7160 02ea B3F80090 		ldrh	r9, [r3]
 7161 02ee 4846     		mov	r0, r9
 7162 02f0 FFF7FEFF 		bl	__aeabi_i2d
 7163              	.LVL812:
 7164 02f4 0646     		mov	r6, r0
 7165 02f6 0F46     		mov	r7, r1
 7166 02f8 0022     		movs	r2, #0
 7167 02fa 4FF08043 		mov	r3, #1073741824
 7168 02fe FFF7FEFF 		bl	__aeabi_dadd
 7169              	.LVL813:
 7170 0302 0246     		mov	r2, r0
 7171 0304 0B46     		mov	r3, r1
 7172 0306 2046     		mov	r0, r4
 7173 0308 2946     		mov	r1, r5
 7174 030a FFF7FEFF 		bl	__aeabi_dcmpgt
 7175              	.LVL814:
 7176 030e 0028     		cmp	r0, #0
 7177 0310 4AD0     		beq	.L531
ARM GAS  C:\Users\USUARIO\AppData\Local\Temp\ccWuTYF0.s 			page 149


1235:funciones.c   ****          escribeDisplay1("statusH.txt=\"Deshumidificando\"");
 7178              		.loc 1 1235 0
 7179 0312 7B48     		ldr	r0, .L535+32
 7180 0314 FFF7FEFF 		bl	escribeDisplay1
 7181              	.LVL815:
1236:funciones.c   ****          dehumidificador=ON;
 7182              		.loc 1 1236 0
 7183 0318 0122     		movs	r2, #1
 7184 031a 7A4B     		ldr	r3, .L535+36
 7185 031c 1A80     		strh	r2, [r3]	@ movhi
1237:funciones.c   ****          if(tdehumidificador<(tCongela*60)){
 7186              		.loc 1 1237 0
 7187 031e 7A4B     		ldr	r3, .L535+40
 7188 0320 1988     		ldrh	r1, [r3]
 7189 0322 734B     		ldr	r3, .L535+16
 7190 0324 5B88     		ldrh	r3, [r3, #2]
 7191 0326 C3EB0310 		rsb	r0, r3, r3, lsl #4
 7192 032a 8200     		lsls	r2, r0, #2
 7193 032c 9142     		cmp	r1, r2
 7194 032e 03DA     		bge	.L498
1238:funciones.c   ****             CR5_Write(1);//Dehumidificador_on;
 7195              		.loc 1 1238 0
 7196 0330 0120     		movs	r0, #1
 7197 0332 FFF7FEFF 		bl	CR5_Write
 7198              	.LVL816:
 7199 0336 18E0     		b	.L499
 7200              	.L498:
1239:funciones.c   ****          }else if(tdehumidificador>=(tCongela*60) && tdehumidificador<((tDefrost*60)+(tCongela*60))
 7201              		.loc 1 1239 0
 7202 0338 9142     		cmp	r1, r2
 7203 033a 0BDB     		blt	.L500
 7204              		.loc 1 1239 0 is_stmt 0 discriminator 1
 7205 033c 6C4A     		ldr	r2, .L535+16
 7206 033e 1288     		ldrh	r2, [r2]
 7207 0340 1A44     		add	r2, r2, r3
 7208 0342 C2EB0212 		rsb	r2, r2, r2, lsl #4
 7209 0346 9000     		lsls	r0, r2, #2
 7210 0348 8142     		cmp	r1, r0
 7211 034a 03DA     		bge	.L500
1240:funciones.c   ****             CR5_Write(0);//Dehumidificador_off;
 7212              		.loc 1 1240 0 is_stmt 1
 7213 034c 0020     		movs	r0, #0
 7214 034e FFF7FEFF 		bl	CR5_Write
 7215              	.LVL817:
 7216 0352 0AE0     		b	.L499
 7217              	.L500:
1241:funciones.c   ****          }else if(tdehumidificador>=((tDefrost*60)+(tCongela*60))){
 7218              		.loc 1 1241 0
 7219 0354 664A     		ldr	r2, .L535+16
 7220 0356 1288     		ldrh	r2, [r2]
 7221 0358 1344     		add	r3, r3, r2
 7222 035a C3EB0313 		rsb	r3, r3, r3, lsl #4
 7223 035e 9A00     		lsls	r2, r3, #2
 7224 0360 9142     		cmp	r1, r2
 7225 0362 02DB     		blt	.L499
1242:funciones.c   ****             tdehumidificador=0;
 7226              		.loc 1 1242 0
ARM GAS  C:\Users\USUARIO\AppData\Local\Temp\ccWuTYF0.s 			page 150


 7227 0364 0022     		movs	r2, #0
 7228 0366 684B     		ldr	r3, .L535+40
 7229 0368 1A80     		strh	r2, [r3]	@ movhi
 7230              	.L499:
1243:funciones.c   ****          }
1244:funciones.c   ****          CR7_Write(1);//Humidificador_off;
 7231              		.loc 1 1244 0
 7232 036a 0120     		movs	r0, #1
 7233 036c FFF7FEFF 		bl	CR7_Write
 7234              	.LVL818:
1245:funciones.c   ****          if(Humedad>SetpointH+10.0)
 7235              		.loc 1 1245 0
 7236 0370 614B     		ldr	r3, .L535+24
 7237 0372 1868     		ldr	r0, [r3]	@ float
 7238 0374 FFF7FEFF 		bl	__aeabi_f2d
 7239              	.LVL819:
 7240 0378 0446     		mov	r4, r0
 7241 037a 0D46     		mov	r5, r1
 7242 037c 5F4B     		ldr	r3, .L535+28
 7243 037e 1888     		ldrh	r0, [r3]
 7244 0380 FFF7FEFF 		bl	__aeabi_i2d
 7245              	.LVL820:
 7246 0384 0022     		movs	r2, #0
 7247 0386 614B     		ldr	r3, .L535+44
 7248 0388 FFF7FEFF 		bl	__aeabi_dadd
 7249              	.LVL821:
 7250 038c 0246     		mov	r2, r0
 7251 038e 0B46     		mov	r3, r1
 7252 0390 2046     		mov	r0, r4
 7253 0392 2946     		mov	r1, r5
 7254 0394 FFF7FEFF 		bl	__aeabi_dcmpgt
 7255              	.LVL822:
 7256 0398 0028     		cmp	r0, #0
 7257 039a 00F09C80 		beq	.L471
1246:funciones.c   ****             flagHumedad=OFF;
 7258              		.loc 1 1246 0
 7259 039e 0022     		movs	r2, #0
 7260 03a0 534B     		ldr	r3, .L535+16
 7261 03a2 5A82     		strh	r2, [r3, #18]	@ movhi
 7262 03a4 BDE8F883 		pop	{r3, r4, r5, r6, r7, r8, r9, pc}
 7263              	.L531:
1247:funciones.c   ****       }else if(Humedad>SetpointH && Humedad<SetpointH+2.8){
 7264              		.loc 1 1247 0
 7265 03a8 4846     		mov	r0, r9
 7266 03aa FFF7FEFF 		bl	__aeabi_i2f
 7267              	.LVL823:
 7268 03ae 0146     		mov	r1, r0
 7269 03b0 4046     		mov	r0, r8
 7270 03b2 FFF7FEFF 		bl	__aeabi_fcmpgt
 7271              	.LVL824:
 7272 03b6 0028     		cmp	r0, #0
 7273 03b8 48D0     		beq	.L502
 7274              		.loc 1 1247 0 is_stmt 0 discriminator 1
 7275 03ba 49A3     		adr	r3, .L535
 7276 03bc D3E90023 		ldrd	r2, [r3]
 7277 03c0 3046     		mov	r0, r6
 7278 03c2 3946     		mov	r1, r7
ARM GAS  C:\Users\USUARIO\AppData\Local\Temp\ccWuTYF0.s 			page 151


 7279 03c4 FFF7FEFF 		bl	__aeabi_dadd
 7280              	.LVL825:
 7281 03c8 0246     		mov	r2, r0
 7282 03ca 0B46     		mov	r3, r1
 7283 03cc 2046     		mov	r0, r4
 7284 03ce 2946     		mov	r1, r5
 7285 03d0 FFF7FEFF 		bl	__aeabi_dcmplt
 7286              	.LVL826:
 7287 03d4 0028     		cmp	r0, #0
 7288 03d6 39D0     		beq	.L502
1248:funciones.c   ****          escribeDisplay1("statusH.txt=\"Controlando\"");
 7289              		.loc 1 1248 0 is_stmt 1
 7290 03d8 4D48     		ldr	r0, .L535+48
 7291 03da FFF7FEFF 		bl	escribeDisplay1
 7292              	.LVL827:
1249:funciones.c   ****          if(tdehumidificador<(tCongela*60)){
 7293              		.loc 1 1249 0
 7294 03de 4A4B     		ldr	r3, .L535+40
 7295 03e0 1988     		ldrh	r1, [r3]
 7296 03e2 434B     		ldr	r3, .L535+16
 7297 03e4 5B88     		ldrh	r3, [r3, #2]
 7298 03e6 C3EB0310 		rsb	r0, r3, r3, lsl #4
 7299 03ea 8200     		lsls	r2, r0, #2
 7300 03ec 9142     		cmp	r1, r2
 7301 03ee 03DA     		bge	.L505
1250:funciones.c   ****             CR5_Write(1);//Dehumidificador_on;
 7302              		.loc 1 1250 0
 7303 03f0 0120     		movs	r0, #1
 7304 03f2 FFF7FEFF 		bl	CR5_Write
 7305              	.LVL828:
 7306 03f6 18E0     		b	.L506
 7307              	.L505:
1251:funciones.c   ****          }else if(tdehumidificador>=(tCongela*60) && tdehumidificador<((tCongela*60)+(tDefrost*60))
 7308              		.loc 1 1251 0
 7309 03f8 9142     		cmp	r1, r2
 7310 03fa 0BDB     		blt	.L507
 7311              		.loc 1 1251 0 is_stmt 0 discriminator 1
 7312 03fc 3C4A     		ldr	r2, .L535+16
 7313 03fe 1288     		ldrh	r2, [r2]
 7314 0400 1A44     		add	r2, r2, r3
 7315 0402 C2EB0212 		rsb	r2, r2, r2, lsl #4
 7316 0406 9000     		lsls	r0, r2, #2
 7317 0408 8142     		cmp	r1, r0
 7318 040a 03DA     		bge	.L507
1252:funciones.c   ****             CR5_Write(0);//Dehumidificador_off;
 7319              		.loc 1 1252 0 is_stmt 1
 7320 040c 0020     		movs	r0, #0
 7321 040e FFF7FEFF 		bl	CR5_Write
 7322              	.LVL829:
 7323 0412 0AE0     		b	.L506
 7324              	.L507:
1253:funciones.c   ****          }else if(tdehumidificador>=((tCongela*60)+(tDefrost*60))){
 7325              		.loc 1 1253 0
 7326 0414 364A     		ldr	r2, .L535+16
 7327 0416 1288     		ldrh	r2, [r2]
 7328 0418 1344     		add	r3, r3, r2
 7329 041a C3EB0313 		rsb	r3, r3, r3, lsl #4
ARM GAS  C:\Users\USUARIO\AppData\Local\Temp\ccWuTYF0.s 			page 152


 7330 041e 9A00     		lsls	r2, r3, #2
 7331 0420 9142     		cmp	r1, r2
 7332 0422 02DB     		blt	.L506
1254:funciones.c   ****             tdehumidificador=0;
 7333              		.loc 1 1254 0
 7334 0424 0022     		movs	r2, #0
 7335 0426 384B     		ldr	r3, .L535+40
 7336 0428 1A80     		strh	r2, [r3]	@ movhi
 7337              	.L506:
1255:funciones.c   ****          }
1256:funciones.c   ****          CR7_Write(1);//Humidificador_off;
 7338              		.loc 1 1256 0
 7339 042a 0120     		movs	r0, #1
 7340 042c FFF7FEFF 		bl	CR7_Write
 7341              	.LVL830:
1257:funciones.c   ****          if(!Infinito)   
 7342              		.loc 1 1257 0
 7343 0430 384B     		ldr	r3, .L535+52
 7344 0432 B3F90030 		ldrsh	r3, [r3]
 7345 0436 23B9     		cbnz	r3, .L508
1258:funciones.c   ****             flagHumedad=ON;
 7346              		.loc 1 1258 0
 7347 0438 0122     		movs	r2, #1
 7348 043a 2D4B     		ldr	r3, .L535+16
 7349 043c 5A82     		strh	r2, [r3, #18]	@ movhi
 7350 043e BDE8F883 		pop	{r3, r4, r5, r6, r7, r8, r9, pc}
 7351              	.L508:
1259:funciones.c   ****          else
1260:funciones.c   ****             flagHumedad=OFF;
 7352              		.loc 1 1260 0
 7353 0442 0022     		movs	r2, #0
 7354 0444 2A4B     		ldr	r3, .L535+16
 7355 0446 5A82     		strh	r2, [r3, #18]	@ movhi
 7356 0448 BDE8F883 		pop	{r3, r4, r5, r6, r7, r8, r9, pc}
 7357              	.L502:
1261:funciones.c   ****       }else if(Humedad<SetpointH-0.1 && Humedad>SetpointH-2.0){
 7358              		.loc 1 1261 0
 7359 044c 26A3     		adr	r3, .L535+8
 7360 044e D3E90023 		ldrd	r2, [r3]
 7361 0452 3046     		mov	r0, r6
 7362 0454 3946     		mov	r1, r7
 7363 0456 FFF7FEFF 		bl	__aeabi_dsub
 7364              	.LVL831:
 7365 045a 0246     		mov	r2, r0
 7366 045c 0B46     		mov	r3, r1
 7367 045e 2046     		mov	r0, r4
 7368 0460 2946     		mov	r1, r5
 7369 0462 FFF7FEFF 		bl	__aeabi_dcmplt
 7370              	.LVL832:
 7371 0466 30B3     		cbz	r0, .L509
 7372              		.loc 1 1261 0 is_stmt 0 discriminator 1
 7373 0468 0022     		movs	r2, #0
 7374 046a 4FF08043 		mov	r3, #1073741824
 7375 046e 3046     		mov	r0, r6
 7376 0470 3946     		mov	r1, r7
 7377 0472 FFF7FEFF 		bl	__aeabi_dsub
 7378              	.LVL833:
ARM GAS  C:\Users\USUARIO\AppData\Local\Temp\ccWuTYF0.s 			page 153


 7379 0476 0246     		mov	r2, r0
 7380 0478 0B46     		mov	r3, r1
 7381 047a 2046     		mov	r0, r4
 7382 047c 2946     		mov	r1, r5
 7383 047e FFF7FEFF 		bl	__aeabi_dcmpgt
 7384              	.LVL834:
 7385 0482 C0B1     		cbz	r0, .L509
1262:funciones.c   ****          dehumidificador=OFF;
 7386              		.loc 1 1262 0 is_stmt 1
 7387 0484 0024     		movs	r4, #0
 7388 0486 1F4B     		ldr	r3, .L535+36
 7389 0488 1C80     		strh	r4, [r3]	@ movhi
1263:funciones.c   ****          tdehumidificador=0;
 7390              		.loc 1 1263 0
 7391 048a 1F4B     		ldr	r3, .L535+40
 7392 048c 1C80     		strh	r4, [r3]	@ movhi
1264:funciones.c   ****          CR7_Write(1);//Humidificador_off;
 7393              		.loc 1 1264 0
 7394 048e 0120     		movs	r0, #1
 7395 0490 FFF7FEFF 		bl	CR7_Write
 7396              	.LVL835:
1265:funciones.c   ****          CR5_Write(0);//Dehumidificador_off;
 7397              		.loc 1 1265 0
 7398 0494 2046     		mov	r0, r4
 7399 0496 FFF7FEFF 		bl	CR5_Write
 7400              	.LVL836:
1266:funciones.c   ****          if(!Infinito)   
 7401              		.loc 1 1266 0
 7402 049a 1E4B     		ldr	r3, .L535+52
 7403 049c B3F90030 		ldrsh	r3, [r3]
 7404 04a0 23B9     		cbnz	r3, .L512
1267:funciones.c   ****             flagHumedad=ON;
 7405              		.loc 1 1267 0
 7406 04a2 0122     		movs	r2, #1
 7407 04a4 124B     		ldr	r3, .L535+16
 7408 04a6 5A82     		strh	r2, [r3, #18]	@ movhi
 7409 04a8 BDE8F883 		pop	{r3, r4, r5, r6, r7, r8, r9, pc}
 7410              	.L512:
1268:funciones.c   ****          else
1269:funciones.c   ****             flagHumedad=OFF;
 7411              		.loc 1 1269 0
 7412 04ac 0022     		movs	r2, #0
 7413 04ae 104B     		ldr	r3, .L535+16
 7414 04b0 5A82     		strh	r2, [r3, #18]	@ movhi
 7415 04b2 BDE8F883 		pop	{r3, r4, r5, r6, r7, r8, r9, pc}
 7416              	.L509:
1270:funciones.c   ****       }else if(Humedad<SetpointH-3.0){
 7417              		.loc 1 1270 0
 7418 04b6 0022     		movs	r2, #0
 7419 04b8 174B     		ldr	r3, .L535+56
 7420 04ba 3046     		mov	r0, r6
 7421 04bc 3946     		mov	r1, r7
 7422 04be FFF7FEFF 		bl	__aeabi_dsub
 7423              	.LVL837:
 7424 04c2 0246     		mov	r2, r0
 7425 04c4 0B46     		mov	r3, r1
 7426 04c6 2046     		mov	r0, r4
ARM GAS  C:\Users\USUARIO\AppData\Local\Temp\ccWuTYF0.s 			page 154


 7427 04c8 2946     		mov	r1, r5
 7428 04ca FFF7FEFF 		bl	__aeabi_dcmplt
 7429              	.LVL838:
 7430 04ce 10B1     		cbz	r0, .L471
1271:funciones.c   ****          Humidificar=ON; 
 7431              		.loc 1 1271 0
 7432 04d0 0122     		movs	r2, #1
 7433 04d2 074B     		ldr	r3, .L535+16
 7434 04d4 5A83     		strh	r2, [r3, #26]	@ movhi
 7435              	.L471:
 7436 04d6 BDE8F883 		pop	{r3, r4, r5, r6, r7, r8, r9, pc}
 7437              	.L536:
 7438 04da 00BFAFF3 		.align	3
 7438      0080
 7439              	.L535:
 7440 04e0 66666666 		.word	1717986918
 7441 04e4 66660640 		.word	1074161254
 7442 04e8 9A999999 		.word	-1717986918
 7443 04ec 9999B93F 		.word	1069128089
 7444 04f0 00000000 		.word	.LANCHOR0
 7445 04f4 00000000 		.word	thumidificador
 7446 04f8 00000000 		.word	Humedad
 7447 04fc 00000000 		.word	SetpointH
 7448 0500 D0000000 		.word	.LC8
 7449 0504 00000000 		.word	dehumidificador
 7450 0508 00000000 		.word	tdehumidificador
 7451 050c 00002440 		.word	1076101120
 7452 0510 B4000000 		.word	.LC7
 7453 0514 00000000 		.word	Infinito
 7454 0518 00000840 		.word	1074266112
 7455              		.cfi_endproc
 7456              	.LFE87:
 7457              		.size	controlaHumedad, .-controlaHumedad
 7458              		.section	.text.controlaHumedad2,"ax",%progbits
 7459              		.align	2
 7460              		.global	controlaHumedad2
 7461              		.thumb
 7462              		.thumb_func
 7463              		.type	controlaHumedad2, %function
 7464              	controlaHumedad2:
 7465              	.LFB88:
1272:funciones.c   ****       }
1273:funciones.c   ****    }
1274:funciones.c   **** }
1275:funciones.c   **** 
1276:funciones.c   **** void controlaHumedad2(){
 7466              		.loc 1 1276 0
 7467              		.cfi_startproc
 7468              		@ args = 0, pretend = 0, frame = 0
 7469              		@ frame_needed = 0, uses_anonymous_args = 0
 7470 0000 2DE9F84F 		push	{r3, r4, r5, r6, r7, r8, r9, r10, fp, lr}
 7471              		.cfi_def_cfa_offset 40
 7472              		.cfi_offset 3, -40
 7473              		.cfi_offset 4, -36
 7474              		.cfi_offset 5, -32
 7475              		.cfi_offset 6, -28
 7476              		.cfi_offset 7, -24
ARM GAS  C:\Users\USUARIO\AppData\Local\Temp\ccWuTYF0.s 			page 155


 7477              		.cfi_offset 8, -20
 7478              		.cfi_offset 9, -16
 7479              		.cfi_offset 10, -12
 7480              		.cfi_offset 11, -8
 7481              		.cfi_offset 14, -4
1277:funciones.c   ****    if(Humidificar){
 7482              		.loc 1 1277 0
 7483 0004 9D4B     		ldr	r3, .L599
 7484 0006 B3F91A30 		ldrsh	r3, [r3, #26]
 7485 000a 002B     		cmp	r3, #0
 7486 000c 00F05681 		beq	.L538
1278:funciones.c   ****       CR4_Write(1);
 7487              		.loc 1 1278 0
 7488 0010 0120     		movs	r0, #1
 7489 0012 FFF7FEFF 		bl	CR4_Write
 7490              	.LVL839:
1279:funciones.c   ****       dehumidificador=OFF;
 7491              		.loc 1 1279 0
 7492 0016 0023     		movs	r3, #0
 7493 0018 994A     		ldr	r2, .L599+4
 7494 001a 1380     		strh	r3, [r2]	@ movhi
1280:funciones.c   ****       tdehumidificador=0;
 7495              		.loc 1 1280 0
 7496 001c 994A     		ldr	r2, .L599+8
 7497 001e 1380     		strh	r3, [r2]	@ movhi
1281:funciones.c   ****       if(Humedad<SetpointH-5.0){
 7498              		.loc 1 1281 0
 7499 0020 994B     		ldr	r3, .L599+12
 7500 0022 1868     		ldr	r0, [r3]	@ float
 7501 0024 FFF7FEFF 		bl	__aeabi_f2d
 7502              	.LVL840:
 7503 0028 0446     		mov	r4, r0
 7504 002a 0D46     		mov	r5, r1
 7505 002c 974B     		ldr	r3, .L599+16
 7506 002e 1888     		ldrh	r0, [r3]
 7507 0030 FFF7FEFF 		bl	__aeabi_i2d
 7508              	.LVL841:
 7509 0034 0646     		mov	r6, r0
 7510 0036 0F46     		mov	r7, r1
 7511 0038 0022     		movs	r2, #0
 7512 003a 954B     		ldr	r3, .L599+20
 7513 003c FFF7FEFF 		bl	__aeabi_dsub
 7514              	.LVL842:
 7515 0040 8046     		mov	r8, r0
 7516 0042 8946     		mov	r9, r1
 7517 0044 0246     		mov	r2, r0
 7518 0046 0B46     		mov	r3, r1
 7519 0048 2046     		mov	r0, r4
 7520 004a 2946     		mov	r1, r5
 7521 004c FFF7FEFF 		bl	__aeabi_dcmplt
 7522              	.LVL843:
 7523 0050 0028     		cmp	r0, #0
 7524 0052 6AD0     		beq	.L595
1282:funciones.c   ****          flagSobrepasoHumedad=OFF;
 7525              		.loc 1 1282 0
 7526 0054 894D     		ldr	r5, .L599
 7527 0056 0024     		movs	r4, #0
ARM GAS  C:\Users\USUARIO\AppData\Local\Temp\ccWuTYF0.s 			page 156


 7528 0058 AC83     		strh	r4, [r5, #28]	@ movhi
1283:funciones.c   ****          tSobrepaso=0;
 7529              		.loc 1 1283 0
 7530 005a EC83     		strh	r4, [r5, #30]	@ movhi
1284:funciones.c   ****          escribeDisplay1("statusH.txt=\"Humidificando\"");
 7531              		.loc 1 1284 0
 7532 005c 8D48     		ldr	r0, .L599+24
 7533 005e FFF7FEFF 		bl	escribeDisplay1
 7534              	.LVL844:
1285:funciones.c   ****          humidificador=ON;
 7535              		.loc 1 1285 0
 7536 0062 0123     		movs	r3, #1
 7537 0064 2B84     		strh	r3, [r5, #32]	@ movhi
1286:funciones.c   ****          CR5_Write(0);//Dehumidificador_off;
 7538              		.loc 1 1286 0
 7539 0066 2046     		mov	r0, r4
 7540 0068 FFF7FEFF 		bl	CR5_Write
 7541              	.LVL845:
1287:funciones.c   ****          if(LEVEL_Read()==0){//Si detecta el nivel de agua en el humidificador
 7542              		.loc 1 1287 0
 7543 006c FFF7FEFF 		bl	LEVEL_Read
 7544              	.LVL846:
 7545 0070 0028     		cmp	r0, #0
 7546 0072 3BD1     		bne	.L541
1288:funciones.c   ****             tllenado=0;
 7547              		.loc 1 1288 0
 7548 0074 884B     		ldr	r3, .L599+28
 7549 0076 1C80     		strh	r4, [r3]	@ movhi
1289:funciones.c   ****             if(Humedad<SetpointH-10.0){
 7550              		.loc 1 1289 0
 7551 0078 834B     		ldr	r3, .L599+12
 7552 007a 1868     		ldr	r0, [r3]	@ float
 7553 007c FFF7FEFF 		bl	__aeabi_f2d
 7554              	.LVL847:
 7555 0080 0446     		mov	r4, r0
 7556 0082 0D46     		mov	r5, r1
 7557 0084 814B     		ldr	r3, .L599+16
 7558 0086 1888     		ldrh	r0, [r3]
 7559 0088 FFF7FEFF 		bl	__aeabi_i2d
 7560              	.LVL848:
 7561 008c 0022     		movs	r2, #0
 7562 008e 834B     		ldr	r3, .L599+32
 7563 0090 FFF7FEFF 		bl	__aeabi_dsub
 7564              	.LVL849:
 7565 0094 0246     		mov	r2, r0
 7566 0096 0B46     		mov	r3, r1
 7567 0098 2046     		mov	r0, r4
 7568 009a 2946     		mov	r1, r5
 7569 009c FFF7FEFF 		bl	__aeabi_dcmplt
 7570              	.LVL850:
 7571 00a0 40B1     		cbz	r0, .L596
1290:funciones.c   ****                 CR7_Write(0);//Humidificador_on;
 7572              		.loc 1 1290 0
 7573 00a2 0020     		movs	r0, #0
 7574 00a4 FFF7FEFF 		bl	CR7_Write
 7575              	.LVL851:
1291:funciones.c   ****                 thumidificador=T2Humedad+1;
ARM GAS  C:\Users\USUARIO\AppData\Local\Temp\ccWuTYF0.s 			page 157


 7576              		.loc 1 1291 0
 7577 00a8 7D4B     		ldr	r3, .L599+36
 7578 00aa 1B78     		ldrb	r3, [r3]	@ zero_extendqisi2
 7579 00ac 0133     		adds	r3, r3, #1
 7580 00ae 7D4A     		ldr	r2, .L599+40
 7581 00b0 1380     		strh	r3, [r2]	@ movhi
 7582 00b2 1EE0     		b	.L544
 7583              	.L596:
1292:funciones.c   ****             }else{
1293:funciones.c   ****                 if(thumidificador<=T1){
 7584              		.loc 1 1293 0
 7585 00b4 7C4B     		ldr	r3, .L599+44
 7586 00b6 1A78     		ldrb	r2, [r3]	@ zero_extendqisi2
 7587 00b8 7A4B     		ldr	r3, .L599+40
 7588 00ba 1B88     		ldrh	r3, [r3]
 7589 00bc 9A42     		cmp	r2, r3
 7590 00be 03D3     		bcc	.L545
1294:funciones.c   ****                     CR7_Write(0);//Humidificador_on;
 7591              		.loc 1 1294 0
 7592 00c0 0020     		movs	r0, #0
 7593 00c2 FFF7FEFF 		bl	CR7_Write
 7594              	.LVL852:
 7595 00c6 14E0     		b	.L544
 7596              	.L545:
1295:funciones.c   ****                 }else if(thumidificador>T1&& thumidificador<T2Humedad){
 7597              		.loc 1 1295 0
 7598 00c8 9A42     		cmp	r2, r3
 7599 00ca 07D2     		bcs	.L546
 7600              		.loc 1 1295 0 is_stmt 0 discriminator 1
 7601 00cc 744A     		ldr	r2, .L599+36
 7602 00ce 1278     		ldrb	r2, [r2]	@ zero_extendqisi2
 7603 00d0 9342     		cmp	r3, r2
 7604 00d2 03D2     		bcs	.L546
1296:funciones.c   ****                     CR7_Write(1);//Humidificador_off;    
 7605              		.loc 1 1296 0 is_stmt 1
 7606 00d4 0120     		movs	r0, #1
 7607 00d6 FFF7FEFF 		bl	CR7_Write
 7608              	.LVL853:
 7609 00da 0AE0     		b	.L544
 7610              	.L546:
1297:funciones.c   ****                 }else if(thumidificador>T2Humedad){
 7611              		.loc 1 1297 0
 7612 00dc 704A     		ldr	r2, .L599+36
 7613 00de 1278     		ldrb	r2, [r2]	@ zero_extendqisi2
 7614 00e0 9342     		cmp	r3, r2
 7615 00e2 06D9     		bls	.L544
1298:funciones.c   ****                     thumidificador=0;   
 7616              		.loc 1 1298 0
 7617 00e4 0022     		movs	r2, #0
 7618 00e6 6F4B     		ldr	r3, .L599+40
 7619 00e8 1A80     		strh	r2, [r3]	@ movhi
 7620 00ea 02E0     		b	.L544
 7621              	.L541:
1299:funciones.c   ****                 }
1300:funciones.c   ****             }
1301:funciones.c   ****          }else{
1302:funciones.c   ****             CR7_Write(1);//Humidificador_off;
ARM GAS  C:\Users\USUARIO\AppData\Local\Temp\ccWuTYF0.s 			page 158


 7622              		.loc 1 1302 0
 7623 00ec 0120     		movs	r0, #1
 7624 00ee FFF7FEFF 		bl	CR7_Write
 7625              	.LVL854:
 7626              	.L544:
1303:funciones.c   ****         }
1304:funciones.c   ****         if(Humedad<SetpointH-10.0)
 7627              		.loc 1 1304 0
 7628 00f2 654B     		ldr	r3, .L599+12
 7629 00f4 1868     		ldr	r0, [r3]	@ float
 7630 00f6 FFF7FEFF 		bl	__aeabi_f2d
 7631              	.LVL855:
 7632 00fa 0446     		mov	r4, r0
 7633 00fc 0D46     		mov	r5, r1
 7634 00fe 634B     		ldr	r3, .L599+16
 7635 0100 1888     		ldrh	r0, [r3]
 7636 0102 FFF7FEFF 		bl	__aeabi_i2d
 7637              	.LVL856:
 7638 0106 0022     		movs	r2, #0
 7639 0108 644B     		ldr	r3, .L599+32
 7640 010a FFF7FEFF 		bl	__aeabi_dsub
 7641              	.LVL857:
 7642 010e 0246     		mov	r2, r0
 7643 0110 0B46     		mov	r3, r1
 7644 0112 2046     		mov	r0, r4
 7645 0114 2946     		mov	r1, r5
 7646 0116 FFF7FEFF 		bl	__aeabi_dcmplt
 7647              	.LVL858:
 7648 011a 0028     		cmp	r0, #0
 7649 011c 00F0D581 		beq	.L537
1305:funciones.c   ****             flagHumedad=OFF;
 7650              		.loc 1 1305 0
 7651 0120 0022     		movs	r2, #0
 7652 0122 564B     		ldr	r3, .L599
 7653 0124 5A82     		strh	r2, [r3, #18]	@ movhi
 7654 0126 BDE8F88F 		pop	{r3, r4, r5, r6, r7, r8, r9, r10, fp, pc}
 7655              	.L595:
1306:funciones.c   ****       }else if(Humedad<SetpointH+2.0 && Humedad>SetpointH-5.0){
 7656              		.loc 1 1306 0
 7657 012a 0022     		movs	r2, #0
 7658 012c 4FF08043 		mov	r3, #1073741824
 7659 0130 3046     		mov	r0, r6
 7660 0132 3946     		mov	r1, r7
 7661 0134 FFF7FEFF 		bl	__aeabi_dadd
 7662              	.LVL859:
 7663 0138 8246     		mov	r10, r0
 7664 013a 8B46     		mov	fp, r1
 7665 013c 0246     		mov	r2, r0
 7666 013e 0B46     		mov	r3, r1
 7667 0140 2046     		mov	r0, r4
 7668 0142 2946     		mov	r1, r5
 7669 0144 FFF7FEFF 		bl	__aeabi_dcmplt
 7670              	.LVL860:
 7671 0148 0028     		cmp	r0, #0
 7672 014a 45D0     		beq	.L549
 7673              		.loc 1 1306 0 is_stmt 0 discriminator 1
 7674 014c 4246     		mov	r2, r8
ARM GAS  C:\Users\USUARIO\AppData\Local\Temp\ccWuTYF0.s 			page 159


 7675 014e 4B46     		mov	r3, r9
 7676 0150 2046     		mov	r0, r4
 7677 0152 2946     		mov	r1, r5
 7678 0154 FFF7FEFF 		bl	__aeabi_dcmpgt
 7679              	.LVL861:
 7680 0158 0028     		cmp	r0, #0
 7681 015a 3DD0     		beq	.L549
1307:funciones.c   ****          flagSobrepasoHumedad=OFF;
 7682              		.loc 1 1307 0 is_stmt 1
 7683 015c 474D     		ldr	r5, .L599
 7684 015e 0024     		movs	r4, #0
 7685 0160 AC83     		strh	r4, [r5, #28]	@ movhi
1308:funciones.c   ****          tSobrepaso=0;
 7686              		.loc 1 1308 0
 7687 0162 EC83     		strh	r4, [r5, #30]	@ movhi
1309:funciones.c   ****          escribeDisplay1("statusH.txt=\"Controlando\"");
 7688              		.loc 1 1309 0
 7689 0164 5148     		ldr	r0, .L599+48
 7690 0166 FFF7FEFF 		bl	escribeDisplay1
 7691              	.LVL862:
1310:funciones.c   ****          humidificador=ON;
 7692              		.loc 1 1310 0
 7693 016a 0123     		movs	r3, #1
 7694 016c 2B84     		strh	r3, [r5, #32]	@ movhi
1311:funciones.c   ****          CR5_Write(0);//Dehumidificador_off;
 7695              		.loc 1 1311 0
 7696 016e 2046     		mov	r0, r4
 7697 0170 FFF7FEFF 		bl	CR5_Write
 7698              	.LVL863:
1312:funciones.c   ****          if(LEVEL_Read()==0){//Si detecta el nivel de agua en el humidificador
 7699              		.loc 1 1312 0
 7700 0174 FFF7FEFF 		bl	LEVEL_Read
 7701              	.LVL864:
 7702 0178 E8B9     		cbnz	r0, .L552
1313:funciones.c   ****             tllenado=0;
 7703              		.loc 1 1313 0
 7704 017a 474B     		ldr	r3, .L599+28
 7705 017c 1C80     		strh	r4, [r3]	@ movhi
1314:funciones.c   ****             //CR7_Write(0);//Humidificador_on;
1315:funciones.c   ****             if(thumidificador<=T3){
 7706              		.loc 1 1315 0
 7707 017e 4C4B     		ldr	r3, .L599+52
 7708 0180 1A78     		ldrb	r2, [r3]	@ zero_extendqisi2
 7709 0182 484B     		ldr	r3, .L599+40
 7710 0184 1B88     		ldrh	r3, [r3]
 7711 0186 9A42     		cmp	r2, r3
 7712 0188 03D3     		bcc	.L553
1316:funciones.c   ****                 CR7_Write(0);//Humidificador_on;
 7713              		.loc 1 1316 0
 7714 018a 2046     		mov	r0, r4
 7715 018c FFF7FEFF 		bl	CR7_Write
 7716              	.LVL865:
 7717 0190 14E0     		b	.L554
 7718              	.L553:
1317:funciones.c   ****             }else if(thumidificador>T3&& thumidificador<T2Humedad){
 7719              		.loc 1 1317 0
 7720 0192 9A42     		cmp	r2, r3
ARM GAS  C:\Users\USUARIO\AppData\Local\Temp\ccWuTYF0.s 			page 160


 7721 0194 07D2     		bcs	.L555
 7722              		.loc 1 1317 0 is_stmt 0 discriminator 1
 7723 0196 424A     		ldr	r2, .L599+36
 7724 0198 1278     		ldrb	r2, [r2]	@ zero_extendqisi2
 7725 019a 9342     		cmp	r3, r2
 7726 019c 03D2     		bcs	.L555
1318:funciones.c   ****                 CR7_Write(1);//Humidificador_off;    
 7727              		.loc 1 1318 0 is_stmt 1
 7728 019e 0120     		movs	r0, #1
 7729 01a0 FFF7FEFF 		bl	CR7_Write
 7730              	.LVL866:
 7731 01a4 0AE0     		b	.L554
 7732              	.L555:
1319:funciones.c   ****             }else if(thumidificador>T2Humedad){
 7733              		.loc 1 1319 0
 7734 01a6 3E4A     		ldr	r2, .L599+36
 7735 01a8 1278     		ldrb	r2, [r2]	@ zero_extendqisi2
 7736 01aa 9342     		cmp	r3, r2
 7737 01ac 06D9     		bls	.L554
1320:funciones.c   ****                 thumidificador=0;   
 7738              		.loc 1 1320 0
 7739 01ae 0022     		movs	r2, #0
 7740 01b0 3C4B     		ldr	r3, .L599+40
 7741 01b2 1A80     		strh	r2, [r3]	@ movhi
 7742 01b4 02E0     		b	.L554
 7743              	.L552:
1321:funciones.c   ****             }
1322:funciones.c   ****          }else{
1323:funciones.c   ****             CR7_Write(1);//Humidificador_off;
 7744              		.loc 1 1323 0
 7745 01b6 0120     		movs	r0, #1
 7746 01b8 FFF7FEFF 		bl	CR7_Write
 7747              	.LVL867:
 7748              	.L554:
1324:funciones.c   ****          }
1325:funciones.c   ****          if(!Infinito)   
 7749              		.loc 1 1325 0
 7750 01bc 3D4B     		ldr	r3, .L599+56
 7751 01be B3F90030 		ldrsh	r3, [r3]
 7752 01c2 23B9     		cbnz	r3, .L556
1326:funciones.c   ****             flagHumedad=ON;
 7753              		.loc 1 1326 0
 7754 01c4 0122     		movs	r2, #1
 7755 01c6 2D4B     		ldr	r3, .L599
 7756 01c8 5A82     		strh	r2, [r3, #18]	@ movhi
 7757 01ca BDE8F88F 		pop	{r3, r4, r5, r6, r7, r8, r9, r10, fp, pc}
 7758              	.L556:
1327:funciones.c   ****          else
1328:funciones.c   ****             flagHumedad=OFF;
 7759              		.loc 1 1328 0
 7760 01ce 0022     		movs	r2, #0
 7761 01d0 2A4B     		ldr	r3, .L599
 7762 01d2 5A82     		strh	r2, [r3, #18]	@ movhi
 7763 01d4 BDE8F88F 		pop	{r3, r4, r5, r6, r7, r8, r9, r10, fp, pc}
 7764              	.L549:
1329:funciones.c   ****       }else if(Humedad>SetpointH+2.0 && Humedad<=SetpointH+3.0){
 7765              		.loc 1 1329 0
ARM GAS  C:\Users\USUARIO\AppData\Local\Temp\ccWuTYF0.s 			page 161


 7766 01d8 5246     		mov	r2, r10
 7767 01da 5B46     		mov	r3, fp
 7768 01dc 2046     		mov	r0, r4
 7769 01de 2946     		mov	r1, r5
 7770 01e0 FFF7FEFF 		bl	__aeabi_dcmpgt
 7771              	.LVL868:
 7772 01e4 60B3     		cbz	r0, .L557
 7773              		.loc 1 1329 0 is_stmt 0 discriminator 1
 7774 01e6 0022     		movs	r2, #0
 7775 01e8 334B     		ldr	r3, .L599+60
 7776 01ea 3046     		mov	r0, r6
 7777 01ec 3946     		mov	r1, r7
 7778 01ee FFF7FEFF 		bl	__aeabi_dadd
 7779              	.LVL869:
 7780 01f2 0246     		mov	r2, r0
 7781 01f4 0B46     		mov	r3, r1
 7782 01f6 2046     		mov	r0, r4
 7783 01f8 2946     		mov	r1, r5
 7784 01fa FFF7FEFF 		bl	__aeabi_dcmple
 7785              	.LVL870:
 7786 01fe F8B1     		cbz	r0, .L557
1330:funciones.c   ****          escribeDisplay1("statusH.txt=\"Controlando\"");
 7787              		.loc 1 1330 0 is_stmt 1
 7788 0200 2A48     		ldr	r0, .L599+48
 7789 0202 FFF7FEFF 		bl	escribeDisplay1
 7790              	.LVL871:
1331:funciones.c   ****          flagSobrepasoHumedad=OFF;
 7791              		.loc 1 1331 0
 7792 0206 1D4D     		ldr	r5, .L599
 7793 0208 0024     		movs	r4, #0
 7794 020a AC83     		strh	r4, [r5, #28]	@ movhi
1332:funciones.c   ****          tSobrepaso=0;
 7795              		.loc 1 1332 0
 7796 020c EC83     		strh	r4, [r5, #30]	@ movhi
1333:funciones.c   ****          CR7_Write(1);//Humidificador_off;
 7797              		.loc 1 1333 0
 7798 020e 0120     		movs	r0, #1
 7799 0210 FFF7FEFF 		bl	CR7_Write
 7800              	.LVL872:
1334:funciones.c   ****          CR5_Write(0);//Dehumidificador_off;
 7801              		.loc 1 1334 0
 7802 0214 2046     		mov	r0, r4
 7803 0216 FFF7FEFF 		bl	CR5_Write
 7804              	.LVL873:
1335:funciones.c   ****          humidificador=OFF;
 7805              		.loc 1 1335 0
 7806 021a 2C84     		strh	r4, [r5, #32]	@ movhi
1336:funciones.c   ****          thumidificador=T2Humedad+1;
 7807              		.loc 1 1336 0
 7808 021c 204B     		ldr	r3, .L599+36
 7809 021e 1B78     		ldrb	r3, [r3]	@ zero_extendqisi2
 7810 0220 0133     		adds	r3, r3, #1
 7811 0222 204A     		ldr	r2, .L599+40
 7812 0224 1380     		strh	r3, [r2]	@ movhi
1337:funciones.c   ****          if(!Infinito)   
 7813              		.loc 1 1337 0
 7814 0226 234B     		ldr	r3, .L599+56
ARM GAS  C:\Users\USUARIO\AppData\Local\Temp\ccWuTYF0.s 			page 162


 7815 0228 B3F90030 		ldrsh	r3, [r3]
 7816 022c 1BB9     		cbnz	r3, .L560
1338:funciones.c   ****             flagHumedad=ON;
 7817              		.loc 1 1338 0
 7818 022e 0122     		movs	r2, #1
 7819 0230 6A82     		strh	r2, [r5, #18]	@ movhi
 7820 0232 BDE8F88F 		pop	{r3, r4, r5, r6, r7, r8, r9, r10, fp, pc}
 7821              	.L560:
1339:funciones.c   ****          else
1340:funciones.c   ****             flagHumedad=OFF;
 7822              		.loc 1 1340 0
 7823 0236 0022     		movs	r2, #0
 7824 0238 104B     		ldr	r3, .L599
 7825 023a 5A82     		strh	r2, [r3, #18]	@ movhi
 7826 023c BDE8F88F 		pop	{r3, r4, r5, r6, r7, r8, r9, r10, fp, pc}
 7827              	.L557:
1341:funciones.c   ****       }else if(Humedad>SetpointH+3.0){
 7828              		.loc 1 1341 0
 7829 0240 0022     		movs	r2, #0
 7830 0242 1D4B     		ldr	r3, .L599+60
 7831 0244 3046     		mov	r0, r6
 7832 0246 3946     		mov	r1, r7
 7833 0248 FFF7FEFF 		bl	__aeabi_dadd
 7834              	.LVL874:
 7835 024c 0246     		mov	r2, r0
 7836 024e 0B46     		mov	r3, r1
 7837 0250 2046     		mov	r0, r4
 7838 0252 2946     		mov	r1, r5
 7839 0254 FFF7FEFF 		bl	__aeabi_dcmpgt
 7840              	.LVL875:
 7841 0258 0028     		cmp	r0, #0
 7842 025a 00F03681 		beq	.L537
1342:funciones.c   ****          flagSobrepasoHumedad=ON;
 7843              		.loc 1 1342 0
 7844 025e 074C     		ldr	r4, .L599
 7845 0260 0120     		movs	r0, #1
 7846 0262 A083     		strh	r0, [r4, #28]	@ movhi
1343:funciones.c   ****          CR7_Write(1);//Humidificador_off;
 7847              		.loc 1 1343 0
 7848 0264 FFF7FEFF 		bl	CR7_Write
 7849              	.LVL876:
1344:funciones.c   ****          if(tSobrepaso>300)
 7850              		.loc 1 1344 0
 7851 0268 E38B     		ldrh	r3, [r4, #30]
 7852 026a B3F5967F 		cmp	r3, #300
 7853 026e 40F22C81 		bls	.L537
1345:funciones.c   ****             Humidificar=OFF; 
 7854              		.loc 1 1345 0
 7855 0272 0022     		movs	r2, #0
 7856 0274 6283     		strh	r2, [r4, #26]	@ movhi
 7857 0276 BDE8F88F 		pop	{r3, r4, r5, r6, r7, r8, r9, r10, fp, pc}
 7858              	.L600:
 7859 027a 00BF     		.align	2
 7860              	.L599:
 7861 027c 00000000 		.word	.LANCHOR0
 7862 0280 00000000 		.word	dehumidificador
 7863 0284 00000000 		.word	tdehumidificador
ARM GAS  C:\Users\USUARIO\AppData\Local\Temp\ccWuTYF0.s 			page 163


 7864 0288 00000000 		.word	Humedad
 7865 028c 00000000 		.word	SetpointH
 7866 0290 00001440 		.word	1075052544
 7867 0294 98000000 		.word	.LC6
 7868 0298 00000000 		.word	tllenado
 7869 029c 00002440 		.word	1076101120
 7870 02a0 00000000 		.word	T2Humedad
 7871 02a4 00000000 		.word	thumidificador
 7872 02a8 00000000 		.word	T1
 7873 02ac B4000000 		.word	.LC7
 7874 02b0 00000000 		.word	T3
 7875 02b4 00000000 		.word	Infinito
 7876 02b8 00000840 		.word	1074266112
 7877              	.L538:
1346:funciones.c   ****       }
1347:funciones.c   ****    }else{
1348:funciones.c   ****         CR4_Write(0);
 7878              		.loc 1 1348 0
 7879 02bc 0020     		movs	r0, #0
 7880 02be FFF7FEFF 		bl	CR4_Write
 7881              	.LVL877:
1349:funciones.c   ****         humidificador=OFF;
 7882              		.loc 1 1349 0
 7883 02c2 0023     		movs	r3, #0
 7884 02c4 864A     		ldr	r2, .L601+16
 7885 02c6 1384     		strh	r3, [r2, #32]	@ movhi
1350:funciones.c   ****         thumidificador=0;
 7886              		.loc 1 1350 0
 7887 02c8 864A     		ldr	r2, .L601+20
 7888 02ca 1380     		strh	r3, [r2]	@ movhi
1351:funciones.c   ****       if(Humedad>SetpointH+2.0){
 7889              		.loc 1 1351 0
 7890 02cc 864B     		ldr	r3, .L601+24
 7891 02ce D3F80080 		ldr	r8, [r3]	@ float
 7892 02d2 4046     		mov	r0, r8
 7893 02d4 FFF7FEFF 		bl	__aeabi_f2d
 7894              	.LVL878:
 7895 02d8 0446     		mov	r4, r0
 7896 02da 0D46     		mov	r5, r1
 7897 02dc 834B     		ldr	r3, .L601+28
 7898 02de B3F80090 		ldrh	r9, [r3]
 7899 02e2 4846     		mov	r0, r9
 7900 02e4 FFF7FEFF 		bl	__aeabi_i2d
 7901              	.LVL879:
 7902 02e8 0646     		mov	r6, r0
 7903 02ea 0F46     		mov	r7, r1
 7904 02ec 0022     		movs	r2, #0
 7905 02ee 4FF08043 		mov	r3, #1073741824
 7906 02f2 FFF7FEFF 		bl	__aeabi_dadd
 7907              	.LVL880:
 7908 02f6 0246     		mov	r2, r0
 7909 02f8 0B46     		mov	r3, r1
 7910 02fa 2046     		mov	r0, r4
 7911 02fc 2946     		mov	r1, r5
 7912 02fe FFF7FEFF 		bl	__aeabi_dcmpgt
 7913              	.LVL881:
 7914 0302 0028     		cmp	r0, #0
ARM GAS  C:\Users\USUARIO\AppData\Local\Temp\ccWuTYF0.s 			page 164


 7915 0304 4AD0     		beq	.L597
1352:funciones.c   ****          escribeDisplay1("statusH.txt=\"Deshumidificando\"");
 7916              		.loc 1 1352 0
 7917 0306 7A48     		ldr	r0, .L601+32
 7918 0308 FFF7FEFF 		bl	escribeDisplay1
 7919              	.LVL882:
1353:funciones.c   ****          dehumidificador=ON;
 7920              		.loc 1 1353 0
 7921 030c 0122     		movs	r2, #1
 7922 030e 794B     		ldr	r3, .L601+36
 7923 0310 1A80     		strh	r2, [r3]	@ movhi
1354:funciones.c   ****          if(tdehumidificador<(tCongela*60)){
 7924              		.loc 1 1354 0
 7925 0312 794B     		ldr	r3, .L601+40
 7926 0314 1988     		ldrh	r1, [r3]
 7927 0316 724B     		ldr	r3, .L601+16
 7928 0318 5B88     		ldrh	r3, [r3, #2]
 7929 031a C3EB0310 		rsb	r0, r3, r3, lsl #4
 7930 031e 8200     		lsls	r2, r0, #2
 7931 0320 9142     		cmp	r1, r2
 7932 0322 03DA     		bge	.L564
1355:funciones.c   ****             CR5_Write(1);//Dehumidificador_on;
 7933              		.loc 1 1355 0
 7934 0324 0120     		movs	r0, #1
 7935 0326 FFF7FEFF 		bl	CR5_Write
 7936              	.LVL883:
 7937 032a 18E0     		b	.L565
 7938              	.L564:
1356:funciones.c   ****          }else if(tdehumidificador>=(tCongela*60) && tdehumidificador<((tDefrost*60)+(tCongela*60))
 7939              		.loc 1 1356 0
 7940 032c 9142     		cmp	r1, r2
 7941 032e 0BDB     		blt	.L566
 7942              		.loc 1 1356 0 is_stmt 0 discriminator 1
 7943 0330 6B4A     		ldr	r2, .L601+16
 7944 0332 1288     		ldrh	r2, [r2]
 7945 0334 1A44     		add	r2, r2, r3
 7946 0336 C2EB0212 		rsb	r2, r2, r2, lsl #4
 7947 033a 9000     		lsls	r0, r2, #2
 7948 033c 8142     		cmp	r1, r0
 7949 033e 03DA     		bge	.L566
1357:funciones.c   ****             CR5_Write(0);//Dehumidificador_off;
 7950              		.loc 1 1357 0 is_stmt 1
 7951 0340 0020     		movs	r0, #0
 7952 0342 FFF7FEFF 		bl	CR5_Write
 7953              	.LVL884:
 7954 0346 0AE0     		b	.L565
 7955              	.L566:
1358:funciones.c   ****          }else if(tdehumidificador>=((tDefrost*60)+(tCongela*60))){
 7956              		.loc 1 1358 0
 7957 0348 654A     		ldr	r2, .L601+16
 7958 034a 1288     		ldrh	r2, [r2]
 7959 034c 1344     		add	r3, r3, r2
 7960 034e C3EB0313 		rsb	r3, r3, r3, lsl #4
 7961 0352 9A00     		lsls	r2, r3, #2
 7962 0354 9142     		cmp	r1, r2
 7963 0356 02DB     		blt	.L565
1359:funciones.c   ****             tdehumidificador=0;
ARM GAS  C:\Users\USUARIO\AppData\Local\Temp\ccWuTYF0.s 			page 165


 7964              		.loc 1 1359 0
 7965 0358 0022     		movs	r2, #0
 7966 035a 674B     		ldr	r3, .L601+40
 7967 035c 1A80     		strh	r2, [r3]	@ movhi
 7968              	.L565:
1360:funciones.c   ****          }
1361:funciones.c   ****          CR7_Write(1);//Humidificador_off;
 7969              		.loc 1 1361 0
 7970 035e 0120     		movs	r0, #1
 7971 0360 FFF7FEFF 		bl	CR7_Write
 7972              	.LVL885:
1362:funciones.c   ****          if(Humedad>SetpointH+10.0)
 7973              		.loc 1 1362 0
 7974 0364 604B     		ldr	r3, .L601+24
 7975 0366 1868     		ldr	r0, [r3]	@ float
 7976 0368 FFF7FEFF 		bl	__aeabi_f2d
 7977              	.LVL886:
 7978 036c 0446     		mov	r4, r0
 7979 036e 0D46     		mov	r5, r1
 7980 0370 5E4B     		ldr	r3, .L601+28
 7981 0372 1888     		ldrh	r0, [r3]
 7982 0374 FFF7FEFF 		bl	__aeabi_i2d
 7983              	.LVL887:
 7984 0378 0022     		movs	r2, #0
 7985 037a 604B     		ldr	r3, .L601+44
 7986 037c FFF7FEFF 		bl	__aeabi_dadd
 7987              	.LVL888:
 7988 0380 0246     		mov	r2, r0
 7989 0382 0B46     		mov	r3, r1
 7990 0384 2046     		mov	r0, r4
 7991 0386 2946     		mov	r1, r5
 7992 0388 FFF7FEFF 		bl	__aeabi_dcmpgt
 7993              	.LVL889:
 7994 038c 0028     		cmp	r0, #0
 7995 038e 00F09C80 		beq	.L537
1363:funciones.c   ****             flagHumedad=OFF;
 7996              		.loc 1 1363 0
 7997 0392 0022     		movs	r2, #0
 7998 0394 524B     		ldr	r3, .L601+16
 7999 0396 5A82     		strh	r2, [r3, #18]	@ movhi
 8000 0398 BDE8F88F 		pop	{r3, r4, r5, r6, r7, r8, r9, r10, fp, pc}
 8001              	.L597:
1364:funciones.c   ****       }else if(Humedad>SetpointH && Humedad<SetpointH+2.8){
 8002              		.loc 1 1364 0
 8003 039c 4846     		mov	r0, r9
 8004 039e FFF7FEFF 		bl	__aeabi_i2f
 8005              	.LVL890:
 8006 03a2 0146     		mov	r1, r0
 8007 03a4 4046     		mov	r0, r8
 8008 03a6 FFF7FEFF 		bl	__aeabi_fcmpgt
 8009              	.LVL891:
 8010 03aa 0028     		cmp	r0, #0
 8011 03ac 48D0     		beq	.L568
 8012              		.loc 1 1364 0 is_stmt 0 discriminator 1
 8013 03ae 48A3     		adr	r3, .L601
 8014 03b0 D3E90023 		ldrd	r2, [r3]
 8015 03b4 3046     		mov	r0, r6
ARM GAS  C:\Users\USUARIO\AppData\Local\Temp\ccWuTYF0.s 			page 166


 8016 03b6 3946     		mov	r1, r7
 8017 03b8 FFF7FEFF 		bl	__aeabi_dadd
 8018              	.LVL892:
 8019 03bc 0246     		mov	r2, r0
 8020 03be 0B46     		mov	r3, r1
 8021 03c0 2046     		mov	r0, r4
 8022 03c2 2946     		mov	r1, r5
 8023 03c4 FFF7FEFF 		bl	__aeabi_dcmplt
 8024              	.LVL893:
 8025 03c8 0028     		cmp	r0, #0
 8026 03ca 39D0     		beq	.L568
1365:funciones.c   ****          escribeDisplay1("statusH.txt=\"Controlando\"");
 8027              		.loc 1 1365 0 is_stmt 1
 8028 03cc 4C48     		ldr	r0, .L601+48
 8029 03ce FFF7FEFF 		bl	escribeDisplay1
 8030              	.LVL894:
1366:funciones.c   ****          if(tdehumidificador<(tCongela*60)){
 8031              		.loc 1 1366 0
 8032 03d2 494B     		ldr	r3, .L601+40
 8033 03d4 1988     		ldrh	r1, [r3]
 8034 03d6 424B     		ldr	r3, .L601+16
 8035 03d8 5B88     		ldrh	r3, [r3, #2]
 8036 03da C3EB0310 		rsb	r0, r3, r3, lsl #4
 8037 03de 8200     		lsls	r2, r0, #2
 8038 03e0 9142     		cmp	r1, r2
 8039 03e2 03DA     		bge	.L571
1367:funciones.c   ****             CR5_Write(1);//Dehumidificador_on;
 8040              		.loc 1 1367 0
 8041 03e4 0120     		movs	r0, #1
 8042 03e6 FFF7FEFF 		bl	CR5_Write
 8043              	.LVL895:
 8044 03ea 18E0     		b	.L572
 8045              	.L571:
1368:funciones.c   ****          }else if(tdehumidificador>=(tCongela*60) && tdehumidificador<((tCongela*60)+(tDefrost*60))
 8046              		.loc 1 1368 0
 8047 03ec 9142     		cmp	r1, r2
 8048 03ee 0BDB     		blt	.L573
 8049              		.loc 1 1368 0 is_stmt 0 discriminator 1
 8050 03f0 3B4A     		ldr	r2, .L601+16
 8051 03f2 1288     		ldrh	r2, [r2]
 8052 03f4 1A44     		add	r2, r2, r3
 8053 03f6 C2EB0212 		rsb	r2, r2, r2, lsl #4
 8054 03fa 9000     		lsls	r0, r2, #2
 8055 03fc 8142     		cmp	r1, r0
 8056 03fe 03DA     		bge	.L573
1369:funciones.c   ****             CR5_Write(0);//Dehumidificador_off;
 8057              		.loc 1 1369 0 is_stmt 1
 8058 0400 0020     		movs	r0, #0
 8059 0402 FFF7FEFF 		bl	CR5_Write
 8060              	.LVL896:
 8061 0406 0AE0     		b	.L572
 8062              	.L573:
1370:funciones.c   ****          }else if(tdehumidificador>=((tCongela*60)+(tDefrost*60))){
 8063              		.loc 1 1370 0
 8064 0408 354A     		ldr	r2, .L601+16
 8065 040a 1288     		ldrh	r2, [r2]
 8066 040c 1344     		add	r3, r3, r2
ARM GAS  C:\Users\USUARIO\AppData\Local\Temp\ccWuTYF0.s 			page 167


 8067 040e C3EB0313 		rsb	r3, r3, r3, lsl #4
 8068 0412 9A00     		lsls	r2, r3, #2
 8069 0414 9142     		cmp	r1, r2
 8070 0416 02DB     		blt	.L572
1371:funciones.c   ****             tdehumidificador=0;
 8071              		.loc 1 1371 0
 8072 0418 0022     		movs	r2, #0
 8073 041a 374B     		ldr	r3, .L601+40
 8074 041c 1A80     		strh	r2, [r3]	@ movhi
 8075              	.L572:
1372:funciones.c   ****          }
1373:funciones.c   ****          CR7_Write(1);//Humidificador_off;
 8076              		.loc 1 1373 0
 8077 041e 0120     		movs	r0, #1
 8078 0420 FFF7FEFF 		bl	CR7_Write
 8079              	.LVL897:
1374:funciones.c   ****          if(!Infinito)   
 8080              		.loc 1 1374 0
 8081 0424 374B     		ldr	r3, .L601+52
 8082 0426 B3F90030 		ldrsh	r3, [r3]
 8083 042a 23B9     		cbnz	r3, .L574
1375:funciones.c   ****             flagHumedad=ON;
 8084              		.loc 1 1375 0
 8085 042c 0122     		movs	r2, #1
 8086 042e 2C4B     		ldr	r3, .L601+16
 8087 0430 5A82     		strh	r2, [r3, #18]	@ movhi
 8088 0432 BDE8F88F 		pop	{r3, r4, r5, r6, r7, r8, r9, r10, fp, pc}
 8089              	.L574:
1376:funciones.c   ****          else
1377:funciones.c   ****             flagHumedad=OFF;
 8090              		.loc 1 1377 0
 8091 0436 0022     		movs	r2, #0
 8092 0438 294B     		ldr	r3, .L601+16
 8093 043a 5A82     		strh	r2, [r3, #18]	@ movhi
 8094 043c BDE8F88F 		pop	{r3, r4, r5, r6, r7, r8, r9, r10, fp, pc}
 8095              	.L568:
1378:funciones.c   ****       }else if(Humedad<SetpointH-0.1 && Humedad>SetpointH-2.0){
 8096              		.loc 1 1378 0
 8097 0440 25A3     		adr	r3, .L601+8
 8098 0442 D3E90023 		ldrd	r2, [r3]
 8099 0446 3046     		mov	r0, r6
 8100 0448 3946     		mov	r1, r7
 8101 044a FFF7FEFF 		bl	__aeabi_dsub
 8102              	.LVL898:
 8103 044e 0246     		mov	r2, r0
 8104 0450 0B46     		mov	r3, r1
 8105 0452 2046     		mov	r0, r4
 8106 0454 2946     		mov	r1, r5
 8107 0456 FFF7FEFF 		bl	__aeabi_dcmplt
 8108              	.LVL899:
 8109 045a 30B3     		cbz	r0, .L575
 8110              		.loc 1 1378 0 is_stmt 0 discriminator 1
 8111 045c 0022     		movs	r2, #0
 8112 045e 4FF08043 		mov	r3, #1073741824
 8113 0462 3046     		mov	r0, r6
 8114 0464 3946     		mov	r1, r7
 8115 0466 FFF7FEFF 		bl	__aeabi_dsub
ARM GAS  C:\Users\USUARIO\AppData\Local\Temp\ccWuTYF0.s 			page 168


 8116              	.LVL900:
 8117 046a 0246     		mov	r2, r0
 8118 046c 0B46     		mov	r3, r1
 8119 046e 2046     		mov	r0, r4
 8120 0470 2946     		mov	r1, r5
 8121 0472 FFF7FEFF 		bl	__aeabi_dcmpgt
 8122              	.LVL901:
 8123 0476 C0B1     		cbz	r0, .L575
1379:funciones.c   ****          dehumidificador=OFF;
 8124              		.loc 1 1379 0 is_stmt 1
 8125 0478 0024     		movs	r4, #0
 8126 047a 1E4B     		ldr	r3, .L601+36
 8127 047c 1C80     		strh	r4, [r3]	@ movhi
1380:funciones.c   ****          tdehumidificador=0;
 8128              		.loc 1 1380 0
 8129 047e 1E4B     		ldr	r3, .L601+40
 8130 0480 1C80     		strh	r4, [r3]	@ movhi
1381:funciones.c   ****          CR7_Write(1);//Humidificador_off;
 8131              		.loc 1 1381 0
 8132 0482 0120     		movs	r0, #1
 8133 0484 FFF7FEFF 		bl	CR7_Write
 8134              	.LVL902:
1382:funciones.c   ****          CR5_Write(0);//Dehumidificador_off;
 8135              		.loc 1 1382 0
 8136 0488 2046     		mov	r0, r4
 8137 048a FFF7FEFF 		bl	CR5_Write
 8138              	.LVL903:
1383:funciones.c   ****          if(!Infinito)   
 8139              		.loc 1 1383 0
 8140 048e 1D4B     		ldr	r3, .L601+52
 8141 0490 B3F90030 		ldrsh	r3, [r3]
 8142 0494 23B9     		cbnz	r3, .L578
1384:funciones.c   ****             flagHumedad=ON;
 8143              		.loc 1 1384 0
 8144 0496 0122     		movs	r2, #1
 8145 0498 114B     		ldr	r3, .L601+16
 8146 049a 5A82     		strh	r2, [r3, #18]	@ movhi
 8147 049c BDE8F88F 		pop	{r3, r4, r5, r6, r7, r8, r9, r10, fp, pc}
 8148              	.L578:
1385:funciones.c   ****          else
1386:funciones.c   ****             flagHumedad=OFF;
 8149              		.loc 1 1386 0
 8150 04a0 0022     		movs	r2, #0
 8151 04a2 0F4B     		ldr	r3, .L601+16
 8152 04a4 5A82     		strh	r2, [r3, #18]	@ movhi
 8153 04a6 BDE8F88F 		pop	{r3, r4, r5, r6, r7, r8, r9, r10, fp, pc}
 8154              	.L575:
1387:funciones.c   ****       }else if(Humedad<SetpointH-3.0){
 8155              		.loc 1 1387 0
 8156 04aa 0022     		movs	r2, #0
 8157 04ac 164B     		ldr	r3, .L601+56
 8158 04ae 3046     		mov	r0, r6
 8159 04b0 3946     		mov	r1, r7
 8160 04b2 FFF7FEFF 		bl	__aeabi_dsub
 8161              	.LVL904:
 8162 04b6 0246     		mov	r2, r0
 8163 04b8 0B46     		mov	r3, r1
ARM GAS  C:\Users\USUARIO\AppData\Local\Temp\ccWuTYF0.s 			page 169


 8164 04ba 2046     		mov	r0, r4
 8165 04bc 2946     		mov	r1, r5
 8166 04be FFF7FEFF 		bl	__aeabi_dcmplt
 8167              	.LVL905:
 8168 04c2 10B1     		cbz	r0, .L537
1388:funciones.c   ****          Humidificar=ON; 
 8169              		.loc 1 1388 0
 8170 04c4 0122     		movs	r2, #1
 8171 04c6 064B     		ldr	r3, .L601+16
 8172 04c8 5A83     		strh	r2, [r3, #26]	@ movhi
 8173              	.L537:
 8174 04ca BDE8F88F 		pop	{r3, r4, r5, r6, r7, r8, r9, r10, fp, pc}
 8175              	.L602:
 8176 04ce 00BF     		.align	3
 8177              	.L601:
 8178 04d0 66666666 		.word	1717986918
 8179 04d4 66660640 		.word	1074161254
 8180 04d8 9A999999 		.word	-1717986918
 8181 04dc 9999B93F 		.word	1069128089
 8182 04e0 00000000 		.word	.LANCHOR0
 8183 04e4 00000000 		.word	thumidificador
 8184 04e8 00000000 		.word	Humedad
 8185 04ec 00000000 		.word	SetpointH
 8186 04f0 D0000000 		.word	.LC8
 8187 04f4 00000000 		.word	dehumidificador
 8188 04f8 00000000 		.word	tdehumidificador
 8189 04fc 00002440 		.word	1076101120
 8190 0500 B4000000 		.word	.LC7
 8191 0504 00000000 		.word	Infinito
 8192 0508 00000840 		.word	1074266112
 8193              		.cfi_endproc
 8194              	.LFE88:
 8195              		.size	controlaHumedad2, .-controlaHumedad2
 8196              		.section	.text.controlaTemperatura,"ax",%progbits
 8197              		.align	2
 8198              		.global	controlaTemperatura
 8199              		.thumb
 8200              		.thumb_func
 8201              		.type	controlaTemperatura, %function
 8202              	controlaTemperatura:
 8203              	.LFB89:
1389:funciones.c   ****       }
1390:funciones.c   ****    }
1391:funciones.c   **** }
1392:funciones.c   **** 
1393:funciones.c   **** void controlaTemperatura(){
 8204              		.loc 1 1393 0
 8205              		.cfi_startproc
 8206              		@ args = 0, pretend = 0, frame = 0
 8207              		@ frame_needed = 0, uses_anonymous_args = 0
 8208 0000 2DE9F047 		push	{r4, r5, r6, r7, r8, r9, r10, lr}
 8209              		.cfi_def_cfa_offset 32
 8210              		.cfi_offset 4, -32
 8211              		.cfi_offset 5, -28
 8212              		.cfi_offset 6, -24
 8213              		.cfi_offset 7, -20
 8214              		.cfi_offset 8, -16
ARM GAS  C:\Users\USUARIO\AppData\Local\Temp\ccWuTYF0.s 			page 170


 8215              		.cfi_offset 9, -12
 8216              		.cfi_offset 10, -8
 8217              		.cfi_offset 14, -4
1394:funciones.c   ****     if(TERM_Read()==1 || Temperatura>80){
 8218              		.loc 1 1394 0
 8219 0004 FFF7FEFF 		bl	TERM_Read
 8220              	.LVL906:
 8221 0008 0128     		cmp	r0, #1
 8222 000a 06D0     		beq	.L604
 8223              		.loc 1 1394 0 is_stmt 0 discriminator 1
 8224 000c A24B     		ldr	r3, .L640+16
 8225 000e 1C68     		ldr	r4, [r3]	@ float
 8226 0010 A249     		ldr	r1, .L640+20
 8227 0012 2046     		mov	r0, r4
 8228 0014 FFF7FEFF 		bl	__aeabi_fcmpgt
 8229              	.LVL907:
 8230 0018 50B3     		cbz	r0, .L636
 8231              	.L604:
1395:funciones.c   ****       escribeDisplay1("statusT.txt=\"!Termostato!\"");      
 8232              		.loc 1 1395 0 is_stmt 1
 8233 001a A148     		ldr	r0, .L640+24
 8234 001c FFF7FEFF 		bl	escribeDisplay1
 8235              	.LVL908:
1396:funciones.c   ****       //SSR_Write(0);
1397:funciones.c   ****       PWM_WriteCompare1(0);
 8236              		.loc 1 1397 0
 8237 0020 0020     		movs	r0, #0
 8238 0022 FFF7FEFF 		bl	PWM_WriteCompare1
 8239              	.LVL909:
1398:funciones.c   ****       PWM_WriteCompare2(0);
 8240              		.loc 1 1398 0
 8241 0026 0020     		movs	r0, #0
 8242 0028 FFF7FEFF 		bl	PWM_WriteCompare2
 8243              	.LVL910:
1399:funciones.c   ****       Control=0;
 8244              		.loc 1 1399 0
 8245 002c 0024     		movs	r4, #0
 8246 002e 9D4B     		ldr	r3, .L640+28
 8247 0030 1C80     		strh	r4, [r3]	@ movhi
1400:funciones.c   ****       Ganancia=GananciaR*(Setpoint/200);
 8248              		.loc 1 1400 0
 8249 0032 9D49     		ldr	r1, .L640+32
 8250 0034 9D4B     		ldr	r3, .L640+36
 8251 0036 1868     		ldr	r0, [r3]	@ float
 8252 0038 FFF7FEFF 		bl	__aeabi_fdiv
 8253              	.LVL911:
 8254 003c 0546     		mov	r5, r0
 8255 003e 9C4B     		ldr	r3, .L640+40
 8256 0040 1878     		ldrb	r0, [r3]	@ zero_extendqisi2
 8257 0042 FFF7FEFF 		bl	__aeabi_i2f
 8258              	.LVL912:
 8259 0046 2946     		mov	r1, r5
 8260 0048 FFF7FEFF 		bl	__aeabi_fmul
 8261              	.LVL913:
 8262 004c 994B     		ldr	r3, .L640+44
 8263 004e 1860     		str	r0, [r3]	@ float
1401:funciones.c   ****       BUZZER_Write(1);
ARM GAS  C:\Users\USUARIO\AppData\Local\Temp\ccWuTYF0.s 			page 171


 8264              		.loc 1 1401 0
 8265 0050 0120     		movs	r0, #1
 8266 0052 FFF7FEFF 		bl	BUZZER_Write
 8267              	.LVL914:
1402:funciones.c   ****       CyDelay(300);
 8268              		.loc 1 1402 0
 8269 0056 4FF49670 		mov	r0, #300
 8270 005a FFF7FEFF 		bl	CyDelay
 8271              	.LVL915:
1403:funciones.c   ****       BUZZER_Write(0);
 8272              		.loc 1 1403 0
 8273 005e 2046     		mov	r0, r4
 8274 0060 FFF7FEFF 		bl	BUZZER_Write
 8275              	.LVL916:
1404:funciones.c   ****       CyDelay(300);
 8276              		.loc 1 1404 0
 8277 0064 4FF49670 		mov	r0, #300
 8278 0068 FFF7FEFF 		bl	CyDelay
 8279              	.LVL917:
 8280 006c BDE8F087 		pop	{r4, r5, r6, r7, r8, r9, r10, pc}
 8281              	.L636:
1405:funciones.c   ****     }else{
1406:funciones.c   ****         if(Enfria==1){
 8282              		.loc 1 1406 0
 8283 0070 914B     		ldr	r3, .L640+48
 8284 0072 B3F90030 		ldrsh	r3, [r3]
 8285 0076 012B     		cmp	r3, #1
 8286 0078 7DD1     		bne	.L608
1407:funciones.c   ****             if(Temperatura<=Setpoint+0.5 && Temperatura>=Setpoint-0.5){
 8287              		.loc 1 1407 0
 8288 007a 2046     		mov	r0, r4
 8289 007c FFF7FEFF 		bl	__aeabi_f2d
 8290              	.LVL918:
 8291 0080 0446     		mov	r4, r0
 8292 0082 0D46     		mov	r5, r1
 8293 0084 894B     		ldr	r3, .L640+36
 8294 0086 D3F80080 		ldr	r8, [r3]	@ float
 8295 008a 4046     		mov	r0, r8
 8296 008c FFF7FEFF 		bl	__aeabi_f2d
 8297              	.LVL919:
 8298 0090 0646     		mov	r6, r0
 8299 0092 0F46     		mov	r7, r1
 8300 0094 0022     		movs	r2, #0
 8301 0096 894B     		ldr	r3, .L640+52
 8302 0098 FFF7FEFF 		bl	__aeabi_dadd
 8303              	.LVL920:
 8304 009c 0246     		mov	r2, r0
 8305 009e 0B46     		mov	r3, r1
 8306 00a0 2046     		mov	r0, r4
 8307 00a2 2946     		mov	r1, r5
 8308 00a4 FFF7FEFF 		bl	__aeabi_dcmple
 8309              	.LVL921:
 8310 00a8 08B3     		cbz	r0, .L609
 8311              		.loc 1 1407 0 is_stmt 0 discriminator 1
 8312 00aa 0022     		movs	r2, #0
 8313 00ac 834B     		ldr	r3, .L640+52
 8314 00ae 3046     		mov	r0, r6
ARM GAS  C:\Users\USUARIO\AppData\Local\Temp\ccWuTYF0.s 			page 172


 8315 00b0 3946     		mov	r1, r7
 8316 00b2 FFF7FEFF 		bl	__aeabi_dsub
 8317              	.LVL922:
 8318 00b6 0246     		mov	r2, r0
 8319 00b8 0B46     		mov	r3, r1
 8320 00ba 2046     		mov	r0, r4
 8321 00bc 2946     		mov	r1, r5
 8322 00be FFF7FEFF 		bl	__aeabi_dcmpge
 8323              	.LVL923:
 8324 00c2 A0B1     		cbz	r0, .L609
1408:funciones.c   ****                 escribeDisplay1("statusT.txt=\"Controlando -\"");
 8325              		.loc 1 1408 0 is_stmt 1
 8326 00c4 7E48     		ldr	r0, .L640+56
 8327 00c6 FFF7FEFF 		bl	escribeDisplay1
 8328              	.LVL924:
1409:funciones.c   ****                 if(!Infinito)
 8329              		.loc 1 1409 0
 8330 00ca 7E4B     		ldr	r3, .L640+60
 8331 00cc B3F90030 		ldrsh	r3, [r3]
 8332 00d0 1BB9     		cbnz	r3, .L612
1410:funciones.c   ****                     flagTemperatura=ON;
 8333              		.loc 1 1410 0
 8334 00d2 0122     		movs	r2, #1
 8335 00d4 7C4B     		ldr	r3, .L640+64
 8336 00d6 1A80     		strh	r2, [r3]	@ movhi
 8337 00d8 02E0     		b	.L613
 8338              	.L612:
1411:funciones.c   ****                 //tiempo_esterilizacion=1;
1412:funciones.c   ****                 else
1413:funciones.c   ****                     flagTemperatura=OFF;
 8339              		.loc 1 1413 0
 8340 00da 0022     		movs	r2, #0
 8341 00dc 7A4B     		ldr	r3, .L640+64
 8342 00de 1A80     		strh	r2, [r3]	@ movhi
 8343              	.L613:
1414:funciones.c   ****                 //tiempo_esterilizacion=0;
1415:funciones.c   ****                 Controla();
 8344              		.loc 1 1415 0
 8345 00e0 FFF7FEFF 		bl	Controla
 8346              	.LVL925:
1416:funciones.c   ****                 flag_tiempocalentamiento=0;
 8347              		.loc 1 1416 0
 8348 00e4 0022     		movs	r2, #0
 8349 00e6 794B     		ldr	r3, .L640+68
 8350 00e8 1A80     		strh	r2, [r3]	@ movhi
 8351 00ea BDE8F087 		pop	{r4, r5, r6, r7, r8, r9, r10, pc}
 8352              	.L609:
1417:funciones.c   ****             }else if(Temperatura<Setpoint-0.5){
 8353              		.loc 1 1417 0
 8354 00ee 0022     		movs	r2, #0
 8355 00f0 724B     		ldr	r3, .L640+52
 8356 00f2 3046     		mov	r0, r6
 8357 00f4 3946     		mov	r1, r7
 8358 00f6 FFF7FEFF 		bl	__aeabi_dsub
 8359              	.LVL926:
 8360 00fa 0246     		mov	r2, r0
 8361 00fc 0B46     		mov	r3, r1
ARM GAS  C:\Users\USUARIO\AppData\Local\Temp\ccWuTYF0.s 			page 173


 8362 00fe 2046     		mov	r0, r4
 8363 0100 2946     		mov	r1, r5
 8364 0102 FFF7FEFF 		bl	__aeabi_dcmplt
 8365              	.LVL927:
 8366 0106 D0B1     		cbz	r0, .L637
1418:funciones.c   ****                 Enfria=0;
 8367              		.loc 1 1418 0
 8368 0108 0024     		movs	r4, #0
 8369 010a 6B4B     		ldr	r3, .L640+48
 8370 010c 1C80     		strh	r4, [r3]	@ movhi
1419:funciones.c   ****                 Ganancia=GananciaR*(Setpoint/200);
 8371              		.loc 1 1419 0
 8372 010e 6649     		ldr	r1, .L640+32
 8373 0110 4046     		mov	r0, r8
 8374 0112 FFF7FEFF 		bl	__aeabi_fdiv
 8375              	.LVL928:
 8376 0116 0546     		mov	r5, r0
 8377 0118 654B     		ldr	r3, .L640+40
 8378 011a 1878     		ldrb	r0, [r3]	@ zero_extendqisi2
 8379 011c FFF7FEFF 		bl	__aeabi_i2f
 8380              	.LVL929:
 8381 0120 2946     		mov	r1, r5
 8382 0122 FFF7FEFF 		bl	__aeabi_fmul
 8383              	.LVL930:
 8384 0126 634B     		ldr	r3, .L640+44
 8385 0128 1860     		str	r0, [r3]	@ float
1420:funciones.c   ****                 //Gananciamax=(0.21)*Setpoint;
1421:funciones.c   ****                 //SSR_Write(0);
1422:funciones.c   ****                 PWM_WriteCompare1(0);
 8386              		.loc 1 1422 0
 8387 012a 2046     		mov	r0, r4
 8388 012c FFF7FEFF 		bl	PWM_WriteCompare1
 8389              	.LVL931:
1423:funciones.c   ****                 PWM_WriteCompare2(0);
 8390              		.loc 1 1423 0
 8391 0130 2046     		mov	r0, r4
 8392 0132 FFF7FEFF 		bl	PWM_WriteCompare2
 8393              	.LVL932:
1424:funciones.c   ****                 Control=0;
 8394              		.loc 1 1424 0
 8395 0136 5B4B     		ldr	r3, .L640+28
 8396 0138 1C80     		strh	r4, [r3]	@ movhi
 8397 013a BDE8F087 		pop	{r4, r5, r6, r7, r8, r9, r10, pc}
 8398              	.L637:
1425:funciones.c   ****             }else if(Temperatura>Setpoint+0.6){
 8399              		.loc 1 1425 0
 8400 013e 52A3     		adr	r3, .L640
 8401 0140 D3E90023 		ldrd	r2, [r3]
 8402 0144 3046     		mov	r0, r6
 8403 0146 3946     		mov	r1, r7
 8404 0148 FFF7FEFF 		bl	__aeabi_dadd
 8405              	.LVL933:
 8406 014c 0246     		mov	r2, r0
 8407 014e 0B46     		mov	r3, r1
 8408 0150 2046     		mov	r0, r4
 8409 0152 2946     		mov	r1, r5
 8410 0154 FFF7FEFF 		bl	__aeabi_dcmpgt
ARM GAS  C:\Users\USUARIO\AppData\Local\Temp\ccWuTYF0.s 			page 174


 8411              	.LVL934:
 8412 0158 0028     		cmp	r0, #0
 8413 015a 00F09180 		beq	.L603
1426:funciones.c   ****                 flag_tiempocalentamiento=0;
 8414              		.loc 1 1426 0
 8415 015e 0024     		movs	r4, #0
 8416 0160 5A4B     		ldr	r3, .L640+68
 8417 0162 1C80     		strh	r4, [r3]	@ movhi
1427:funciones.c   ****                 escribeDisplay1("statusT.txt=\"Enfriando\"");
 8418              		.loc 1 1427 0
 8419 0164 5A48     		ldr	r0, .L640+72
 8420 0166 FFF7FEFF 		bl	escribeDisplay1
 8421              	.LVL935:
1428:funciones.c   ****                 //tiempo_esterilizacion=0;
1429:funciones.c   ****                 flagTemperatura=OFF;
 8422              		.loc 1 1429 0
 8423 016a 574B     		ldr	r3, .L640+64
 8424 016c 1C80     		strh	r4, [r3]	@ movhi
1430:funciones.c   ****                 Controla();
 8425              		.loc 1 1430 0
 8426 016e FFF7FEFF 		bl	Controla
 8427              	.LVL936:
 8428 0172 BDE8F087 		pop	{r4, r5, r6, r7, r8, r9, r10, pc}
 8429              	.L608:
1431:funciones.c   ****             }
1432:funciones.c   ****         }else{  
1433:funciones.c   ****             if(Temperatura>=Setpoint-1.0 && Temperatura<=Setpoint+0.5){
 8430              		.loc 1 1433 0
 8431 0176 2046     		mov	r0, r4
 8432 0178 FFF7FEFF 		bl	__aeabi_f2d
 8433              	.LVL937:
 8434 017c 0446     		mov	r4, r0
 8435 017e 0D46     		mov	r5, r1
 8436 0180 4A4B     		ldr	r3, .L640+36
 8437 0182 D3F800A0 		ldr	r10, [r3]	@ float
 8438 0186 5046     		mov	r0, r10
 8439 0188 FFF7FEFF 		bl	__aeabi_f2d
 8440              	.LVL938:
 8441 018c 0646     		mov	r6, r0
 8442 018e 0F46     		mov	r7, r1
 8443 0190 0022     		movs	r2, #0
 8444 0192 504B     		ldr	r3, .L640+76
 8445 0194 FFF7FEFF 		bl	__aeabi_dsub
 8446              	.LVL939:
 8447 0198 8046     		mov	r8, r0
 8448 019a 8946     		mov	r9, r1
 8449 019c 0246     		mov	r2, r0
 8450 019e 0B46     		mov	r3, r1
 8451 01a0 2046     		mov	r0, r4
 8452 01a2 2946     		mov	r1, r5
 8453 01a4 FFF7FEFF 		bl	__aeabi_dcmpge
 8454              	.LVL940:
 8455 01a8 08B3     		cbz	r0, .L617
 8456              		.loc 1 1433 0 is_stmt 0 discriminator 1
 8457 01aa 0022     		movs	r2, #0
 8458 01ac 434B     		ldr	r3, .L640+52
 8459 01ae 3046     		mov	r0, r6
ARM GAS  C:\Users\USUARIO\AppData\Local\Temp\ccWuTYF0.s 			page 175


 8460 01b0 3946     		mov	r1, r7
 8461 01b2 FFF7FEFF 		bl	__aeabi_dadd
 8462              	.LVL941:
 8463 01b6 0246     		mov	r2, r0
 8464 01b8 0B46     		mov	r3, r1
 8465 01ba 2046     		mov	r0, r4
 8466 01bc 2946     		mov	r1, r5
 8467 01be FFF7FEFF 		bl	__aeabi_dcmple
 8468              	.LVL942:
 8469 01c2 A0B1     		cbz	r0, .L617
1434:funciones.c   ****                 escribeDisplay1("statusT.txt=\"Controlando +\"");
 8470              		.loc 1 1434 0 is_stmt 1
 8471 01c4 4448     		ldr	r0, .L640+80
 8472 01c6 FFF7FEFF 		bl	escribeDisplay1
 8473              	.LVL943:
1435:funciones.c   ****                 if(!Infinito)
 8474              		.loc 1 1435 0
 8475 01ca 3E4B     		ldr	r3, .L640+60
 8476 01cc B3F90030 		ldrsh	r3, [r3]
 8477 01d0 1BB9     		cbnz	r3, .L620
1436:funciones.c   ****                     //tiempo_esterilizacion=1;
1437:funciones.c   ****                     flagTemperatura=ON;
 8478              		.loc 1 1437 0
 8479 01d2 0122     		movs	r2, #1
 8480 01d4 3C4B     		ldr	r3, .L640+64
 8481 01d6 1A80     		strh	r2, [r3]	@ movhi
 8482 01d8 02E0     		b	.L621
 8483              	.L620:
1438:funciones.c   ****                 else
1439:funciones.c   ****                     //tiempo_esterilizacion=0;   
1440:funciones.c   ****                     flagTemperatura=OFF;
 8484              		.loc 1 1440 0
 8485 01da 0022     		movs	r2, #0
 8486 01dc 3A4B     		ldr	r3, .L640+64
 8487 01de 1A80     		strh	r2, [r3]	@ movhi
 8488              	.L621:
1441:funciones.c   ****                 Controla();
 8489              		.loc 1 1441 0
 8490 01e0 FFF7FEFF 		bl	Controla
 8491              	.LVL944:
1442:funciones.c   ****                 flag_tiempocalentamiento=0;
 8492              		.loc 1 1442 0
 8493 01e4 0022     		movs	r2, #0
 8494 01e6 394B     		ldr	r3, .L640+68
 8495 01e8 1A80     		strh	r2, [r3]	@ movhi
 8496 01ea BDE8F087 		pop	{r4, r5, r6, r7, r8, r9, r10, pc}
 8497              	.L617:
1443:funciones.c   ****             }else if(Temperatura>Setpoint+0.5){
 8498              		.loc 1 1443 0
 8499 01ee 0022     		movs	r2, #0
 8500 01f0 324B     		ldr	r3, .L640+52
 8501 01f2 3046     		mov	r0, r6
 8502 01f4 3946     		mov	r1, r7
 8503 01f6 FFF7FEFF 		bl	__aeabi_dadd
 8504              	.LVL945:
 8505 01fa 0246     		mov	r2, r0
 8506 01fc 0B46     		mov	r3, r1
ARM GAS  C:\Users\USUARIO\AppData\Local\Temp\ccWuTYF0.s 			page 176


 8507 01fe 2046     		mov	r0, r4
 8508 0200 2946     		mov	r1, r5
 8509 0202 FFF7FEFF 		bl	__aeabi_dcmpgt
 8510              	.LVL946:
 8511 0206 48B3     		cbz	r0, .L638
1444:funciones.c   ****                 if(Temperatura>Setpoint+0.8){
 8512              		.loc 1 1444 0
 8513 0208 21A3     		adr	r3, .L640+8
 8514 020a D3E90023 		ldrd	r2, [r3]
 8515 020e 3046     		mov	r0, r6
 8516 0210 3946     		mov	r1, r7
 8517 0212 FFF7FEFF 		bl	__aeabi_dadd
 8518              	.LVL947:
 8519 0216 0246     		mov	r2, r0
 8520 0218 0B46     		mov	r3, r1
 8521 021a 2046     		mov	r0, r4
 8522 021c 2946     		mov	r1, r5
 8523 021e FFF7FEFF 		bl	__aeabi_dcmpgt
 8524              	.LVL948:
 8525 0222 80B1     		cbz	r0, .L624
1445:funciones.c   ****                     Enfria=1;
 8526              		.loc 1 1445 0
 8527 0224 0122     		movs	r2, #1
 8528 0226 244B     		ldr	r3, .L640+48
 8529 0228 1A80     		strh	r2, [r3]	@ movhi
1446:funciones.c   ****                     Ganancia=GananciaR*(Setpoint/200);
 8530              		.loc 1 1446 0
 8531 022a 1F49     		ldr	r1, .L640+32
 8532 022c 5046     		mov	r0, r10
 8533 022e FFF7FEFF 		bl	__aeabi_fdiv
 8534              	.LVL949:
 8535 0232 0446     		mov	r4, r0
 8536 0234 1E4B     		ldr	r3, .L640+40
 8537 0236 1878     		ldrb	r0, [r3]	@ zero_extendqisi2
 8538 0238 FFF7FEFF 		bl	__aeabi_i2f
 8539              	.LVL950:
 8540 023c 2146     		mov	r1, r4
 8541 023e FFF7FEFF 		bl	__aeabi_fmul
 8542              	.LVL951:
 8543 0242 1C4B     		ldr	r3, .L640+44
 8544 0244 1860     		str	r0, [r3]	@ float
 8545              	.L624:
1447:funciones.c   ****                 }
1448:funciones.c   ****                 //SSR_Write(0);
1449:funciones.c   ****                 PWM_WriteCompare1(0);
 8546              		.loc 1 1449 0
 8547 0246 0020     		movs	r0, #0
 8548 0248 FFF7FEFF 		bl	PWM_WriteCompare1
 8549              	.LVL952:
1450:funciones.c   ****                 PWM_WriteCompare2(0);
 8550              		.loc 1 1450 0
 8551 024c 0020     		movs	r0, #0
 8552 024e FFF7FEFF 		bl	PWM_WriteCompare2
 8553              	.LVL953:
1451:funciones.c   ****                 Control=0;
 8554              		.loc 1 1451 0
 8555 0252 0022     		movs	r2, #0
ARM GAS  C:\Users\USUARIO\AppData\Local\Temp\ccWuTYF0.s 			page 177


 8556 0254 134B     		ldr	r3, .L640+28
 8557 0256 1A80     		strh	r2, [r3]	@ movhi
 8558 0258 BDE8F087 		pop	{r4, r5, r6, r7, r8, r9, r10, pc}
 8559              	.L638:
1452:funciones.c   ****             }else if(Temperatura<Setpoint-1.0){
 8560              		.loc 1 1452 0
 8561 025c 4246     		mov	r2, r8
 8562 025e 4B46     		mov	r3, r9
 8563 0260 2046     		mov	r0, r4
 8564 0262 2946     		mov	r1, r5
 8565 0264 FFF7FEFF 		bl	__aeabi_dcmplt
 8566              	.LVL954:
 8567 0268 50B1     		cbz	r0, .L603
1453:funciones.c   ****                 flag_tiempocalentamiento=1;
 8568              		.loc 1 1453 0
 8569 026a 0122     		movs	r2, #1
 8570 026c 174B     		ldr	r3, .L640+68
 8571 026e 1A80     		strh	r2, [r3]	@ movhi
1454:funciones.c   ****                 escribeDisplay1("statusT.txt=\"Calentando\"");
 8572              		.loc 1 1454 0
 8573 0270 1A48     		ldr	r0, .L640+84
 8574 0272 FFF7FEFF 		bl	escribeDisplay1
 8575              	.LVL955:
1455:funciones.c   ****                 //tiempo_esterilizacion=0;
1456:funciones.c   ****                 flagTemperatura=OFF;
 8576              		.loc 1 1456 0
 8577 0276 0022     		movs	r2, #0
 8578 0278 134B     		ldr	r3, .L640+64
 8579 027a 1A80     		strh	r2, [r3]	@ movhi
1457:funciones.c   ****                 Controla();
 8580              		.loc 1 1457 0
 8581 027c FFF7FEFF 		bl	Controla
 8582              	.LVL956:
 8583              	.L603:
 8584 0280 BDE8F087 		pop	{r4, r5, r6, r7, r8, r9, r10, pc}
 8585              	.L641:
 8586 0284 AFF30080 		.align	3
 8587              	.L640:
 8588 0288 33333333 		.word	858993459
 8589 028c 3333E33F 		.word	1071854387
 8590 0290 9A999999 		.word	-1717986918
 8591 0294 9999E93F 		.word	1072273817
 8592 0298 00000000 		.word	Temperatura
 8593 029c 0000A042 		.word	1117782016
 8594 02a0 F0000000 		.word	.LC9
 8595 02a4 00000000 		.word	Control
 8596 02a8 00004843 		.word	1128792064
 8597 02ac 00000000 		.word	Setpoint
 8598 02b0 00000000 		.word	GananciaR
 8599 02b4 00000000 		.word	Ganancia
 8600 02b8 00000000 		.word	Enfria
 8601 02bc 0000E03F 		.word	1071644672
 8602 02c0 0C010000 		.word	.LC10
 8603 02c4 00000000 		.word	Infinito
 8604 02c8 00000000 		.word	flagTemperatura
 8605 02cc 00000000 		.word	flag_tiempocalentamiento
 8606 02d0 4C000000 		.word	.LC3
ARM GAS  C:\Users\USUARIO\AppData\Local\Temp\ccWuTYF0.s 			page 178


 8607 02d4 0000F03F 		.word	1072693248
 8608 02d8 28010000 		.word	.LC11
 8609 02dc 7C000000 		.word	.LC5
 8610              		.cfi_endproc
 8611              	.LFE89:
 8612              		.size	controlaTemperatura, .-controlaTemperatura
 8613              		.section	.text.actualizaEjeX,"ax",%progbits
 8614              		.align	2
 8615              		.global	actualizaEjeX
 8616              		.thumb
 8617              		.thumb_func
 8618              		.type	actualizaEjeX, %function
 8619              	actualizaEjeX:
 8620              	.LFB90:
1458:funciones.c   ****             }
1459:funciones.c   ****         }
1460:funciones.c   ****     }
1461:funciones.c   **** }
1462:funciones.c   **** 
1463:funciones.c   **** void actualizaEjeX(){
 8621              		.loc 1 1463 0
 8622              		.cfi_startproc
 8623              		@ args = 0, pretend = 0, frame = 0
 8624              		@ frame_needed = 0, uses_anonymous_args = 0
 8625 0000 2DE97043 		push	{r4, r5, r6, r8, r9, lr}
 8626              		.cfi_def_cfa_offset 24
 8627              		.cfi_offset 4, -24
 8628              		.cfi_offset 5, -20
 8629              		.cfi_offset 6, -16
 8630              		.cfi_offset 8, -12
 8631              		.cfi_offset 9, -8
 8632              		.cfi_offset 14, -4
 8633 0004 82B0     		sub	sp, sp, #8
 8634              		.cfi_def_cfa_offset 32
1464:funciones.c   ****     for(i=0;i<20;i++){//for dedicado a actualizar el label del eje x
 8635              		.loc 1 1464 0
 8636 0006 0022     		movs	r2, #0
 8637 0008 354B     		ldr	r3, .L648+8
 8638 000a 1A70     		strb	r2, [r3]
 8639 000c 5CE0     		b	.L643
 8640              	.L646:
1465:funciones.c   ****         horaGrafica[i]=graph[0].Hora+((uint16)(tmuestreoUSB*40*(uint16)i)/3600);
 8641              		.loc 1 1465 0
 8642 000e 3549     		ldr	r1, .L648+12
 8643 0010 0D7A     		ldrb	r5, [r1, #8]	@ zero_extendqisi2
 8644 0012 354B     		ldr	r3, .L648+16
 8645 0014 1878     		ldrb	r0, [r3]	@ zero_extendqisi2
 8646 0016 00FB04F2 		mul	r2, r0, r4
 8647 001a 02EB8202 		add	r2, r2, r2, lsl #2
 8648 001e D300     		lsls	r3, r2, #3
 8649 0020 9BB2     		uxth	r3, r3
 8650 0022 324A     		ldr	r2, .L648+20
 8651 0024 A2FB0323 		umull	r2, r3, r2, r3
 8652 0028 05EBD323 		add	r3, r5, r3, lsr #11
 8653 002c DDB2     		uxtb	r5, r3
 8654 002e 304B     		ldr	r3, .L648+24
 8655 0030 1D55     		strb	r5, [r3, r4]
ARM GAS  C:\Users\USUARIO\AppData\Local\Temp\ccWuTYF0.s 			page 179


1466:funciones.c   ****         minutoGrafica[i]=graph[0].Minuto+(uint8)(60.0*extraeDecimal2(((float)tmuestreoUSB*40.0*(flo
 8656              		.loc 1 1466 0
 8657 0032 4E7A     		ldrb	r6, [r1, #9]	@ zero_extendqisi2
 8658 0034 FFF7FEFF 		bl	__aeabi_ui2f
 8659              	.LVL957:
 8660 0038 FFF7FEFF 		bl	__aeabi_f2d
 8661              	.LVL958:
 8662 003c 0022     		movs	r2, #0
 8663 003e 2D4B     		ldr	r3, .L648+28
 8664 0040 FFF7FEFF 		bl	__aeabi_dmul
 8665              	.LVL959:
 8666 0044 8046     		mov	r8, r0
 8667 0046 8946     		mov	r9, r1
 8668 0048 2046     		mov	r0, r4
 8669 004a FFF7FEFF 		bl	__aeabi_ui2f
 8670              	.LVL960:
 8671 004e FFF7FEFF 		bl	__aeabi_f2d
 8672              	.LVL961:
 8673 0052 4246     		mov	r2, r8
 8674 0054 4B46     		mov	r3, r9
 8675 0056 FFF7FEFF 		bl	__aeabi_dmul
 8676              	.LVL962:
 8677 005a 1FA3     		adr	r3, .L648
 8678 005c D3E90023 		ldrd	r2, [r3]
 8679 0060 FFF7FEFF 		bl	__aeabi_ddiv
 8680              	.LVL963:
 8681 0064 FFF7FEFF 		bl	__aeabi_d2f
 8682              	.LVL964:
 8683 0068 FFF7FEFF 		bl	extraeDecimal2
 8684              	.LVL965:
 8685 006c FFF7FEFF 		bl	__aeabi_f2d
 8686              	.LVL966:
 8687 0070 0022     		movs	r2, #0
 8688 0072 214B     		ldr	r3, .L648+32
 8689 0074 FFF7FEFF 		bl	__aeabi_dmul
 8690              	.LVL967:
 8691 0078 FFF7FEFF 		bl	__aeabi_d2uiz
 8692              	.LVL968:
 8693 007c C0B2     		uxtb	r0, r0
 8694 007e 3044     		add	r0, r0, r6
 8695 0080 C0B2     		uxtb	r0, r0
 8696 0082 1E4B     		ldr	r3, .L648+36
 8697 0084 1855     		strb	r0, [r3, r4]
1467:funciones.c   ****         if(horaGrafica[i]>=24)
 8698              		.loc 1 1467 0
 8699 0086 172D     		cmp	r5, #23
 8700 0088 02D9     		bls	.L644
1468:funciones.c   ****             horaGrafica[i]=horaGrafica[i]-24;
 8701              		.loc 1 1468 0
 8702 008a 183D     		subs	r5, r5, #24
 8703 008c 184B     		ldr	r3, .L648+24
 8704 008e 1D55     		strb	r5, [r3, r4]
 8705              	.L644:
1469:funciones.c   ****         if(minutoGrafica[i]>=60){
 8706              		.loc 1 1469 0
 8707 0090 3B28     		cmp	r0, #59
 8708 0092 06D9     		bls	.L645
ARM GAS  C:\Users\USUARIO\AppData\Local\Temp\ccWuTYF0.s 			page 180


1470:funciones.c   ****             minutoGrafica[i]=minutoGrafica[i]-60;
 8709              		.loc 1 1470 0
 8710 0094 3C38     		subs	r0, r0, #60
 8711 0096 194B     		ldr	r3, .L648+36
 8712 0098 1855     		strb	r0, [r3, r4]
1471:funciones.c   ****             horaGrafica[i]++;
 8713              		.loc 1 1471 0
 8714 009a 154A     		ldr	r2, .L648+24
 8715 009c 135D     		ldrb	r3, [r2, r4]	@ zero_extendqisi2
 8716 009e 0133     		adds	r3, r3, #1
 8717 00a0 1355     		strb	r3, [r2, r4]
 8718              	.L645:
1472:funciones.c   ****         }
1473:funciones.c   ****         sprintf(displayStr,"t%u.txt=\"%02u:%02u\"",i+11,horaGrafica[i],minutoGrafica[i]); 
 8719              		.loc 1 1473 0 discriminator 2
 8720 00a2 134B     		ldr	r3, .L648+24
 8721 00a4 1B5D     		ldrb	r3, [r3, r4]	@ zero_extendqisi2
 8722 00a6 154A     		ldr	r2, .L648+36
 8723 00a8 125D     		ldrb	r2, [r2, r4]	@ zero_extendqisi2
 8724 00aa 154D     		ldr	r5, .L648+40
 8725 00ac 0092     		str	r2, [sp]
 8726 00ae 04F10B02 		add	r2, r4, #11
 8727 00b2 1449     		ldr	r1, .L648+44
 8728 00b4 2846     		mov	r0, r5
 8729 00b6 FFF7FEFF 		bl	sprintf
 8730              	.LVL969:
1474:funciones.c   ****         escribeDisplay2(displayStr);
 8731              		.loc 1 1474 0 discriminator 2
 8732 00ba 2846     		mov	r0, r5
 8733 00bc FFF7FEFF 		bl	escribeDisplay2
 8734              	.LVL970:
1464:funciones.c   ****         horaGrafica[i]=graph[0].Hora+((uint16)(tmuestreoUSB*40*(uint16)i)/3600);
 8735              		.loc 1 1464 0 discriminator 2
 8736 00c0 074A     		ldr	r2, .L648+8
 8737 00c2 1378     		ldrb	r3, [r2]	@ zero_extendqisi2
 8738 00c4 0133     		adds	r3, r3, #1
 8739 00c6 1370     		strb	r3, [r2]
 8740              	.L643:
1464:funciones.c   ****         horaGrafica[i]=graph[0].Hora+((uint16)(tmuestreoUSB*40*(uint16)i)/3600);
 8741              		.loc 1 1464 0 is_stmt 0 discriminator 1
 8742 00c8 054B     		ldr	r3, .L648+8
 8743 00ca 1C78     		ldrb	r4, [r3]	@ zero_extendqisi2
 8744 00cc 132C     		cmp	r4, #19
 8745 00ce 9ED9     		bls	.L646
1475:funciones.c   ****      }   
1476:funciones.c   **** }
 8746              		.loc 1 1476 0 is_stmt 1
 8747 00d0 02B0     		add	sp, sp, #8
 8748              		.cfi_def_cfa_offset 24
 8749              		@ sp needed
 8750 00d2 BDE87083 		pop	{r4, r5, r6, r8, r9, pc}
 8751              	.L649:
 8752 00d6 00BF     		.align	3
 8753              	.L648:
 8754 00d8 00000000 		.word	0
 8755 00dc 0020AC40 		.word	1085022208
 8756 00e0 00000000 		.word	i
ARM GAS  C:\Users\USUARIO\AppData\Local\Temp\ccWuTYF0.s 			page 181


 8757 00e4 00000000 		.word	graph
 8758 00e8 00000000 		.word	tmuestreoUSB
 8759 00ec C5B3A291 		.word	-1851608123
 8760 00f0 00000000 		.word	horaGrafica
 8761 00f4 00004440 		.word	1078198272
 8762 00f8 00004E40 		.word	1078853632
 8763 00fc 00000000 		.word	minutoGrafica
 8764 0100 00000000 		.word	displayStr
 8765 0104 44010000 		.word	.LC12
 8766              		.cfi_endproc
 8767              	.LFE90:
 8768              		.size	actualizaEjeX, .-actualizaEjeX
 8769              		.section	.text.borraVector,"ax",%progbits
 8770              		.align	2
 8771              		.global	borraVector
 8772              		.thumb
 8773              		.thumb_func
 8774              		.type	borraVector, %function
 8775              	borraVector:
 8776              	.LFB91:
1477:funciones.c   **** 
1478:funciones.c   **** void borraVector(){
 8777              		.loc 1 1478 0
 8778              		.cfi_startproc
 8779              		@ args = 0, pretend = 0, frame = 0
 8780              		@ frame_needed = 0, uses_anonymous_args = 0
 8781              		@ link register save eliminated.
 8782 0000 30B4     		push	{r4, r5}
 8783              		.cfi_def_cfa_offset 8
 8784              		.cfi_offset 4, -8
 8785              		.cfi_offset 5, -4
1479:funciones.c   ****     for(data2=0;data2<800;data2++){
 8786              		.loc 1 1479 0
 8787 0002 0022     		movs	r2, #0
 8788 0004 114B     		ldr	r3, .L654
 8789 0006 5A84     		strh	r2, [r3, #34]	@ movhi
 8790 0008 0DE0     		b	.L651
 8791              	.L652:
1480:funciones.c   ****         graph[data2].Temperatura=0.0;   
 8792              		.loc 1 1480 0 discriminator 3
 8793 000a 1148     		ldr	r0, .L654+4
 8794 000c 5A00     		lsls	r2, r3, #1
 8795 000e D418     		adds	r4, r2, r3
 8796 0010 A100     		lsls	r1, r4, #2
 8797 0012 4518     		adds	r5, r0, r1
 8798 0014 0024     		movs	r4, #0
 8799 0016 4450     		str	r4, [r0, r1]	@ float
1481:funciones.c   ****         graph[data2].Humedad=0.0;
 8800              		.loc 1 1481 0 discriminator 3
 8801 0018 6C60     		str	r4, [r5, #4]	@ float
1482:funciones.c   ****         graph[data2].Hora=0.0;
 8802              		.loc 1 1482 0 discriminator 3
 8803 001a 0024     		movs	r4, #0
 8804 001c 2C72     		strb	r4, [r5, #8]
1483:funciones.c   ****         graph[data2].Minuto=0.0;
 8805              		.loc 1 1483 0 discriminator 3
 8806 001e 6C72     		strb	r4, [r5, #9]
ARM GAS  C:\Users\USUARIO\AppData\Local\Temp\ccWuTYF0.s 			page 182


1479:funciones.c   ****         graph[data2].Temperatura=0.0;   
 8807              		.loc 1 1479 0 discriminator 3
 8808 0020 0133     		adds	r3, r3, #1
 8809 0022 0A4A     		ldr	r2, .L654
 8810 0024 5384     		strh	r3, [r2, #34]	@ movhi
 8811              	.L651:
1479:funciones.c   ****         graph[data2].Temperatura=0.0;   
 8812              		.loc 1 1479 0 is_stmt 0 discriminator 1
 8813 0026 094B     		ldr	r3, .L654
 8814 0028 5B8C     		ldrh	r3, [r3, #34]
 8815 002a B3F5487F 		cmp	r3, #800
 8816 002e ECD3     		bcc	.L652
1484:funciones.c   ****     }
1485:funciones.c   ****     data=0;
 8817              		.loc 1 1485 0 is_stmt 1
 8818 0030 064B     		ldr	r3, .L654
 8819 0032 0022     		movs	r2, #0
 8820 0034 9A84     		strh	r2, [r3, #36]	@ movhi
1486:funciones.c   ****     datacount=0;
 8821              		.loc 1 1486 0
 8822 0036 DA84     		strh	r2, [r3, #38]	@ movhi
1487:funciones.c   ****     graph[0].Minuto=Minuto;
 8823              		.loc 1 1487 0
 8824 0038 054B     		ldr	r3, .L654+4
 8825 003a 064A     		ldr	r2, .L654+8
 8826 003c 1278     		ldrb	r2, [r2]	@ zero_extendqisi2
 8827 003e 5A72     		strb	r2, [r3, #9]
1488:funciones.c   ****     graph[0].Hora=Hora;
 8828              		.loc 1 1488 0
 8829 0040 054A     		ldr	r2, .L654+12
 8830 0042 1278     		ldrb	r2, [r2]	@ zero_extendqisi2
 8831 0044 1A72     		strb	r2, [r3, #8]
1489:funciones.c   **** }
 8832              		.loc 1 1489 0
 8833 0046 30BC     		pop	{r4, r5}
 8834              		.cfi_restore 5
 8835              		.cfi_restore 4
 8836              		.cfi_def_cfa_offset 0
 8837 0048 7047     		bx	lr
 8838              	.L655:
 8839 004a 00BF     		.align	2
 8840              	.L654:
 8841 004c 00000000 		.word	.LANCHOR0
 8842 0050 00000000 		.word	graph
 8843 0054 00000000 		.word	Minuto
 8844 0058 00000000 		.word	Hora
 8845              		.cfi_endproc
 8846              	.LFE91:
 8847              		.size	borraVector, .-borraVector
 8848              		.section	.text.dataUSB,"ax",%progbits
 8849              		.align	2
 8850              		.global	dataUSB
 8851              		.thumb
 8852              		.thumb_func
 8853              		.type	dataUSB, %function
 8854              	dataUSB:
 8855              	.LFB92:
ARM GAS  C:\Users\USUARIO\AppData\Local\Temp\ccWuTYF0.s 			page 183


1490:funciones.c   **** 
1491:funciones.c   **** void dataUSB(){
 8856              		.loc 1 1491 0
 8857              		.cfi_startproc
 8858              		@ args = 0, pretend = 0, frame = 0
 8859              		@ frame_needed = 0, uses_anonymous_args = 0
 8860 0000 F0B5     		push	{r4, r5, r6, r7, lr}
 8861              		.cfi_def_cfa_offset 20
 8862              		.cfi_offset 4, -20
 8863              		.cfi_offset 5, -16
 8864              		.cfi_offset 6, -12
 8865              		.cfi_offset 7, -8
 8866              		.cfi_offset 14, -4
 8867 0002 8BB0     		sub	sp, sp, #44
 8868              		.cfi_def_cfa_offset 64
1492:funciones.c   ****     //USB----------------------------------------------------------------
1493:funciones.c   ****         /* Wait for Device to enumerate */
1494:funciones.c   ****         if(USBUART_GetConfiguration()){
 8869              		.loc 1 1494 0
 8870 0004 FFF7FEFF 		bl	USBUART_GetConfiguration
 8871              	.LVL971:
 8872 0008 40B1     		cbz	r0, .L657
1495:funciones.c   ****             if(!flagusb){
 8873              		.loc 1 1495 0
 8874 000a 934B     		ldr	r3, .L676
 8875 000c B3F90030 		ldrsh	r3, [r3]
 8876 0010 23B9     		cbnz	r3, .L657
1496:funciones.c   ****                 USBUART_CDC_Init();
 8877              		.loc 1 1496 0
 8878 0012 FFF7FEFF 		bl	USBUART_CDC_Init
 8879              	.LVL972:
1497:funciones.c   ****                 flagusb=ON;
 8880              		.loc 1 1497 0
 8881 0016 0122     		movs	r2, #1
 8882 0018 8F4B     		ldr	r3, .L676
 8883 001a 1A80     		strh	r2, [r3]	@ movhi
 8884              	.L657:
1498:funciones.c   ****             }
1499:funciones.c   ****         }
1500:funciones.c   ****         
1501:funciones.c   ****         if(envioUSB){
 8885              		.loc 1 1501 0
 8886 001c 8F4B     		ldr	r3, .L676+4
 8887 001e B3F90030 		ldrsh	r3, [r3]
 8888 0022 002B     		cmp	r3, #0
 8889 0024 00F06F81 		beq	.L656
1502:funciones.c   ****             envioUSB=0;
 8890              		.loc 1 1502 0
 8891 0028 0022     		movs	r2, #0
 8892 002a 8C4B     		ldr	r3, .L676+4
 8893 002c 1A80     		strh	r2, [r3]	@ movhi
1503:funciones.c   ****             tDisplayHumedad++;
 8894              		.loc 1 1503 0
 8895 002e 8C4A     		ldr	r2, .L676+8
 8896 0030 138D     		ldrh	r3, [r2, #40]
 8897 0032 0133     		adds	r3, r3, #1
 8898 0034 9BB2     		uxth	r3, r3
ARM GAS  C:\Users\USUARIO\AppData\Local\Temp\ccWuTYF0.s 			page 184


 8899 0036 1385     		strh	r3, [r2, #40]	@ movhi
1504:funciones.c   ****             if(tDisplayHumedad>=tDisplay){
 8900              		.loc 1 1504 0
 8901 0038 1279     		ldrb	r2, [r2, #4]	@ zero_extendqisi2
 8902 003a 9342     		cmp	r3, r2
 8903 003c 10D3     		bcc	.L659
1505:funciones.c   ****                 humedadDisplay=(minH+maxH)/2;  
 8904              		.loc 1 1505 0
 8905 003e 884C     		ldr	r4, .L676+8
 8906 0040 216B     		ldr	r1, [r4, #48]	@ float
 8907 0042 E06A     		ldr	r0, [r4, #44]	@ float
 8908 0044 FFF7FEFF 		bl	__aeabi_fadd
 8909              	.LVL973:
 8910 0048 4FF07C51 		mov	r1, #1056964608
 8911 004c FFF7FEFF 		bl	__aeabi_fmul
 8912              	.LVL974:
 8913 0050 6063     		str	r0, [r4, #52]	@ float
1506:funciones.c   ****                 minH=Humedad;
 8914              		.loc 1 1506 0
 8915 0052 844B     		ldr	r3, .L676+12
 8916 0054 1B68     		ldr	r3, [r3]	@ float
 8917 0056 E362     		str	r3, [r4, #44]	@ float
1507:funciones.c   ****                 maxH=Humedad;
 8918              		.loc 1 1507 0
 8919 0058 2363     		str	r3, [r4, #48]	@ float
1508:funciones.c   ****                 tDisplayHumedad=0;
 8920              		.loc 1 1508 0
 8921 005a 0023     		movs	r3, #0
 8922 005c 2385     		strh	r3, [r4, #40]	@ movhi
 8923 005e 11E0     		b	.L660
 8924              	.L659:
1509:funciones.c   ****             }else{
1510:funciones.c   ****                 if(Humedad<minH)
 8925              		.loc 1 1510 0
 8926 0060 804B     		ldr	r3, .L676+12
 8927 0062 1C68     		ldr	r4, [r3]	@ float
 8928 0064 7E4B     		ldr	r3, .L676+8
 8929 0066 D96A     		ldr	r1, [r3, #44]	@ float
 8930 0068 2046     		mov	r0, r4
 8931 006a FFF7FEFF 		bl	__aeabi_fcmplt
 8932              	.LVL975:
 8933 006e 08B1     		cbz	r0, .L661
1511:funciones.c   ****                     minH=Humedad;
 8934              		.loc 1 1511 0
 8935 0070 7B4B     		ldr	r3, .L676+8
 8936 0072 DC62     		str	r4, [r3, #44]	@ float
 8937              	.L661:
1512:funciones.c   ****                 if(Humedad>maxH)
 8938              		.loc 1 1512 0
 8939 0074 7A4B     		ldr	r3, .L676+8
 8940 0076 196B     		ldr	r1, [r3, #48]	@ float
 8941 0078 2046     		mov	r0, r4
 8942 007a FFF7FEFF 		bl	__aeabi_fcmpgt
 8943              	.LVL976:
 8944 007e 08B1     		cbz	r0, .L660
1513:funciones.c   ****                     maxH=Humedad;
 8945              		.loc 1 1513 0
ARM GAS  C:\Users\USUARIO\AppData\Local\Temp\ccWuTYF0.s 			page 185


 8946 0080 774B     		ldr	r3, .L676+8
 8947 0082 1C63     		str	r4, [r3, #48]	@ float
 8948              	.L660:
1514:funciones.c   ****             }
1515:funciones.c   ****             tEnvioUSB++;
 8949              		.loc 1 1515 0
 8950 0084 784A     		ldr	r2, .L676+16
 8951 0086 1378     		ldrb	r3, [r2]	@ zero_extendqisi2
 8952 0088 0133     		adds	r3, r3, #1
 8953 008a DBB2     		uxtb	r3, r3
 8954 008c 1370     		strb	r3, [r2]
1516:funciones.c   ****             if(tEnvioUSB>=tmuestreoUSB){
 8955              		.loc 1 1516 0
 8956 008e 774A     		ldr	r2, .L676+20
 8957 0090 1278     		ldrb	r2, [r2]	@ zero_extendqisi2
 8958 0092 9342     		cmp	r3, r2
 8959 0094 C0F03781 		bcc	.L656
1517:funciones.c   ****                 tEnvioUSB=0;
 8960              		.loc 1 1517 0
 8961 0098 0022     		movs	r2, #0
 8962 009a 734B     		ldr	r3, .L676+16
 8963 009c 1A70     		strb	r2, [r3]
1518:funciones.c   ****                 grafica=ON;
 8964              		.loc 1 1518 0
 8965 009e 0122     		movs	r2, #1
 8966 00a0 734B     		ldr	r3, .L676+24
 8967 00a2 1A80     		strh	r2, [r3]	@ movhi
1519:funciones.c   ****                 graph[data].Temperatura=Temperatura;
 8968              		.loc 1 1519 0
 8969 00a4 6E4D     		ldr	r5, .L676+8
 8970 00a6 AB8C     		ldrh	r3, [r5, #36]
 8971 00a8 7248     		ldr	r0, .L676+28
 8972 00aa 03FA02F2 		lsl	r2, r3, r2
 8973 00ae D418     		adds	r4, r2, r3
 8974 00b0 A100     		lsls	r1, r4, #2
 8975 00b2 4418     		adds	r4, r0, r1
 8976 00b4 704E     		ldr	r6, .L676+32
 8977 00b6 3668     		ldr	r6, [r6]	@ float
 8978 00b8 4650     		str	r6, [r0, r1]	@ float
1520:funciones.c   ****                 //graph[data].Humedad=Humedad;
1521:funciones.c   ****                 graph[data].Humedad=humedadDisplay;
 8979              		.loc 1 1521 0
 8980 00ba 696B     		ldr	r1, [r5, #52]	@ float
 8981 00bc 6160     		str	r1, [r4, #4]	@ float
1522:funciones.c   ****                 graph[data].Hora=Hora;
 8982              		.loc 1 1522 0
 8983 00be 6F49     		ldr	r1, .L676+36
 8984 00c0 0978     		ldrb	r1, [r1]	@ zero_extendqisi2
 8985 00c2 2172     		strb	r1, [r4, #8]
1523:funciones.c   ****                 graph[data].Minuto=Minuto;
 8986              		.loc 1 1523 0
 8987 00c4 6E4A     		ldr	r2, .L676+40
 8988 00c6 1278     		ldrb	r2, [r2]	@ zero_extendqisi2
 8989 00c8 6272     		strb	r2, [r4, #9]
1524:funciones.c   ****                 if(data<760)
 8990              		.loc 1 1524 0
 8991 00ca B3F53E7F 		cmp	r3, #760
ARM GAS  C:\Users\USUARIO\AppData\Local\Temp\ccWuTYF0.s 			page 186


 8992 00ce 02D2     		bcs	.L664
1525:funciones.c   ****                     data++;
 8993              		.loc 1 1525 0
 8994 00d0 0133     		adds	r3, r3, #1
 8995 00d2 AB84     		strh	r3, [r5, #36]	@ movhi
 8996 00d4 2BE0     		b	.L665
 8997              	.L664:
1526:funciones.c   ****                 else{
1527:funciones.c   ****                     if(datacount>=40){
 8998              		.loc 1 1527 0
 8999 00d6 624B     		ldr	r3, .L676+8
 9000 00d8 DB8C     		ldrh	r3, [r3, #38]
 9001 00da 272B     		cmp	r3, #39
 9002 00dc 05D9     		bls	.L666
1528:funciones.c   ****                         actualizaNumeracion=ON;
 9003              		.loc 1 1528 0
 9004 00de 0122     		movs	r2, #1
 9005 00e0 684B     		ldr	r3, .L676+44
 9006 00e2 1A80     		strh	r2, [r3]	@ movhi
1529:funciones.c   ****                         datacount=0;
 9007              		.loc 1 1529 0
 9008 00e4 0022     		movs	r2, #0
 9009 00e6 5E4B     		ldr	r3, .L676+8
 9010 00e8 DA84     		strh	r2, [r3, #38]	@ movhi
 9011              	.L666:
1530:funciones.c   ****                     }
1531:funciones.c   ****                     datacount++;
 9012              		.loc 1 1531 0
 9013 00ea 5D4B     		ldr	r3, .L676+8
 9014 00ec DA8C     		ldrh	r2, [r3, #38]
 9015 00ee 0132     		adds	r2, r2, #1
 9016 00f0 DA84     		strh	r2, [r3, #38]	@ movhi
1532:funciones.c   ****                     for(data2=0;data2<760;data2++){
 9017              		.loc 1 1532 0
 9018 00f2 0022     		movs	r2, #0
 9019 00f4 5A84     		strh	r2, [r3, #34]	@ movhi
 9020 00f6 15E0     		b	.L667
 9021              	.L668:
1533:funciones.c   ****                         graph[data2].Temperatura=graph[data2+1].Temperatura;
 9022              		.loc 1 1533 0 discriminator 3
 9023 00f8 541C     		adds	r4, r2, #1
 9024 00fa 5E4B     		ldr	r3, .L676+28
 9025 00fc 6000     		lsls	r0, r4, #1
 9026 00fe 0519     		adds	r5, r0, r4
 9027 0100 A900     		lsls	r1, r5, #2
 9028 0102 5F18     		adds	r7, r3, r1
 9029 0104 53F801E0 		ldr	lr, [r3, r1]	@ float
 9030 0108 5100     		lsls	r1, r2, #1
 9031 010a 8E18     		adds	r6, r1, r2
 9032 010c B500     		lsls	r5, r6, #2
 9033 010e 5E19     		adds	r6, r3, r5
 9034 0110 43F805E0 		str	lr, [r3, r5]	@ float
1534:funciones.c   ****                         graph[data2].Humedad=graph[data2+1].Humedad;
 9035              		.loc 1 1534 0 discriminator 3
 9036 0114 7D68     		ldr	r5, [r7, #4]	@ float
 9037 0116 7560     		str	r5, [r6, #4]	@ float
1535:funciones.c   ****                         graph[data2].Hora=graph[data2+1].Hora;
ARM GAS  C:\Users\USUARIO\AppData\Local\Temp\ccWuTYF0.s 			page 187


 9038              		.loc 1 1535 0 discriminator 3
 9039 0118 3D7A     		ldrb	r5, [r7, #8]	@ zero_extendqisi2
 9040 011a 3572     		strb	r5, [r6, #8]
1536:funciones.c   ****                         graph[data2].Minuto=graph[data2+1].Minuto;
 9041              		.loc 1 1536 0 discriminator 3
 9042 011c 787A     		ldrb	r0, [r7, #9]	@ zero_extendqisi2
 9043 011e 7072     		strb	r0, [r6, #9]
1532:funciones.c   ****                         graph[data2].Temperatura=graph[data2+1].Temperatura;
 9044              		.loc 1 1532 0 discriminator 3
 9045 0120 4F4B     		ldr	r3, .L676+8
 9046 0122 5C84     		strh	r4, [r3, #34]	@ movhi
 9047              	.L667:
1532:funciones.c   ****                         graph[data2].Temperatura=graph[data2+1].Temperatura;
 9048              		.loc 1 1532 0 is_stmt 0 discriminator 1
 9049 0124 4E4B     		ldr	r3, .L676+8
 9050 0126 5A8C     		ldrh	r2, [r3, #34]
 9051 0128 B2F53E7F 		cmp	r2, #760
 9052 012c E4D3     		bcc	.L668
 9053              	.L665:
1537:funciones.c   ****                     }
1538:funciones.c   ****                 }
1539:funciones.c   ****                 if(flagusb){
 9054              		.loc 1 1539 0 is_stmt 1
 9055 012e 4A4B     		ldr	r3, .L676
 9056 0130 B3F90030 		ldrsh	r3, [r3]
 9057 0134 002B     		cmp	r3, #0
 9058 0136 00F0E680 		beq	.L656
1540:funciones.c   ****                     //fecha.txt=\"Fecha:%02u/%02u/20%02u    Hora: %02u:%02u:%02u\"",Dia,Mes,Year,Ho
1541:funciones.c   ****                     if(rtdRes[0]>80000 && rtdRes[1]>80000){
 9059              		.loc 1 1541 0
 9060 013a 534B     		ldr	r3, .L676+48
 9061 013c 1B68     		ldr	r3, [r3]
 9062 013e 534A     		ldr	r2, .L676+52
 9063 0140 9342     		cmp	r3, r2
 9064 0142 2FDD     		ble	.L669
 9065              		.loc 1 1541 0 is_stmt 0 discriminator 1
 9066 0144 504A     		ldr	r2, .L676+48
 9067 0146 5168     		ldr	r1, [r2, #4]
 9068 0148 504A     		ldr	r2, .L676+52
 9069 014a 9142     		cmp	r1, r2
 9070 014c 2ADD     		ble	.L669
1542:funciones.c   ****                         sprintf(displayStr, "T:%1.1fC -- T2:%1.1fC -- HR:%1.1f %02u/%02u/20%02u
 9071              		.loc 1 1542 0 is_stmt 1
 9072 014e 4A4B     		ldr	r3, .L676+32
 9073 0150 1868     		ldr	r0, [r3]	@ float
 9074 0152 FFF7FEFF 		bl	__aeabi_f2d
 9075              	.LVL977:
 9076 0156 0446     		mov	r4, r0
 9077 0158 0D46     		mov	r5, r1
 9078 015a 4D4B     		ldr	r3, .L676+56
 9079 015c 1B78     		ldrb	r3, [r3]	@ zero_extendqisi2
 9080 015e 0993     		str	r3, [sp, #36]
 9081 0160 474B     		ldr	r3, .L676+40
 9082 0162 1B78     		ldrb	r3, [r3]	@ zero_extendqisi2
 9083 0164 0893     		str	r3, [sp, #32]
 9084 0166 454B     		ldr	r3, .L676+36
 9085 0168 1B78     		ldrb	r3, [r3]	@ zero_extendqisi2
ARM GAS  C:\Users\USUARIO\AppData\Local\Temp\ccWuTYF0.s 			page 188


 9086 016a 0793     		str	r3, [sp, #28]
 9087 016c 494B     		ldr	r3, .L676+60
 9088 016e 1B78     		ldrb	r3, [r3]	@ zero_extendqisi2
 9089 0170 0693     		str	r3, [sp, #24]
 9090 0172 494B     		ldr	r3, .L676+64
 9091 0174 1B78     		ldrb	r3, [r3]	@ zero_extendqisi2
 9092 0176 0593     		str	r3, [sp, #20]
 9093 0178 484B     		ldr	r3, .L676+68
 9094 017a 1B78     		ldrb	r3, [r3]	@ zero_extendqisi2
 9095 017c 0493     		str	r3, [sp, #16]
 9096 017e 394B     		ldr	r3, .L676+12
 9097 0180 1868     		ldr	r0, [r3]	@ float
 9098 0182 FFF7FEFF 		bl	__aeabi_f2d
 9099              	.LVL978:
 9100 0186 CDE90201 		strd	r0, [sp, #8]
 9101 018a 454B     		ldr	r3, .L676+72
 9102 018c 1868     		ldr	r0, [r3]	@ float
 9103 018e FFF7FEFF 		bl	__aeabi_f2d
 9104              	.LVL979:
 9105 0192 CDE90001 		strd	r0, [sp]
 9106 0196 2246     		mov	r2, r4
 9107 0198 2B46     		mov	r3, r5
 9108 019a 4249     		ldr	r1, .L676+76
 9109 019c 4248     		ldr	r0, .L676+80
 9110 019e FFF7FEFF 		bl	sprintf
 9111              	.LVL980:
 9112 01a2 ADE0     		b	.L670
 9113              	.L669:
1543:funciones.c   ****                     }else if(rtdRes[0]<80000 && rtdRes[1]>80000){
 9114              		.loc 1 1543 0
 9115 01a4 414A     		ldr	r2, .L676+84
 9116 01a6 9342     		cmp	r3, r2
 9117 01a8 29DC     		bgt	.L671
 9118              		.loc 1 1543 0 is_stmt 0 discriminator 1
 9119 01aa 374A     		ldr	r2, .L676+48
 9120 01ac 5168     		ldr	r1, [r2, #4]
 9121 01ae 374A     		ldr	r2, .L676+52
 9122 01b0 9142     		cmp	r1, r2
 9123 01b2 24DD     		ble	.L671
1544:funciones.c   ****                         sprintf(displayStr, "T:----- T2:%1.1fC -- HR:%1.1f %02u/%02u/20%02u %02u:
 9124              		.loc 1 1544 0 is_stmt 1
 9125 01b4 3A4B     		ldr	r3, .L676+72
 9126 01b6 1868     		ldr	r0, [r3]	@ float
 9127 01b8 FFF7FEFF 		bl	__aeabi_f2d
 9128              	.LVL981:
 9129 01bc 0446     		mov	r4, r0
 9130 01be 0D46     		mov	r5, r1
 9131 01c0 334B     		ldr	r3, .L676+56
 9132 01c2 1B78     		ldrb	r3, [r3]	@ zero_extendqisi2
 9133 01c4 0793     		str	r3, [sp, #28]
 9134 01c6 2E4B     		ldr	r3, .L676+40
 9135 01c8 1B78     		ldrb	r3, [r3]	@ zero_extendqisi2
 9136 01ca 0693     		str	r3, [sp, #24]
 9137 01cc 2B4B     		ldr	r3, .L676+36
 9138 01ce 1B78     		ldrb	r3, [r3]	@ zero_extendqisi2
 9139 01d0 0593     		str	r3, [sp, #20]
 9140 01d2 304B     		ldr	r3, .L676+60
ARM GAS  C:\Users\USUARIO\AppData\Local\Temp\ccWuTYF0.s 			page 189


 9141 01d4 1B78     		ldrb	r3, [r3]	@ zero_extendqisi2
 9142 01d6 0493     		str	r3, [sp, #16]
 9143 01d8 2F4B     		ldr	r3, .L676+64
 9144 01da 1B78     		ldrb	r3, [r3]	@ zero_extendqisi2
 9145 01dc 0393     		str	r3, [sp, #12]
 9146 01de 2F4B     		ldr	r3, .L676+68
 9147 01e0 1B78     		ldrb	r3, [r3]	@ zero_extendqisi2
 9148 01e2 0293     		str	r3, [sp, #8]
 9149 01e4 1F4B     		ldr	r3, .L676+12
 9150 01e6 1868     		ldr	r0, [r3]	@ float
 9151 01e8 FFF7FEFF 		bl	__aeabi_f2d
 9152              	.LVL982:
 9153 01ec CDE90001 		strd	r0, [sp]
 9154 01f0 2246     		mov	r2, r4
 9155 01f2 2B46     		mov	r3, r5
 9156 01f4 2E49     		ldr	r1, .L676+88
 9157 01f6 2C48     		ldr	r0, .L676+80
 9158 01f8 FFF7FEFF 		bl	sprintf
 9159              	.LVL983:
 9160 01fc 80E0     		b	.L670
 9161              	.L671:
1545:funciones.c   ****                     }else if(rtdRes[0]>80000 && rtdRes[1]<80000){
 9162              		.loc 1 1545 0
 9163 01fe 234A     		ldr	r2, .L676+52
 9164 0200 9342     		cmp	r3, r2
 9165 0202 59DD     		ble	.L672
 9166              		.loc 1 1545 0 is_stmt 0 discriminator 1
 9167 0204 204A     		ldr	r2, .L676+48
 9168 0206 5168     		ldr	r1, [r2, #4]
 9169 0208 284A     		ldr	r2, .L676+84
 9170 020a 9142     		cmp	r1, r2
 9171 020c 54DC     		bgt	.L672
1546:funciones.c   ****                         sprintf(displayStr, "T:%1.1fC T2:---- -- HR:%1.1f %02u/%02u/20%02u %02u:%
 9172              		.loc 1 1546 0 is_stmt 1
 9173 020e 1A4B     		ldr	r3, .L676+32
 9174 0210 1868     		ldr	r0, [r3]	@ float
 9175 0212 FFF7FEFF 		bl	__aeabi_f2d
 9176              	.LVL984:
 9177 0216 0446     		mov	r4, r0
 9178 0218 0D46     		mov	r5, r1
 9179 021a 1D4B     		ldr	r3, .L676+56
 9180 021c 1B78     		ldrb	r3, [r3]	@ zero_extendqisi2
 9181 021e 0793     		str	r3, [sp, #28]
 9182 0220 174B     		ldr	r3, .L676+40
 9183 0222 1B78     		ldrb	r3, [r3]	@ zero_extendqisi2
 9184 0224 0693     		str	r3, [sp, #24]
 9185 0226 154B     		ldr	r3, .L676+36
 9186 0228 1B78     		ldrb	r3, [r3]	@ zero_extendqisi2
 9187 022a 0593     		str	r3, [sp, #20]
 9188 022c 194B     		ldr	r3, .L676+60
 9189 022e 1B78     		ldrb	r3, [r3]	@ zero_extendqisi2
 9190 0230 0493     		str	r3, [sp, #16]
 9191 0232 194B     		ldr	r3, .L676+64
 9192 0234 1B78     		ldrb	r3, [r3]	@ zero_extendqisi2
 9193 0236 0393     		str	r3, [sp, #12]
 9194 0238 184B     		ldr	r3, .L676+68
 9195 023a 1B78     		ldrb	r3, [r3]	@ zero_extendqisi2
ARM GAS  C:\Users\USUARIO\AppData\Local\Temp\ccWuTYF0.s 			page 190


 9196 023c 0293     		str	r3, [sp, #8]
 9197 023e 094B     		ldr	r3, .L676+12
 9198 0240 1868     		ldr	r0, [r3]	@ float
 9199 0242 FFF7FEFF 		bl	__aeabi_f2d
 9200              	.LVL985:
 9201 0246 CDE90001 		strd	r0, [sp]
 9202 024a 2246     		mov	r2, r4
 9203 024c 2B46     		mov	r3, r5
 9204 024e 1949     		ldr	r1, .L676+92
 9205 0250 1548     		ldr	r0, .L676+80
 9206 0252 FFF7FEFF 		bl	sprintf
 9207              	.LVL986:
 9208 0256 53E0     		b	.L670
 9209              	.L677:
 9210              		.align	2
 9211              	.L676:
 9212 0258 00000000 		.word	flagusb
 9213 025c 00000000 		.word	envioUSB
 9214 0260 00000000 		.word	.LANCHOR0
 9215 0264 00000000 		.word	Humedad
 9216 0268 00000000 		.word	tEnvioUSB
 9217 026c 00000000 		.word	tmuestreoUSB
 9218 0270 00000000 		.word	grafica
 9219 0274 00000000 		.word	graph
 9220 0278 00000000 		.word	Temperatura
 9221 027c 00000000 		.word	Hora
 9222 0280 00000000 		.word	Minuto
 9223 0284 00000000 		.word	actualizaNumeracion
 9224 0288 00000000 		.word	rtdRes
 9225 028c 80380100 		.word	80000
 9226 0290 00000000 		.word	Segundo
 9227 0294 00000000 		.word	Year
 9228 0298 00000000 		.word	Mes
 9229 029c 00000000 		.word	Dia
 9230 02a0 00000000 		.word	Temperatura2
 9231 02a4 58010000 		.word	.LC13
 9232 02a8 00000000 		.word	displayStr
 9233 02ac 7F380100 		.word	79999
 9234 02b0 A0010000 		.word	.LC14
 9235 02b4 E4010000 		.word	.LC15
 9236              	.L672:
1547:funciones.c   ****                     }else if(rtdRes[0]<80000 && rtdRes[1]<80000){
 9237              		.loc 1 1547 0
 9238 02b8 144A     		ldr	r2, .L678
 9239 02ba 9342     		cmp	r3, r2
 9240 02bc 20DC     		bgt	.L670
 9241              		.loc 1 1547 0 is_stmt 0 discriminator 1
 9242 02be 144B     		ldr	r3, .L678+4
 9243 02c0 5A68     		ldr	r2, [r3, #4]
 9244 02c2 124B     		ldr	r3, .L678
 9245 02c4 9A42     		cmp	r2, r3
 9246 02c6 1BDC     		bgt	.L670
1548:funciones.c   ****                         sprintf(displayStr, "T:---- T2:----  -- HR:%1.1f  %02u/%02u/20%02u %02u:%02
 9247              		.loc 1 1548 0 is_stmt 1
 9248 02c8 124B     		ldr	r3, .L678+8
 9249 02ca 1868     		ldr	r0, [r3]	@ float
 9250 02cc FFF7FEFF 		bl	__aeabi_f2d
ARM GAS  C:\Users\USUARIO\AppData\Local\Temp\ccWuTYF0.s 			page 191


 9251              	.LVL987:
 9252 02d0 114B     		ldr	r3, .L678+12
 9253 02d2 1B78     		ldrb	r3, [r3]	@ zero_extendqisi2
 9254 02d4 0593     		str	r3, [sp, #20]
 9255 02d6 114B     		ldr	r3, .L678+16
 9256 02d8 1B78     		ldrb	r3, [r3]	@ zero_extendqisi2
 9257 02da 0493     		str	r3, [sp, #16]
 9258 02dc 104B     		ldr	r3, .L678+20
 9259 02de 1B78     		ldrb	r3, [r3]	@ zero_extendqisi2
 9260 02e0 0393     		str	r3, [sp, #12]
 9261 02e2 104B     		ldr	r3, .L678+24
 9262 02e4 1B78     		ldrb	r3, [r3]	@ zero_extendqisi2
 9263 02e6 0293     		str	r3, [sp, #8]
 9264 02e8 0F4B     		ldr	r3, .L678+28
 9265 02ea 1B78     		ldrb	r3, [r3]	@ zero_extendqisi2
 9266 02ec 0193     		str	r3, [sp, #4]
 9267 02ee 0F4B     		ldr	r3, .L678+32
 9268 02f0 1B78     		ldrb	r3, [r3]	@ zero_extendqisi2
 9269 02f2 0093     		str	r3, [sp]
 9270 02f4 0246     		mov	r2, r0
 9271 02f6 0B46     		mov	r3, r1
 9272 02f8 0D49     		ldr	r1, .L678+36
 9273 02fa 0E48     		ldr	r0, .L678+40
 9274 02fc FFF7FEFF 		bl	sprintf
 9275              	.LVL988:
 9276              	.L670:
1549:funciones.c   ****                     }
1550:funciones.c   ****                     USBUART_PutString(displayStr);
 9277              		.loc 1 1550 0
 9278 0300 0C48     		ldr	r0, .L678+40
 9279 0302 FFF7FEFF 		bl	USBUART_PutString
 9280              	.LVL989:
 9281              	.L656:
1551:funciones.c   ****                 }
1552:funciones.c   ****             }
1553:funciones.c   ****         }
1554:funciones.c   **** //USB----------------------------------------------------------------        
1555:funciones.c   **** }    
 9282              		.loc 1 1555 0
 9283 0306 0BB0     		add	sp, sp, #44
 9284              		.cfi_def_cfa_offset 20
 9285              		@ sp needed
 9286 0308 F0BD     		pop	{r4, r5, r6, r7, pc}
 9287              	.L679:
 9288 030a 00BF     		.align	2
 9289              	.L678:
 9290 030c 7F380100 		.word	79999
 9291 0310 00000000 		.word	rtdRes
 9292 0314 00000000 		.word	Humedad
 9293 0318 00000000 		.word	Segundo
 9294 031c 00000000 		.word	Minuto
 9295 0320 00000000 		.word	Hora
 9296 0324 00000000 		.word	Year
 9297 0328 00000000 		.word	Mes
 9298 032c 00000000 		.word	Dia
 9299 0330 28020000 		.word	.LC16
 9300 0334 00000000 		.word	displayStr
ARM GAS  C:\Users\USUARIO\AppData\Local\Temp\ccWuTYF0.s 			page 192


 9301              		.cfi_endproc
 9302              	.LFE92:
 9303              		.size	dataUSB, .-dataUSB
 9304              		.section	.text.dataEthernet,"ax",%progbits
 9305              		.align	2
 9306              		.global	dataEthernet
 9307              		.thumb
 9308              		.thumb_func
 9309              		.type	dataEthernet, %function
 9310              	dataEthernet:
 9311              	.LFB93:
1556:funciones.c   **** void dataEthernet(){
 9312              		.loc 1 1556 0
 9313              		.cfi_startproc
 9314              		@ args = 0, pretend = 0, frame = 0
 9315              		@ frame_needed = 0, uses_anonymous_args = 0
 9316 0000 70B5     		push	{r4, r5, r6, lr}
 9317              		.cfi_def_cfa_offset 16
 9318              		.cfi_offset 4, -16
 9319              		.cfi_offset 5, -12
 9320              		.cfi_offset 6, -8
 9321              		.cfi_offset 14, -4
1557:funciones.c   **** //Etherneth----------------------------------------------------------------
1558:funciones.c   ****         socket = ETH0_TcpOpen( 80 );
 9322              		.loc 1 1558 0
 9323 0002 5020     		movs	r0, #80
 9324 0004 FFF7FEFF 		bl	ETH0_TcpOpen
 9325              	.LVL990:
 9326 0008 1D4B     		ldr	r3, .L687
 9327 000a 1870     		strb	r0, [r3]
1559:funciones.c   ****         if(socket!=0xff){
 9328              		.loc 1 1559 0
 9329 000c FF28     		cmp	r0, #255
 9330 000e 35D0     		beq	.L680
1560:funciones.c   ****             ETH0_TcpStartServer( socket );
 9331              		.loc 1 1560 0
 9332 0010 FFF7FEFF 		bl	ETH0_TcpStartServer
 9333              	.LVL991:
1561:funciones.c   ****             // Start a server listening for connection on an open socket 
1562:funciones.c   ****             for(contador=0;contador<20000;contador++){ 
 9334              		.loc 1 1562 0
 9335 0014 0022     		movs	r2, #0
 9336 0016 1B4B     		ldr	r3, .L687+4
 9337 0018 1A80     		strh	r2, [r3]	@ movhi
 9338 001a 0CE0     		b	.L682
 9339              	.L685:
1563:funciones.c   ****                 if( ETH0_TcpConnected( socket ) ) {
 9340              		.loc 1 1563 0
 9341 001c 184B     		ldr	r3, .L687
 9342 001e 1878     		ldrb	r0, [r3]	@ zero_extendqisi2
 9343 0020 FFF7FEFF 		bl	ETH0_TcpConnected
 9344              	.LVL992:
 9345 0024 18B1     		cbz	r0, .L683
1564:funciones.c   ****                     CyDelay(50);
 9346              		.loc 1 1564 0
 9347 0026 3220     		movs	r0, #50
 9348 0028 FFF7FEFF 		bl	CyDelay
ARM GAS  C:\Users\USUARIO\AppData\Local\Temp\ccWuTYF0.s 			page 193


 9349              	.LVL993:
1565:funciones.c   ****                     break;
 9350              		.loc 1 1565 0
 9351 002c 09E0     		b	.L684
 9352              	.L683:
1562:funciones.c   ****                 if( ETH0_TcpConnected( socket ) ) {
 9353              		.loc 1 1562 0 discriminator 2
 9354 002e 154A     		ldr	r2, .L687+4
 9355 0030 1388     		ldrh	r3, [r2]
 9356 0032 0133     		adds	r3, r3, #1
 9357 0034 1380     		strh	r3, [r2]	@ movhi
 9358              	.L682:
1562:funciones.c   ****                 if( ETH0_TcpConnected( socket ) ) {
 9359              		.loc 1 1562 0 is_stmt 0 discriminator 1
 9360 0036 134B     		ldr	r3, .L687+4
 9361 0038 1A88     		ldrh	r2, [r3]
 9362 003a 44F61F63 		movw	r3, #19999
 9363 003e 9A42     		cmp	r2, r3
 9364 0040 ECD9     		bls	.L685
 9365              	.L684:
1566:funciones.c   ****                 }
1567:funciones.c   ****             }  	               
1568:funciones.c   ****             bytes = ETH0_SocketRxDataWaiting(socket);		
 9366              		.loc 1 1568 0 is_stmt 1
 9367 0042 0F4C     		ldr	r4, .L687
 9368 0044 2078     		ldrb	r0, [r4]	@ zero_extendqisi2
 9369 0046 FFF7FEFF 		bl	ETH0_SocketRxDataWaiting
 9370              	.LVL994:
 9371 004a 0646     		mov	r6, r0
 9372 004c 0E4B     		ldr	r3, .L687+8
 9373 004e 1860     		str	r0, [r3]
1569:funciones.c   ****     
1570:funciones.c   ****             memset(webbuff, 0,  2000);
 9374              		.loc 1 1570 0
 9375 0050 0E4D     		ldr	r5, .L687+12
 9376 0052 4FF4FA62 		mov	r2, #2000
 9377 0056 0021     		movs	r1, #0
 9378 0058 2846     		mov	r0, r5
 9379 005a FFF7FEFF 		bl	memset
 9380              	.LVL995:
1571:funciones.c   ****             ETH0_TcpReceive(socket,(uint8*)&webbuff[0],bytes);	// put the request from the browser 
 9381              		.loc 1 1571 0
 9382 005e 3246     		mov	r2, r6
 9383 0060 2946     		mov	r1, r5
 9384 0062 2078     		ldrb	r0, [r4]	@ zero_extendqisi2
 9385 0064 FFF7FEFF 		bl	ETH0_TcpReceive
 9386              	.LVL996:
1572:funciones.c   ****     
1573:funciones.c   ****             webif_data(socket, webbuff );						// Processing browser  requests
 9387              		.loc 1 1573 0
 9388 0068 2946     		mov	r1, r5
 9389 006a 2078     		ldrb	r0, [r4]	@ zero_extendqisi2
 9390 006c FFF7FEFF 		bl	webif_data
 9391              	.LVL997:
1574:funciones.c   ****             
1575:funciones.c   ****             ETH0_TcpDisconnect( socket );
 9392              		.loc 1 1575 0
ARM GAS  C:\Users\USUARIO\AppData\Local\Temp\ccWuTYF0.s 			page 194


 9393 0070 2078     		ldrb	r0, [r4]	@ zero_extendqisi2
 9394 0072 FFF7FEFF 		bl	ETH0_TcpDisconnect
 9395              	.LVL998:
1576:funciones.c   ****             ETH0_SocketClose( socket );
 9396              		.loc 1 1576 0
 9397 0076 2078     		ldrb	r0, [r4]	@ zero_extendqisi2
 9398 0078 FFF7FEFF 		bl	ETH0_SocketClose
 9399              	.LVL999:
 9400              	.L680:
 9401 007c 70BD     		pop	{r4, r5, r6, pc}
 9402              	.L688:
 9403 007e 00BF     		.align	2
 9404              	.L687:
 9405 0080 00000000 		.word	socket
 9406 0084 00000000 		.word	contador
 9407 0088 00000000 		.word	bytes
 9408 008c 00000000 		.word	webbuff
 9409              		.cfi_endproc
 9410              	.LFE93:
 9411              		.size	dataEthernet, .-dataEthernet
 9412              		.comm	promediolm35,80,4
 9413              		.comm	promedioT2,360,4
 9414              		.comm	promedioT1,360,4
 9415              		.comm	promedio2,80,4
 9416              		.comm	controlR,1,1
 9417              		.comm	controlT,1,1
 9418              		.comm	controlH,1,1
 9419              		.comm	tmuestreoUSB_ant,1,1
 9420              		.comm	tmuestreoUSB,1,1
 9421              		.comm	tEnvioUSB,1,1
 9422              		.comm	kk,1,1
 9423              		.comm	k,1,1
 9424              		.comm	h2,1,1
 9425              		.comm	l2,1,1
 9426              		.comm	presionHorno,4,4
 9427              		.comm	Temporal,4,4
 9428              		.comm	presion,4,4
 9429              		.comm	tmp,4,4
 9430              		.comm	lm35,4,4
 9431              		.comm	presmV,2,2
 9432              		.comm	adcReading,2,2
 9433              		.comm	fracTemp,8,4
 9434              		.comm	decTemphf,2,2
 9435              		.comm	decTemplf,2,2
 9436              		.comm	decTemp,8,4
 9437              		.comm	hh,1,1
 9438              		.comm	ll,1,1
 9439              		.comm	entero,1,1
 9440              		.comm	filt,4,4
 9441              		.comm	vRef,4,4
 9442              		.comm	rtdTemp,8,4
 9443              		.comm	rtdRes,8,4
 9444              		.global	dowTx
 9445              		.global	MinutoTx
 9446              		.global	HoraTx
 9447              		.global	DiaTx
 9448              		.global	MesTx
ARM GAS  C:\Users\USUARIO\AppData\Local\Temp\ccWuTYF0.s 			page 195


 9449              		.global	YearTx
 9450              		.comm	Temperature,4,4
 9451              		.comm	V1,4,4
 9452              		.comm	V0,4,4
 9453              		.comm	Prom2,4,4
 9454              		.comm	Prom,4,4
 9455              		.comm	result,2,2
 9456              		.comm	GananciaR,1,1
 9457              		.global	dataReady
 9458              		.comm	tPregunta,2,2
 9459              		.comm	TiempoRampa,2,2
 9460              		.comm	Tiempo,2,2
 9461              		.comm	HorasActual,2,2
 9462              		.comm	MinutosActual,2,2
 9463              		.comm	TiempoActual,2,2
 9464              		.comm	Tpulsomin2,4,4
 9465              		.comm	Tpulsomin,4,4
 9466              		.comm	TpulsoMax2,4,4
 9467              		.comm	TpulsoMax,4,4
 9468              		.comm	Potencia,4,4
 9469              		.comm	error,4,4
 9470              		.global	penMufla
 9471              		.comm	penInicial,4,4
 9472              		.comm	Tpulso,4,4
 9473              		.comm	PotenciaEntregada,4,4
 9474              		.comm	TemperaturaIdeal,4,4
 9475              		.comm	Pendiente,4,4
 9476              		.comm	TempeInicial,4,4
 9477              		.comm	DifPendiente,4,4
 9478              		.comm	PendienteActual,4,4
 9479              		.comm	Aumento,4,4
 9480              		.comm	Temperatura2,4,4
 9481              		.comm	Temperatura,4,4
 9482              		.global	X
 9483              		.comm	Pausa,2,2
 9484              		.comm	flag_clear,2,2
 9485              		.comm	flag_ganancia,2,2
 9486              		.comm	flag_clear2,2,2
 9487              		.comm	Controlando,2,2
 9488              		.comm	flagControlH,2,2
 9489              		.comm	flagControlT,2,2
 9490              		.comm	Infinito,2,2
 9491              		.comm	imprime,2,2
 9492              		.comm	grafica,2,2
 9493              		.comm	conteoPregunta,2,2
 9494              		.comm	Finalizo,2,2
 9495              		.comm	flag_ajuste2,2,2
 9496              		.comm	flag_ajuste,2,2
 9497              		.comm	dehumidificador,2,2
 9498              		.comm	flagusb,2,2
 9499              		.comm	flag_calcula,2,2
 9500              		.comm	flagRampa,2,2
 9501              		.comm	flagdn,2,2
 9502              		.comm	flagup,2,2
 9503              		.comm	Lectura,2,2
 9504              		.comm	flag_tiempocalentamiento,2,2
 9505              		.comm	flag_setpoint,2,2
ARM GAS  C:\Users\USUARIO\AppData\Local\Temp\ccWuTYF0.s 			page 196


 9506              		.comm	Lectura2,2,2
 9507              		.comm	mensaje,2,2
 9508              		.comm	tiempodn,2,2
 9509              		.comm	tiempoup,2,2
 9510              		.comm	tiempocalentamiento,2,2
 9511              		.comm	tinicio,2,2
 9512              		.comm	tiemposetpoint,2,2
 9513              		.comm	tiemporecta,2,2
 9514              		.comm	TiempoControl,2,2
 9515              		.comm	tiemporeset,2,2
 9516              		.comm	conteo,1,1
 9517              		.comm	Segmento,1,1
 9518              		.comm	mEstpAnt,1,1
 9519              		.comm	hEstpAnt,1,1
 9520              		.comm	mEstp,1,1
 9521              		.comm	hEstp,1,1
 9522              		.comm	mEst,1,1
 9523              		.comm	hEst,1,1
 9524              		.comm	y,1,1
 9525              		.comm	tiempo_esterilizacion,1,1
 9526              		.comm	Password,4,4
 9527              		.global	flagRed
 9528              		.comm	envioUSB,2,2
 9529              		.comm	flagVelocidad,2,2
 9530              		.comm	Enfria,2,2
 9531              		.comm	flagVacio,2,2
 9532              		.comm	Succion,2,2
 9533              		.comm	x100,2,2
 9534              		.comm	x10,2,2
 9535              		.comm	x1,2,2
 9536              		.comm	flagTemperatura,2,2
 9537              		.comm	Horas,2,2
 9538              		.comm	Minutos,2,2
 9539              		.comm	rampa,2,2
 9540              		.comm	GuardaEEPROM,2,2
 9541              		.comm	entro,2,2
 9542              		.comm	EstadoPaso,2,2
 9543              		.comm	Inicio2,2,2
 9544              		.comm	Inicio,2,2
 9545              		.comm	dow,1,1
 9546              		.comm	Segundo,1,1
 9547              		.comm	Minuto,1,1
 9548              		.comm	Hora,1,1
 9549              		.comm	Year,1,1
 9550              		.comm	Mes,1,1
 9551              		.comm	Dia,1,1
 9552              		.comm	l,1,1
 9553              		.comm	h,1,1
 9554              		.comm	Opcion,1,1
 9555              		.comm	CicloLibre,1,1
 9556              		.comm	Segmentos,1,1
 9557              		.comm	TipoClave,1,1
 9558              		.comm	z,1,1
 9559              		.comm	MenuAntt2,1,1
 9560              		.comm	Menu2,1,1
 9561              		.comm	MenuAnt,1,1
 9562              		.comm	MenuAntt,1,1
ARM GAS  C:\Users\USUARIO\AppData\Local\Temp\ccWuTYF0.s 			page 197


 9563              		.comm	Menu,1,1
 9564              		.comm	Dato_Exitoso2,1,1
 9565              		.comm	Dato_Exitoso,1,1
 9566              		.comm	Dato3,1,1
 9567              		.comm	Dato2,1,1
 9568              		.global	pwm1
 9569              		.comm	i2cbuf,4,4
 9570              		.global	RX_Counter2
 9571              		.global	RX_Rd_Index2
 9572              		.global	RX_Wr_Index2
 9573              		.comm	Rx_Buffer4,11,4
 9574              		.comm	Rx_Buffer3,11,4
 9575              		.global	RX_Counter
 9576              		.global	RX_Rd_Index
 9577              		.global	RX_Wr_Index
 9578              		.comm	Rx_Buffer2,11,4
 9579              		.comm	Rx_Buffer,11,4
 9580              		.comm	Temperature2,4,4
 9581              		.comm	pwmPeltier,4,4
 9582              		.comm	vacio,4,4
 9583              		.comm	GananciaIn,4,4
 9584              		.comm	Ganancia,4,4
 9585              		.comm	pendiente,4,4
 9586              		.comm	valor,4,4
 9587              		.comm	inicioControlH,2,2
 9588              		.comm	inicioControlT,2,2
 9589              		.comm	estadoCR3,2,2
 9590              		.comm	estadoCR2,2,2
 9591              		.comm	flagFinalizo,2,2
 9592              		.comm	estadoCR1,2,2
 9593              		.comm	estadoBuzzer,2,2
 9594              		.comm	estadoSSR,2,2
 9595              		.comm	flagBorrado,2,2
 9596              		.comm	pulsoDisminuir,2,2
 9597              		.comm	pulsoAumentar,2,2
 9598              		.comm	dibujo,2,2
 9599              		.comm	flagButton3,2,2
 9600              		.comm	flagButton2,2,2
 9601              		.comm	flagButton1,2,2
 9602              		.comm	flagButton0,2,2
 9603              		.comm	tGrafica,4,4
 9604              		.comm	output,4,4
 9605              		.comm	SetpointAnt,4,4
 9606              		.comm	Setpoint,4,4
 9607              		.comm	contador,2,2
 9608              		.comm	derivativo_ant,2,2
 9609              		.comm	SetpointHAnt,2,2
 9610              		.comm	SetpointH,2,2
 9611              		.comm	ctr,2,2
 9612              		.comm	Ajusto,1,1
 9613              		.comm	Modulo,1,1
 9614              		.comm	Ajusten2,1,1
 9615              		.comm	Ajuste2,1,1
 9616              		.comm	Ajusten,1,1
 9617              		.comm	Ajuste,1,1
 9618              		.comm	Tciclo,1,1
 9619              		.comm	MediaMovil2,1,1
ARM GAS  C:\Users\USUARIO\AppData\Local\Temp\ccWuTYF0.s 			page 198


 9620              		.comm	MediaMovil,1,1
 9621              		.comm	Integral,1,1
 9622              		.comm	Derivativo,1,1
 9623              		.comm	Opcion2,1,1
 9624              		.comm	Programa,1,1
 9625              		.comm	PantallaPrincipal,1,1
 9626              		.comm	n,1,1
 9627              		.comm	i,1,1
 9628              		.global	first
 9629              		.comm	Str2,100,4
 9630              		.comm	Str,100,4
 9631              		.comm	displayStr,100,4
 9632              		.comm	tcTemp,4,4
 9633              		.comm	tcuVolt,4,4
 9634              		.comm	tcHotJnuVolt,4,4
 9635              		.comm	filHotJnCount,4,4
 9636              		.comm	hotJnCount,4,4
 9637              		.comm	tcColdJnuVolt,4,4
 9638              		.comm	coldJnTemp,2,2
 9639              		.comm	offset,2,2
 9640              		.comm	promedioTa,320,4
 9641              		.comm	promedioH,320,4
 9642              		.global	maxH
 9643              		.global	minH
 9644              		.global	humedadDisplay
 9645              		.comm	Humedad,4,4
 9646              		.comm	Tam,4,4
 9647              		.comm	RH2,4,4
 9648              		.global	tDisplayHumedad
 9649              		.global	tSobrepaso
 9650              		.global	tCongela
 9651              		.global	tDefrost
 9652              		.global	tlevelH
 9653              		.global	tlevel
 9654              		.global	pwm2
 9655              		.global	datacount
 9656              		.global	data2
 9657              		.global	data
 9658              		.comm	tllenado,2,2
 9659              		.comm	thumidificador,2,2
 9660              		.comm	tdehumidificador,2,2
 9661              		.global	tDisplay
 9662              		.comm	T3,1,1
 9663              		.comm	T2,1,1
 9664              		.comm	T1,1,1
 9665              		.comm	T3Humedad,1,1
 9666              		.comm	T2Humedad,1,1
 9667              		.comm	T1Humedad,1,1
 9668              		.comm	f,1,1
 9669              		.global	flagSobrepasoHumedad
 9670              		.global	desconectoHumedad
 9671              		.global	desconectoTemperatura
 9672              		.global	humidificador
 9673              		.global	flagHumedad
 9674              		.global	Humidificar
 9675              		.comm	prueba,80,4
 9676              		.global	Bisiesto
ARM GAS  C:\Users\USUARIO\AppData\Local\Temp\ccWuTYF0.s 			page 199


 9677              		.global	Regular
 9678              		.comm	calib,144,4
 9679              		.comm	graph,9600,4
 9680              		.comm	rampas,240,4
 9681              		.data
 9682              		.align	2
 9683              		.set	.LANCHOR1,. + 0
 9684              		.type	penMufla, %object
 9685              		.size	penMufla, 4
 9686              	penMufla:
 9687 0000 0000803F 		.word	1065353216
 9688              		.type	Bisiesto, %object
 9689              		.size	Bisiesto, 12
 9690              	Bisiesto:
 9691 0004 00       		.byte	0
 9692 0005 03       		.byte	3
 9693 0006 04       		.byte	4
 9694 0007 00       		.byte	0
 9695 0008 02       		.byte	2
 9696 0009 05       		.byte	5
 9697 000a 00       		.byte	0
 9698 000b 03       		.byte	3
 9699 000c 06       		.byte	6
 9700 000d 01       		.byte	1
 9701 000e 04       		.byte	4
 9702 000f 06       		.byte	6
 9703              		.type	Regular, %object
 9704              		.size	Regular, 12
 9705              	Regular:
 9706 0010 00       		.byte	0
 9707 0011 03       		.byte	3
 9708 0012 03       		.byte	3
 9709 0013 06       		.byte	6
 9710 0014 01       		.byte	1
 9711 0015 04       		.byte	4
 9712 0016 06       		.byte	6
 9713 0017 02       		.byte	2
 9714 0018 05       		.byte	5
 9715 0019 00       		.byte	0
 9716 001a 03       		.byte	3
 9717 001b 05       		.byte	5
 9718              		.section	.rodata.str1.4,"aMS",%progbits,1
 9719              		.align	2
 9720              	.LC0:
 9721 0000 73746174 		.ascii	"statusT.txt=\"Controlando\"\000"
 9721      7573542E 
 9721      7478743D 
 9721      22436F6E 
 9721      74726F6C 
 9722 001a 0000     		.space	2
 9723              	.LC1:
 9724 001c 73746174 		.ascii	"statusT.txt=\"Meseta\"\000"
 9724      7573542E 
 9724      7478743D 
 9724      224D6573 
 9724      65746122 
 9725 0031 000000   		.space	3
ARM GAS  C:\Users\USUARIO\AppData\Local\Temp\ccWuTYF0.s 			page 200


 9726              	.LC2:
 9727 0034 73746174 		.ascii	"statusT.txt=\"Rampa -\"\000"
 9727      7573542E 
 9727      7478743D 
 9727      2252616D 
 9727      7061202D 
 9728 004a 0000     		.space	2
 9729              	.LC3:
 9730 004c 73746174 		.ascii	"statusT.txt=\"Enfriando\"\000"
 9730      7573542E 
 9730      7478743D 
 9730      22456E66 
 9730      7269616E 
 9731              	.LC4:
 9732 0064 73746174 		.ascii	"statusT.txt=\"Rampa +\"\000"
 9732      7573542E 
 9732      7478743D 
 9732      2252616D 
 9732      7061202B 
 9733 007a 0000     		.space	2
 9734              	.LC5:
 9735 007c 73746174 		.ascii	"statusT.txt=\"Calentando\"\000"
 9735      7573542E 
 9735      7478743D 
 9735      2243616C 
 9735      656E7461 
 9736 0095 000000   		.space	3
 9737              	.LC6:
 9738 0098 73746174 		.ascii	"statusH.txt=\"Humidificando\"\000"
 9738      7573482E 
 9738      7478743D 
 9738      2248756D 
 9738      69646966 
 9739              	.LC7:
 9740 00b4 73746174 		.ascii	"statusH.txt=\"Controlando\"\000"
 9740      7573482E 
 9740      7478743D 
 9740      22436F6E 
 9740      74726F6C 
 9741 00ce 0000     		.space	2
 9742              	.LC8:
 9743 00d0 73746174 		.ascii	"statusH.txt=\"Deshumidificando\"\000"
 9743      7573482E 
 9743      7478743D 
 9743      22446573 
 9743      68756D69 
 9744 00ef 00       		.space	1
 9745              	.LC9:
 9746 00f0 73746174 		.ascii	"statusT.txt=\"!Termostato!\"\000"
 9746      7573542E 
 9746      7478743D 
 9746      22215465 
 9746      726D6F73 
 9747 010b 00       		.space	1
 9748              	.LC10:
 9749 010c 73746174 		.ascii	"statusT.txt=\"Controlando -\"\000"
 9749      7573542E 
ARM GAS  C:\Users\USUARIO\AppData\Local\Temp\ccWuTYF0.s 			page 201


 9749      7478743D 
 9749      22436F6E 
 9749      74726F6C 
 9750              	.LC11:
 9751 0128 73746174 		.ascii	"statusT.txt=\"Controlando +\"\000"
 9751      7573542E 
 9751      7478743D 
 9751      22436F6E 
 9751      74726F6C 
 9752              	.LC12:
 9753 0144 7425752E 		.ascii	"t%u.txt=\"%02u:%02u\"\000"
 9753      7478743D 
 9753      22253032 
 9753      753A2530 
 9753      32752200 
 9754              	.LC13:
 9755 0158 543A2531 		.ascii	"T:%1.1f\302\260C -- T2:%1.1f\302\260C -- HR:%1.1f %"
 9755      2E3166C2 
 9755      B043202D 
 9755      2D205432 
 9755      3A25312E 
 9756 017f 3032752F 		.ascii	"02u/%02u/20%02u %02u:%02u:%02u\012\015\000"
 9756      25303275 
 9756      2F323025 
 9756      30327520 
 9756      25303275 
 9757              	.LC14:
 9758 01a0 543A2D2D 		.ascii	"T:----- T2:%1.1f\302\260C -- HR:%1.1f %02u/%02u/20%"
 9758      2D2D2D20 
 9758      54323A25 
 9758      312E3166 
 9758      C2B04320 
 9759 01cd 30327520 		.ascii	"02u %02u:%02u:%02u\012\015\000"
 9759      25303275 
 9759      3A253032 
 9759      753A2530 
 9759      32750A0D 
 9760 01e2 0000     		.space	2
 9761              	.LC15:
 9762 01e4 543A2531 		.ascii	"T:%1.1f\302\260C T2:---- -- HR:%1.1f %02u/%02u/20%0"
 9762      2E3166C2 
 9762      B0432054 
 9762      323A2D2D 
 9762      2D2D202D 
 9763 0211 32752025 		.ascii	"2u %02u:%02u:%02u\012\015\000"
 9763      3032753A 
 9763      25303275 
 9763      3A253032 
 9763      750A0D00 
 9764 0225 000000   		.space	3
 9765              	.LC16:
 9766 0228 543A2D2D 		.ascii	"T:---- T2:----  -- HR:%1.1f  %02u/%02u/20%02u %02u:"
 9766      2D2D2054 
 9766      323A2D2D 
 9766      2D2D2020 
 9766      2D2D2048 
 9767 025b 25303275 		.ascii	"%02u:%02u\012\015\000"
ARM GAS  C:\Users\USUARIO\AppData\Local\Temp\ccWuTYF0.s 			page 202


 9767      3A253032 
 9767      750A0D00 
 9768              		.bss
 9769              		.align	2
 9770              		.set	.LANCHOR0,. + 0
 9771              		.type	tDefrost, %object
 9772              		.size	tDefrost, 2
 9773              	tDefrost:
 9774 0000 0000     		.space	2
 9775              		.type	tCongela, %object
 9776              		.size	tCongela, 2
 9777              	tCongela:
 9778 0002 0000     		.space	2
 9779              		.type	tDisplay, %object
 9780              		.size	tDisplay, 1
 9781              	tDisplay:
 9782 0004 00       		.space	1
 9783 0005 000000   		.space	3
 9784              		.type	X, %object
 9785              		.size	X, 8
 9786              	X:
 9787 0008 00000000 		.space	8
 9787      00000000 
 9788              		.type	pwm1, %object
 9789              		.size	pwm1, 2
 9790              	pwm1:
 9791 0010 0000     		.space	2
 9792              		.type	flagHumedad, %object
 9793              		.size	flagHumedad, 2
 9794              	flagHumedad:
 9795 0012 0000     		.space	2
 9796              		.type	MesTx, %object
 9797              		.size	MesTx, 1
 9798              	MesTx:
 9799 0014 00       		.space	1
 9800              		.type	DiaTx, %object
 9801              		.size	DiaTx, 1
 9802              	DiaTx:
 9803 0015 00       		.space	1
 9804              		.type	YearTx, %object
 9805              		.size	YearTx, 1
 9806              	YearTx:
 9807 0016 00       		.space	1
 9808              		.type	HoraTx, %object
 9809              		.size	HoraTx, 1
 9810              	HoraTx:
 9811 0017 00       		.space	1
 9812              		.type	MinutoTx, %object
 9813              		.size	MinutoTx, 1
 9814              	MinutoTx:
 9815 0018 00       		.space	1
 9816 0019 00       		.space	1
 9817              		.type	Humidificar, %object
 9818              		.size	Humidificar, 2
 9819              	Humidificar:
 9820 001a 0000     		.space	2
 9821              		.type	flagSobrepasoHumedad, %object
ARM GAS  C:\Users\USUARIO\AppData\Local\Temp\ccWuTYF0.s 			page 203


 9822              		.size	flagSobrepasoHumedad, 2
 9823              	flagSobrepasoHumedad:
 9824 001c 0000     		.space	2
 9825              		.type	tSobrepaso, %object
 9826              		.size	tSobrepaso, 2
 9827              	tSobrepaso:
 9828 001e 0000     		.space	2
 9829              		.type	humidificador, %object
 9830              		.size	humidificador, 2
 9831              	humidificador:
 9832 0020 0000     		.space	2
 9833              		.type	data2, %object
 9834              		.size	data2, 2
 9835              	data2:
 9836 0022 0000     		.space	2
 9837              		.type	data, %object
 9838              		.size	data, 2
 9839              	data:
 9840 0024 0000     		.space	2
 9841              		.type	datacount, %object
 9842              		.size	datacount, 2
 9843              	datacount:
 9844 0026 0000     		.space	2
 9845              		.type	tDisplayHumedad, %object
 9846              		.size	tDisplayHumedad, 2
 9847              	tDisplayHumedad:
 9848 0028 0000     		.space	2
 9849 002a 0000     		.space	2
 9850              		.type	minH, %object
 9851              		.size	minH, 4
 9852              	minH:
 9853 002c 00000000 		.space	4
 9854              		.type	maxH, %object
 9855              		.size	maxH, 4
 9856              	maxH:
 9857 0030 00000000 		.space	4
 9858              		.type	humedadDisplay, %object
 9859              		.size	humedadDisplay, 4
 9860              	humedadDisplay:
 9861 0034 00000000 		.space	4
 9862              		.type	dowTx, %object
 9863              		.size	dowTx, 1
 9864              	dowTx:
 9865 0038 00       		.space	1
 9866              		.type	dataReady, %object
 9867              		.size	dataReady, 1
 9868              	dataReady:
 9869 0039 00       		.space	1
 9870              		.type	flagRed, %object
 9871              		.size	flagRed, 2
 9872              	flagRed:
 9873 003a 0000     		.space	2
 9874              		.type	RX_Counter2, %object
 9875              		.size	RX_Counter2, 1
 9876              	RX_Counter2:
 9877 003c 00       		.space	1
 9878              		.type	RX_Rd_Index2, %object
ARM GAS  C:\Users\USUARIO\AppData\Local\Temp\ccWuTYF0.s 			page 204


 9879              		.size	RX_Rd_Index2, 1
 9880              	RX_Rd_Index2:
 9881 003d 00       		.space	1
 9882              		.type	RX_Wr_Index2, %object
 9883              		.size	RX_Wr_Index2, 1
 9884              	RX_Wr_Index2:
 9885 003e 00       		.space	1
 9886              		.type	RX_Counter, %object
 9887              		.size	RX_Counter, 1
 9888              	RX_Counter:
 9889 003f 00       		.space	1
 9890              		.type	RX_Rd_Index, %object
 9891              		.size	RX_Rd_Index, 1
 9892              	RX_Rd_Index:
 9893 0040 00       		.space	1
 9894              		.type	RX_Wr_Index, %object
 9895              		.size	RX_Wr_Index, 1
 9896              	RX_Wr_Index:
 9897 0041 00       		.space	1
 9898              		.type	first, %object
 9899              		.size	first, 1
 9900              	first:
 9901 0042 00       		.space	1
 9902 0043 00       		.space	1
 9903              		.type	tlevelH, %object
 9904              		.size	tlevelH, 2
 9905              	tlevelH:
 9906 0044 0000     		.space	2
 9907              		.type	tlevel, %object
 9908              		.size	tlevel, 2
 9909              	tlevel:
 9910 0046 0000     		.space	2
 9911              		.type	pwm2, %object
 9912              		.size	pwm2, 2
 9913              	pwm2:
 9914 0048 0000     		.space	2
 9915              		.type	desconectoHumedad, %object
 9916              		.size	desconectoHumedad, 2
 9917              	desconectoHumedad:
 9918 004a 0000     		.space	2
 9919              		.type	desconectoTemperatura, %object
 9920              		.size	desconectoTemperatura, 2
 9921              	desconectoTemperatura:
 9922 004c 0000     		.space	2
 9923              		.text
 9924              	.Letext0:
 9925              		.file 2 "c:\\program files (x86)\\cypress\\psoc creator\\4.4\\psoc creator\\import\\gnu\\arm\\5.4.
 9926              		.file 3 "c:\\program files (x86)\\cypress\\psoc creator\\4.4\\psoc creator\\import\\gnu\\arm\\5.4.
 9927              		.file 4 "Generated_Source\\PSoC5/cytypes.h"
 9928              		.file 5 "funciones.h"
 9929              		.file 6 "Generated_Source\\PSoC5/core_cm3.h"
 9930              		.file 7 "Generated_Source\\PSoC5/EEPROM.h"
 9931              		.file 8 "Generated_Source\\PSoC5/CyLib.h"
 9932              		.file 9 "Generated_Source\\PSoC5/CR6.h"
 9933              		.file 10 "Generated_Source\\PSoC5/PWM.h"
 9934              		.file 11 "Generated_Source\\PSoC5/UART_1.h"
 9935              		.file 12 "Generated_Source\\PSoC5/UART_2.h"
ARM GAS  C:\Users\USUARIO\AppData\Local\Temp\ccWuTYF0.s 			page 205


 9936              		.file 13 "getResistance.h"
 9937              		.file 14 "Generated_Source\\PSoC5/RTD.h"
 9938              		.file 15 "Generated_Source\\PSoC5/ADC_SAR.h"
 9939              		.file 16 "Generated_Source\\PSoC5/BUZZER.h"
 9940              		.file 17 "Generated_Source\\PSoC5/CR1.h"
 9941              		.file 18 "Generated_Source\\PSoC5/CR2.h"
 9942              		.file 19 "Generated_Source\\PSoC5/CR3.h"
 9943              		.file 20 "Generated_Source\\PSoC5/CR4.h"
 9944              		.file 21 "Generated_Source\\PSoC5/CR5.h"
 9945              		.file 22 "Generated_Source\\PSoC5/CR7.h"
 9946              		.file 23 "Generated_Source\\PSoC5/CR8.h"
 9947              		.file 24 "Generated_Source\\PSoC5/LEVEL.h"
 9948              		.file 25 "Generated_Source\\PSoC5/TERM.h"
 9949              		.file 26 "c:\\program files (x86)\\cypress\\psoc creator\\4.4\\psoc creator\\import\\gnu\\arm\\5.4
 9950              		.file 27 "Generated_Source\\PSoC5/USBUART.h"
 9951              		.file 28 "Generated_Source\\PSoC5/USBUART_cdc.h"
 9952              		.file 29 "Generated_Source\\PSoC5/ETH0.h"
 9953              		.file 30 "MyServer.h"
 9954              		.file 31 "c:\\program files (x86)\\cypress\\psoc creator\\4.4\\psoc creator\\import\\gnu\\arm\\5.4
 9955              		.section	.debug_info,"",%progbits
 9956              	.Ldebug_info0:
 9957 0000 233B0000 		.4byte	0x3b23
 9958 0004 0400     		.2byte	0x4
 9959 0006 00000000 		.4byte	.Ldebug_abbrev0
 9960 000a 04       		.byte	0x4
 9961 000b 01       		.uleb128 0x1
 9962 000c AC020000 		.4byte	.LASF376
 9963 0010 0C       		.byte	0xc
 9964 0011 620A0000 		.4byte	.LASF377
 9965 0015 5A030000 		.4byte	.LASF378
 9966 0019 00000000 		.4byte	.Ldebug_ranges0+0
 9967 001d 00000000 		.4byte	0
 9968 0021 00000000 		.4byte	.Ldebug_line0
 9969 0025 02       		.uleb128 0x2
 9970 0026 04       		.byte	0x4
 9971 0027 04       		.byte	0x4
 9972 0028 AA0F0000 		.4byte	.LASF0
 9973 002c 02       		.uleb128 0x2
 9974 002d 01       		.byte	0x1
 9975 002e 06       		.byte	0x6
 9976 002f 2D040000 		.4byte	.LASF1
 9977 0033 03       		.uleb128 0x3
 9978 0034 D4010000 		.4byte	.LASF5
 9979 0038 02       		.byte	0x2
 9980 0039 1D       		.byte	0x1d
 9981 003a 3E000000 		.4byte	0x3e
 9982 003e 02       		.uleb128 0x2
 9983 003f 01       		.byte	0x1
 9984 0040 08       		.byte	0x8
 9985 0041 74040000 		.4byte	.LASF2
 9986 0045 02       		.uleb128 0x2
 9987 0046 02       		.byte	0x2
 9988 0047 05       		.byte	0x5
 9989 0048 A80D0000 		.4byte	.LASF3
 9990 004c 02       		.uleb128 0x2
 9991 004d 02       		.byte	0x2
 9992 004e 07       		.byte	0x7
ARM GAS  C:\Users\USUARIO\AppData\Local\Temp\ccWuTYF0.s 			page 206


 9993 004f 80020000 		.4byte	.LASF4
 9994 0053 03       		.uleb128 0x3
 9995 0054 00100000 		.4byte	.LASF6
 9996 0058 02       		.byte	0x2
 9997 0059 3F       		.byte	0x3f
 9998 005a 5E000000 		.4byte	0x5e
 9999 005e 02       		.uleb128 0x2
 10000 005f 04       		.byte	0x4
 10001 0060 05       		.byte	0x5
 10002 0061 0E020000 		.4byte	.LASF7
 10003 0065 03       		.uleb128 0x3
 10004 0066 F2070000 		.4byte	.LASF8
 10005 006a 02       		.byte	0x2
 10006 006b 41       		.byte	0x41
 10007 006c 70000000 		.4byte	0x70
 10008 0070 02       		.uleb128 0x2
 10009 0071 04       		.byte	0x4
 10010 0072 07       		.byte	0x7
 10011 0073 26070000 		.4byte	.LASF9
 10012 0077 02       		.uleb128 0x2
 10013 0078 08       		.byte	0x8
 10014 0079 05       		.byte	0x5
 10015 007a FD070000 		.4byte	.LASF10
 10016 007e 02       		.uleb128 0x2
 10017 007f 08       		.byte	0x8
 10018 0080 07       		.byte	0x7
 10019 0081 BC0B0000 		.4byte	.LASF11
 10020 0085 04       		.uleb128 0x4
 10021 0086 04       		.byte	0x4
 10022 0087 05       		.byte	0x5
 10023 0088 696E7400 		.ascii	"int\000"
 10024 008c 02       		.uleb128 0x2
 10025 008d 04       		.byte	0x4
 10026 008e 07       		.byte	0x7
 10027 008f EA080000 		.4byte	.LASF12
 10028 0093 03       		.uleb128 0x3
 10029 0094 46040000 		.4byte	.LASF13
 10030 0098 03       		.byte	0x3
 10031 0099 18       		.byte	0x18
 10032 009a 33000000 		.4byte	0x33
 10033 009e 03       		.uleb128 0x3
 10034 009f 89000000 		.4byte	.LASF14
 10035 00a3 03       		.byte	0x3
 10036 00a4 2C       		.byte	0x2c
 10037 00a5 53000000 		.4byte	0x53
 10038 00a9 03       		.uleb128 0x3
 10039 00aa DF0E0000 		.4byte	.LASF15
 10040 00ae 03       		.byte	0x3
 10041 00af 30       		.byte	0x30
 10042 00b0 65000000 		.4byte	0x65
 10043 00b4 05       		.uleb128 0x5
 10044 00b5 8D0D0000 		.4byte	.LASF16
 10045 00b9 04       		.byte	0x4
 10046 00ba 9201     		.2byte	0x192
 10047 00bc 3E000000 		.4byte	0x3e
 10048 00c0 05       		.uleb128 0x5
 10049 00c1 C0100000 		.4byte	.LASF17
ARM GAS  C:\Users\USUARIO\AppData\Local\Temp\ccWuTYF0.s 			page 207


 10050 00c5 04       		.byte	0x4
 10051 00c6 9301     		.2byte	0x193
 10052 00c8 4C000000 		.4byte	0x4c
 10053 00cc 05       		.uleb128 0x5
 10054 00cd B9000000 		.4byte	.LASF18
 10055 00d1 04       		.byte	0x4
 10056 00d2 9401     		.2byte	0x194
 10057 00d4 70000000 		.4byte	0x70
 10058 00d8 05       		.uleb128 0x5
 10059 00d9 80010000 		.4byte	.LASF19
 10060 00dd 04       		.byte	0x4
 10061 00de 9501     		.2byte	0x195
 10062 00e0 2C000000 		.4byte	0x2c
 10063 00e4 05       		.uleb128 0x5
 10064 00e5 840E0000 		.4byte	.LASF20
 10065 00e9 04       		.byte	0x4
 10066 00ea 9601     		.2byte	0x196
 10067 00ec 45000000 		.4byte	0x45
 10068 00f0 05       		.uleb128 0x5
 10069 00f1 C90F0000 		.4byte	.LASF21
 10070 00f5 04       		.byte	0x4
 10071 00f6 9701     		.2byte	0x197
 10072 00f8 5E000000 		.4byte	0x5e
 10073 00fc 02       		.uleb128 0x2
 10074 00fd 08       		.byte	0x8
 10075 00fe 04       		.byte	0x4
 10076 00ff 42080000 		.4byte	.LASF22
 10077 0103 02       		.uleb128 0x2
 10078 0104 01       		.byte	0x1
 10079 0105 08       		.byte	0x8
 10080 0106 1D050000 		.4byte	.LASF23
 10081 010a 02       		.uleb128 0x2
 10082 010b 08       		.byte	0x8
 10083 010c 04       		.byte	0x4
 10084 010d BC0A0000 		.4byte	.LASF24
 10085 0111 02       		.uleb128 0x2
 10086 0112 04       		.byte	0x4
 10087 0113 07       		.byte	0x7
 10088 0114 12000000 		.4byte	.LASF25
 10089 0118 06       		.uleb128 0x6
 10090 0119 04       		.byte	0x4
 10091 011a 03010000 		.4byte	0x103
 10092 011e 07       		.uleb128 0x7
 10093 011f B4000000 		.4byte	0xb4
 10094 0123 2E010000 		.4byte	0x12e
 10095 0127 08       		.uleb128 0x8
 10096 0128 11010000 		.4byte	0x111
 10097 012c 03       		.byte	0x3
 10098 012d 00       		.byte	0
 10099 012e 09       		.uleb128 0x9
 10100 012f 0C       		.byte	0xc
 10101 0130 05       		.byte	0x5
 10102 0131 25       		.byte	0x25
 10103 0132 7F010000 		.4byte	0x17f
 10104 0136 0A       		.uleb128 0xa
 10105 0137 C80A0000 		.4byte	.LASF26
 10106 013b 05       		.byte	0x5
ARM GAS  C:\Users\USUARIO\AppData\Local\Temp\ccWuTYF0.s 			page 208


 10107 013c 26       		.byte	0x26
 10108 013d B4000000 		.4byte	0xb4
 10109 0141 00       		.byte	0
 10110 0142 0A       		.uleb128 0xa
 10111 0143 1E100000 		.4byte	.LASF27
 10112 0147 05       		.byte	0x5
 10113 0148 27       		.byte	0x27
 10114 0149 B4000000 		.4byte	0xb4
 10115 014d 01       		.byte	0x1
 10116 014e 0A       		.uleb128 0xa
 10117 014f E10B0000 		.4byte	.LASF28
 10118 0153 05       		.byte	0x5
 10119 0154 28       		.byte	0x28
 10120 0155 B4000000 		.4byte	0xb4
 10121 0159 02       		.byte	0x2
 10122 015a 0A       		.uleb128 0xa
 10123 015b AA0B0000 		.4byte	.LASF29
 10124 015f 05       		.byte	0x5
 10125 0160 29       		.byte	0x29
 10126 0161 B4000000 		.4byte	0xb4
 10127 0165 03       		.byte	0x3
 10128 0166 0A       		.uleb128 0xa
 10129 0167 A4020000 		.4byte	.LASF30
 10130 016b 05       		.byte	0x5
 10131 016c 2A       		.byte	0x2a
 10132 016d B4000000 		.4byte	0xb4
 10133 0171 04       		.byte	0x4
 10134 0172 0A       		.uleb128 0xa
 10135 0173 35020000 		.4byte	.LASF31
 10136 0177 05       		.byte	0x5
 10137 0178 2B       		.byte	0x2b
 10138 0179 25000000 		.4byte	0x25
 10139 017d 08       		.byte	0x8
 10140 017e 00       		.byte	0
 10141 017f 03       		.uleb128 0x3
 10142 0180 53060000 		.4byte	.LASF32
 10143 0184 05       		.byte	0x5
 10144 0185 2C       		.byte	0x2c
 10145 0186 2E010000 		.4byte	0x12e
 10146 018a 09       		.uleb128 0x9
 10147 018b 0C       		.byte	0xc
 10148 018c 05       		.byte	0x5
 10149 018d 2F       		.byte	0x2f
 10150 018e C3010000 		.4byte	0x1c3
 10151 0192 0A       		.uleb128 0xa
 10152 0193 35020000 		.4byte	.LASF31
 10153 0197 05       		.byte	0x5
 10154 0198 30       		.byte	0x30
 10155 0199 25000000 		.4byte	0x25
 10156 019d 00       		.byte	0
 10157 019e 0A       		.uleb128 0xa
 10158 019f A4020000 		.4byte	.LASF30
 10159 01a3 05       		.byte	0x5
 10160 01a4 31       		.byte	0x31
 10161 01a5 25000000 		.4byte	0x25
 10162 01a9 04       		.byte	0x4
 10163 01aa 0A       		.uleb128 0xa
ARM GAS  C:\Users\USUARIO\AppData\Local\Temp\ccWuTYF0.s 			page 209


 10164 01ab 57090000 		.4byte	.LASF33
 10165 01af 05       		.byte	0x5
 10166 01b0 32       		.byte	0x32
 10167 01b1 B4000000 		.4byte	0xb4
 10168 01b5 08       		.byte	0x8
 10169 01b6 0A       		.uleb128 0xa
 10170 01b7 40090000 		.4byte	.LASF34
 10171 01bb 05       		.byte	0x5
 10172 01bc 33       		.byte	0x33
 10173 01bd B4000000 		.4byte	0xb4
 10174 01c1 09       		.byte	0x9
 10175 01c2 00       		.byte	0
 10176 01c3 03       		.uleb128 0x3
 10177 01c4 CE060000 		.4byte	.LASF35
 10178 01c8 05       		.byte	0x5
 10179 01c9 34       		.byte	0x34
 10180 01ca 8A010000 		.4byte	0x18a
 10181 01ce 09       		.uleb128 0x9
 10182 01cf 30       		.byte	0x30
 10183 01d0 05       		.byte	0x5
 10184 01d1 37       		.byte	0x37
 10185 01d2 61020000 		.4byte	0x261
 10186 01d6 0A       		.uleb128 0xa
 10187 01d7 CC090000 		.4byte	.LASF36
 10188 01db 05       		.byte	0x5
 10189 01dc 38       		.byte	0x38
 10190 01dd 25000000 		.4byte	0x25
 10191 01e1 00       		.byte	0
 10192 01e2 0A       		.uleb128 0xa
 10193 01e3 D5090000 		.4byte	.LASF37
 10194 01e7 05       		.byte	0x5
 10195 01e8 38       		.byte	0x38
 10196 01e9 25000000 		.4byte	0x25
 10197 01ed 04       		.byte	0x4
 10198 01ee 0A       		.uleb128 0xa
 10199 01ef DE090000 		.4byte	.LASF38
 10200 01f3 05       		.byte	0x5
 10201 01f4 38       		.byte	0x38
 10202 01f5 25000000 		.4byte	0x25
 10203 01f9 08       		.byte	0x8
 10204 01fa 0B       		.uleb128 0xb
 10205 01fb 6D3100   		.ascii	"m1\000"
 10206 01fe 05       		.byte	0x5
 10207 01ff 38       		.byte	0x38
 10208 0200 25000000 		.4byte	0x25
 10209 0204 0C       		.byte	0xc
 10210 0205 0B       		.uleb128 0xb
 10211 0206 6D3200   		.ascii	"m2\000"
 10212 0209 05       		.byte	0x5
 10213 020a 38       		.byte	0x38
 10214 020b 25000000 		.4byte	0x25
 10215 020f 10       		.byte	0x10
 10216 0210 0B       		.uleb128 0xb
 10217 0211 6D3300   		.ascii	"m3\000"
 10218 0214 05       		.byte	0x5
 10219 0215 38       		.byte	0x38
 10220 0216 25000000 		.4byte	0x25
ARM GAS  C:\Users\USUARIO\AppData\Local\Temp\ccWuTYF0.s 			page 210


 10221 021a 14       		.byte	0x14
 10222 021b 0A       		.uleb128 0xa
 10223 021c 620B0000 		.4byte	.LASF39
 10224 0220 05       		.byte	0x5
 10225 0221 38       		.byte	0x38
 10226 0222 25000000 		.4byte	0x25
 10227 0226 18       		.byte	0x18
 10228 0227 0A       		.uleb128 0xa
 10229 0228 6A0B0000 		.4byte	.LASF40
 10230 022c 05       		.byte	0x5
 10231 022d 38       		.byte	0x38
 10232 022e 25000000 		.4byte	0x25
 10233 0232 1C       		.byte	0x1c
 10234 0233 0A       		.uleb128 0xa
 10235 0234 720B0000 		.4byte	.LASF41
 10236 0238 05       		.byte	0x5
 10237 0239 38       		.byte	0x38
 10238 023a 25000000 		.4byte	0x25
 10239 023e 20       		.byte	0x20
 10240 023f 0B       		.uleb128 0xb
 10241 0240 623100   		.ascii	"b1\000"
 10242 0243 05       		.byte	0x5
 10243 0244 38       		.byte	0x38
 10244 0245 25000000 		.4byte	0x25
 10245 0249 24       		.byte	0x24
 10246 024a 0B       		.uleb128 0xb
 10247 024b 623200   		.ascii	"b2\000"
 10248 024e 05       		.byte	0x5
 10249 024f 38       		.byte	0x38
 10250 0250 25000000 		.4byte	0x25
 10251 0254 28       		.byte	0x28
 10252 0255 0B       		.uleb128 0xb
 10253 0256 623300   		.ascii	"b3\000"
 10254 0259 05       		.byte	0x5
 10255 025a 38       		.byte	0x38
 10256 025b 25000000 		.4byte	0x25
 10257 025f 2C       		.byte	0x2c
 10258 0260 00       		.byte	0
 10259 0261 03       		.uleb128 0x3
 10260 0262 98060000 		.4byte	.LASF42
 10261 0266 05       		.byte	0x5
 10262 0267 39       		.byte	0x39
 10263 0268 CE010000 		.4byte	0x1ce
 10264 026c 0C       		.uleb128 0xc
 10265 026d C7080000 		.4byte	.LASF44
 10266 0271 01       		.byte	0x1
 10267 0272 67       		.byte	0x67
 10268 0273 B4000000 		.4byte	0xb4
 10269 0277 00000000 		.4byte	.LFB64
 10270 027b 28000000 		.4byte	.LFE64-.LFB64
 10271 027f 01       		.uleb128 0x1
 10272 0280 9C       		.byte	0x9c
 10273 0281 B3020000 		.4byte	0x2b3
 10274 0285 0D       		.uleb128 0xd
 10275 0286 7B100000 		.4byte	.LASF46
 10276 028a 01       		.byte	0x1
 10277 028b 67       		.byte	0x67
ARM GAS  C:\Users\USUARIO\AppData\Local\Temp\ccWuTYF0.s 			page 211


 10278 028c 25000000 		.4byte	0x25
 10279 0290 00000000 		.4byte	.LLST0
 10280 0294 0E       		.uleb128 0xe
 10281 0295 1B0F0000 		.4byte	.LASF43
 10282 0299 01       		.byte	0x1
 10283 029a 68       		.byte	0x68
 10284 029b 25000000 		.4byte	0x25
 10285 029f 2E000000 		.4byte	.LLST1
 10286 02a3 0F       		.uleb128 0xf
 10287 02a4 746D7000 		.ascii	"tmp\000"
 10288 02a8 01       		.byte	0x1
 10289 02a9 69       		.byte	0x69
 10290 02aa 25000000 		.4byte	0x25
 10291 02ae 5C000000 		.4byte	.LLST2
 10292 02b2 00       		.byte	0
 10293 02b3 0C       		.uleb128 0xc
 10294 02b4 0B080000 		.4byte	.LASF45
 10295 02b8 01       		.byte	0x1
 10296 02b9 70       		.byte	0x70
 10297 02ba 25000000 		.4byte	0x25
 10298 02be 00000000 		.4byte	.LFB65
 10299 02c2 18000000 		.4byte	.LFE65-.LFB65
 10300 02c6 01       		.uleb128 0x1
 10301 02c7 9C       		.byte	0x9c
 10302 02c8 FA020000 		.4byte	0x2fa
 10303 02cc 0D       		.uleb128 0xd
 10304 02cd 7B100000 		.4byte	.LASF46
 10305 02d1 01       		.byte	0x1
 10306 02d2 70       		.byte	0x70
 10307 02d3 25000000 		.4byte	0x25
 10308 02d7 7F000000 		.4byte	.LLST3
 10309 02db 0E       		.uleb128 0xe
 10310 02dc 1B0F0000 		.4byte	.LASF43
 10311 02e0 01       		.byte	0x1
 10312 02e1 71       		.byte	0x71
 10313 02e2 25000000 		.4byte	0x25
 10314 02e6 9D000000 		.4byte	.LLST4
 10315 02ea 0F       		.uleb128 0xf
 10316 02eb 746D7000 		.ascii	"tmp\000"
 10317 02ef 01       		.byte	0x1
 10318 02f0 72       		.byte	0x72
 10319 02f1 25000000 		.4byte	0x25
 10320 02f5 CB000000 		.4byte	.LLST5
 10321 02f9 00       		.byte	0
 10322 02fa 0C       		.uleb128 0xc
 10323 02fb 0A0E0000 		.4byte	.LASF47
 10324 02ff 01       		.byte	0x1
 10325 0300 79       		.byte	0x79
 10326 0301 25000000 		.4byte	0x25
 10327 0305 00000000 		.4byte	.LFB66
 10328 0309 14000000 		.4byte	.LFE66-.LFB66
 10329 030d 01       		.uleb128 0x1
 10330 030e 9C       		.byte	0x9c
 10331 030f 32030000 		.4byte	0x332
 10332 0313 0D       		.uleb128 0xd
 10333 0314 F4010000 		.4byte	.LASF48
 10334 0318 01       		.byte	0x1
ARM GAS  C:\Users\USUARIO\AppData\Local\Temp\ccWuTYF0.s 			page 212


 10335 0319 79       		.byte	0x79
 10336 031a B4000000 		.4byte	0xb4
 10337 031e EE000000 		.4byte	.LLST6
 10338 0322 0F       		.uleb128 0xf
 10339 0323 746D7000 		.ascii	"tmp\000"
 10340 0327 01       		.byte	0x1
 10341 0328 7A       		.byte	0x7a
 10342 0329 25000000 		.4byte	0x25
 10343 032d 0F010000 		.4byte	.LLST7
 10344 0331 00       		.byte	0
 10345 0332 10       		.uleb128 0x10
 10346 0333 B4090000 		.4byte	.LASF49
 10347 0337 01       		.byte	0x1
 10348 0338 7F       		.byte	0x7f
 10349 0339 B4000000 		.4byte	0xb4
 10350 033d 00000000 		.4byte	.LFB67
 10351 0341 12000000 		.4byte	.LFE67-.LFB67
 10352 0345 01       		.uleb128 0x1
 10353 0346 9C       		.byte	0x9c
 10354 0347 77030000 		.4byte	0x377
 10355 034b 0D       		.uleb128 0xd
 10356 034c 7B100000 		.4byte	.LASF46
 10357 0350 01       		.byte	0x1
 10358 0351 7F       		.byte	0x7f
 10359 0352 C0000000 		.4byte	0xc0
 10360 0356 22010000 		.4byte	.LLST8
 10361 035a 11       		.uleb128 0x11
 10362 035b 0E0F0000 		.4byte	.LASF50
 10363 035f 01       		.byte	0x1
 10364 0360 7F       		.byte	0x7f
 10365 0361 B4000000 		.4byte	0xb4
 10366 0365 01       		.uleb128 0x1
 10367 0366 51       		.byte	0x51
 10368 0367 0E       		.uleb128 0xe
 10369 0368 0B040000 		.4byte	.LASF51
 10370 036c 01       		.byte	0x1
 10371 036d 80       		.byte	0x80
 10372 036e B4000000 		.4byte	0xb4
 10373 0372 75010000 		.4byte	.LLST9
 10374 0376 00       		.byte	0
 10375 0377 10       		.uleb128 0x10
 10376 0378 390C0000 		.4byte	.LASF52
 10377 037c 01       		.byte	0x1
 10378 037d 89       		.byte	0x89
 10379 037e C0000000 		.4byte	0xc0
 10380 0382 00000000 		.4byte	.LFB68
 10381 0386 06000000 		.4byte	.LFE68-.LFB68
 10382 038a 01       		.uleb128 0x1
 10383 038b 9C       		.byte	0x9c
 10384 038c CB030000 		.4byte	0x3cb
 10385 0390 0D       		.uleb128 0xd
 10386 0391 3A010000 		.4byte	.LASF53
 10387 0395 01       		.byte	0x1
 10388 0396 89       		.byte	0x89
 10389 0397 B4000000 		.4byte	0xb4
 10390 039b C2010000 		.4byte	.LLST10
 10391 039f 11       		.uleb128 0x11
ARM GAS  C:\Users\USUARIO\AppData\Local\Temp\ccWuTYF0.s 			page 213


 10392 03a0 41010000 		.4byte	.LASF54
 10393 03a4 01       		.byte	0x1
 10394 03a5 89       		.byte	0x89
 10395 03a6 B4000000 		.4byte	0xb4
 10396 03aa 01       		.uleb128 0x1
 10397 03ab 51       		.byte	0x51
 10398 03ac 0E       		.uleb128 0xe
 10399 03ad 39100000 		.4byte	.LASF55
 10400 03b1 01       		.byte	0x1
 10401 03b2 8A       		.byte	0x8a
 10402 03b3 C0000000 		.4byte	0xc0
 10403 03b7 E3010000 		.4byte	.LLST11
 10404 03bb 0F       		.uleb128 0xf
 10405 03bc 76617200 		.ascii	"var\000"
 10406 03c0 01       		.byte	0x1
 10407 03c1 8A       		.byte	0x8a
 10408 03c2 C0000000 		.4byte	0xc0
 10409 03c6 0C020000 		.4byte	.LLST12
 10410 03ca 00       		.byte	0
 10411 03cb 12       		.uleb128 0x12
 10412 03cc C60C0000 		.4byte	.LASF56
 10413 03d0 01       		.byte	0x1
 10414 03d1 90       		.byte	0x90
 10415 03d2 00000000 		.4byte	.LFB69
 10416 03d6 AC060000 		.4byte	.LFE69-.LFB69
 10417 03da 01       		.uleb128 0x1
 10418 03db 9C       		.byte	0x9c
 10419 03dc 490D0000 		.4byte	0xd49
 10420 03e0 13       		.uleb128 0x13
 10421 03e1 0A000000 		.4byte	.LVL26
 10422 03e5 52390000 		.4byte	0x3952
 10423 03e9 F3030000 		.4byte	0x3f3
 10424 03ed 14       		.uleb128 0x14
 10425 03ee 01       		.uleb128 0x1
 10426 03ef 50       		.byte	0x50
 10427 03f0 01       		.uleb128 0x1
 10428 03f1 30       		.byte	0x30
 10429 03f2 00       		.byte	0
 10430 03f3 13       		.uleb128 0x13
 10431 03f4 14000000 		.4byte	.LVL27
 10432 03f8 5D390000 		.4byte	0x395d
 10433 03fc 06040000 		.4byte	0x406
 10434 0400 14       		.uleb128 0x14
 10435 0401 01       		.uleb128 0x1
 10436 0402 50       		.byte	0x50
 10437 0403 01       		.uleb128 0x1
 10438 0404 35       		.byte	0x35
 10439 0405 00       		.byte	0
 10440 0406 13       		.uleb128 0x13
 10441 0407 1A000000 		.4byte	.LVL28
 10442 040b 52390000 		.4byte	0x3952
 10443 040f 19040000 		.4byte	0x419
 10444 0413 14       		.uleb128 0x14
 10445 0414 01       		.uleb128 0x1
 10446 0415 50       		.byte	0x50
 10447 0416 01       		.uleb128 0x1
 10448 0417 31       		.byte	0x31
ARM GAS  C:\Users\USUARIO\AppData\Local\Temp\ccWuTYF0.s 			page 214


 10449 0418 00       		.byte	0
 10450 0419 13       		.uleb128 0x13
 10451 041a 24000000 		.4byte	.LVL29
 10452 041e 5D390000 		.4byte	0x395d
 10453 0422 2C040000 		.4byte	0x42c
 10454 0426 14       		.uleb128 0x14
 10455 0427 01       		.uleb128 0x1
 10456 0428 50       		.byte	0x50
 10457 0429 01       		.uleb128 0x1
 10458 042a 35       		.byte	0x35
 10459 042b 00       		.byte	0
 10460 042c 13       		.uleb128 0x13
 10461 042d 2A000000 		.4byte	.LVL30
 10462 0431 52390000 		.4byte	0x3952
 10463 0435 3F040000 		.4byte	0x43f
 10464 0439 14       		.uleb128 0x14
 10465 043a 01       		.uleb128 0x1
 10466 043b 50       		.byte	0x50
 10467 043c 01       		.uleb128 0x1
 10468 043d 32       		.byte	0x32
 10469 043e 00       		.byte	0
 10470 043f 13       		.uleb128 0x13
 10471 0440 34000000 		.4byte	.LVL31
 10472 0444 5D390000 		.4byte	0x395d
 10473 0448 52040000 		.4byte	0x452
 10474 044c 14       		.uleb128 0x14
 10475 044d 01       		.uleb128 0x1
 10476 044e 50       		.byte	0x50
 10477 044f 01       		.uleb128 0x1
 10478 0450 35       		.byte	0x35
 10479 0451 00       		.byte	0
 10480 0452 13       		.uleb128 0x13
 10481 0453 3A000000 		.4byte	.LVL32
 10482 0457 52390000 		.4byte	0x3952
 10483 045b 65040000 		.4byte	0x465
 10484 045f 14       		.uleb128 0x14
 10485 0460 01       		.uleb128 0x1
 10486 0461 50       		.byte	0x50
 10487 0462 01       		.uleb128 0x1
 10488 0463 33       		.byte	0x33
 10489 0464 00       		.byte	0
 10490 0465 13       		.uleb128 0x13
 10491 0466 48000000 		.4byte	.LVL34
 10492 046a 5D390000 		.4byte	0x395d
 10493 046e 78040000 		.4byte	0x478
 10494 0472 14       		.uleb128 0x14
 10495 0473 01       		.uleb128 0x1
 10496 0474 50       		.byte	0x50
 10497 0475 01       		.uleb128 0x1
 10498 0476 35       		.byte	0x35
 10499 0477 00       		.byte	0
 10500 0478 13       		.uleb128 0x13
 10501 0479 6A000000 		.4byte	.LVL38
 10502 047d 52390000 		.4byte	0x3952
 10503 0481 8B040000 		.4byte	0x48b
 10504 0485 14       		.uleb128 0x14
 10505 0486 01       		.uleb128 0x1
ARM GAS  C:\Users\USUARIO\AppData\Local\Temp\ccWuTYF0.s 			page 215


 10506 0487 50       		.byte	0x50
 10507 0488 01       		.uleb128 0x1
 10508 0489 34       		.byte	0x34
 10509 048a 00       		.byte	0
 10510 048b 13       		.uleb128 0x13
 10511 048c 74000000 		.4byte	.LVL39
 10512 0490 5D390000 		.4byte	0x395d
 10513 0494 9E040000 		.4byte	0x49e
 10514 0498 14       		.uleb128 0x14
 10515 0499 01       		.uleb128 0x1
 10516 049a 50       		.byte	0x50
 10517 049b 01       		.uleb128 0x1
 10518 049c 35       		.byte	0x35
 10519 049d 00       		.byte	0
 10520 049e 13       		.uleb128 0x13
 10521 049f 7A000000 		.4byte	.LVL40
 10522 04a3 52390000 		.4byte	0x3952
 10523 04a7 B1040000 		.4byte	0x4b1
 10524 04ab 14       		.uleb128 0x14
 10525 04ac 01       		.uleb128 0x1
 10526 04ad 50       		.byte	0x50
 10527 04ae 01       		.uleb128 0x1
 10528 04af 36       		.byte	0x36
 10529 04b0 00       		.byte	0
 10530 04b1 13       		.uleb128 0x13
 10531 04b2 82000000 		.4byte	.LVL41
 10532 04b6 52390000 		.4byte	0x3952
 10533 04ba C4040000 		.4byte	0x4c4
 10534 04be 14       		.uleb128 0x14
 10535 04bf 01       		.uleb128 0x1
 10536 04c0 50       		.byte	0x50
 10537 04c1 01       		.uleb128 0x1
 10538 04c2 35       		.byte	0x35
 10539 04c3 00       		.byte	0
 10540 04c4 13       		.uleb128 0x13
 10541 04c5 8A000000 		.4byte	.LVL42
 10542 04c9 77030000 		.4byte	0x377
 10543 04cd D8040000 		.4byte	0x4d8
 10544 04d1 14       		.uleb128 0x14
 10545 04d2 01       		.uleb128 0x1
 10546 04d3 50       		.byte	0x50
 10547 04d4 02       		.uleb128 0x2
 10548 04d5 74       		.byte	0x74
 10549 04d6 00       		.sleb128 0
 10550 04d7 00       		.byte	0
 10551 04d8 13       		.uleb128 0x13
 10552 04d9 94000000 		.4byte	.LVL43
 10553 04dd 5D390000 		.4byte	0x395d
 10554 04e1 EB040000 		.4byte	0x4eb
 10555 04e5 14       		.uleb128 0x14
 10556 04e6 01       		.uleb128 0x1
 10557 04e7 50       		.byte	0x50
 10558 04e8 01       		.uleb128 0x1
 10559 04e9 35       		.byte	0x35
 10560 04ea 00       		.byte	0
 10561 04eb 13       		.uleb128 0x13
 10562 04ec 9A000000 		.4byte	.LVL44
ARM GAS  C:\Users\USUARIO\AppData\Local\Temp\ccWuTYF0.s 			page 216


 10563 04f0 52390000 		.4byte	0x3952
 10564 04f4 FE040000 		.4byte	0x4fe
 10565 04f8 14       		.uleb128 0x14
 10566 04f9 01       		.uleb128 0x1
 10567 04fa 50       		.byte	0x50
 10568 04fb 01       		.uleb128 0x1
 10569 04fc 38       		.byte	0x38
 10570 04fd 00       		.byte	0
 10571 04fe 13       		.uleb128 0x13
 10572 04ff A2000000 		.4byte	.LVL45
 10573 0503 52390000 		.4byte	0x3952
 10574 0507 11050000 		.4byte	0x511
 10575 050b 14       		.uleb128 0x14
 10576 050c 01       		.uleb128 0x1
 10577 050d 50       		.byte	0x50
 10578 050e 01       		.uleb128 0x1
 10579 050f 37       		.byte	0x37
 10580 0510 00       		.byte	0
 10581 0511 13       		.uleb128 0x13
 10582 0512 AA000000 		.4byte	.LVL46
 10583 0516 77030000 		.4byte	0x377
 10584 051a 25050000 		.4byte	0x525
 10585 051e 14       		.uleb128 0x14
 10586 051f 01       		.uleb128 0x1
 10587 0520 50       		.byte	0x50
 10588 0521 02       		.uleb128 0x2
 10589 0522 75       		.byte	0x75
 10590 0523 00       		.sleb128 0
 10591 0524 00       		.byte	0
 10592 0525 13       		.uleb128 0x13
 10593 0526 B2000000 		.4byte	.LVL47
 10594 052a 5D390000 		.4byte	0x395d
 10595 052e 38050000 		.4byte	0x538
 10596 0532 14       		.uleb128 0x14
 10597 0533 01       		.uleb128 0x1
 10598 0534 50       		.byte	0x50
 10599 0535 01       		.uleb128 0x1
 10600 0536 35       		.byte	0x35
 10601 0537 00       		.byte	0
 10602 0538 13       		.uleb128 0x13
 10603 0539 B8000000 		.4byte	.LVL48
 10604 053d 52390000 		.4byte	0x3952
 10605 0541 4B050000 		.4byte	0x54b
 10606 0545 14       		.uleb128 0x14
 10607 0546 01       		.uleb128 0x1
 10608 0547 50       		.byte	0x50
 10609 0548 01       		.uleb128 0x1
 10610 0549 39       		.byte	0x39
 10611 054a 00       		.byte	0
 10612 054b 13       		.uleb128 0x13
 10613 054c C0000000 		.4byte	.LVL49
 10614 0550 5D390000 		.4byte	0x395d
 10615 0554 5E050000 		.4byte	0x55e
 10616 0558 14       		.uleb128 0x14
 10617 0559 01       		.uleb128 0x1
 10618 055a 50       		.byte	0x50
 10619 055b 01       		.uleb128 0x1
ARM GAS  C:\Users\USUARIO\AppData\Local\Temp\ccWuTYF0.s 			page 217


 10620 055c 35       		.byte	0x35
 10621 055d 00       		.byte	0
 10622 055e 13       		.uleb128 0x13
 10623 055f C6000000 		.4byte	.LVL50
 10624 0563 52390000 		.4byte	0x3952
 10625 0567 71050000 		.4byte	0x571
 10626 056b 14       		.uleb128 0x14
 10627 056c 01       		.uleb128 0x1
 10628 056d 50       		.byte	0x50
 10629 056e 01       		.uleb128 0x1
 10630 056f 3A       		.byte	0x3a
 10631 0570 00       		.byte	0
 10632 0571 13       		.uleb128 0x13
 10633 0572 D0000000 		.4byte	.LVL51
 10634 0576 5D390000 		.4byte	0x395d
 10635 057a 84050000 		.4byte	0x584
 10636 057e 14       		.uleb128 0x14
 10637 057f 01       		.uleb128 0x1
 10638 0580 50       		.byte	0x50
 10639 0581 01       		.uleb128 0x1
 10640 0582 35       		.byte	0x35
 10641 0583 00       		.byte	0
 10642 0584 13       		.uleb128 0x13
 10643 0585 D6000000 		.4byte	.LVL52
 10644 0589 52390000 		.4byte	0x3952
 10645 058d 97050000 		.4byte	0x597
 10646 0591 14       		.uleb128 0x14
 10647 0592 01       		.uleb128 0x1
 10648 0593 50       		.byte	0x50
 10649 0594 01       		.uleb128 0x1
 10650 0595 3B       		.byte	0x3b
 10651 0596 00       		.byte	0
 10652 0597 13       		.uleb128 0x13
 10653 0598 DE000000 		.4byte	.LVL53
 10654 059c 5D390000 		.4byte	0x395d
 10655 05a0 AA050000 		.4byte	0x5aa
 10656 05a4 14       		.uleb128 0x14
 10657 05a5 01       		.uleb128 0x1
 10658 05a6 50       		.byte	0x50
 10659 05a7 01       		.uleb128 0x1
 10660 05a8 35       		.byte	0x35
 10661 05a9 00       		.byte	0
 10662 05aa 13       		.uleb128 0x13
 10663 05ab E4000000 		.4byte	.LVL54
 10664 05af 52390000 		.4byte	0x3952
 10665 05b3 BD050000 		.4byte	0x5bd
 10666 05b7 14       		.uleb128 0x14
 10667 05b8 01       		.uleb128 0x1
 10668 05b9 50       		.byte	0x50
 10669 05ba 01       		.uleb128 0x1
 10670 05bb 3C       		.byte	0x3c
 10671 05bc 00       		.byte	0
 10672 05bd 13       		.uleb128 0x13
 10673 05be EC000000 		.4byte	.LVL55
 10674 05c2 5D390000 		.4byte	0x395d
 10675 05c6 D0050000 		.4byte	0x5d0
 10676 05ca 14       		.uleb128 0x14
ARM GAS  C:\Users\USUARIO\AppData\Local\Temp\ccWuTYF0.s 			page 218


 10677 05cb 01       		.uleb128 0x1
 10678 05cc 50       		.byte	0x50
 10679 05cd 01       		.uleb128 0x1
 10680 05ce 35       		.byte	0x35
 10681 05cf 00       		.byte	0
 10682 05d0 13       		.uleb128 0x13
 10683 05d1 F2000000 		.4byte	.LVL56
 10684 05d5 52390000 		.4byte	0x3952
 10685 05d9 E3050000 		.4byte	0x5e3
 10686 05dd 14       		.uleb128 0x14
 10687 05de 01       		.uleb128 0x1
 10688 05df 50       		.byte	0x50
 10689 05e0 01       		.uleb128 0x1
 10690 05e1 3D       		.byte	0x3d
 10691 05e2 00       		.byte	0
 10692 05e3 13       		.uleb128 0x13
 10693 05e4 FA000000 		.4byte	.LVL57
 10694 05e8 5D390000 		.4byte	0x395d
 10695 05ec F6050000 		.4byte	0x5f6
 10696 05f0 14       		.uleb128 0x14
 10697 05f1 01       		.uleb128 0x1
 10698 05f2 50       		.byte	0x50
 10699 05f3 01       		.uleb128 0x1
 10700 05f4 35       		.byte	0x35
 10701 05f5 00       		.byte	0
 10702 05f6 13       		.uleb128 0x13
 10703 05f7 00010000 		.4byte	.LVL58
 10704 05fb 52390000 		.4byte	0x3952
 10705 05ff 09060000 		.4byte	0x609
 10706 0603 14       		.uleb128 0x14
 10707 0604 01       		.uleb128 0x1
 10708 0605 50       		.byte	0x50
 10709 0606 01       		.uleb128 0x1
 10710 0607 4E       		.byte	0x4e
 10711 0608 00       		.byte	0
 10712 0609 13       		.uleb128 0x13
 10713 060a 0E010000 		.4byte	.LVL60
 10714 060e 5D390000 		.4byte	0x395d
 10715 0612 1C060000 		.4byte	0x61c
 10716 0616 14       		.uleb128 0x14
 10717 0617 01       		.uleb128 0x1
 10718 0618 50       		.byte	0x50
 10719 0619 01       		.uleb128 0x1
 10720 061a 35       		.byte	0x35
 10721 061b 00       		.byte	0
 10722 061c 13       		.uleb128 0x13
 10723 061d 14010000 		.4byte	.LVL61
 10724 0621 52390000 		.4byte	0x3952
 10725 0625 2F060000 		.4byte	0x62f
 10726 0629 14       		.uleb128 0x14
 10727 062a 01       		.uleb128 0x1
 10728 062b 50       		.byte	0x50
 10729 062c 01       		.uleb128 0x1
 10730 062d 4F       		.byte	0x4f
 10731 062e 00       		.byte	0
 10732 062f 13       		.uleb128 0x13
 10733 0630 1E010000 		.4byte	.LVL62
ARM GAS  C:\Users\USUARIO\AppData\Local\Temp\ccWuTYF0.s 			page 219


 10734 0634 5D390000 		.4byte	0x395d
 10735 0638 42060000 		.4byte	0x642
 10736 063c 14       		.uleb128 0x14
 10737 063d 01       		.uleb128 0x1
 10738 063e 50       		.byte	0x50
 10739 063f 01       		.uleb128 0x1
 10740 0640 35       		.byte	0x35
 10741 0641 00       		.byte	0
 10742 0642 13       		.uleb128 0x13
 10743 0643 24010000 		.4byte	.LVL63
 10744 0647 52390000 		.4byte	0x3952
 10745 064b 56060000 		.4byte	0x656
 10746 064f 14       		.uleb128 0x14
 10747 0650 01       		.uleb128 0x1
 10748 0651 50       		.byte	0x50
 10749 0652 02       		.uleb128 0x2
 10750 0653 08       		.byte	0x8
 10751 0654 20       		.byte	0x20
 10752 0655 00       		.byte	0
 10753 0656 13       		.uleb128 0x13
 10754 0657 2E010000 		.4byte	.LVL64
 10755 065b 5D390000 		.4byte	0x395d
 10756 065f 69060000 		.4byte	0x669
 10757 0663 14       		.uleb128 0x14
 10758 0664 01       		.uleb128 0x1
 10759 0665 50       		.byte	0x50
 10760 0666 01       		.uleb128 0x1
 10761 0667 35       		.byte	0x35
 10762 0668 00       		.byte	0
 10763 0669 13       		.uleb128 0x13
 10764 066a 34010000 		.4byte	.LVL65
 10765 066e 52390000 		.4byte	0x3952
 10766 0672 7D060000 		.4byte	0x67d
 10767 0676 14       		.uleb128 0x14
 10768 0677 01       		.uleb128 0x1
 10769 0678 50       		.byte	0x50
 10770 0679 02       		.uleb128 0x2
 10771 067a 08       		.byte	0x8
 10772 067b 21       		.byte	0x21
 10773 067c 00       		.byte	0
 10774 067d 13       		.uleb128 0x13
 10775 067e 3E010000 		.4byte	.LVL66
 10776 0682 5D390000 		.4byte	0x395d
 10777 0686 90060000 		.4byte	0x690
 10778 068a 14       		.uleb128 0x14
 10779 068b 01       		.uleb128 0x1
 10780 068c 50       		.byte	0x50
 10781 068d 01       		.uleb128 0x1
 10782 068e 35       		.byte	0x35
 10783 068f 00       		.byte	0
 10784 0690 13       		.uleb128 0x13
 10785 0691 44010000 		.4byte	.LVL67
 10786 0695 52390000 		.4byte	0x3952
 10787 0699 A4060000 		.4byte	0x6a4
 10788 069d 14       		.uleb128 0x14
 10789 069e 01       		.uleb128 0x1
 10790 069f 50       		.byte	0x50
ARM GAS  C:\Users\USUARIO\AppData\Local\Temp\ccWuTYF0.s 			page 220


 10791 06a0 02       		.uleb128 0x2
 10792 06a1 08       		.byte	0x8
 10793 06a2 22       		.byte	0x22
 10794 06a3 00       		.byte	0
 10795 06a4 13       		.uleb128 0x13
 10796 06a5 4E010000 		.4byte	.LVL68
 10797 06a9 5D390000 		.4byte	0x395d
 10798 06ad B7060000 		.4byte	0x6b7
 10799 06b1 14       		.uleb128 0x14
 10800 06b2 01       		.uleb128 0x1
 10801 06b3 50       		.byte	0x50
 10802 06b4 01       		.uleb128 0x1
 10803 06b5 35       		.byte	0x35
 10804 06b6 00       		.byte	0
 10805 06b7 13       		.uleb128 0x13
 10806 06b8 54010000 		.4byte	.LVL69
 10807 06bc 52390000 		.4byte	0x3952
 10808 06c0 CB060000 		.4byte	0x6cb
 10809 06c4 14       		.uleb128 0x14
 10810 06c5 01       		.uleb128 0x1
 10811 06c6 50       		.byte	0x50
 10812 06c7 02       		.uleb128 0x2
 10813 06c8 08       		.byte	0x8
 10814 06c9 23       		.byte	0x23
 10815 06ca 00       		.byte	0
 10816 06cb 13       		.uleb128 0x13
 10817 06cc 5E010000 		.4byte	.LVL70
 10818 06d0 5D390000 		.4byte	0x395d
 10819 06d4 DE060000 		.4byte	0x6de
 10820 06d8 14       		.uleb128 0x14
 10821 06d9 01       		.uleb128 0x1
 10822 06da 50       		.byte	0x50
 10823 06db 01       		.uleb128 0x1
 10824 06dc 35       		.byte	0x35
 10825 06dd 00       		.byte	0
 10826 06de 13       		.uleb128 0x13
 10827 06df 64010000 		.4byte	.LVL71
 10828 06e3 52390000 		.4byte	0x3952
 10829 06e7 F2060000 		.4byte	0x6f2
 10830 06eb 14       		.uleb128 0x14
 10831 06ec 01       		.uleb128 0x1
 10832 06ed 50       		.byte	0x50
 10833 06ee 02       		.uleb128 0x2
 10834 06ef 08       		.byte	0x8
 10835 06f0 24       		.byte	0x24
 10836 06f1 00       		.byte	0
 10837 06f2 13       		.uleb128 0x13
 10838 06f3 6E010000 		.4byte	.LVL72
 10839 06f7 5D390000 		.4byte	0x395d
 10840 06fb 05070000 		.4byte	0x705
 10841 06ff 14       		.uleb128 0x14
 10842 0700 01       		.uleb128 0x1
 10843 0701 50       		.byte	0x50
 10844 0702 01       		.uleb128 0x1
 10845 0703 35       		.byte	0x35
 10846 0704 00       		.byte	0
 10847 0705 13       		.uleb128 0x13
ARM GAS  C:\Users\USUARIO\AppData\Local\Temp\ccWuTYF0.s 			page 221


 10848 0706 74010000 		.4byte	.LVL73
 10849 070a 52390000 		.4byte	0x3952
 10850 070e 19070000 		.4byte	0x719
 10851 0712 14       		.uleb128 0x14
 10852 0713 01       		.uleb128 0x1
 10853 0714 50       		.byte	0x50
 10854 0715 02       		.uleb128 0x2
 10855 0716 08       		.byte	0x8
 10856 0717 25       		.byte	0x25
 10857 0718 00       		.byte	0
 10858 0719 13       		.uleb128 0x13
 10859 071a 7E010000 		.4byte	.LVL74
 10860 071e 5D390000 		.4byte	0x395d
 10861 0722 2C070000 		.4byte	0x72c
 10862 0726 14       		.uleb128 0x14
 10863 0727 01       		.uleb128 0x1
 10864 0728 50       		.byte	0x50
 10865 0729 01       		.uleb128 0x1
 10866 072a 35       		.byte	0x35
 10867 072b 00       		.byte	0
 10868 072c 13       		.uleb128 0x13
 10869 072d 84010000 		.4byte	.LVL75
 10870 0731 52390000 		.4byte	0x3952
 10871 0735 40070000 		.4byte	0x740
 10872 0739 14       		.uleb128 0x14
 10873 073a 01       		.uleb128 0x1
 10874 073b 50       		.byte	0x50
 10875 073c 02       		.uleb128 0x2
 10876 073d 08       		.byte	0x8
 10877 073e 26       		.byte	0x26
 10878 073f 00       		.byte	0
 10879 0740 13       		.uleb128 0x13
 10880 0741 8E010000 		.4byte	.LVL76
 10881 0745 5D390000 		.4byte	0x395d
 10882 0749 53070000 		.4byte	0x753
 10883 074d 14       		.uleb128 0x14
 10884 074e 01       		.uleb128 0x1
 10885 074f 50       		.byte	0x50
 10886 0750 01       		.uleb128 0x1
 10887 0751 35       		.byte	0x35
 10888 0752 00       		.byte	0
 10889 0753 13       		.uleb128 0x13
 10890 0754 94010000 		.4byte	.LVL77
 10891 0758 52390000 		.4byte	0x3952
 10892 075c 67070000 		.4byte	0x767
 10893 0760 14       		.uleb128 0x14
 10894 0761 01       		.uleb128 0x1
 10895 0762 50       		.byte	0x50
 10896 0763 02       		.uleb128 0x2
 10897 0764 08       		.byte	0x8
 10898 0765 27       		.byte	0x27
 10899 0766 00       		.byte	0
 10900 0767 13       		.uleb128 0x13
 10901 0768 9E010000 		.4byte	.LVL78
 10902 076c 5D390000 		.4byte	0x395d
 10903 0770 7A070000 		.4byte	0x77a
 10904 0774 14       		.uleb128 0x14
ARM GAS  C:\Users\USUARIO\AppData\Local\Temp\ccWuTYF0.s 			page 222


 10905 0775 01       		.uleb128 0x1
 10906 0776 50       		.byte	0x50
 10907 0777 01       		.uleb128 0x1
 10908 0778 35       		.byte	0x35
 10909 0779 00       		.byte	0
 10910 077a 13       		.uleb128 0x13
 10911 077b A4010000 		.4byte	.LVL79
 10912 077f 52390000 		.4byte	0x3952
 10913 0783 8E070000 		.4byte	0x78e
 10914 0787 14       		.uleb128 0x14
 10915 0788 01       		.uleb128 0x1
 10916 0789 50       		.byte	0x50
 10917 078a 02       		.uleb128 0x2
 10918 078b 08       		.byte	0x8
 10919 078c 28       		.byte	0x28
 10920 078d 00       		.byte	0
 10921 078e 13       		.uleb128 0x13
 10922 078f AE010000 		.4byte	.LVL80
 10923 0793 5D390000 		.4byte	0x395d
 10924 0797 A1070000 		.4byte	0x7a1
 10925 079b 14       		.uleb128 0x14
 10926 079c 01       		.uleb128 0x1
 10927 079d 50       		.byte	0x50
 10928 079e 01       		.uleb128 0x1
 10929 079f 35       		.byte	0x35
 10930 07a0 00       		.byte	0
 10931 07a1 13       		.uleb128 0x13
 10932 07a2 B4010000 		.4byte	.LVL81
 10933 07a6 52390000 		.4byte	0x3952
 10934 07aa B5070000 		.4byte	0x7b5
 10935 07ae 14       		.uleb128 0x14
 10936 07af 01       		.uleb128 0x1
 10937 07b0 50       		.byte	0x50
 10938 07b1 02       		.uleb128 0x2
 10939 07b2 08       		.byte	0x8
 10940 07b3 29       		.byte	0x29
 10941 07b4 00       		.byte	0
 10942 07b5 13       		.uleb128 0x13
 10943 07b6 BE010000 		.4byte	.LVL82
 10944 07ba 5D390000 		.4byte	0x395d
 10945 07be C8070000 		.4byte	0x7c8
 10946 07c2 14       		.uleb128 0x14
 10947 07c3 01       		.uleb128 0x1
 10948 07c4 50       		.byte	0x50
 10949 07c5 01       		.uleb128 0x1
 10950 07c6 35       		.byte	0x35
 10951 07c7 00       		.byte	0
 10952 07c8 13       		.uleb128 0x13
 10953 07c9 C4010000 		.4byte	.LVL83
 10954 07cd 52390000 		.4byte	0x3952
 10955 07d1 DC070000 		.4byte	0x7dc
 10956 07d5 14       		.uleb128 0x14
 10957 07d6 01       		.uleb128 0x1
 10958 07d7 50       		.byte	0x50
 10959 07d8 02       		.uleb128 0x2
 10960 07d9 08       		.byte	0x8
 10961 07da 2A       		.byte	0x2a
ARM GAS  C:\Users\USUARIO\AppData\Local\Temp\ccWuTYF0.s 			page 223


 10962 07db 00       		.byte	0
 10963 07dc 13       		.uleb128 0x13
 10964 07dd CE010000 		.4byte	.LVL84
 10965 07e1 5D390000 		.4byte	0x395d
 10966 07e5 EF070000 		.4byte	0x7ef
 10967 07e9 14       		.uleb128 0x14
 10968 07ea 01       		.uleb128 0x1
 10969 07eb 50       		.byte	0x50
 10970 07ec 01       		.uleb128 0x1
 10971 07ed 35       		.byte	0x35
 10972 07ee 00       		.byte	0
 10973 07ef 13       		.uleb128 0x13
 10974 07f0 D4010000 		.4byte	.LVL85
 10975 07f4 52390000 		.4byte	0x3952
 10976 07f8 03080000 		.4byte	0x803
 10977 07fc 14       		.uleb128 0x14
 10978 07fd 01       		.uleb128 0x1
 10979 07fe 50       		.byte	0x50
 10980 07ff 02       		.uleb128 0x2
 10981 0800 08       		.byte	0x8
 10982 0801 2B       		.byte	0x2b
 10983 0802 00       		.byte	0
 10984 0803 13       		.uleb128 0x13
 10985 0804 DE010000 		.4byte	.LVL86
 10986 0808 5D390000 		.4byte	0x395d
 10987 080c 16080000 		.4byte	0x816
 10988 0810 14       		.uleb128 0x14
 10989 0811 01       		.uleb128 0x1
 10990 0812 50       		.byte	0x50
 10991 0813 01       		.uleb128 0x1
 10992 0814 35       		.byte	0x35
 10993 0815 00       		.byte	0
 10994 0816 13       		.uleb128 0x13
 10995 0817 E4010000 		.4byte	.LVL87
 10996 081b 52390000 		.4byte	0x3952
 10997 081f 2A080000 		.4byte	0x82a
 10998 0823 14       		.uleb128 0x14
 10999 0824 01       		.uleb128 0x1
 11000 0825 50       		.byte	0x50
 11001 0826 02       		.uleb128 0x2
 11002 0827 08       		.byte	0x8
 11003 0828 2C       		.byte	0x2c
 11004 0829 00       		.byte	0
 11005 082a 13       		.uleb128 0x13
 11006 082b EE010000 		.4byte	.LVL88
 11007 082f 5D390000 		.4byte	0x395d
 11008 0833 3D080000 		.4byte	0x83d
 11009 0837 14       		.uleb128 0x14
 11010 0838 01       		.uleb128 0x1
 11011 0839 50       		.byte	0x50
 11012 083a 01       		.uleb128 0x1
 11013 083b 35       		.byte	0x35
 11014 083c 00       		.byte	0
 11015 083d 13       		.uleb128 0x13
 11016 083e F4010000 		.4byte	.LVL89
 11017 0842 52390000 		.4byte	0x3952
 11018 0846 51080000 		.4byte	0x851
ARM GAS  C:\Users\USUARIO\AppData\Local\Temp\ccWuTYF0.s 			page 224


 11019 084a 14       		.uleb128 0x14
 11020 084b 01       		.uleb128 0x1
 11021 084c 50       		.byte	0x50
 11022 084d 02       		.uleb128 0x2
 11023 084e 08       		.byte	0x8
 11024 084f 2D       		.byte	0x2d
 11025 0850 00       		.byte	0
 11026 0851 13       		.uleb128 0x13
 11027 0852 FE010000 		.4byte	.LVL90
 11028 0856 5D390000 		.4byte	0x395d
 11029 085a 64080000 		.4byte	0x864
 11030 085e 14       		.uleb128 0x14
 11031 085f 01       		.uleb128 0x1
 11032 0860 50       		.byte	0x50
 11033 0861 01       		.uleb128 0x1
 11034 0862 35       		.byte	0x35
 11035 0863 00       		.byte	0
 11036 0864 13       		.uleb128 0x13
 11037 0865 04020000 		.4byte	.LVL91
 11038 0869 52390000 		.4byte	0x3952
 11039 086d 78080000 		.4byte	0x878
 11040 0871 14       		.uleb128 0x14
 11041 0872 01       		.uleb128 0x1
 11042 0873 50       		.byte	0x50
 11043 0874 02       		.uleb128 0x2
 11044 0875 08       		.byte	0x8
 11045 0876 2E       		.byte	0x2e
 11046 0877 00       		.byte	0
 11047 0878 13       		.uleb128 0x13
 11048 0879 0E020000 		.4byte	.LVL92
 11049 087d 5D390000 		.4byte	0x395d
 11050 0881 8B080000 		.4byte	0x88b
 11051 0885 14       		.uleb128 0x14
 11052 0886 01       		.uleb128 0x1
 11053 0887 50       		.byte	0x50
 11054 0888 01       		.uleb128 0x1
 11055 0889 35       		.byte	0x35
 11056 088a 00       		.byte	0
 11057 088b 13       		.uleb128 0x13
 11058 088c 14020000 		.4byte	.LVL93
 11059 0890 52390000 		.4byte	0x3952
 11060 0894 9F080000 		.4byte	0x89f
 11061 0898 14       		.uleb128 0x14
 11062 0899 01       		.uleb128 0x1
 11063 089a 50       		.byte	0x50
 11064 089b 02       		.uleb128 0x2
 11065 089c 08       		.byte	0x8
 11066 089d 2F       		.byte	0x2f
 11067 089e 00       		.byte	0
 11068 089f 13       		.uleb128 0x13
 11069 08a0 1E020000 		.4byte	.LVL94
 11070 08a4 5D390000 		.4byte	0x395d
 11071 08a8 B2080000 		.4byte	0x8b2
 11072 08ac 14       		.uleb128 0x14
 11073 08ad 01       		.uleb128 0x1
 11074 08ae 50       		.byte	0x50
 11075 08af 01       		.uleb128 0x1
ARM GAS  C:\Users\USUARIO\AppData\Local\Temp\ccWuTYF0.s 			page 225


 11076 08b0 35       		.byte	0x35
 11077 08b1 00       		.byte	0
 11078 08b2 13       		.uleb128 0x13
 11079 08b3 24020000 		.4byte	.LVL95
 11080 08b7 52390000 		.4byte	0x3952
 11081 08bb C6080000 		.4byte	0x8c6
 11082 08bf 14       		.uleb128 0x14
 11083 08c0 01       		.uleb128 0x1
 11084 08c1 50       		.byte	0x50
 11085 08c2 02       		.uleb128 0x2
 11086 08c3 08       		.byte	0x8
 11087 08c4 30       		.byte	0x30
 11088 08c5 00       		.byte	0
 11089 08c6 13       		.uleb128 0x13
 11090 08c7 2C020000 		.4byte	.LVL96
 11091 08cb 5D390000 		.4byte	0x395d
 11092 08cf D9080000 		.4byte	0x8d9
 11093 08d3 14       		.uleb128 0x14
 11094 08d4 01       		.uleb128 0x1
 11095 08d5 50       		.byte	0x50
 11096 08d6 01       		.uleb128 0x1
 11097 08d7 35       		.byte	0x35
 11098 08d8 00       		.byte	0
 11099 08d9 13       		.uleb128 0x13
 11100 08da 32020000 		.4byte	.LVL97
 11101 08de 52390000 		.4byte	0x3952
 11102 08e2 ED080000 		.4byte	0x8ed
 11103 08e6 14       		.uleb128 0x14
 11104 08e7 01       		.uleb128 0x1
 11105 08e8 50       		.byte	0x50
 11106 08e9 02       		.uleb128 0x2
 11107 08ea 08       		.byte	0x8
 11108 08eb 31       		.byte	0x31
 11109 08ec 00       		.byte	0
 11110 08ed 13       		.uleb128 0x13
 11111 08ee 3A020000 		.4byte	.LVL98
 11112 08f2 5D390000 		.4byte	0x395d
 11113 08f6 00090000 		.4byte	0x900
 11114 08fa 14       		.uleb128 0x14
 11115 08fb 01       		.uleb128 0x1
 11116 08fc 50       		.byte	0x50
 11117 08fd 01       		.uleb128 0x1
 11118 08fe 35       		.byte	0x35
 11119 08ff 00       		.byte	0
 11120 0900 13       		.uleb128 0x13
 11121 0901 40020000 		.4byte	.LVL99
 11122 0905 52390000 		.4byte	0x3952
 11123 0909 14090000 		.4byte	0x914
 11124 090d 14       		.uleb128 0x14
 11125 090e 01       		.uleb128 0x1
 11126 090f 50       		.byte	0x50
 11127 0910 02       		.uleb128 0x2
 11128 0911 08       		.byte	0x8
 11129 0912 32       		.byte	0x32
 11130 0913 00       		.byte	0
 11131 0914 13       		.uleb128 0x13
 11132 0915 48020000 		.4byte	.LVL100
ARM GAS  C:\Users\USUARIO\AppData\Local\Temp\ccWuTYF0.s 			page 226


 11133 0919 5D390000 		.4byte	0x395d
 11134 091d 27090000 		.4byte	0x927
 11135 0921 14       		.uleb128 0x14
 11136 0922 01       		.uleb128 0x1
 11137 0923 50       		.byte	0x50
 11138 0924 01       		.uleb128 0x1
 11139 0925 35       		.byte	0x35
 11140 0926 00       		.byte	0
 11141 0927 13       		.uleb128 0x13
 11142 0928 4E020000 		.4byte	.LVL101
 11143 092c 52390000 		.4byte	0x3952
 11144 0930 3B090000 		.4byte	0x93b
 11145 0934 14       		.uleb128 0x14
 11146 0935 01       		.uleb128 0x1
 11147 0936 50       		.byte	0x50
 11148 0937 02       		.uleb128 0x2
 11149 0938 08       		.byte	0x8
 11150 0939 33       		.byte	0x33
 11151 093a 00       		.byte	0
 11152 093b 13       		.uleb128 0x13
 11153 093c 58020000 		.4byte	.LVL102
 11154 0940 5D390000 		.4byte	0x395d
 11155 0944 4E090000 		.4byte	0x94e
 11156 0948 14       		.uleb128 0x14
 11157 0949 01       		.uleb128 0x1
 11158 094a 50       		.byte	0x50
 11159 094b 01       		.uleb128 0x1
 11160 094c 35       		.byte	0x35
 11161 094d 00       		.byte	0
 11162 094e 13       		.uleb128 0x13
 11163 094f 5E020000 		.4byte	.LVL103
 11164 0953 52390000 		.4byte	0x3952
 11165 0957 62090000 		.4byte	0x962
 11166 095b 14       		.uleb128 0x14
 11167 095c 01       		.uleb128 0x1
 11168 095d 50       		.byte	0x50
 11169 095e 02       		.uleb128 0x2
 11170 095f 08       		.byte	0x8
 11171 0960 34       		.byte	0x34
 11172 0961 00       		.byte	0
 11173 0962 13       		.uleb128 0x13
 11174 0963 66020000 		.4byte	.LVL104
 11175 0967 5D390000 		.4byte	0x395d
 11176 096b 75090000 		.4byte	0x975
 11177 096f 14       		.uleb128 0x14
 11178 0970 01       		.uleb128 0x1
 11179 0971 50       		.byte	0x50
 11180 0972 01       		.uleb128 0x1
 11181 0973 35       		.byte	0x35
 11182 0974 00       		.byte	0
 11183 0975 13       		.uleb128 0x13
 11184 0976 6C020000 		.4byte	.LVL105
 11185 097a 52390000 		.4byte	0x3952
 11186 097e 89090000 		.4byte	0x989
 11187 0982 14       		.uleb128 0x14
 11188 0983 01       		.uleb128 0x1
 11189 0984 50       		.byte	0x50
ARM GAS  C:\Users\USUARIO\AppData\Local\Temp\ccWuTYF0.s 			page 227


 11190 0985 02       		.uleb128 0x2
 11191 0986 08       		.byte	0x8
 11192 0987 35       		.byte	0x35
 11193 0988 00       		.byte	0
 11194 0989 13       		.uleb128 0x13
 11195 098a 74020000 		.4byte	.LVL106
 11196 098e 5D390000 		.4byte	0x395d
 11197 0992 9C090000 		.4byte	0x99c
 11198 0996 14       		.uleb128 0x14
 11199 0997 01       		.uleb128 0x1
 11200 0998 50       		.byte	0x50
 11201 0999 01       		.uleb128 0x1
 11202 099a 35       		.byte	0x35
 11203 099b 00       		.byte	0
 11204 099c 13       		.uleb128 0x13
 11205 099d 7A020000 		.4byte	.LVL107
 11206 09a1 52390000 		.4byte	0x3952
 11207 09a5 B0090000 		.4byte	0x9b0
 11208 09a9 14       		.uleb128 0x14
 11209 09aa 01       		.uleb128 0x1
 11210 09ab 50       		.byte	0x50
 11211 09ac 02       		.uleb128 0x2
 11212 09ad 08       		.byte	0x8
 11213 09ae 36       		.byte	0x36
 11214 09af 00       		.byte	0
 11215 09b0 13       		.uleb128 0x13
 11216 09b1 82020000 		.4byte	.LVL108
 11217 09b5 5D390000 		.4byte	0x395d
 11218 09b9 C3090000 		.4byte	0x9c3
 11219 09bd 14       		.uleb128 0x14
 11220 09be 01       		.uleb128 0x1
 11221 09bf 50       		.byte	0x50
 11222 09c0 01       		.uleb128 0x1
 11223 09c1 35       		.byte	0x35
 11224 09c2 00       		.byte	0
 11225 09c3 13       		.uleb128 0x13
 11226 09c4 88020000 		.4byte	.LVL109
 11227 09c8 52390000 		.4byte	0x3952
 11228 09cc D7090000 		.4byte	0x9d7
 11229 09d0 14       		.uleb128 0x14
 11230 09d1 01       		.uleb128 0x1
 11231 09d2 50       		.byte	0x50
 11232 09d3 02       		.uleb128 0x2
 11233 09d4 08       		.byte	0x8
 11234 09d5 37       		.byte	0x37
 11235 09d6 00       		.byte	0
 11236 09d7 13       		.uleb128 0x13
 11237 09d8 92020000 		.4byte	.LVL110
 11238 09dc 5D390000 		.4byte	0x395d
 11239 09e0 EA090000 		.4byte	0x9ea
 11240 09e4 14       		.uleb128 0x14
 11241 09e5 01       		.uleb128 0x1
 11242 09e6 50       		.byte	0x50
 11243 09e7 01       		.uleb128 0x1
 11244 09e8 35       		.byte	0x35
 11245 09e9 00       		.byte	0
 11246 09ea 13       		.uleb128 0x13
ARM GAS  C:\Users\USUARIO\AppData\Local\Temp\ccWuTYF0.s 			page 228


 11247 09eb 98020000 		.4byte	.LVL111
 11248 09ef 52390000 		.4byte	0x3952
 11249 09f3 FE090000 		.4byte	0x9fe
 11250 09f7 14       		.uleb128 0x14
 11251 09f8 01       		.uleb128 0x1
 11252 09f9 50       		.byte	0x50
 11253 09fa 02       		.uleb128 0x2
 11254 09fb 08       		.byte	0x8
 11255 09fc 38       		.byte	0x38
 11256 09fd 00       		.byte	0
 11257 09fe 13       		.uleb128 0x13
 11258 09ff A0020000 		.4byte	.LVL112
 11259 0a03 5D390000 		.4byte	0x395d
 11260 0a07 110A0000 		.4byte	0xa11
 11261 0a0b 14       		.uleb128 0x14
 11262 0a0c 01       		.uleb128 0x1
 11263 0a0d 50       		.byte	0x50
 11264 0a0e 01       		.uleb128 0x1
 11265 0a0f 35       		.byte	0x35
 11266 0a10 00       		.byte	0
 11267 0a11 13       		.uleb128 0x13
 11268 0a12 A6020000 		.4byte	.LVL113
 11269 0a16 52390000 		.4byte	0x3952
 11270 0a1a 250A0000 		.4byte	0xa25
 11271 0a1e 14       		.uleb128 0x14
 11272 0a1f 01       		.uleb128 0x1
 11273 0a20 50       		.byte	0x50
 11274 0a21 02       		.uleb128 0x2
 11275 0a22 08       		.byte	0x8
 11276 0a23 39       		.byte	0x39
 11277 0a24 00       		.byte	0
 11278 0a25 13       		.uleb128 0x13
 11279 0a26 AE020000 		.4byte	.LVL114
 11280 0a2a 5D390000 		.4byte	0x395d
 11281 0a2e 380A0000 		.4byte	0xa38
 11282 0a32 14       		.uleb128 0x14
 11283 0a33 01       		.uleb128 0x1
 11284 0a34 50       		.byte	0x50
 11285 0a35 01       		.uleb128 0x1
 11286 0a36 35       		.byte	0x35
 11287 0a37 00       		.byte	0
 11288 0a38 13       		.uleb128 0x13
 11289 0a39 B4020000 		.4byte	.LVL115
 11290 0a3d 52390000 		.4byte	0x3952
 11291 0a41 4C0A0000 		.4byte	0xa4c
 11292 0a45 14       		.uleb128 0x14
 11293 0a46 01       		.uleb128 0x1
 11294 0a47 50       		.byte	0x50
 11295 0a48 02       		.uleb128 0x2
 11296 0a49 08       		.byte	0x8
 11297 0a4a 3A       		.byte	0x3a
 11298 0a4b 00       		.byte	0
 11299 0a4c 13       		.uleb128 0x13
 11300 0a4d BC020000 		.4byte	.LVL116
 11301 0a51 5D390000 		.4byte	0x395d
 11302 0a55 5F0A0000 		.4byte	0xa5f
 11303 0a59 14       		.uleb128 0x14
ARM GAS  C:\Users\USUARIO\AppData\Local\Temp\ccWuTYF0.s 			page 229


 11304 0a5a 01       		.uleb128 0x1
 11305 0a5b 50       		.byte	0x50
 11306 0a5c 01       		.uleb128 0x1
 11307 0a5d 35       		.byte	0x35
 11308 0a5e 00       		.byte	0
 11309 0a5f 13       		.uleb128 0x13
 11310 0a60 C2020000 		.4byte	.LVL117
 11311 0a64 52390000 		.4byte	0x3952
 11312 0a68 730A0000 		.4byte	0xa73
 11313 0a6c 14       		.uleb128 0x14
 11314 0a6d 01       		.uleb128 0x1
 11315 0a6e 50       		.byte	0x50
 11316 0a6f 02       		.uleb128 0x2
 11317 0a70 08       		.byte	0x8
 11318 0a71 3B       		.byte	0x3b
 11319 0a72 00       		.byte	0
 11320 0a73 13       		.uleb128 0x13
 11321 0a74 CC020000 		.4byte	.LVL118
 11322 0a78 5D390000 		.4byte	0x395d
 11323 0a7c 860A0000 		.4byte	0xa86
 11324 0a80 14       		.uleb128 0x14
 11325 0a81 01       		.uleb128 0x1
 11326 0a82 50       		.byte	0x50
 11327 0a83 01       		.uleb128 0x1
 11328 0a84 35       		.byte	0x35
 11329 0a85 00       		.byte	0
 11330 0a86 13       		.uleb128 0x13
 11331 0a87 D2020000 		.4byte	.LVL119
 11332 0a8b 52390000 		.4byte	0x3952
 11333 0a8f 9A0A0000 		.4byte	0xa9a
 11334 0a93 14       		.uleb128 0x14
 11335 0a94 01       		.uleb128 0x1
 11336 0a95 50       		.byte	0x50
 11337 0a96 02       		.uleb128 0x2
 11338 0a97 08       		.byte	0x8
 11339 0a98 3C       		.byte	0x3c
 11340 0a99 00       		.byte	0
 11341 0a9a 13       		.uleb128 0x13
 11342 0a9b DA020000 		.4byte	.LVL120
 11343 0a9f 5D390000 		.4byte	0x395d
 11344 0aa3 AD0A0000 		.4byte	0xaad
 11345 0aa7 14       		.uleb128 0x14
 11346 0aa8 01       		.uleb128 0x1
 11347 0aa9 50       		.byte	0x50
 11348 0aaa 01       		.uleb128 0x1
 11349 0aab 35       		.byte	0x35
 11350 0aac 00       		.byte	0
 11351 0aad 13       		.uleb128 0x13
 11352 0aae E0020000 		.4byte	.LVL121
 11353 0ab2 52390000 		.4byte	0x3952
 11354 0ab6 C10A0000 		.4byte	0xac1
 11355 0aba 14       		.uleb128 0x14
 11356 0abb 01       		.uleb128 0x1
 11357 0abc 50       		.byte	0x50
 11358 0abd 02       		.uleb128 0x2
 11359 0abe 08       		.byte	0x8
 11360 0abf 3D       		.byte	0x3d
ARM GAS  C:\Users\USUARIO\AppData\Local\Temp\ccWuTYF0.s 			page 230


 11361 0ac0 00       		.byte	0
 11362 0ac1 13       		.uleb128 0x13
 11363 0ac2 E8020000 		.4byte	.LVL122
 11364 0ac6 5D390000 		.4byte	0x395d
 11365 0aca D40A0000 		.4byte	0xad4
 11366 0ace 14       		.uleb128 0x14
 11367 0acf 01       		.uleb128 0x1
 11368 0ad0 50       		.byte	0x50
 11369 0ad1 01       		.uleb128 0x1
 11370 0ad2 35       		.byte	0x35
 11371 0ad3 00       		.byte	0
 11372 0ad4 13       		.uleb128 0x13
 11373 0ad5 EE020000 		.4byte	.LVL123
 11374 0ad9 52390000 		.4byte	0x3952
 11375 0add E80A0000 		.4byte	0xae8
 11376 0ae1 14       		.uleb128 0x14
 11377 0ae2 01       		.uleb128 0x1
 11378 0ae3 50       		.byte	0x50
 11379 0ae4 02       		.uleb128 0x2
 11380 0ae5 08       		.byte	0x8
 11381 0ae6 3E       		.byte	0x3e
 11382 0ae7 00       		.byte	0
 11383 0ae8 13       		.uleb128 0x13
 11384 0ae9 F6020000 		.4byte	.LVL124
 11385 0aed 5D390000 		.4byte	0x395d
 11386 0af1 FB0A0000 		.4byte	0xafb
 11387 0af5 14       		.uleb128 0x14
 11388 0af6 01       		.uleb128 0x1
 11389 0af7 50       		.byte	0x50
 11390 0af8 01       		.uleb128 0x1
 11391 0af9 35       		.byte	0x35
 11392 0afa 00       		.byte	0
 11393 0afb 13       		.uleb128 0x13
 11394 0afc FC020000 		.4byte	.LVL125
 11395 0b00 52390000 		.4byte	0x3952
 11396 0b04 0F0B0000 		.4byte	0xb0f
 11397 0b08 14       		.uleb128 0x14
 11398 0b09 01       		.uleb128 0x1
 11399 0b0a 50       		.byte	0x50
 11400 0b0b 02       		.uleb128 0x2
 11401 0b0c 08       		.byte	0x8
 11402 0b0d 3F       		.byte	0x3f
 11403 0b0e 00       		.byte	0
 11404 0b0f 13       		.uleb128 0x13
 11405 0b10 04030000 		.4byte	.LVL126
 11406 0b14 5D390000 		.4byte	0x395d
 11407 0b18 220B0000 		.4byte	0xb22
 11408 0b1c 14       		.uleb128 0x14
 11409 0b1d 01       		.uleb128 0x1
 11410 0b1e 50       		.byte	0x50
 11411 0b1f 01       		.uleb128 0x1
 11412 0b20 35       		.byte	0x35
 11413 0b21 00       		.byte	0
 11414 0b22 13       		.uleb128 0x13
 11415 0b23 96030000 		.4byte	.LVL127
 11416 0b27 52390000 		.4byte	0x3952
 11417 0b2b 3F0B0000 		.4byte	0xb3f
ARM GAS  C:\Users\USUARIO\AppData\Local\Temp\ccWuTYF0.s 			page 231


 11418 0b2f 14       		.uleb128 0x14
 11419 0b30 01       		.uleb128 0x1
 11420 0b31 50       		.byte	0x50
 11421 0b32 0B       		.uleb128 0xb
 11422 0b33 75       		.byte	0x75
 11423 0b34 00       		.sleb128 0
 11424 0b35 31       		.byte	0x31
 11425 0b36 24       		.byte	0x24
 11426 0b37 75       		.byte	0x75
 11427 0b38 00       		.sleb128 0
 11428 0b39 22       		.byte	0x22
 11429 0b3a 32       		.byte	0x32
 11430 0b3b 24       		.byte	0x24
 11431 0b3c 23       		.byte	0x23
 11432 0b3d 40       		.uleb128 0x40
 11433 0b3e 00       		.byte	0
 11434 0b3f 15       		.uleb128 0x15
 11435 0b40 AA030000 		.4byte	.LVL128
 11436 0b44 52390000 		.4byte	0x3952
 11437 0b48 15       		.uleb128 0x15
 11438 0b49 AE030000 		.4byte	.LVL129
 11439 0b4d FA020000 		.4byte	0x2fa
 11440 0b51 13       		.uleb128 0x13
 11441 0b52 CE030000 		.4byte	.LVL132
 11442 0b56 5D390000 		.4byte	0x395d
 11443 0b5a 640B0000 		.4byte	0xb64
 11444 0b5e 14       		.uleb128 0x14
 11445 0b5f 01       		.uleb128 0x1
 11446 0b60 50       		.byte	0x50
 11447 0b61 01       		.uleb128 0x1
 11448 0b62 35       		.byte	0x35
 11449 0b63 00       		.byte	0
 11450 0b64 13       		.uleb128 0x13
 11451 0b65 DE030000 		.4byte	.LVL133
 11452 0b69 52390000 		.4byte	0x3952
 11453 0b6d 810B0000 		.4byte	0xb81
 11454 0b71 14       		.uleb128 0x14
 11455 0b72 01       		.uleb128 0x1
 11456 0b73 50       		.byte	0x50
 11457 0b74 0B       		.uleb128 0xb
 11458 0b75 75       		.byte	0x75
 11459 0b76 00       		.sleb128 0
 11460 0b77 31       		.byte	0x31
 11461 0b78 24       		.byte	0x24
 11462 0b79 75       		.byte	0x75
 11463 0b7a 00       		.sleb128 0
 11464 0b7b 22       		.byte	0x22
 11465 0b7c 32       		.byte	0x32
 11466 0b7d 24       		.byte	0x24
 11467 0b7e 23       		.byte	0x23
 11468 0b7f 42       		.uleb128 0x42
 11469 0b80 00       		.byte	0
 11470 0b81 15       		.uleb128 0x15
 11471 0b82 F0030000 		.4byte	.LVL134
 11472 0b86 52390000 		.4byte	0x3952
 11473 0b8a 15       		.uleb128 0x15
 11474 0b8b F4030000 		.4byte	.LVL135
ARM GAS  C:\Users\USUARIO\AppData\Local\Temp\ccWuTYF0.s 			page 232


 11475 0b8f FA020000 		.4byte	0x2fa
 11476 0b93 13       		.uleb128 0x13
 11477 0b94 12040000 		.4byte	.LVL138
 11478 0b98 5D390000 		.4byte	0x395d
 11479 0b9c A60B0000 		.4byte	0xba6
 11480 0ba0 14       		.uleb128 0x14
 11481 0ba1 01       		.uleb128 0x1
 11482 0ba2 50       		.byte	0x50
 11483 0ba3 01       		.uleb128 0x1
 11484 0ba4 35       		.byte	0x35
 11485 0ba5 00       		.byte	0
 11486 0ba6 13       		.uleb128 0x13
 11487 0ba7 22040000 		.4byte	.LVL139
 11488 0bab 52390000 		.4byte	0x3952
 11489 0baf C30B0000 		.4byte	0xbc3
 11490 0bb3 14       		.uleb128 0x14
 11491 0bb4 01       		.uleb128 0x1
 11492 0bb5 50       		.byte	0x50
 11493 0bb6 0B       		.uleb128 0xb
 11494 0bb7 75       		.byte	0x75
 11495 0bb8 00       		.sleb128 0
 11496 0bb9 31       		.byte	0x31
 11497 0bba 24       		.byte	0x24
 11498 0bbb 75       		.byte	0x75
 11499 0bbc 00       		.sleb128 0
 11500 0bbd 22       		.byte	0x22
 11501 0bbe 32       		.byte	0x32
 11502 0bbf 24       		.byte	0x24
 11503 0bc0 23       		.byte	0x23
 11504 0bc1 44       		.uleb128 0x44
 11505 0bc2 00       		.byte	0
 11506 0bc3 15       		.uleb128 0x15
 11507 0bc4 34040000 		.4byte	.LVL140
 11508 0bc8 52390000 		.4byte	0x3952
 11509 0bcc 15       		.uleb128 0x15
 11510 0bcd 38040000 		.4byte	.LVL141
 11511 0bd1 FA020000 		.4byte	0x2fa
 11512 0bd5 13       		.uleb128 0x13
 11513 0bd6 56040000 		.4byte	.LVL144
 11514 0bda 5D390000 		.4byte	0x395d
 11515 0bde E80B0000 		.4byte	0xbe8
 11516 0be2 14       		.uleb128 0x14
 11517 0be3 01       		.uleb128 0x1
 11518 0be4 50       		.byte	0x50
 11519 0be5 01       		.uleb128 0x1
 11520 0be6 35       		.byte	0x35
 11521 0be7 00       		.byte	0
 11522 0be8 13       		.uleb128 0x13
 11523 0be9 66040000 		.4byte	.LVL145
 11524 0bed 52390000 		.4byte	0x3952
 11525 0bf1 050C0000 		.4byte	0xc05
 11526 0bf5 14       		.uleb128 0x14
 11527 0bf6 01       		.uleb128 0x1
 11528 0bf7 50       		.byte	0x50
 11529 0bf8 0B       		.uleb128 0xb
 11530 0bf9 75       		.byte	0x75
 11531 0bfa 00       		.sleb128 0
ARM GAS  C:\Users\USUARIO\AppData\Local\Temp\ccWuTYF0.s 			page 233


 11532 0bfb 31       		.byte	0x31
 11533 0bfc 24       		.byte	0x24
 11534 0bfd 75       		.byte	0x75
 11535 0bfe 00       		.sleb128 0
 11536 0bff 22       		.byte	0x22
 11537 0c00 32       		.byte	0x32
 11538 0c01 24       		.byte	0x24
 11539 0c02 23       		.byte	0x23
 11540 0c03 46       		.uleb128 0x46
 11541 0c04 00       		.byte	0
 11542 0c05 15       		.uleb128 0x15
 11543 0c06 78040000 		.4byte	.LVL146
 11544 0c0a 52390000 		.4byte	0x3952
 11545 0c0e 15       		.uleb128 0x15
 11546 0c0f 7C040000 		.4byte	.LVL147
 11547 0c13 FA020000 		.4byte	0x2fa
 11548 0c17 13       		.uleb128 0x13
 11549 0c18 98040000 		.4byte	.LVL150
 11550 0c1c 5D390000 		.4byte	0x395d
 11551 0c20 2A0C0000 		.4byte	0xc2a
 11552 0c24 14       		.uleb128 0x14
 11553 0c25 01       		.uleb128 0x1
 11554 0c26 50       		.byte	0x50
 11555 0c27 01       		.uleb128 0x1
 11556 0c28 35       		.byte	0x35
 11557 0c29 00       		.byte	0
 11558 0c2a 13       		.uleb128 0x13
 11559 0c2b A8040000 		.4byte	.LVL151
 11560 0c2f 52390000 		.4byte	0x3952
 11561 0c33 470C0000 		.4byte	0xc47
 11562 0c37 14       		.uleb128 0x14
 11563 0c38 01       		.uleb128 0x1
 11564 0c39 50       		.byte	0x50
 11565 0c3a 0B       		.uleb128 0xb
 11566 0c3b 75       		.byte	0x75
 11567 0c3c 00       		.sleb128 0
 11568 0c3d 31       		.byte	0x31
 11569 0c3e 24       		.byte	0x24
 11570 0c3f 75       		.byte	0x75
 11571 0c40 00       		.sleb128 0
 11572 0c41 22       		.byte	0x22
 11573 0c42 32       		.byte	0x32
 11574 0c43 24       		.byte	0x24
 11575 0c44 23       		.byte	0x23
 11576 0c45 48       		.uleb128 0x48
 11577 0c46 00       		.byte	0
 11578 0c47 15       		.uleb128 0x15
 11579 0c48 BA040000 		.4byte	.LVL152
 11580 0c4c 52390000 		.4byte	0x3952
 11581 0c50 15       		.uleb128 0x15
 11582 0c51 BE040000 		.4byte	.LVL153
 11583 0c55 FA020000 		.4byte	0x2fa
 11584 0c59 13       		.uleb128 0x13
 11585 0c5a DC040000 		.4byte	.LVL156
 11586 0c5e 5D390000 		.4byte	0x395d
 11587 0c62 6C0C0000 		.4byte	0xc6c
 11588 0c66 14       		.uleb128 0x14
ARM GAS  C:\Users\USUARIO\AppData\Local\Temp\ccWuTYF0.s 			page 234


 11589 0c67 01       		.uleb128 0x1
 11590 0c68 50       		.byte	0x50
 11591 0c69 01       		.uleb128 0x1
 11592 0c6a 35       		.byte	0x35
 11593 0c6b 00       		.byte	0
 11594 0c6c 13       		.uleb128 0x13
 11595 0c6d EC040000 		.4byte	.LVL157
 11596 0c71 52390000 		.4byte	0x3952
 11597 0c75 890C0000 		.4byte	0xc89
 11598 0c79 14       		.uleb128 0x14
 11599 0c7a 01       		.uleb128 0x1
 11600 0c7b 50       		.byte	0x50
 11601 0c7c 0B       		.uleb128 0xb
 11602 0c7d 75       		.byte	0x75
 11603 0c7e 00       		.sleb128 0
 11604 0c7f 31       		.byte	0x31
 11605 0c80 24       		.byte	0x24
 11606 0c81 75       		.byte	0x75
 11607 0c82 00       		.sleb128 0
 11608 0c83 22       		.byte	0x22
 11609 0c84 32       		.byte	0x32
 11610 0c85 24       		.byte	0x24
 11611 0c86 23       		.byte	0x23
 11612 0c87 4A       		.uleb128 0x4a
 11613 0c88 00       		.byte	0
 11614 0c89 15       		.uleb128 0x15
 11615 0c8a FE040000 		.4byte	.LVL158
 11616 0c8e 52390000 		.4byte	0x3952
 11617 0c92 15       		.uleb128 0x15
 11618 0c93 02050000 		.4byte	.LVL159
 11619 0c97 FA020000 		.4byte	0x2fa
 11620 0c9b 13       		.uleb128 0x13
 11621 0c9c 20050000 		.4byte	.LVL162
 11622 0ca0 5D390000 		.4byte	0x395d
 11623 0ca4 AE0C0000 		.4byte	0xcae
 11624 0ca8 14       		.uleb128 0x14
 11625 0ca9 01       		.uleb128 0x1
 11626 0caa 50       		.byte	0x50
 11627 0cab 01       		.uleb128 0x1
 11628 0cac 35       		.byte	0x35
 11629 0cad 00       		.byte	0
 11630 0cae 13       		.uleb128 0x13
 11631 0caf 52050000 		.4byte	.LVL164
 11632 0cb3 52390000 		.4byte	0x3952
 11633 0cb7 CB0C0000 		.4byte	0xccb
 11634 0cbb 14       		.uleb128 0x14
 11635 0cbc 01       		.uleb128 0x1
 11636 0cbd 50       		.byte	0x50
 11637 0cbe 0B       		.uleb128 0xb
 11638 0cbf 74       		.byte	0x74
 11639 0cc0 00       		.sleb128 0
 11640 0cc1 31       		.byte	0x31
 11641 0cc2 24       		.byte	0x24
 11642 0cc3 74       		.byte	0x74
 11643 0cc4 00       		.sleb128 0
 11644 0cc5 22       		.byte	0x22
 11645 0cc6 31       		.byte	0x31
ARM GAS  C:\Users\USUARIO\AppData\Local\Temp\ccWuTYF0.s 			page 235


 11646 0cc7 24       		.byte	0x24
 11647 0cc8 23       		.byte	0x23
 11648 0cc9 64       		.uleb128 0x64
 11649 0cca 00       		.byte	0
 11650 0ccb 13       		.uleb128 0x13
 11651 0ccc 70050000 		.4byte	.LVL165
 11652 0cd0 52390000 		.4byte	0x3952
 11653 0cd4 E80C0000 		.4byte	0xce8
 11654 0cd8 14       		.uleb128 0x14
 11655 0cd9 01       		.uleb128 0x1
 11656 0cda 50       		.byte	0x50
 11657 0cdb 0B       		.uleb128 0xb
 11658 0cdc 74       		.byte	0x74
 11659 0cdd 00       		.sleb128 0
 11660 0cde 31       		.byte	0x31
 11661 0cdf 24       		.byte	0x24
 11662 0ce0 74       		.byte	0x74
 11663 0ce1 00       		.sleb128 0
 11664 0ce2 22       		.byte	0x22
 11665 0ce3 31       		.byte	0x31
 11666 0ce4 24       		.byte	0x24
 11667 0ce5 23       		.byte	0x23
 11668 0ce6 65       		.uleb128 0x65
 11669 0ce7 00       		.byte	0
 11670 0ce8 13       		.uleb128 0x13
 11671 0ce9 88050000 		.4byte	.LVL166
 11672 0ced 52390000 		.4byte	0x3952
 11673 0cf1 050D0000 		.4byte	0xd05
 11674 0cf5 14       		.uleb128 0x14
 11675 0cf6 01       		.uleb128 0x1
 11676 0cf7 50       		.byte	0x50
 11677 0cf8 0B       		.uleb128 0xb
 11678 0cf9 74       		.byte	0x74
 11679 0cfa 00       		.sleb128 0
 11680 0cfb 31       		.byte	0x31
 11681 0cfc 24       		.byte	0x24
 11682 0cfd 74       		.byte	0x74
 11683 0cfe 00       		.sleb128 0
 11684 0cff 22       		.byte	0x22
 11685 0d00 31       		.byte	0x31
 11686 0d01 24       		.byte	0x24
 11687 0d02 23       		.byte	0x23
 11688 0d03 66       		.uleb128 0x66
 11689 0d04 00       		.byte	0
 11690 0d05 13       		.uleb128 0x13
 11691 0d06 A2050000 		.4byte	.LVL167
 11692 0d0a 52390000 		.4byte	0x3952
 11693 0d0e 220D0000 		.4byte	0xd22
 11694 0d12 14       		.uleb128 0x14
 11695 0d13 01       		.uleb128 0x1
 11696 0d14 50       		.byte	0x50
 11697 0d15 0B       		.uleb128 0xb
 11698 0d16 74       		.byte	0x74
 11699 0d17 00       		.sleb128 0
 11700 0d18 31       		.byte	0x31
 11701 0d19 24       		.byte	0x24
 11702 0d1a 74       		.byte	0x74
ARM GAS  C:\Users\USUARIO\AppData\Local\Temp\ccWuTYF0.s 			page 236


 11703 0d1b 00       		.sleb128 0
 11704 0d1c 22       		.byte	0x22
 11705 0d1d 31       		.byte	0x31
 11706 0d1e 24       		.byte	0x24
 11707 0d1f 23       		.byte	0x23
 11708 0d20 67       		.uleb128 0x67
 11709 0d21 00       		.byte	0
 11710 0d22 13       		.uleb128 0x13
 11711 0d23 BC050000 		.4byte	.LVL168
 11712 0d27 52390000 		.4byte	0x3952
 11713 0d2b 3F0D0000 		.4byte	0xd3f
 11714 0d2f 14       		.uleb128 0x14
 11715 0d30 01       		.uleb128 0x1
 11716 0d31 50       		.byte	0x50
 11717 0d32 0B       		.uleb128 0xb
 11718 0d33 74       		.byte	0x74
 11719 0d34 00       		.sleb128 0
 11720 0d35 31       		.byte	0x31
 11721 0d36 24       		.byte	0x24
 11722 0d37 74       		.byte	0x74
 11723 0d38 00       		.sleb128 0
 11724 0d39 22       		.byte	0x22
 11725 0d3a 31       		.byte	0x31
 11726 0d3b 24       		.byte	0x24
 11727 0d3c 23       		.byte	0x23
 11728 0d3d 68       		.uleb128 0x68
 11729 0d3e 00       		.byte	0
 11730 0d3f 15       		.uleb128 0x15
 11731 0d40 D8050000 		.4byte	.LVL169
 11732 0d44 FA020000 		.4byte	0x2fa
 11733 0d48 00       		.byte	0
 11734 0d49 12       		.uleb128 0x12
 11735 0d4a 440B0000 		.4byte	.LASF57
 11736 0d4e 01       		.byte	0x1
 11737 0d4f E2       		.byte	0xe2
 11738 0d50 00000000 		.4byte	.LFB70
 11739 0d54 3E090000 		.4byte	.LFE70-.LFB70
 11740 0d58 01       		.uleb128 0x1
 11741 0d59 9C       		.byte	0x9c
 11742 0d5a B6160000 		.4byte	0x16b6
 11743 0d5e 13       		.uleb128 0x13
 11744 0d5f 1A000000 		.4byte	.LVL175
 11745 0d63 68390000 		.4byte	0x3968
 11746 0d67 760D0000 		.4byte	0xd76
 11747 0d6b 14       		.uleb128 0x14
 11748 0d6c 01       		.uleb128 0x1
 11749 0d6d 50       		.byte	0x50
 11750 0d6e 01       		.uleb128 0x1
 11751 0d6f 3A       		.byte	0x3a
 11752 0d70 14       		.uleb128 0x14
 11753 0d71 01       		.uleb128 0x1
 11754 0d72 51       		.byte	0x51
 11755 0d73 01       		.uleb128 0x1
 11756 0d74 30       		.byte	0x30
 11757 0d75 00       		.byte	0
 11758 0d76 13       		.uleb128 0x13
 11759 0d77 20000000 		.4byte	.LVL176
ARM GAS  C:\Users\USUARIO\AppData\Local\Temp\ccWuTYF0.s 			page 237


 11760 0d7b 5D390000 		.4byte	0x395d
 11761 0d7f 890D0000 		.4byte	0xd89
 11762 0d83 14       		.uleb128 0x14
 11763 0d84 01       		.uleb128 0x1
 11764 0d85 50       		.byte	0x50
 11765 0d86 01       		.uleb128 0x1
 11766 0d87 44       		.byte	0x44
 11767 0d88 00       		.byte	0
 11768 0d89 13       		.uleb128 0x13
 11769 0d8a 34000000 		.4byte	.LVL177
 11770 0d8e 68390000 		.4byte	0x3968
 11771 0d92 A10D0000 		.4byte	0xda1
 11772 0d96 14       		.uleb128 0x14
 11773 0d97 01       		.uleb128 0x1
 11774 0d98 50       		.byte	0x50
 11775 0d99 01       		.uleb128 0x1
 11776 0d9a 3A       		.byte	0x3a
 11777 0d9b 14       		.uleb128 0x14
 11778 0d9c 01       		.uleb128 0x1
 11779 0d9d 51       		.byte	0x51
 11780 0d9e 01       		.uleb128 0x1
 11781 0d9f 31       		.byte	0x31
 11782 0da0 00       		.byte	0
 11783 0da1 13       		.uleb128 0x13
 11784 0da2 3A000000 		.4byte	.LVL178
 11785 0da6 5D390000 		.4byte	0x395d
 11786 0daa B40D0000 		.4byte	0xdb4
 11787 0dae 14       		.uleb128 0x14
 11788 0daf 01       		.uleb128 0x1
 11789 0db0 50       		.byte	0x50
 11790 0db1 01       		.uleb128 0x1
 11791 0db2 44       		.byte	0x44
 11792 0db3 00       		.byte	0
 11793 0db4 13       		.uleb128 0x13
 11794 0db5 60000000 		.4byte	.LVL181
 11795 0db9 68390000 		.4byte	0x3968
 11796 0dbd CD0D0000 		.4byte	0xdcd
 11797 0dc1 14       		.uleb128 0x14
 11798 0dc2 01       		.uleb128 0x1
 11799 0dc3 50       		.byte	0x50
 11800 0dc4 02       		.uleb128 0x2
 11801 0dc5 08       		.byte	0x8
 11802 0dc6 64       		.byte	0x64
 11803 0dc7 14       		.uleb128 0x14
 11804 0dc8 01       		.uleb128 0x1
 11805 0dc9 51       		.byte	0x51
 11806 0dca 01       		.uleb128 0x1
 11807 0dcb 32       		.byte	0x32
 11808 0dcc 00       		.byte	0
 11809 0dcd 13       		.uleb128 0x13
 11810 0dce 66000000 		.4byte	.LVL182
 11811 0dd2 5D390000 		.4byte	0x395d
 11812 0dd6 E00D0000 		.4byte	0xde0
 11813 0dda 14       		.uleb128 0x14
 11814 0ddb 01       		.uleb128 0x1
 11815 0ddc 50       		.byte	0x50
 11816 0ddd 01       		.uleb128 0x1
ARM GAS  C:\Users\USUARIO\AppData\Local\Temp\ccWuTYF0.s 			page 238


 11817 0dde 44       		.byte	0x44
 11818 0ddf 00       		.byte	0
 11819 0de0 13       		.uleb128 0x13
 11820 0de1 6E000000 		.4byte	.LVL183
 11821 0de5 68390000 		.4byte	0x3968
 11822 0de9 F80D0000 		.4byte	0xdf8
 11823 0ded 14       		.uleb128 0x14
 11824 0dee 01       		.uleb128 0x1
 11825 0def 50       		.byte	0x50
 11826 0df0 01       		.uleb128 0x1
 11827 0df1 30       		.byte	0x30
 11828 0df2 14       		.uleb128 0x14
 11829 0df3 01       		.uleb128 0x1
 11830 0df4 51       		.byte	0x51
 11831 0df5 01       		.uleb128 0x1
 11832 0df6 33       		.byte	0x33
 11833 0df7 00       		.byte	0
 11834 0df8 13       		.uleb128 0x13
 11835 0df9 74000000 		.4byte	.LVL184
 11836 0dfd 5D390000 		.4byte	0x395d
 11837 0e01 0B0E0000 		.4byte	0xe0b
 11838 0e05 14       		.uleb128 0x14
 11839 0e06 01       		.uleb128 0x1
 11840 0e07 50       		.byte	0x50
 11841 0e08 01       		.uleb128 0x1
 11842 0e09 44       		.byte	0x44
 11843 0e0a 00       		.byte	0
 11844 0e0b 13       		.uleb128 0x13
 11845 0e0c 8C000000 		.4byte	.LVL185
 11846 0e10 68390000 		.4byte	0x3968
 11847 0e14 240E0000 		.4byte	0xe24
 11848 0e18 14       		.uleb128 0x14
 11849 0e19 01       		.uleb128 0x1
 11850 0e1a 50       		.byte	0x50
 11851 0e1b 02       		.uleb128 0x2
 11852 0e1c 08       		.byte	0x8
 11853 0e1d 3C       		.byte	0x3c
 11854 0e1e 14       		.uleb128 0x14
 11855 0e1f 01       		.uleb128 0x1
 11856 0e20 51       		.byte	0x51
 11857 0e21 01       		.uleb128 0x1
 11858 0e22 34       		.byte	0x34
 11859 0e23 00       		.byte	0
 11860 0e24 13       		.uleb128 0x13
 11861 0e25 92000000 		.4byte	.LVL186
 11862 0e29 5D390000 		.4byte	0x395d
 11863 0e2d 370E0000 		.4byte	0xe37
 11864 0e31 14       		.uleb128 0x14
 11865 0e32 01       		.uleb128 0x1
 11866 0e33 50       		.byte	0x50
 11867 0e34 01       		.uleb128 0x1
 11868 0e35 44       		.byte	0x44
 11869 0e36 00       		.byte	0
 11870 0e37 13       		.uleb128 0x13
 11871 0e38 A8000000 		.4byte	.LVL187
 11872 0e3c 68390000 		.4byte	0x3968
 11873 0e40 500E0000 		.4byte	0xe50
ARM GAS  C:\Users\USUARIO\AppData\Local\Temp\ccWuTYF0.s 			page 239


 11874 0e44 14       		.uleb128 0x14
 11875 0e45 01       		.uleb128 0x1
 11876 0e46 50       		.byte	0x50
 11877 0e47 02       		.uleb128 0x2
 11878 0e48 74       		.byte	0x74
 11879 0e49 00       		.sleb128 0
 11880 0e4a 14       		.uleb128 0x14
 11881 0e4b 01       		.uleb128 0x1
 11882 0e4c 51       		.byte	0x51
 11883 0e4d 01       		.uleb128 0x1
 11884 0e4e 35       		.byte	0x35
 11885 0e4f 00       		.byte	0
 11886 0e50 13       		.uleb128 0x13
 11887 0e51 AE000000 		.4byte	.LVL188
 11888 0e55 5D390000 		.4byte	0x395d
 11889 0e59 630E0000 		.4byte	0xe63
 11890 0e5d 14       		.uleb128 0x14
 11891 0e5e 01       		.uleb128 0x1
 11892 0e5f 50       		.byte	0x50
 11893 0e60 01       		.uleb128 0x1
 11894 0e61 44       		.byte	0x44
 11895 0e62 00       		.byte	0
 11896 0e63 13       		.uleb128 0x13
 11897 0e64 B6000000 		.4byte	.LVL189
 11898 0e68 68390000 		.4byte	0x3968
 11899 0e6c 7C0E0000 		.4byte	0xe7c
 11900 0e70 14       		.uleb128 0x14
 11901 0e71 01       		.uleb128 0x1
 11902 0e72 50       		.byte	0x50
 11903 0e73 02       		.uleb128 0x2
 11904 0e74 74       		.byte	0x74
 11905 0e75 00       		.sleb128 0
 11906 0e76 14       		.uleb128 0x14
 11907 0e77 01       		.uleb128 0x1
 11908 0e78 51       		.byte	0x51
 11909 0e79 01       		.uleb128 0x1
 11910 0e7a 36       		.byte	0x36
 11911 0e7b 00       		.byte	0
 11912 0e7c 13       		.uleb128 0x13
 11913 0e7d BC000000 		.4byte	.LVL190
 11914 0e81 5D390000 		.4byte	0x395d
 11915 0e85 8F0E0000 		.4byte	0xe8f
 11916 0e89 14       		.uleb128 0x14
 11917 0e8a 01       		.uleb128 0x1
 11918 0e8b 50       		.byte	0x50
 11919 0e8c 01       		.uleb128 0x1
 11920 0e8d 44       		.byte	0x44
 11921 0e8e 00       		.byte	0
 11922 0e8f 13       		.uleb128 0x13
 11923 0e90 D4000000 		.4byte	.LVL191
 11924 0e94 68390000 		.4byte	0x3968
 11925 0e98 A70E0000 		.4byte	0xea7
 11926 0e9c 14       		.uleb128 0x14
 11927 0e9d 01       		.uleb128 0x1
 11928 0e9e 50       		.byte	0x50
 11929 0e9f 01       		.uleb128 0x1
 11930 0ea0 35       		.byte	0x35
ARM GAS  C:\Users\USUARIO\AppData\Local\Temp\ccWuTYF0.s 			page 240


 11931 0ea1 14       		.uleb128 0x14
 11932 0ea2 01       		.uleb128 0x1
 11933 0ea3 51       		.byte	0x51
 11934 0ea4 01       		.uleb128 0x1
 11935 0ea5 37       		.byte	0x37
 11936 0ea6 00       		.byte	0
 11937 0ea7 13       		.uleb128 0x13
 11938 0ea8 DA000000 		.4byte	.LVL192
 11939 0eac 5D390000 		.4byte	0x395d
 11940 0eb0 BA0E0000 		.4byte	0xeba
 11941 0eb4 14       		.uleb128 0x14
 11942 0eb5 01       		.uleb128 0x1
 11943 0eb6 50       		.byte	0x50
 11944 0eb7 01       		.uleb128 0x1
 11945 0eb8 44       		.byte	0x44
 11946 0eb9 00       		.byte	0
 11947 0eba 13       		.uleb128 0x13
 11948 0ebb E2000000 		.4byte	.LVL193
 11949 0ebf 68390000 		.4byte	0x3968
 11950 0ec3 D20E0000 		.4byte	0xed2
 11951 0ec7 14       		.uleb128 0x14
 11952 0ec8 01       		.uleb128 0x1
 11953 0ec9 50       		.byte	0x50
 11954 0eca 01       		.uleb128 0x1
 11955 0ecb 30       		.byte	0x30
 11956 0ecc 14       		.uleb128 0x14
 11957 0ecd 01       		.uleb128 0x1
 11958 0ece 51       		.byte	0x51
 11959 0ecf 01       		.uleb128 0x1
 11960 0ed0 38       		.byte	0x38
 11961 0ed1 00       		.byte	0
 11962 0ed2 13       		.uleb128 0x13
 11963 0ed3 E8000000 		.4byte	.LVL194
 11964 0ed7 5D390000 		.4byte	0x395d
 11965 0edb E50E0000 		.4byte	0xee5
 11966 0edf 14       		.uleb128 0x14
 11967 0ee0 01       		.uleb128 0x1
 11968 0ee1 50       		.byte	0x50
 11969 0ee2 01       		.uleb128 0x1
 11970 0ee3 44       		.byte	0x44
 11971 0ee4 00       		.byte	0
 11972 0ee5 13       		.uleb128 0x13
 11973 0ee6 00010000 		.4byte	.LVL195
 11974 0eea 68390000 		.4byte	0x3968
 11975 0eee FD0E0000 		.4byte	0xefd
 11976 0ef2 14       		.uleb128 0x14
 11977 0ef3 01       		.uleb128 0x1
 11978 0ef4 50       		.byte	0x50
 11979 0ef5 01       		.uleb128 0x1
 11980 0ef6 3A       		.byte	0x3a
 11981 0ef7 14       		.uleb128 0x14
 11982 0ef8 01       		.uleb128 0x1
 11983 0ef9 51       		.byte	0x51
 11984 0efa 01       		.uleb128 0x1
 11985 0efb 39       		.byte	0x39
 11986 0efc 00       		.byte	0
 11987 0efd 13       		.uleb128 0x13
ARM GAS  C:\Users\USUARIO\AppData\Local\Temp\ccWuTYF0.s 			page 241


 11988 0efe 06010000 		.4byte	.LVL196
 11989 0f02 5D390000 		.4byte	0x395d
 11990 0f06 100F0000 		.4byte	0xf10
 11991 0f0a 14       		.uleb128 0x14
 11992 0f0b 01       		.uleb128 0x1
 11993 0f0c 50       		.byte	0x50
 11994 0f0d 01       		.uleb128 0x1
 11995 0f0e 44       		.byte	0x44
 11996 0f0f 00       		.byte	0
 11997 0f10 13       		.uleb128 0x13
 11998 0f11 1A010000 		.4byte	.LVL197
 11999 0f15 68390000 		.4byte	0x3968
 12000 0f19 280F0000 		.4byte	0xf28
 12001 0f1d 14       		.uleb128 0x14
 12002 0f1e 01       		.uleb128 0x1
 12003 0f1f 50       		.byte	0x50
 12004 0f20 01       		.uleb128 0x1
 12005 0f21 30       		.byte	0x30
 12006 0f22 14       		.uleb128 0x14
 12007 0f23 01       		.uleb128 0x1
 12008 0f24 51       		.byte	0x51
 12009 0f25 01       		.uleb128 0x1
 12010 0f26 3A       		.byte	0x3a
 12011 0f27 00       		.byte	0
 12012 0f28 13       		.uleb128 0x13
 12013 0f29 20010000 		.4byte	.LVL198
 12014 0f2d 5D390000 		.4byte	0x395d
 12015 0f31 3B0F0000 		.4byte	0xf3b
 12016 0f35 14       		.uleb128 0x14
 12017 0f36 01       		.uleb128 0x1
 12018 0f37 50       		.byte	0x50
 12019 0f38 01       		.uleb128 0x1
 12020 0f39 44       		.byte	0x44
 12021 0f3a 00       		.byte	0
 12022 0f3b 13       		.uleb128 0x13
 12023 0f3c 34010000 		.4byte	.LVL199
 12024 0f40 68390000 		.4byte	0x3968
 12025 0f44 530F0000 		.4byte	0xf53
 12026 0f48 14       		.uleb128 0x14
 12027 0f49 01       		.uleb128 0x1
 12028 0f4a 50       		.byte	0x50
 12029 0f4b 01       		.uleb128 0x1
 12030 0f4c 30       		.byte	0x30
 12031 0f4d 14       		.uleb128 0x14
 12032 0f4e 01       		.uleb128 0x1
 12033 0f4f 51       		.byte	0x51
 12034 0f50 01       		.uleb128 0x1
 12035 0f51 3B       		.byte	0x3b
 12036 0f52 00       		.byte	0
 12037 0f53 13       		.uleb128 0x13
 12038 0f54 3A010000 		.4byte	.LVL200
 12039 0f58 5D390000 		.4byte	0x395d
 12040 0f5c 660F0000 		.4byte	0xf66
 12041 0f60 14       		.uleb128 0x14
 12042 0f61 01       		.uleb128 0x1
 12043 0f62 50       		.byte	0x50
 12044 0f63 01       		.uleb128 0x1
ARM GAS  C:\Users\USUARIO\AppData\Local\Temp\ccWuTYF0.s 			page 242


 12045 0f64 44       		.byte	0x44
 12046 0f65 00       		.byte	0
 12047 0f66 13       		.uleb128 0x13
 12048 0f67 4E010000 		.4byte	.LVL201
 12049 0f6b 68390000 		.4byte	0x3968
 12050 0f6f 7E0F0000 		.4byte	0xf7e
 12051 0f73 14       		.uleb128 0x14
 12052 0f74 01       		.uleb128 0x1
 12053 0f75 50       		.byte	0x50
 12054 0f76 01       		.uleb128 0x1
 12055 0f77 30       		.byte	0x30
 12056 0f78 14       		.uleb128 0x14
 12057 0f79 01       		.uleb128 0x1
 12058 0f7a 51       		.byte	0x51
 12059 0f7b 01       		.uleb128 0x1
 12060 0f7c 3C       		.byte	0x3c
 12061 0f7d 00       		.byte	0
 12062 0f7e 13       		.uleb128 0x13
 12063 0f7f 54010000 		.4byte	.LVL202
 12064 0f83 5D390000 		.4byte	0x395d
 12065 0f87 910F0000 		.4byte	0xf91
 12066 0f8b 14       		.uleb128 0x14
 12067 0f8c 01       		.uleb128 0x1
 12068 0f8d 50       		.byte	0x50
 12069 0f8e 01       		.uleb128 0x1
 12070 0f8f 44       		.byte	0x44
 12071 0f90 00       		.byte	0
 12072 0f91 13       		.uleb128 0x13
 12073 0f92 68010000 		.4byte	.LVL203
 12074 0f96 68390000 		.4byte	0x3968
 12075 0f9a A90F0000 		.4byte	0xfa9
 12076 0f9e 14       		.uleb128 0x14
 12077 0f9f 01       		.uleb128 0x1
 12078 0fa0 50       		.byte	0x50
 12079 0fa1 01       		.uleb128 0x1
 12080 0fa2 30       		.byte	0x30
 12081 0fa3 14       		.uleb128 0x14
 12082 0fa4 01       		.uleb128 0x1
 12083 0fa5 51       		.byte	0x51
 12084 0fa6 01       		.uleb128 0x1
 12085 0fa7 3D       		.byte	0x3d
 12086 0fa8 00       		.byte	0
 12087 0fa9 13       		.uleb128 0x13
 12088 0faa 6E010000 		.4byte	.LVL204
 12089 0fae 5D390000 		.4byte	0x395d
 12090 0fb2 BC0F0000 		.4byte	0xfbc
 12091 0fb6 14       		.uleb128 0x14
 12092 0fb7 01       		.uleb128 0x1
 12093 0fb8 50       		.byte	0x50
 12094 0fb9 01       		.uleb128 0x1
 12095 0fba 44       		.byte	0x44
 12096 0fbb 00       		.byte	0
 12097 0fbc 13       		.uleb128 0x13
 12098 0fbd 98010000 		.4byte	.LVL207
 12099 0fc1 68390000 		.4byte	0x3968
 12100 0fc5 D40F0000 		.4byte	0xfd4
 12101 0fc9 14       		.uleb128 0x14
ARM GAS  C:\Users\USUARIO\AppData\Local\Temp\ccWuTYF0.s 			page 243


 12102 0fca 01       		.uleb128 0x1
 12103 0fcb 50       		.byte	0x50
 12104 0fcc 01       		.uleb128 0x1
 12105 0fcd 32       		.byte	0x32
 12106 0fce 14       		.uleb128 0x14
 12107 0fcf 01       		.uleb128 0x1
 12108 0fd0 51       		.byte	0x51
 12109 0fd1 01       		.uleb128 0x1
 12110 0fd2 4E       		.byte	0x4e
 12111 0fd3 00       		.byte	0
 12112 0fd4 13       		.uleb128 0x13
 12113 0fd5 9E010000 		.4byte	.LVL208
 12114 0fd9 5D390000 		.4byte	0x395d
 12115 0fdd E70F0000 		.4byte	0xfe7
 12116 0fe1 14       		.uleb128 0x14
 12117 0fe2 01       		.uleb128 0x1
 12118 0fe3 50       		.byte	0x50
 12119 0fe4 01       		.uleb128 0x1
 12120 0fe5 44       		.byte	0x44
 12121 0fe6 00       		.byte	0
 12122 0fe7 13       		.uleb128 0x13
 12123 0fe8 B6010000 		.4byte	.LVL209
 12124 0fec 68390000 		.4byte	0x3968
 12125 0ff0 00100000 		.4byte	0x1000
 12126 0ff4 14       		.uleb128 0x14
 12127 0ff5 01       		.uleb128 0x1
 12128 0ff6 50       		.byte	0x50
 12129 0ff7 02       		.uleb128 0x2
 12130 0ff8 08       		.byte	0x8
 12131 0ff9 50       		.byte	0x50
 12132 0ffa 14       		.uleb128 0x14
 12133 0ffb 01       		.uleb128 0x1
 12134 0ffc 51       		.byte	0x51
 12135 0ffd 01       		.uleb128 0x1
 12136 0ffe 4F       		.byte	0x4f
 12137 0fff 00       		.byte	0
 12138 1000 13       		.uleb128 0x13
 12139 1001 BC010000 		.4byte	.LVL210
 12140 1005 5D390000 		.4byte	0x395d
 12141 1009 13100000 		.4byte	0x1013
 12142 100d 14       		.uleb128 0x14
 12143 100e 01       		.uleb128 0x1
 12144 100f 50       		.byte	0x50
 12145 1010 01       		.uleb128 0x1
 12146 1011 44       		.byte	0x44
 12147 1012 00       		.byte	0
 12148 1013 13       		.uleb128 0x13
 12149 1014 D4010000 		.4byte	.LVL211
 12150 1018 68390000 		.4byte	0x3968
 12151 101c 2C100000 		.4byte	0x102c
 12152 1020 14       		.uleb128 0x14
 12153 1021 01       		.uleb128 0x1
 12154 1022 50       		.byte	0x50
 12155 1023 01       		.uleb128 0x1
 12156 1024 31       		.byte	0x31
 12157 1025 14       		.uleb128 0x14
 12158 1026 01       		.uleb128 0x1
ARM GAS  C:\Users\USUARIO\AppData\Local\Temp\ccWuTYF0.s 			page 244


 12159 1027 51       		.byte	0x51
 12160 1028 02       		.uleb128 0x2
 12161 1029 08       		.byte	0x8
 12162 102a 20       		.byte	0x20
 12163 102b 00       		.byte	0
 12164 102c 13       		.uleb128 0x13
 12165 102d DA010000 		.4byte	.LVL212
 12166 1031 5D390000 		.4byte	0x395d
 12167 1035 3F100000 		.4byte	0x103f
 12168 1039 14       		.uleb128 0x14
 12169 103a 01       		.uleb128 0x1
 12170 103b 50       		.byte	0x50
 12171 103c 01       		.uleb128 0x1
 12172 103d 44       		.byte	0x44
 12173 103e 00       		.byte	0
 12174 103f 13       		.uleb128 0x13
 12175 1040 F2010000 		.4byte	.LVL213
 12176 1044 68390000 		.4byte	0x3968
 12177 1048 58100000 		.4byte	0x1058
 12178 104c 14       		.uleb128 0x14
 12179 104d 01       		.uleb128 0x1
 12180 104e 50       		.byte	0x50
 12181 104f 01       		.uleb128 0x1
 12182 1050 35       		.byte	0x35
 12183 1051 14       		.uleb128 0x14
 12184 1052 01       		.uleb128 0x1
 12185 1053 51       		.byte	0x51
 12186 1054 02       		.uleb128 0x2
 12187 1055 08       		.byte	0x8
 12188 1056 21       		.byte	0x21
 12189 1057 00       		.byte	0
 12190 1058 13       		.uleb128 0x13
 12191 1059 F8010000 		.4byte	.LVL214
 12192 105d 5D390000 		.4byte	0x395d
 12193 1061 6B100000 		.4byte	0x106b
 12194 1065 14       		.uleb128 0x14
 12195 1066 01       		.uleb128 0x1
 12196 1067 50       		.byte	0x50
 12197 1068 01       		.uleb128 0x1
 12198 1069 44       		.byte	0x44
 12199 106a 00       		.byte	0
 12200 106b 13       		.uleb128 0x13
 12201 106c 0C020000 		.4byte	.LVL215
 12202 1070 68390000 		.4byte	0x3968
 12203 1074 84100000 		.4byte	0x1084
 12204 1078 14       		.uleb128 0x14
 12205 1079 01       		.uleb128 0x1
 12206 107a 50       		.byte	0x50
 12207 107b 01       		.uleb128 0x1
 12208 107c 30       		.byte	0x30
 12209 107d 14       		.uleb128 0x14
 12210 107e 01       		.uleb128 0x1
 12211 107f 51       		.byte	0x51
 12212 1080 02       		.uleb128 0x2
 12213 1081 08       		.byte	0x8
 12214 1082 22       		.byte	0x22
 12215 1083 00       		.byte	0
ARM GAS  C:\Users\USUARIO\AppData\Local\Temp\ccWuTYF0.s 			page 245


 12216 1084 13       		.uleb128 0x13
 12217 1085 12020000 		.4byte	.LVL216
 12218 1089 5D390000 		.4byte	0x395d
 12219 108d 97100000 		.4byte	0x1097
 12220 1091 14       		.uleb128 0x14
 12221 1092 01       		.uleb128 0x1
 12222 1093 50       		.byte	0x50
 12223 1094 01       		.uleb128 0x1
 12224 1095 44       		.byte	0x44
 12225 1096 00       		.byte	0
 12226 1097 13       		.uleb128 0x13
 12227 1098 26020000 		.4byte	.LVL217
 12228 109c 68390000 		.4byte	0x3968
 12229 10a0 B0100000 		.4byte	0x10b0
 12230 10a4 14       		.uleb128 0x14
 12231 10a5 01       		.uleb128 0x1
 12232 10a6 50       		.byte	0x50
 12233 10a7 01       		.uleb128 0x1
 12234 10a8 30       		.byte	0x30
 12235 10a9 14       		.uleb128 0x14
 12236 10aa 01       		.uleb128 0x1
 12237 10ab 51       		.byte	0x51
 12238 10ac 02       		.uleb128 0x2
 12239 10ad 08       		.byte	0x8
 12240 10ae 23       		.byte	0x23
 12241 10af 00       		.byte	0
 12242 10b0 13       		.uleb128 0x13
 12243 10b1 2C020000 		.4byte	.LVL218
 12244 10b5 5D390000 		.4byte	0x395d
 12245 10b9 C3100000 		.4byte	0x10c3
 12246 10bd 14       		.uleb128 0x14
 12247 10be 01       		.uleb128 0x1
 12248 10bf 50       		.byte	0x50
 12249 10c0 01       		.uleb128 0x1
 12250 10c1 44       		.byte	0x44
 12251 10c2 00       		.byte	0
 12252 10c3 13       		.uleb128 0x13
 12253 10c4 44020000 		.4byte	.LVL219
 12254 10c8 68390000 		.4byte	0x3968
 12255 10cc DD100000 		.4byte	0x10dd
 12256 10d0 14       		.uleb128 0x14
 12257 10d1 01       		.uleb128 0x1
 12258 10d2 50       		.byte	0x50
 12259 10d3 02       		.uleb128 0x2
 12260 10d4 08       		.byte	0x8
 12261 10d5 50       		.byte	0x50
 12262 10d6 14       		.uleb128 0x14
 12263 10d7 01       		.uleb128 0x1
 12264 10d8 51       		.byte	0x51
 12265 10d9 02       		.uleb128 0x2
 12266 10da 08       		.byte	0x8
 12267 10db 24       		.byte	0x24
 12268 10dc 00       		.byte	0
 12269 10dd 13       		.uleb128 0x13
 12270 10de 4A020000 		.4byte	.LVL220
 12271 10e2 5D390000 		.4byte	0x395d
 12272 10e6 F0100000 		.4byte	0x10f0
ARM GAS  C:\Users\USUARIO\AppData\Local\Temp\ccWuTYF0.s 			page 246


 12273 10ea 14       		.uleb128 0x14
 12274 10eb 01       		.uleb128 0x1
 12275 10ec 50       		.byte	0x50
 12276 10ed 01       		.uleb128 0x1
 12277 10ee 44       		.byte	0x44
 12278 10ef 00       		.byte	0
 12279 10f0 13       		.uleb128 0x13
 12280 10f1 5E020000 		.4byte	.LVL221
 12281 10f5 68390000 		.4byte	0x3968
 12282 10f9 09110000 		.4byte	0x1109
 12283 10fd 14       		.uleb128 0x14
 12284 10fe 01       		.uleb128 0x1
 12285 10ff 50       		.byte	0x50
 12286 1100 01       		.uleb128 0x1
 12287 1101 30       		.byte	0x30
 12288 1102 14       		.uleb128 0x14
 12289 1103 01       		.uleb128 0x1
 12290 1104 51       		.byte	0x51
 12291 1105 02       		.uleb128 0x2
 12292 1106 08       		.byte	0x8
 12293 1107 25       		.byte	0x25
 12294 1108 00       		.byte	0
 12295 1109 13       		.uleb128 0x13
 12296 110a 64020000 		.4byte	.LVL222
 12297 110e 5D390000 		.4byte	0x395d
 12298 1112 1C110000 		.4byte	0x111c
 12299 1116 14       		.uleb128 0x14
 12300 1117 01       		.uleb128 0x1
 12301 1118 50       		.byte	0x50
 12302 1119 01       		.uleb128 0x1
 12303 111a 44       		.byte	0x44
 12304 111b 00       		.byte	0
 12305 111c 13       		.uleb128 0x13
 12306 111d 78020000 		.4byte	.LVL223
 12307 1121 68390000 		.4byte	0x3968
 12308 1125 35110000 		.4byte	0x1135
 12309 1129 14       		.uleb128 0x14
 12310 112a 01       		.uleb128 0x1
 12311 112b 50       		.byte	0x50
 12312 112c 01       		.uleb128 0x1
 12313 112d 30       		.byte	0x30
 12314 112e 14       		.uleb128 0x14
 12315 112f 01       		.uleb128 0x1
 12316 1130 51       		.byte	0x51
 12317 1131 02       		.uleb128 0x2
 12318 1132 08       		.byte	0x8
 12319 1133 26       		.byte	0x26
 12320 1134 00       		.byte	0
 12321 1135 13       		.uleb128 0x13
 12322 1136 7E020000 		.4byte	.LVL224
 12323 113a 5D390000 		.4byte	0x395d
 12324 113e 48110000 		.4byte	0x1148
 12325 1142 14       		.uleb128 0x14
 12326 1143 01       		.uleb128 0x1
 12327 1144 50       		.byte	0x50
 12328 1145 01       		.uleb128 0x1
 12329 1146 44       		.byte	0x44
ARM GAS  C:\Users\USUARIO\AppData\Local\Temp\ccWuTYF0.s 			page 247


 12330 1147 00       		.byte	0
 12331 1148 13       		.uleb128 0x13
 12332 1149 96020000 		.4byte	.LVL225
 12333 114d 68390000 		.4byte	0x3968
 12334 1151 62110000 		.4byte	0x1162
 12335 1155 14       		.uleb128 0x14
 12336 1156 01       		.uleb128 0x1
 12337 1157 50       		.byte	0x50
 12338 1158 02       		.uleb128 0x2
 12339 1159 08       		.byte	0x8
 12340 115a 28       		.byte	0x28
 12341 115b 14       		.uleb128 0x14
 12342 115c 01       		.uleb128 0x1
 12343 115d 51       		.byte	0x51
 12344 115e 02       		.uleb128 0x2
 12345 115f 08       		.byte	0x8
 12346 1160 27       		.byte	0x27
 12347 1161 00       		.byte	0
 12348 1162 13       		.uleb128 0x13
 12349 1163 9C020000 		.4byte	.LVL226
 12350 1167 5D390000 		.4byte	0x395d
 12351 116b 75110000 		.4byte	0x1175
 12352 116f 14       		.uleb128 0x14
 12353 1170 01       		.uleb128 0x1
 12354 1171 50       		.byte	0x50
 12355 1172 01       		.uleb128 0x1
 12356 1173 44       		.byte	0x44
 12357 1174 00       		.byte	0
 12358 1175 13       		.uleb128 0x13
 12359 1176 B0020000 		.4byte	.LVL227
 12360 117a 68390000 		.4byte	0x3968
 12361 117e 8F110000 		.4byte	0x118f
 12362 1182 14       		.uleb128 0x14
 12363 1183 01       		.uleb128 0x1
 12364 1184 50       		.byte	0x50
 12365 1185 02       		.uleb128 0x2
 12366 1186 74       		.byte	0x74
 12367 1187 00       		.sleb128 0
 12368 1188 14       		.uleb128 0x14
 12369 1189 01       		.uleb128 0x1
 12370 118a 51       		.byte	0x51
 12371 118b 02       		.uleb128 0x2
 12372 118c 08       		.byte	0x8
 12373 118d 28       		.byte	0x28
 12374 118e 00       		.byte	0
 12375 118f 13       		.uleb128 0x13
 12376 1190 B6020000 		.4byte	.LVL228
 12377 1194 5D390000 		.4byte	0x395d
 12378 1198 A3110000 		.4byte	0x11a3
 12379 119c 14       		.uleb128 0x14
 12380 119d 01       		.uleb128 0x1
 12381 119e 50       		.byte	0x50
 12382 119f 02       		.uleb128 0x2
 12383 11a0 74       		.byte	0x74
 12384 11a1 00       		.sleb128 0
 12385 11a2 00       		.byte	0
 12386 11a3 13       		.uleb128 0x13
ARM GAS  C:\Users\USUARIO\AppData\Local\Temp\ccWuTYF0.s 			page 248


 12387 11a4 CA020000 		.4byte	.LVL229
 12388 11a8 68390000 		.4byte	0x3968
 12389 11ac BC110000 		.4byte	0x11bc
 12390 11b0 14       		.uleb128 0x14
 12391 11b1 01       		.uleb128 0x1
 12392 11b2 50       		.byte	0x50
 12393 11b3 01       		.uleb128 0x1
 12394 11b4 30       		.byte	0x30
 12395 11b5 14       		.uleb128 0x14
 12396 11b6 01       		.uleb128 0x1
 12397 11b7 51       		.byte	0x51
 12398 11b8 02       		.uleb128 0x2
 12399 11b9 08       		.byte	0x8
 12400 11ba 29       		.byte	0x29
 12401 11bb 00       		.byte	0
 12402 11bc 13       		.uleb128 0x13
 12403 11bd D0020000 		.4byte	.LVL230
 12404 11c1 5D390000 		.4byte	0x395d
 12405 11c5 CF110000 		.4byte	0x11cf
 12406 11c9 14       		.uleb128 0x14
 12407 11ca 01       		.uleb128 0x1
 12408 11cb 50       		.byte	0x50
 12409 11cc 01       		.uleb128 0x1
 12410 11cd 44       		.byte	0x44
 12411 11ce 00       		.byte	0
 12412 11cf 13       		.uleb128 0x13
 12413 11d0 E4020000 		.4byte	.LVL231
 12414 11d4 68390000 		.4byte	0x3968
 12415 11d8 E8110000 		.4byte	0x11e8
 12416 11dc 14       		.uleb128 0x14
 12417 11dd 01       		.uleb128 0x1
 12418 11de 50       		.byte	0x50
 12419 11df 01       		.uleb128 0x1
 12420 11e0 30       		.byte	0x30
 12421 11e1 14       		.uleb128 0x14
 12422 11e2 01       		.uleb128 0x1
 12423 11e3 51       		.byte	0x51
 12424 11e4 02       		.uleb128 0x2
 12425 11e5 08       		.byte	0x8
 12426 11e6 2A       		.byte	0x2a
 12427 11e7 00       		.byte	0
 12428 11e8 13       		.uleb128 0x13
 12429 11e9 EA020000 		.4byte	.LVL232
 12430 11ed 5D390000 		.4byte	0x395d
 12431 11f1 FB110000 		.4byte	0x11fb
 12432 11f5 14       		.uleb128 0x14
 12433 11f6 01       		.uleb128 0x1
 12434 11f7 50       		.byte	0x50
 12435 11f8 01       		.uleb128 0x1
 12436 11f9 44       		.byte	0x44
 12437 11fa 00       		.byte	0
 12438 11fb 13       		.uleb128 0x13
 12439 11fc 5C030000 		.4byte	.LVL233
 12440 1200 68390000 		.4byte	0x3968
 12441 1204 14120000 		.4byte	0x1214
 12442 1208 14       		.uleb128 0x14
 12443 1209 01       		.uleb128 0x1
ARM GAS  C:\Users\USUARIO\AppData\Local\Temp\ccWuTYF0.s 			page 249


 12444 120a 50       		.byte	0x50
 12445 120b 01       		.uleb128 0x1
 12446 120c 30       		.byte	0x30
 12447 120d 14       		.uleb128 0x14
 12448 120e 01       		.uleb128 0x1
 12449 120f 51       		.byte	0x51
 12450 1210 02       		.uleb128 0x2
 12451 1211 08       		.byte	0x8
 12452 1212 2B       		.byte	0x2b
 12453 1213 00       		.byte	0
 12454 1214 13       		.uleb128 0x13
 12455 1215 62030000 		.4byte	.LVL234
 12456 1219 5D390000 		.4byte	0x395d
 12457 121d 27120000 		.4byte	0x1227
 12458 1221 14       		.uleb128 0x14
 12459 1222 01       		.uleb128 0x1
 12460 1223 50       		.byte	0x50
 12461 1224 01       		.uleb128 0x1
 12462 1225 44       		.byte	0x44
 12463 1226 00       		.byte	0
 12464 1227 13       		.uleb128 0x13
 12465 1228 7A030000 		.4byte	.LVL235
 12466 122c 68390000 		.4byte	0x3968
 12467 1230 40120000 		.4byte	0x1240
 12468 1234 14       		.uleb128 0x14
 12469 1235 01       		.uleb128 0x1
 12470 1236 50       		.byte	0x50
 12471 1237 01       		.uleb128 0x1
 12472 1238 3A       		.byte	0x3a
 12473 1239 14       		.uleb128 0x14
 12474 123a 01       		.uleb128 0x1
 12475 123b 51       		.byte	0x51
 12476 123c 02       		.uleb128 0x2
 12477 123d 08       		.byte	0x8
 12478 123e 2C       		.byte	0x2c
 12479 123f 00       		.byte	0
 12480 1240 13       		.uleb128 0x13
 12481 1241 80030000 		.4byte	.LVL236
 12482 1245 5D390000 		.4byte	0x395d
 12483 1249 53120000 		.4byte	0x1253
 12484 124d 14       		.uleb128 0x14
 12485 124e 01       		.uleb128 0x1
 12486 124f 50       		.byte	0x50
 12487 1250 01       		.uleb128 0x1
 12488 1251 44       		.byte	0x44
 12489 1252 00       		.byte	0
 12490 1253 13       		.uleb128 0x13
 12491 1254 98030000 		.4byte	.LVL237
 12492 1258 68390000 		.4byte	0x3968
 12493 125c 6C120000 		.4byte	0x126c
 12494 1260 14       		.uleb128 0x14
 12495 1261 01       		.uleb128 0x1
 12496 1262 50       		.byte	0x50
 12497 1263 01       		.uleb128 0x1
 12498 1264 4E       		.byte	0x4e
 12499 1265 14       		.uleb128 0x14
 12500 1266 01       		.uleb128 0x1
ARM GAS  C:\Users\USUARIO\AppData\Local\Temp\ccWuTYF0.s 			page 250


 12501 1267 51       		.byte	0x51
 12502 1268 02       		.uleb128 0x2
 12503 1269 08       		.byte	0x8
 12504 126a 2D       		.byte	0x2d
 12505 126b 00       		.byte	0
 12506 126c 13       		.uleb128 0x13
 12507 126d 9E030000 		.4byte	.LVL238
 12508 1271 5D390000 		.4byte	0x395d
 12509 1275 7F120000 		.4byte	0x127f
 12510 1279 14       		.uleb128 0x14
 12511 127a 01       		.uleb128 0x1
 12512 127b 50       		.byte	0x50
 12513 127c 01       		.uleb128 0x1
 12514 127d 44       		.byte	0x44
 12515 127e 00       		.byte	0
 12516 127f 13       		.uleb128 0x13
 12517 1280 B6030000 		.4byte	.LVL239
 12518 1284 68390000 		.4byte	0x3968
 12519 1288 98120000 		.4byte	0x1298
 12520 128c 14       		.uleb128 0x14
 12521 128d 01       		.uleb128 0x1
 12522 128e 50       		.byte	0x50
 12523 128f 01       		.uleb128 0x1
 12524 1290 36       		.byte	0x36
 12525 1291 14       		.uleb128 0x14
 12526 1292 01       		.uleb128 0x1
 12527 1293 51       		.byte	0x51
 12528 1294 02       		.uleb128 0x2
 12529 1295 08       		.byte	0x8
 12530 1296 2E       		.byte	0x2e
 12531 1297 00       		.byte	0
 12532 1298 13       		.uleb128 0x13
 12533 1299 BC030000 		.4byte	.LVL240
 12534 129d 5D390000 		.4byte	0x395d
 12535 12a1 AB120000 		.4byte	0x12ab
 12536 12a5 14       		.uleb128 0x14
 12537 12a6 01       		.uleb128 0x1
 12538 12a7 50       		.byte	0x50
 12539 12a8 01       		.uleb128 0x1
 12540 12a9 44       		.byte	0x44
 12541 12aa 00       		.byte	0
 12542 12ab 13       		.uleb128 0x13
 12543 12ac 0A040000 		.4byte	.LVL243
 12544 12b0 68390000 		.4byte	0x3968
 12545 12b4 C8120000 		.4byte	0x12c8
 12546 12b8 14       		.uleb128 0x14
 12547 12b9 01       		.uleb128 0x1
 12548 12ba 50       		.byte	0x50
 12549 12bb 01       		.uleb128 0x1
 12550 12bc 3A       		.byte	0x3a
 12551 12bd 14       		.uleb128 0x14
 12552 12be 01       		.uleb128 0x1
 12553 12bf 51       		.byte	0x51
 12554 12c0 06       		.uleb128 0x6
 12555 12c1 74       		.byte	0x74
 12556 12c2 00       		.sleb128 0
 12557 12c3 32       		.byte	0x32
ARM GAS  C:\Users\USUARIO\AppData\Local\Temp\ccWuTYF0.s 			page 251


 12558 12c4 24       		.byte	0x24
 12559 12c5 23       		.byte	0x23
 12560 12c6 40       		.uleb128 0x40
 12561 12c7 00       		.byte	0
 12562 12c8 13       		.uleb128 0x13
 12563 12c9 10040000 		.4byte	.LVL244
 12564 12cd 5D390000 		.4byte	0x395d
 12565 12d1 DB120000 		.4byte	0x12db
 12566 12d5 14       		.uleb128 0x14
 12567 12d6 01       		.uleb128 0x1
 12568 12d7 50       		.byte	0x50
 12569 12d8 01       		.uleb128 0x1
 12570 12d9 44       		.byte	0x44
 12571 12da 00       		.byte	0
 12572 12db 13       		.uleb128 0x13
 12573 12dc 24040000 		.4byte	.LVL245
 12574 12e0 68390000 		.4byte	0x3968
 12575 12e4 EE120000 		.4byte	0x12ee
 12576 12e8 14       		.uleb128 0x14
 12577 12e9 01       		.uleb128 0x1
 12578 12ea 50       		.byte	0x50
 12579 12eb 01       		.uleb128 0x1
 12580 12ec 30       		.byte	0x30
 12581 12ed 00       		.byte	0
 12582 12ee 13       		.uleb128 0x13
 12583 12ef 2A040000 		.4byte	.LVL246
 12584 12f3 5D390000 		.4byte	0x395d
 12585 12f7 01130000 		.4byte	0x1301
 12586 12fb 14       		.uleb128 0x14
 12587 12fc 01       		.uleb128 0x1
 12588 12fd 50       		.byte	0x50
 12589 12fe 01       		.uleb128 0x1
 12590 12ff 44       		.byte	0x44
 12591 1300 00       		.byte	0
 12592 1301 13       		.uleb128 0x13
 12593 1302 6C040000 		.4byte	.LVL249
 12594 1306 68390000 		.4byte	0x3968
 12595 130a 1E130000 		.4byte	0x131e
 12596 130e 14       		.uleb128 0x14
 12597 130f 01       		.uleb128 0x1
 12598 1310 50       		.byte	0x50
 12599 1311 01       		.uleb128 0x1
 12600 1312 4E       		.byte	0x4e
 12601 1313 14       		.uleb128 0x14
 12602 1314 01       		.uleb128 0x1
 12603 1315 51       		.byte	0x51
 12604 1316 06       		.uleb128 0x6
 12605 1317 74       		.byte	0x74
 12606 1318 00       		.sleb128 0
 12607 1319 32       		.byte	0x32
 12608 131a 24       		.byte	0x24
 12609 131b 23       		.byte	0x23
 12610 131c 42       		.uleb128 0x42
 12611 131d 00       		.byte	0
 12612 131e 13       		.uleb128 0x13
 12613 131f 72040000 		.4byte	.LVL250
 12614 1323 5D390000 		.4byte	0x395d
ARM GAS  C:\Users\USUARIO\AppData\Local\Temp\ccWuTYF0.s 			page 252


 12615 1327 31130000 		.4byte	0x1331
 12616 132b 14       		.uleb128 0x14
 12617 132c 01       		.uleb128 0x1
 12618 132d 50       		.byte	0x50
 12619 132e 01       		.uleb128 0x1
 12620 132f 44       		.byte	0x44
 12621 1330 00       		.byte	0
 12622 1331 13       		.uleb128 0x13
 12623 1332 86040000 		.4byte	.LVL251
 12624 1336 68390000 		.4byte	0x3968
 12625 133a 44130000 		.4byte	0x1344
 12626 133e 14       		.uleb128 0x14
 12627 133f 01       		.uleb128 0x1
 12628 1340 50       		.byte	0x50
 12629 1341 01       		.uleb128 0x1
 12630 1342 30       		.byte	0x30
 12631 1343 00       		.byte	0
 12632 1344 13       		.uleb128 0x13
 12633 1345 8C040000 		.4byte	.LVL252
 12634 1349 5D390000 		.4byte	0x395d
 12635 134d 57130000 		.4byte	0x1357
 12636 1351 14       		.uleb128 0x14
 12637 1352 01       		.uleb128 0x1
 12638 1353 50       		.byte	0x50
 12639 1354 01       		.uleb128 0x1
 12640 1355 44       		.byte	0x44
 12641 1356 00       		.byte	0
 12642 1357 13       		.uleb128 0x13
 12643 1358 CE040000 		.4byte	.LVL255
 12644 135c 68390000 		.4byte	0x3968
 12645 1360 75130000 		.4byte	0x1375
 12646 1364 14       		.uleb128 0x14
 12647 1365 01       		.uleb128 0x1
 12648 1366 50       		.byte	0x50
 12649 1367 02       		.uleb128 0x2
 12650 1368 08       		.byte	0x8
 12651 1369 28       		.byte	0x28
 12652 136a 14       		.uleb128 0x14
 12653 136b 01       		.uleb128 0x1
 12654 136c 51       		.byte	0x51
 12655 136d 06       		.uleb128 0x6
 12656 136e 74       		.byte	0x74
 12657 136f 00       		.sleb128 0
 12658 1370 32       		.byte	0x32
 12659 1371 24       		.byte	0x24
 12660 1372 23       		.byte	0x23
 12661 1373 44       		.uleb128 0x44
 12662 1374 00       		.byte	0
 12663 1375 13       		.uleb128 0x13
 12664 1376 D4040000 		.4byte	.LVL256
 12665 137a 5D390000 		.4byte	0x395d
 12666 137e 88130000 		.4byte	0x1388
 12667 1382 14       		.uleb128 0x14
 12668 1383 01       		.uleb128 0x1
 12669 1384 50       		.byte	0x50
 12670 1385 01       		.uleb128 0x1
 12671 1386 44       		.byte	0x44
ARM GAS  C:\Users\USUARIO\AppData\Local\Temp\ccWuTYF0.s 			page 253


 12672 1387 00       		.byte	0
 12673 1388 13       		.uleb128 0x13
 12674 1389 E8040000 		.4byte	.LVL257
 12675 138d 68390000 		.4byte	0x3968
 12676 1391 9B130000 		.4byte	0x139b
 12677 1395 14       		.uleb128 0x14
 12678 1396 01       		.uleb128 0x1
 12679 1397 50       		.byte	0x50
 12680 1398 01       		.uleb128 0x1
 12681 1399 30       		.byte	0x30
 12682 139a 00       		.byte	0
 12683 139b 13       		.uleb128 0x13
 12684 139c EE040000 		.4byte	.LVL258
 12685 13a0 5D390000 		.4byte	0x395d
 12686 13a4 AE130000 		.4byte	0x13ae
 12687 13a8 14       		.uleb128 0x14
 12688 13a9 01       		.uleb128 0x1
 12689 13aa 50       		.byte	0x50
 12690 13ab 01       		.uleb128 0x1
 12691 13ac 44       		.byte	0x44
 12692 13ad 00       		.byte	0
 12693 13ae 13       		.uleb128 0x13
 12694 13af 2E050000 		.4byte	.LVL261
 12695 13b3 68390000 		.4byte	0x3968
 12696 13b7 CB130000 		.4byte	0x13cb
 12697 13bb 14       		.uleb128 0x14
 12698 13bc 01       		.uleb128 0x1
 12699 13bd 50       		.byte	0x50
 12700 13be 01       		.uleb128 0x1
 12701 13bf 3A       		.byte	0x3a
 12702 13c0 14       		.uleb128 0x14
 12703 13c1 01       		.uleb128 0x1
 12704 13c2 51       		.byte	0x51
 12705 13c3 06       		.uleb128 0x6
 12706 13c4 74       		.byte	0x74
 12707 13c5 00       		.sleb128 0
 12708 13c6 32       		.byte	0x32
 12709 13c7 24       		.byte	0x24
 12710 13c8 23       		.byte	0x23
 12711 13c9 46       		.uleb128 0x46
 12712 13ca 00       		.byte	0
 12713 13cb 13       		.uleb128 0x13
 12714 13cc 34050000 		.4byte	.LVL262
 12715 13d0 5D390000 		.4byte	0x395d
 12716 13d4 DE130000 		.4byte	0x13de
 12717 13d8 14       		.uleb128 0x14
 12718 13d9 01       		.uleb128 0x1
 12719 13da 50       		.byte	0x50
 12720 13db 01       		.uleb128 0x1
 12721 13dc 44       		.byte	0x44
 12722 13dd 00       		.byte	0
 12723 13de 13       		.uleb128 0x13
 12724 13df 48050000 		.4byte	.LVL263
 12725 13e3 68390000 		.4byte	0x3968
 12726 13e7 F1130000 		.4byte	0x13f1
 12727 13eb 14       		.uleb128 0x14
 12728 13ec 01       		.uleb128 0x1
ARM GAS  C:\Users\USUARIO\AppData\Local\Temp\ccWuTYF0.s 			page 254


 12729 13ed 50       		.byte	0x50
 12730 13ee 01       		.uleb128 0x1
 12731 13ef 30       		.byte	0x30
 12732 13f0 00       		.byte	0
 12733 13f1 13       		.uleb128 0x13
 12734 13f2 4E050000 		.4byte	.LVL264
 12735 13f6 5D390000 		.4byte	0x395d
 12736 13fa 04140000 		.4byte	0x1404
 12737 13fe 14       		.uleb128 0x14
 12738 13ff 01       		.uleb128 0x1
 12739 1400 50       		.byte	0x50
 12740 1401 01       		.uleb128 0x1
 12741 1402 44       		.byte	0x44
 12742 1403 00       		.byte	0
 12743 1404 13       		.uleb128 0x13
 12744 1405 90050000 		.4byte	.LVL267
 12745 1409 68390000 		.4byte	0x3968
 12746 140d 21140000 		.4byte	0x1421
 12747 1411 14       		.uleb128 0x14
 12748 1412 01       		.uleb128 0x1
 12749 1413 50       		.byte	0x50
 12750 1414 01       		.uleb128 0x1
 12751 1415 4E       		.byte	0x4e
 12752 1416 14       		.uleb128 0x14
 12753 1417 01       		.uleb128 0x1
 12754 1418 51       		.byte	0x51
 12755 1419 06       		.uleb128 0x6
 12756 141a 74       		.byte	0x74
 12757 141b 00       		.sleb128 0
 12758 141c 32       		.byte	0x32
 12759 141d 24       		.byte	0x24
 12760 141e 23       		.byte	0x23
 12761 141f 48       		.uleb128 0x48
 12762 1420 00       		.byte	0
 12763 1421 13       		.uleb128 0x13
 12764 1422 96050000 		.4byte	.LVL268
 12765 1426 5D390000 		.4byte	0x395d
 12766 142a 34140000 		.4byte	0x1434
 12767 142e 14       		.uleb128 0x14
 12768 142f 01       		.uleb128 0x1
 12769 1430 50       		.byte	0x50
 12770 1431 01       		.uleb128 0x1
 12771 1432 44       		.byte	0x44
 12772 1433 00       		.byte	0
 12773 1434 13       		.uleb128 0x13
 12774 1435 AA050000 		.4byte	.LVL269
 12775 1439 68390000 		.4byte	0x3968
 12776 143d 47140000 		.4byte	0x1447
 12777 1441 14       		.uleb128 0x14
 12778 1442 01       		.uleb128 0x1
 12779 1443 50       		.byte	0x50
 12780 1444 01       		.uleb128 0x1
 12781 1445 30       		.byte	0x30
 12782 1446 00       		.byte	0
 12783 1447 13       		.uleb128 0x13
 12784 1448 B0050000 		.4byte	.LVL270
 12785 144c 5D390000 		.4byte	0x395d
ARM GAS  C:\Users\USUARIO\AppData\Local\Temp\ccWuTYF0.s 			page 255


 12786 1450 5A140000 		.4byte	0x145a
 12787 1454 14       		.uleb128 0x14
 12788 1455 01       		.uleb128 0x1
 12789 1456 50       		.byte	0x50
 12790 1457 01       		.uleb128 0x1
 12791 1458 44       		.byte	0x44
 12792 1459 00       		.byte	0
 12793 145a 13       		.uleb128 0x13
 12794 145b F6050000 		.4byte	.LVL273
 12795 145f 68390000 		.4byte	0x3968
 12796 1463 78140000 		.4byte	0x1478
 12797 1467 14       		.uleb128 0x14
 12798 1468 01       		.uleb128 0x1
 12799 1469 50       		.byte	0x50
 12800 146a 02       		.uleb128 0x2
 12801 146b 08       		.byte	0x8
 12802 146c 28       		.byte	0x28
 12803 146d 14       		.uleb128 0x14
 12804 146e 01       		.uleb128 0x1
 12805 146f 51       		.byte	0x51
 12806 1470 06       		.uleb128 0x6
 12807 1471 74       		.byte	0x74
 12808 1472 00       		.sleb128 0
 12809 1473 32       		.byte	0x32
 12810 1474 24       		.byte	0x24
 12811 1475 23       		.byte	0x23
 12812 1476 4A       		.uleb128 0x4a
 12813 1477 00       		.byte	0
 12814 1478 13       		.uleb128 0x13
 12815 1479 FC050000 		.4byte	.LVL274
 12816 147d 5D390000 		.4byte	0x395d
 12817 1481 8B140000 		.4byte	0x148b
 12818 1485 14       		.uleb128 0x14
 12819 1486 01       		.uleb128 0x1
 12820 1487 50       		.byte	0x50
 12821 1488 01       		.uleb128 0x1
 12822 1489 44       		.byte	0x44
 12823 148a 00       		.byte	0
 12824 148b 13       		.uleb128 0x13
 12825 148c 10060000 		.4byte	.LVL275
 12826 1490 68390000 		.4byte	0x3968
 12827 1494 9E140000 		.4byte	0x149e
 12828 1498 14       		.uleb128 0x14
 12829 1499 01       		.uleb128 0x1
 12830 149a 50       		.byte	0x50
 12831 149b 01       		.uleb128 0x1
 12832 149c 30       		.byte	0x30
 12833 149d 00       		.byte	0
 12834 149e 13       		.uleb128 0x13
 12835 149f 16060000 		.4byte	.LVL276
 12836 14a3 5D390000 		.4byte	0x395d
 12837 14a7 B1140000 		.4byte	0x14b1
 12838 14ab 14       		.uleb128 0x14
 12839 14ac 01       		.uleb128 0x1
 12840 14ad 50       		.byte	0x50
 12841 14ae 01       		.uleb128 0x1
 12842 14af 44       		.byte	0x44
ARM GAS  C:\Users\USUARIO\AppData\Local\Temp\ccWuTYF0.s 			page 256


 12843 14b0 00       		.byte	0
 12844 14b1 13       		.uleb128 0x13
 12845 14b2 82060000 		.4byte	.LVL279
 12846 14b6 68390000 		.4byte	0x3968
 12847 14ba CE140000 		.4byte	0x14ce
 12848 14be 14       		.uleb128 0x14
 12849 14bf 01       		.uleb128 0x1
 12850 14c0 50       		.byte	0x50
 12851 14c1 01       		.uleb128 0x1
 12852 14c2 3A       		.byte	0x3a
 12853 14c3 14       		.uleb128 0x14
 12854 14c4 01       		.uleb128 0x1
 12855 14c5 51       		.byte	0x51
 12856 14c6 06       		.uleb128 0x6
 12857 14c7 74       		.byte	0x74
 12858 14c8 00       		.sleb128 0
 12859 14c9 32       		.byte	0x32
 12860 14ca 24       		.byte	0x24
 12861 14cb 23       		.byte	0x23
 12862 14cc 40       		.uleb128 0x40
 12863 14cd 00       		.byte	0
 12864 14ce 13       		.uleb128 0x13
 12865 14cf 88060000 		.4byte	.LVL280
 12866 14d3 5D390000 		.4byte	0x395d
 12867 14d7 E1140000 		.4byte	0x14e1
 12868 14db 14       		.uleb128 0x14
 12869 14dc 01       		.uleb128 0x1
 12870 14dd 50       		.byte	0x50
 12871 14de 01       		.uleb128 0x1
 12872 14df 44       		.byte	0x44
 12873 14e0 00       		.byte	0
 12874 14e1 13       		.uleb128 0x13
 12875 14e2 9C060000 		.4byte	.LVL281
 12876 14e6 68390000 		.4byte	0x3968
 12877 14ea F4140000 		.4byte	0x14f4
 12878 14ee 14       		.uleb128 0x14
 12879 14ef 01       		.uleb128 0x1
 12880 14f0 50       		.byte	0x50
 12881 14f1 01       		.uleb128 0x1
 12882 14f2 30       		.byte	0x30
 12883 14f3 00       		.byte	0
 12884 14f4 13       		.uleb128 0x13
 12885 14f5 A2060000 		.4byte	.LVL282
 12886 14f9 5D390000 		.4byte	0x395d
 12887 14fd 07150000 		.4byte	0x1507
 12888 1501 14       		.uleb128 0x14
 12889 1502 01       		.uleb128 0x1
 12890 1503 50       		.byte	0x50
 12891 1504 01       		.uleb128 0x1
 12892 1505 44       		.byte	0x44
 12893 1506 00       		.byte	0
 12894 1507 13       		.uleb128 0x13
 12895 1508 E6060000 		.4byte	.LVL285
 12896 150c 68390000 		.4byte	0x3968
 12897 1510 25150000 		.4byte	0x1525
 12898 1514 14       		.uleb128 0x14
 12899 1515 01       		.uleb128 0x1
ARM GAS  C:\Users\USUARIO\AppData\Local\Temp\ccWuTYF0.s 			page 257


 12900 1516 50       		.byte	0x50
 12901 1517 02       		.uleb128 0x2
 12902 1518 08       		.byte	0x8
 12903 1519 28       		.byte	0x28
 12904 151a 14       		.uleb128 0x14
 12905 151b 01       		.uleb128 0x1
 12906 151c 51       		.byte	0x51
 12907 151d 06       		.uleb128 0x6
 12908 151e 74       		.byte	0x74
 12909 151f 00       		.sleb128 0
 12910 1520 32       		.byte	0x32
 12911 1521 24       		.byte	0x24
 12912 1522 23       		.byte	0x23
 12913 1523 42       		.uleb128 0x42
 12914 1524 00       		.byte	0
 12915 1525 13       		.uleb128 0x13
 12916 1526 EC060000 		.4byte	.LVL286
 12917 152a 5D390000 		.4byte	0x395d
 12918 152e 38150000 		.4byte	0x1538
 12919 1532 14       		.uleb128 0x14
 12920 1533 01       		.uleb128 0x1
 12921 1534 50       		.byte	0x50
 12922 1535 01       		.uleb128 0x1
 12923 1536 44       		.byte	0x44
 12924 1537 00       		.byte	0
 12925 1538 13       		.uleb128 0x13
 12926 1539 00070000 		.4byte	.LVL287
 12927 153d 68390000 		.4byte	0x3968
 12928 1541 4B150000 		.4byte	0x154b
 12929 1545 14       		.uleb128 0x14
 12930 1546 01       		.uleb128 0x1
 12931 1547 50       		.byte	0x50
 12932 1548 01       		.uleb128 0x1
 12933 1549 30       		.byte	0x30
 12934 154a 00       		.byte	0
 12935 154b 13       		.uleb128 0x13
 12936 154c 06070000 		.4byte	.LVL288
 12937 1550 5D390000 		.4byte	0x395d
 12938 1554 5E150000 		.4byte	0x155e
 12939 1558 14       		.uleb128 0x14
 12940 1559 01       		.uleb128 0x1
 12941 155a 50       		.byte	0x50
 12942 155b 01       		.uleb128 0x1
 12943 155c 44       		.byte	0x44
 12944 155d 00       		.byte	0
 12945 155e 13       		.uleb128 0x13
 12946 155f 4A070000 		.4byte	.LVL291
 12947 1563 68390000 		.4byte	0x3968
 12948 1567 7C150000 		.4byte	0x157c
 12949 156b 14       		.uleb128 0x14
 12950 156c 01       		.uleb128 0x1
 12951 156d 50       		.byte	0x50
 12952 156e 02       		.uleb128 0x2
 12953 156f 08       		.byte	0x8
 12954 1570 50       		.byte	0x50
 12955 1571 14       		.uleb128 0x14
 12956 1572 01       		.uleb128 0x1
ARM GAS  C:\Users\USUARIO\AppData\Local\Temp\ccWuTYF0.s 			page 258


 12957 1573 51       		.byte	0x51
 12958 1574 06       		.uleb128 0x6
 12959 1575 74       		.byte	0x74
 12960 1576 00       		.sleb128 0
 12961 1577 32       		.byte	0x32
 12962 1578 24       		.byte	0x24
 12963 1579 23       		.byte	0x23
 12964 157a 44       		.uleb128 0x44
 12965 157b 00       		.byte	0
 12966 157c 13       		.uleb128 0x13
 12967 157d 50070000 		.4byte	.LVL292
 12968 1581 5D390000 		.4byte	0x395d
 12969 1585 8F150000 		.4byte	0x158f
 12970 1589 14       		.uleb128 0x14
 12971 158a 01       		.uleb128 0x1
 12972 158b 50       		.byte	0x50
 12973 158c 01       		.uleb128 0x1
 12974 158d 44       		.byte	0x44
 12975 158e 00       		.byte	0
 12976 158f 13       		.uleb128 0x13
 12977 1590 64070000 		.4byte	.LVL293
 12978 1594 68390000 		.4byte	0x3968
 12979 1598 A2150000 		.4byte	0x15a2
 12980 159c 14       		.uleb128 0x14
 12981 159d 01       		.uleb128 0x1
 12982 159e 50       		.byte	0x50
 12983 159f 01       		.uleb128 0x1
 12984 15a0 30       		.byte	0x30
 12985 15a1 00       		.byte	0
 12986 15a2 13       		.uleb128 0x13
 12987 15a3 6A070000 		.4byte	.LVL294
 12988 15a7 5D390000 		.4byte	0x395d
 12989 15ab B5150000 		.4byte	0x15b5
 12990 15af 14       		.uleb128 0x14
 12991 15b0 01       		.uleb128 0x1
 12992 15b1 50       		.byte	0x50
 12993 15b2 01       		.uleb128 0x1
 12994 15b3 44       		.byte	0x44
 12995 15b4 00       		.byte	0
 12996 15b5 13       		.uleb128 0x13
 12997 15b6 AA070000 		.4byte	.LVL297
 12998 15ba 68390000 		.4byte	0x3968
 12999 15be D2150000 		.4byte	0x15d2
 13000 15c2 14       		.uleb128 0x14
 13001 15c3 01       		.uleb128 0x1
 13002 15c4 50       		.byte	0x50
 13003 15c5 01       		.uleb128 0x1
 13004 15c6 3A       		.byte	0x3a
 13005 15c7 14       		.uleb128 0x14
 13006 15c8 01       		.uleb128 0x1
 13007 15c9 51       		.byte	0x51
 13008 15ca 06       		.uleb128 0x6
 13009 15cb 74       		.byte	0x74
 13010 15cc 00       		.sleb128 0
 13011 15cd 32       		.byte	0x32
 13012 15ce 24       		.byte	0x24
 13013 15cf 23       		.byte	0x23
ARM GAS  C:\Users\USUARIO\AppData\Local\Temp\ccWuTYF0.s 			page 259


 13014 15d0 46       		.uleb128 0x46
 13015 15d1 00       		.byte	0
 13016 15d2 13       		.uleb128 0x13
 13017 15d3 B0070000 		.4byte	.LVL298
 13018 15d7 5D390000 		.4byte	0x395d
 13019 15db E5150000 		.4byte	0x15e5
 13020 15df 14       		.uleb128 0x14
 13021 15e0 01       		.uleb128 0x1
 13022 15e1 50       		.byte	0x50
 13023 15e2 01       		.uleb128 0x1
 13024 15e3 44       		.byte	0x44
 13025 15e4 00       		.byte	0
 13026 15e5 13       		.uleb128 0x13
 13027 15e6 C4070000 		.4byte	.LVL299
 13028 15ea 68390000 		.4byte	0x3968
 13029 15ee F8150000 		.4byte	0x15f8
 13030 15f2 14       		.uleb128 0x14
 13031 15f3 01       		.uleb128 0x1
 13032 15f4 50       		.byte	0x50
 13033 15f5 01       		.uleb128 0x1
 13034 15f6 30       		.byte	0x30
 13035 15f7 00       		.byte	0
 13036 15f8 13       		.uleb128 0x13
 13037 15f9 CA070000 		.4byte	.LVL300
 13038 15fd 5D390000 		.4byte	0x395d
 13039 1601 0B160000 		.4byte	0x160b
 13040 1605 14       		.uleb128 0x14
 13041 1606 01       		.uleb128 0x1
 13042 1607 50       		.byte	0x50
 13043 1608 01       		.uleb128 0x1
 13044 1609 44       		.byte	0x44
 13045 160a 00       		.byte	0
 13046 160b 13       		.uleb128 0x13
 13047 160c 0E080000 		.4byte	.LVL303
 13048 1610 68390000 		.4byte	0x3968
 13049 1614 29160000 		.4byte	0x1629
 13050 1618 14       		.uleb128 0x14
 13051 1619 01       		.uleb128 0x1
 13052 161a 50       		.byte	0x50
 13053 161b 02       		.uleb128 0x2
 13054 161c 08       		.byte	0x8
 13055 161d 28       		.byte	0x28
 13056 161e 14       		.uleb128 0x14
 13057 161f 01       		.uleb128 0x1
 13058 1620 51       		.byte	0x51
 13059 1621 06       		.uleb128 0x6
 13060 1622 74       		.byte	0x74
 13061 1623 00       		.sleb128 0
 13062 1624 32       		.byte	0x32
 13063 1625 24       		.byte	0x24
 13064 1626 23       		.byte	0x23
 13065 1627 48       		.uleb128 0x48
 13066 1628 00       		.byte	0
 13067 1629 13       		.uleb128 0x13
 13068 162a 14080000 		.4byte	.LVL304
 13069 162e 5D390000 		.4byte	0x395d
 13070 1632 3C160000 		.4byte	0x163c
ARM GAS  C:\Users\USUARIO\AppData\Local\Temp\ccWuTYF0.s 			page 260


 13071 1636 14       		.uleb128 0x14
 13072 1637 01       		.uleb128 0x1
 13073 1638 50       		.byte	0x50
 13074 1639 01       		.uleb128 0x1
 13075 163a 44       		.byte	0x44
 13076 163b 00       		.byte	0
 13077 163c 13       		.uleb128 0x13
 13078 163d 28080000 		.4byte	.LVL305
 13079 1641 68390000 		.4byte	0x3968
 13080 1645 4F160000 		.4byte	0x164f
 13081 1649 14       		.uleb128 0x14
 13082 164a 01       		.uleb128 0x1
 13083 164b 50       		.byte	0x50
 13084 164c 01       		.uleb128 0x1
 13085 164d 30       		.byte	0x30
 13086 164e 00       		.byte	0
 13087 164f 13       		.uleb128 0x13
 13088 1650 2E080000 		.4byte	.LVL306
 13089 1654 5D390000 		.4byte	0x395d
 13090 1658 62160000 		.4byte	0x1662
 13091 165c 14       		.uleb128 0x14
 13092 165d 01       		.uleb128 0x1
 13093 165e 50       		.byte	0x50
 13094 165f 01       		.uleb128 0x1
 13095 1660 44       		.byte	0x44
 13096 1661 00       		.byte	0
 13097 1662 13       		.uleb128 0x13
 13098 1663 72080000 		.4byte	.LVL309
 13099 1667 68390000 		.4byte	0x3968
 13100 166b 80160000 		.4byte	0x1680
 13101 166f 14       		.uleb128 0x14
 13102 1670 01       		.uleb128 0x1
 13103 1671 50       		.byte	0x50
 13104 1672 02       		.uleb128 0x2
 13105 1673 08       		.byte	0x8
 13106 1674 50       		.byte	0x50
 13107 1675 14       		.uleb128 0x14
 13108 1676 01       		.uleb128 0x1
 13109 1677 51       		.byte	0x51
 13110 1678 06       		.uleb128 0x6
 13111 1679 74       		.byte	0x74
 13112 167a 00       		.sleb128 0
 13113 167b 32       		.byte	0x32
 13114 167c 24       		.byte	0x24
 13115 167d 23       		.byte	0x23
 13116 167e 4A       		.uleb128 0x4a
 13117 167f 00       		.byte	0
 13118 1680 13       		.uleb128 0x13
 13119 1681 78080000 		.4byte	.LVL310
 13120 1685 5D390000 		.4byte	0x395d
 13121 1689 93160000 		.4byte	0x1693
 13122 168d 14       		.uleb128 0x14
 13123 168e 01       		.uleb128 0x1
 13124 168f 50       		.byte	0x50
 13125 1690 01       		.uleb128 0x1
 13126 1691 44       		.byte	0x44
 13127 1692 00       		.byte	0
ARM GAS  C:\Users\USUARIO\AppData\Local\Temp\ccWuTYF0.s 			page 261


 13128 1693 13       		.uleb128 0x13
 13129 1694 8C080000 		.4byte	.LVL311
 13130 1698 68390000 		.4byte	0x3968
 13131 169c A6160000 		.4byte	0x16a6
 13132 16a0 14       		.uleb128 0x14
 13133 16a1 01       		.uleb128 0x1
 13134 16a2 50       		.byte	0x50
 13135 16a3 01       		.uleb128 0x1
 13136 16a4 30       		.byte	0x30
 13137 16a5 00       		.byte	0
 13138 16a6 16       		.uleb128 0x16
 13139 16a7 92080000 		.4byte	.LVL312
 13140 16ab 5D390000 		.4byte	0x395d
 13141 16af 14       		.uleb128 0x14
 13142 16b0 01       		.uleb128 0x1
 13143 16b1 50       		.byte	0x50
 13144 16b2 01       		.uleb128 0x1
 13145 16b3 44       		.byte	0x44
 13146 16b4 00       		.byte	0
 13147 16b5 00       		.byte	0
 13148 16b6 17       		.uleb128 0x17
 13149 16b7 B00F0000 		.4byte	.LASF59
 13150 16bb 01       		.byte	0x1
 13151 16bc 6601     		.2byte	0x166
 13152 16be 00000000 		.4byte	.LFB71
 13153 16c2 DC000000 		.4byte	.LFE71-.LFB71
 13154 16c6 01       		.uleb128 0x1
 13155 16c7 9C       		.byte	0x9c
 13156 16c8 18       		.uleb128 0x18
 13157 16c9 B7100000 		.4byte	.LASF58
 13158 16cd 01       		.byte	0x1
 13159 16ce 7501     		.2byte	0x175
 13160 16d0 00000000 		.4byte	.LFB72
 13161 16d4 680B0000 		.4byte	.LFE72-.LFB72
 13162 16d8 01       		.uleb128 0x1
 13163 16d9 9C       		.byte	0x9c
 13164 16da 84170000 		.4byte	0x1784
 13165 16de 19       		.uleb128 0x19
 13166 16df 746D7000 		.ascii	"tmp\000"
 13167 16e3 01       		.byte	0x1
 13168 16e4 7701     		.2byte	0x177
 13169 16e6 25000000 		.4byte	0x25
 13170 16ea 26020000 		.4byte	.LLST13
 13171 16ee 15       		.uleb128 0x15
 13172 16ef 1C000000 		.4byte	.LVL331
 13173 16f3 B6160000 		.4byte	0x16b6
 13174 16f7 15       		.uleb128 0x15
 13175 16f8 30000000 		.4byte	.LVL332
 13176 16fc B6160000 		.4byte	0x16b6
 13177 1700 13       		.uleb128 0x13
 13178 1701 3C000000 		.4byte	.LVL333
 13179 1705 73390000 		.4byte	0x3973
 13180 1709 13170000 		.4byte	0x1713
 13181 170d 14       		.uleb128 0x14
 13182 170e 01       		.uleb128 0x1
 13183 170f 50       		.byte	0x50
 13184 1710 01       		.uleb128 0x1
ARM GAS  C:\Users\USUARIO\AppData\Local\Temp\ccWuTYF0.s 			page 262


 13185 1711 30       		.byte	0x30
 13186 1712 00       		.byte	0
 13187 1713 13       		.uleb128 0x13
 13188 1714 42030000 		.4byte	.LVL372
 13189 1718 7E390000 		.4byte	0x397e
 13190 171c 26170000 		.4byte	0x1726
 13191 1720 14       		.uleb128 0x14
 13192 1721 01       		.uleb128 0x1
 13193 1722 50       		.byte	0x50
 13194 1723 01       		.uleb128 0x1
 13195 1724 30       		.byte	0x30
 13196 1725 00       		.byte	0
 13197 1726 15       		.uleb128 0x15
 13198 1727 48030000 		.4byte	.LVL373
 13199 172b 89390000 		.4byte	0x3989
 13200 172f 15       		.uleb128 0x15
 13201 1730 76030000 		.4byte	.LVL379
 13202 1734 7E390000 		.4byte	0x397e
 13203 1738 13       		.uleb128 0x13
 13204 1739 7C030000 		.4byte	.LVL380
 13205 173d 89390000 		.4byte	0x3989
 13206 1741 4B170000 		.4byte	0x174b
 13207 1745 14       		.uleb128 0x14
 13208 1746 01       		.uleb128 0x1
 13209 1747 50       		.byte	0x50
 13210 1748 01       		.uleb128 0x1
 13211 1749 30       		.byte	0x30
 13212 174a 00       		.byte	0
 13213 174b 13       		.uleb128 0x13
 13214 174c 3A050000 		.4byte	.LVL424
 13215 1750 7E390000 		.4byte	0x397e
 13216 1754 5E170000 		.4byte	0x175e
 13217 1758 14       		.uleb128 0x14
 13218 1759 01       		.uleb128 0x1
 13219 175a 50       		.byte	0x50
 13220 175b 01       		.uleb128 0x1
 13221 175c 30       		.byte	0x30
 13222 175d 00       		.byte	0
 13223 175e 15       		.uleb128 0x15
 13224 175f 40050000 		.4byte	.LVL425
 13225 1763 89390000 		.4byte	0x3989
 13226 1767 13       		.uleb128 0x13
 13227 1768 060B0000 		.4byte	.LVL520
 13228 176c 89390000 		.4byte	0x3989
 13229 1770 7A170000 		.4byte	0x177a
 13230 1774 14       		.uleb128 0x14
 13231 1775 01       		.uleb128 0x1
 13232 1776 50       		.byte	0x50
 13233 1777 01       		.uleb128 0x1
 13234 1778 30       		.byte	0x30
 13235 1779 00       		.byte	0
 13236 177a 15       		.uleb128 0x15
 13237 177b 0C0B0000 		.4byte	.LVL521
 13238 177f 7E390000 		.4byte	0x397e
 13239 1783 00       		.byte	0
 13240 1784 17       		.uleb128 0x17
 13241 1785 9A070000 		.4byte	.LASF60
ARM GAS  C:\Users\USUARIO\AppData\Local\Temp\ccWuTYF0.s 			page 263


 13242 1789 01       		.byte	0x1
 13243 178a 7402     		.2byte	0x274
 13244 178c 00000000 		.4byte	.LFB73
 13245 1790 5C000000 		.4byte	.LFE73-.LFB73
 13246 1794 01       		.uleb128 0x1
 13247 1795 9C       		.byte	0x9c
 13248 1796 17       		.uleb128 0x17
 13249 1797 01090000 		.4byte	.LASF61
 13250 179b 01       		.byte	0x1
 13251 179c 7F02     		.2byte	0x27f
 13252 179e 00000000 		.4byte	.LFB74
 13253 17a2 E4000000 		.4byte	.LFE74-.LFB74
 13254 17a6 01       		.uleb128 0x1
 13255 17a7 9C       		.byte	0x9c
 13256 17a8 1A       		.uleb128 0x1a
 13257 17a9 D6060000 		.4byte	.LASF63
 13258 17ad 01       		.byte	0x1
 13259 17ae 9D02     		.2byte	0x29d
 13260 17b0 00000000 		.4byte	.LFB75
 13261 17b4 32000000 		.4byte	.LFE75-.LFB75
 13262 17b8 01       		.uleb128 0x1
 13263 17b9 9C       		.byte	0x9c
 13264 17ba 68180000 		.4byte	0x1868
 13265 17be 1B       		.uleb128 0x1b
 13266 17bf 42070000 		.4byte	.LASF62
 13267 17c3 01       		.byte	0x1
 13268 17c4 9D02     		.2byte	0x29d
 13269 17c6 18010000 		.4byte	0x118
 13270 17ca 90020000 		.4byte	.LLST14
 13271 17ce 13       		.uleb128 0x13
 13272 17cf 06000000 		.4byte	.LVL531
 13273 17d3 94390000 		.4byte	0x3994
 13274 17d7 E3170000 		.4byte	0x17e3
 13275 17db 14       		.uleb128 0x14
 13276 17dc 01       		.uleb128 0x1
 13277 17dd 50       		.byte	0x50
 13278 17de 03       		.uleb128 0x3
 13279 17df F3       		.byte	0xf3
 13280 17e0 01       		.uleb128 0x1
 13281 17e1 50       		.byte	0x50
 13282 17e2 00       		.byte	0
 13283 17e3 13       		.uleb128 0x13
 13284 17e4 0C000000 		.4byte	.LVL532
 13285 17e8 9F390000 		.4byte	0x399f
 13286 17ec F6170000 		.4byte	0x17f6
 13287 17f0 14       		.uleb128 0x14
 13288 17f1 01       		.uleb128 0x1
 13289 17f2 50       		.byte	0x50
 13290 17f3 01       		.uleb128 0x1
 13291 17f4 3A       		.byte	0x3a
 13292 17f5 00       		.byte	0
 13293 17f6 13       		.uleb128 0x13
 13294 17f7 12000000 		.4byte	.LVL533
 13295 17fb AA390000 		.4byte	0x39aa
 13296 17ff 0A180000 		.4byte	0x180a
 13297 1803 14       		.uleb128 0x14
 13298 1804 01       		.uleb128 0x1
ARM GAS  C:\Users\USUARIO\AppData\Local\Temp\ccWuTYF0.s 			page 264


 13299 1805 50       		.byte	0x50
 13300 1806 02       		.uleb128 0x2
 13301 1807 09       		.byte	0x9
 13302 1808 FF       		.byte	0xff
 13303 1809 00       		.byte	0
 13304 180a 13       		.uleb128 0x13
 13305 180b 18000000 		.4byte	.LVL534
 13306 180f 9F390000 		.4byte	0x399f
 13307 1813 1D180000 		.4byte	0x181d
 13308 1817 14       		.uleb128 0x14
 13309 1818 01       		.uleb128 0x1
 13310 1819 50       		.byte	0x50
 13311 181a 01       		.uleb128 0x1
 13312 181b 3A       		.byte	0x3a
 13313 181c 00       		.byte	0
 13314 181d 13       		.uleb128 0x13
 13315 181e 1E000000 		.4byte	.LVL535
 13316 1822 AA390000 		.4byte	0x39aa
 13317 1826 31180000 		.4byte	0x1831
 13318 182a 14       		.uleb128 0x14
 13319 182b 01       		.uleb128 0x1
 13320 182c 50       		.byte	0x50
 13321 182d 02       		.uleb128 0x2
 13322 182e 09       		.byte	0x9
 13323 182f FF       		.byte	0xff
 13324 1830 00       		.byte	0
 13325 1831 13       		.uleb128 0x13
 13326 1832 24000000 		.4byte	.LVL536
 13327 1836 9F390000 		.4byte	0x399f
 13328 183a 44180000 		.4byte	0x1844
 13329 183e 14       		.uleb128 0x14
 13330 183f 01       		.uleb128 0x1
 13331 1840 50       		.byte	0x50
 13332 1841 01       		.uleb128 0x1
 13333 1842 3A       		.byte	0x3a
 13334 1843 00       		.byte	0
 13335 1844 13       		.uleb128 0x13
 13336 1845 2A000000 		.4byte	.LVL537
 13337 1849 AA390000 		.4byte	0x39aa
 13338 184d 58180000 		.4byte	0x1858
 13339 1851 14       		.uleb128 0x14
 13340 1852 01       		.uleb128 0x1
 13341 1853 50       		.byte	0x50
 13342 1854 02       		.uleb128 0x2
 13343 1855 09       		.byte	0x9
 13344 1856 FF       		.byte	0xff
 13345 1857 00       		.byte	0
 13346 1858 16       		.uleb128 0x16
 13347 1859 30000000 		.4byte	.LVL538
 13348 185d 9F390000 		.4byte	0x399f
 13349 1861 14       		.uleb128 0x14
 13350 1862 01       		.uleb128 0x1
 13351 1863 50       		.byte	0x50
 13352 1864 01       		.uleb128 0x1
 13353 1865 3A       		.byte	0x3a
 13354 1866 00       		.byte	0
 13355 1867 00       		.byte	0
ARM GAS  C:\Users\USUARIO\AppData\Local\Temp\ccWuTYF0.s 			page 265


 13356 1868 1A       		.uleb128 0x1a
 13357 1869 E6060000 		.4byte	.LASF64
 13358 186d 01       		.byte	0x1
 13359 186e A802     		.2byte	0x2a8
 13360 1870 00000000 		.4byte	.LFB76
 13361 1874 32000000 		.4byte	.LFE76-.LFB76
 13362 1878 01       		.uleb128 0x1
 13363 1879 9C       		.byte	0x9c
 13364 187a 28190000 		.4byte	0x1928
 13365 187e 1B       		.uleb128 0x1b
 13366 187f 42070000 		.4byte	.LASF62
 13367 1883 01       		.byte	0x1
 13368 1884 A802     		.2byte	0x2a8
 13369 1886 18010000 		.4byte	0x118
 13370 188a B1020000 		.4byte	.LLST15
 13371 188e 13       		.uleb128 0x13
 13372 188f 06000000 		.4byte	.LVL540
 13373 1893 B5390000 		.4byte	0x39b5
 13374 1897 A3180000 		.4byte	0x18a3
 13375 189b 14       		.uleb128 0x14
 13376 189c 01       		.uleb128 0x1
 13377 189d 50       		.byte	0x50
 13378 189e 03       		.uleb128 0x3
 13379 189f F3       		.byte	0xf3
 13380 18a0 01       		.uleb128 0x1
 13381 18a1 50       		.byte	0x50
 13382 18a2 00       		.byte	0
 13383 18a3 13       		.uleb128 0x13
 13384 18a4 0C000000 		.4byte	.LVL541
 13385 18a8 9F390000 		.4byte	0x399f
 13386 18ac B6180000 		.4byte	0x18b6
 13387 18b0 14       		.uleb128 0x14
 13388 18b1 01       		.uleb128 0x1
 13389 18b2 50       		.byte	0x50
 13390 18b3 01       		.uleb128 0x1
 13391 18b4 3A       		.byte	0x3a
 13392 18b5 00       		.byte	0
 13393 18b6 13       		.uleb128 0x13
 13394 18b7 12000000 		.4byte	.LVL542
 13395 18bb C0390000 		.4byte	0x39c0
 13396 18bf CA180000 		.4byte	0x18ca
 13397 18c3 14       		.uleb128 0x14
 13398 18c4 01       		.uleb128 0x1
 13399 18c5 50       		.byte	0x50
 13400 18c6 02       		.uleb128 0x2
 13401 18c7 09       		.byte	0x9
 13402 18c8 FF       		.byte	0xff
 13403 18c9 00       		.byte	0
 13404 18ca 13       		.uleb128 0x13
 13405 18cb 18000000 		.4byte	.LVL543
 13406 18cf 9F390000 		.4byte	0x399f
 13407 18d3 DD180000 		.4byte	0x18dd
 13408 18d7 14       		.uleb128 0x14
 13409 18d8 01       		.uleb128 0x1
 13410 18d9 50       		.byte	0x50
 13411 18da 01       		.uleb128 0x1
 13412 18db 3A       		.byte	0x3a
ARM GAS  C:\Users\USUARIO\AppData\Local\Temp\ccWuTYF0.s 			page 266


 13413 18dc 00       		.byte	0
 13414 18dd 13       		.uleb128 0x13
 13415 18de 1E000000 		.4byte	.LVL544
 13416 18e2 C0390000 		.4byte	0x39c0
 13417 18e6 F1180000 		.4byte	0x18f1
 13418 18ea 14       		.uleb128 0x14
 13419 18eb 01       		.uleb128 0x1
 13420 18ec 50       		.byte	0x50
 13421 18ed 02       		.uleb128 0x2
 13422 18ee 09       		.byte	0x9
 13423 18ef FF       		.byte	0xff
 13424 18f0 00       		.byte	0
 13425 18f1 13       		.uleb128 0x13
 13426 18f2 24000000 		.4byte	.LVL545
 13427 18f6 9F390000 		.4byte	0x399f
 13428 18fa 04190000 		.4byte	0x1904
 13429 18fe 14       		.uleb128 0x14
 13430 18ff 01       		.uleb128 0x1
 13431 1900 50       		.byte	0x50
 13432 1901 01       		.uleb128 0x1
 13433 1902 3A       		.byte	0x3a
 13434 1903 00       		.byte	0
 13435 1904 13       		.uleb128 0x13
 13436 1905 2A000000 		.4byte	.LVL546
 13437 1909 C0390000 		.4byte	0x39c0
 13438 190d 18190000 		.4byte	0x1918
 13439 1911 14       		.uleb128 0x14
 13440 1912 01       		.uleb128 0x1
 13441 1913 50       		.byte	0x50
 13442 1914 02       		.uleb128 0x2
 13443 1915 09       		.byte	0x9
 13444 1916 FF       		.byte	0xff
 13445 1917 00       		.byte	0
 13446 1918 16       		.uleb128 0x16
 13447 1919 30000000 		.4byte	.LVL547
 13448 191d 9F390000 		.4byte	0x399f
 13449 1921 14       		.uleb128 0x14
 13450 1922 01       		.uleb128 0x1
 13451 1923 50       		.byte	0x50
 13452 1924 01       		.uleb128 0x1
 13453 1925 3A       		.byte	0x3a
 13454 1926 00       		.byte	0
 13455 1927 00       		.byte	0
 13456 1928 1C       		.uleb128 0x1c
 13457 1929 1F090000 		.4byte	.LASF379
 13458 192d 01       		.byte	0x1
 13459 192e B302     		.2byte	0x2b3
 13460 1930 00000000 		.4byte	.LFB77
 13461 1934 20040000 		.4byte	.LFE77-.LFB77
 13462 1938 01       		.uleb128 0x1
 13463 1939 9C       		.byte	0x9c
 13464 193a 18       		.uleb128 0x18
 13465 193b AE0A0000 		.4byte	.LASF65
 13466 193f 01       		.byte	0x1
 13467 1940 6803     		.2byte	0x368
 13468 1942 00000000 		.4byte	.LFB78
 13469 1946 C4020000 		.4byte	.LFE78-.LFB78
ARM GAS  C:\Users\USUARIO\AppData\Local\Temp\ccWuTYF0.s 			page 267


 13470 194a 01       		.uleb128 0x1
 13471 194b 9C       		.byte	0x9c
 13472 194c 7B1A0000 		.4byte	0x1a7b
 13473 1950 13       		.uleb128 0x13
 13474 1951 6E000000 		.4byte	.LVL555
 13475 1955 A8170000 		.4byte	0x17a8
 13476 1959 67190000 		.4byte	0x1967
 13477 195d 14       		.uleb128 0x14
 13478 195e 01       		.uleb128 0x1
 13479 195f 50       		.byte	0x50
 13480 1960 05       		.uleb128 0x5
 13481 1961 03       		.byte	0x3
 13482 1962 00000000 		.4byte	.LC0
 13483 1966 00       		.byte	0
 13484 1967 13       		.uleb128 0x13
 13485 1968 86000000 		.4byte	.LVL557
 13486 196c A8170000 		.4byte	0x17a8
 13487 1970 7E190000 		.4byte	0x197e
 13488 1974 14       		.uleb128 0x14
 13489 1975 01       		.uleb128 0x1
 13490 1976 50       		.byte	0x50
 13491 1977 05       		.uleb128 0x5
 13492 1978 03       		.byte	0x3
 13493 1979 1C000000 		.4byte	.LC1
 13494 197d 00       		.byte	0
 13495 197e 15       		.uleb128 0x15
 13496 197f 90000000 		.4byte	.LVL558
 13497 1983 C8160000 		.4byte	0x16c8
 13498 1987 13       		.uleb128 0x13
 13499 1988 DC000000 		.4byte	.LVL564
 13500 198c 7E390000 		.4byte	0x397e
 13501 1990 9B190000 		.4byte	0x199b
 13502 1994 14       		.uleb128 0x14
 13503 1995 01       		.uleb128 0x1
 13504 1996 50       		.byte	0x50
 13505 1997 02       		.uleb128 0x2
 13506 1998 74       		.byte	0x74
 13507 1999 00       		.sleb128 0
 13508 199a 00       		.byte	0
 13509 199b 13       		.uleb128 0x13
 13510 199c E2000000 		.4byte	.LVL565
 13511 19a0 89390000 		.4byte	0x3989
 13512 19a4 AF190000 		.4byte	0x19af
 13513 19a8 14       		.uleb128 0x14
 13514 19a9 01       		.uleb128 0x1
 13515 19aa 50       		.byte	0x50
 13516 19ab 02       		.uleb128 0x2
 13517 19ac 74       		.byte	0x74
 13518 19ad 00       		.sleb128 0
 13519 19ae 00       		.byte	0
 13520 19af 13       		.uleb128 0x13
 13521 19b0 1C010000 		.4byte	.LVL569
 13522 19b4 A8170000 		.4byte	0x17a8
 13523 19b8 C6190000 		.4byte	0x19c6
 13524 19bc 14       		.uleb128 0x14
 13525 19bd 01       		.uleb128 0x1
 13526 19be 50       		.byte	0x50
ARM GAS  C:\Users\USUARIO\AppData\Local\Temp\ccWuTYF0.s 			page 268


 13527 19bf 05       		.uleb128 0x5
 13528 19c0 03       		.byte	0x3
 13529 19c1 34000000 		.4byte	.LC2
 13530 19c5 00       		.byte	0
 13531 19c6 13       		.uleb128 0x13
 13532 19c7 34010000 		.4byte	.LVL571
 13533 19cb A8170000 		.4byte	0x17a8
 13534 19cf DD190000 		.4byte	0x19dd
 13535 19d3 14       		.uleb128 0x14
 13536 19d4 01       		.uleb128 0x1
 13537 19d5 50       		.byte	0x50
 13538 19d6 05       		.uleb128 0x5
 13539 19d7 03       		.byte	0x3
 13540 19d8 4C000000 		.4byte	.LC3
 13541 19dc 00       		.byte	0
 13542 19dd 15       		.uleb128 0x15
 13543 19de 3E010000 		.4byte	.LVL572
 13544 19e2 C8160000 		.4byte	0x16c8
 13545 19e6 13       		.uleb128 0x13
 13546 19e7 A0010000 		.4byte	.LVL580
 13547 19eb A8170000 		.4byte	0x17a8
 13548 19ef FD190000 		.4byte	0x19fd
 13549 19f3 14       		.uleb128 0x14
 13550 19f4 01       		.uleb128 0x1
 13551 19f5 50       		.byte	0x50
 13552 19f6 05       		.uleb128 0x5
 13553 19f7 03       		.byte	0x3
 13554 19f8 00000000 		.4byte	.LC0
 13555 19fc 00       		.byte	0
 13556 19fd 13       		.uleb128 0x13
 13557 19fe B8010000 		.4byte	.LVL582
 13558 1a02 A8170000 		.4byte	0x17a8
 13559 1a06 141A0000 		.4byte	0x1a14
 13560 1a0a 14       		.uleb128 0x14
 13561 1a0b 01       		.uleb128 0x1
 13562 1a0c 50       		.byte	0x50
 13563 1a0d 05       		.uleb128 0x5
 13564 1a0e 03       		.byte	0x3
 13565 1a0f 1C000000 		.4byte	.LC1
 13566 1a13 00       		.byte	0
 13567 1a14 15       		.uleb128 0x15
 13568 1a15 C2010000 		.4byte	.LVL583
 13569 1a19 C8160000 		.4byte	0x16c8
 13570 1a1d 13       		.uleb128 0x13
 13571 1a1e 0E020000 		.4byte	.LVL589
 13572 1a22 7E390000 		.4byte	0x397e
 13573 1a26 301A0000 		.4byte	0x1a30
 13574 1a2a 14       		.uleb128 0x14
 13575 1a2b 01       		.uleb128 0x1
 13576 1a2c 50       		.byte	0x50
 13577 1a2d 01       		.uleb128 0x1
 13578 1a2e 30       		.byte	0x30
 13579 1a2f 00       		.byte	0
 13580 1a30 13       		.uleb128 0x13
 13581 1a31 14020000 		.4byte	.LVL590
 13582 1a35 89390000 		.4byte	0x3989
 13583 1a39 431A0000 		.4byte	0x1a43
ARM GAS  C:\Users\USUARIO\AppData\Local\Temp\ccWuTYF0.s 			page 269


 13584 1a3d 14       		.uleb128 0x14
 13585 1a3e 01       		.uleb128 0x1
 13586 1a3f 50       		.byte	0x50
 13587 1a40 01       		.uleb128 0x1
 13588 1a41 30       		.byte	0x30
 13589 1a42 00       		.byte	0
 13590 1a43 13       		.uleb128 0x13
 13591 1a44 4C020000 		.4byte	.LVL594
 13592 1a48 A8170000 		.4byte	0x17a8
 13593 1a4c 5A1A0000 		.4byte	0x1a5a
 13594 1a50 14       		.uleb128 0x14
 13595 1a51 01       		.uleb128 0x1
 13596 1a52 50       		.byte	0x50
 13597 1a53 05       		.uleb128 0x5
 13598 1a54 03       		.byte	0x3
 13599 1a55 64000000 		.4byte	.LC4
 13600 1a59 00       		.byte	0
 13601 1a5a 13       		.uleb128 0x13
 13602 1a5b 64020000 		.4byte	.LVL596
 13603 1a5f A8170000 		.4byte	0x17a8
 13604 1a63 711A0000 		.4byte	0x1a71
 13605 1a67 14       		.uleb128 0x14
 13606 1a68 01       		.uleb128 0x1
 13607 1a69 50       		.byte	0x50
 13608 1a6a 05       		.uleb128 0x5
 13609 1a6b 03       		.byte	0x3
 13610 1a6c 7C000000 		.4byte	.LC5
 13611 1a70 00       		.byte	0
 13612 1a71 15       		.uleb128 0x15
 13613 1a72 6E020000 		.4byte	.LVL597
 13614 1a76 C8160000 		.4byte	0x16c8
 13615 1a7a 00       		.byte	0
 13616 1a7b 1D       		.uleb128 0x1d
 13617 1a7c 7F070000 		.4byte	.LASF66
 13618 1a80 01       		.byte	0x1
 13619 1a81 AB03     		.2byte	0x3ab
 13620 1a83 25000000 		.4byte	0x25
 13621 1a87 00000000 		.4byte	.LFB79
 13622 1a8b 78010000 		.4byte	.LFE79-.LFB79
 13623 1a8f 01       		.uleb128 0x1
 13624 1a90 9C       		.byte	0x9c
 13625 1a91 0B1B0000 		.4byte	0x1b0b
 13626 1a95 1B       		.uleb128 0x1b
 13627 1a96 61060000 		.4byte	.LASF67
 13628 1a9a 01       		.byte	0x1
 13629 1a9b AB03     		.2byte	0x3ab
 13630 1a9d B4000000 		.4byte	0xb4
 13631 1aa1 D2020000 		.4byte	.LLST16
 13632 1aa5 1E       		.uleb128 0x1e
 13633 1aa6 2F0C0000 		.4byte	.LASF68
 13634 1aaa 01       		.byte	0x1
 13635 1aab AC03     		.2byte	0x3ac
 13636 1aad 25000000 		.4byte	0x25
 13637 1ab1 F3020000 		.4byte	.LLST17
 13638 1ab5 19       		.uleb128 0x19
 13639 1ab6 616A7000 		.ascii	"ajp\000"
 13640 1aba 01       		.byte	0x1
ARM GAS  C:\Users\USUARIO\AppData\Local\Temp\ccWuTYF0.s 			page 270


 13641 1abb AC03     		.2byte	0x3ac
 13642 1abd 25000000 		.4byte	0x25
 13643 1ac1 21030000 		.4byte	.LLST18
 13644 1ac5 19       		.uleb128 0x19
 13645 1ac6 616A6E00 		.ascii	"ajn\000"
 13646 1aca 01       		.byte	0x1
 13647 1acb AC03     		.2byte	0x3ac
 13648 1acd 25000000 		.4byte	0x25
 13649 1ad1 4A030000 		.4byte	.LLST19
 13650 1ad5 1E       		.uleb128 0x1e
 13651 1ad6 C30D0000 		.4byte	.LASF69
 13652 1ada 01       		.byte	0x1
 13653 1adb AD03     		.2byte	0x3ad
 13654 1add 25000000 		.4byte	0x25
 13655 1ae1 73030000 		.4byte	.LLST20
 13656 1ae5 15       		.uleb128 0x15
 13657 1ae6 0E000000 		.4byte	.LVL600
 13658 1aea CB390000 		.4byte	0x39cb
 13659 1aee 13       		.uleb128 0x13
 13660 1aef 18000000 		.4byte	.LVL601
 13661 1af3 D6390000 		.4byte	0x39d6
 13662 1af7 011B0000 		.4byte	0x1b01
 13663 1afb 14       		.uleb128 0x14
 13664 1afc 01       		.uleb128 0x1
 13665 1afd 51       		.byte	0x51
 13666 1afe 01       		.uleb128 0x1
 13667 1aff 30       		.byte	0x30
 13668 1b00 00       		.byte	0
 13669 1b01 15       		.uleb128 0x15
 13670 1b02 20000000 		.4byte	.LVL602
 13671 1b06 E1390000 		.4byte	0x39e1
 13672 1b0a 00       		.byte	0
 13673 1b0b 1D       		.uleb128 0x1d
 13674 1b0c 16010000 		.4byte	.LASF70
 13675 1b10 01       		.byte	0x1
 13676 1b11 D903     		.2byte	0x3d9
 13677 1b13 25000000 		.4byte	0x25
 13678 1b17 00000000 		.4byte	.LFB80
 13679 1b1b 78010000 		.4byte	.LFE80-.LFB80
 13680 1b1f 01       		.uleb128 0x1
 13681 1b20 9C       		.byte	0x9c
 13682 1b21 9B1B0000 		.4byte	0x1b9b
 13683 1b25 1B       		.uleb128 0x1b
 13684 1b26 1B000000 		.4byte	.LASF71
 13685 1b2a 01       		.byte	0x1
 13686 1b2b D903     		.2byte	0x3d9
 13687 1b2d B4000000 		.4byte	0xb4
 13688 1b31 91030000 		.4byte	.LLST21
 13689 1b35 1E       		.uleb128 0x1e
 13690 1b36 340C0000 		.4byte	.LASF72
 13691 1b3a 01       		.byte	0x1
 13692 1b3b DA03     		.2byte	0x3da
 13693 1b3d 25000000 		.4byte	0x25
 13694 1b41 B2030000 		.4byte	.LLST22
 13695 1b45 1E       		.uleb128 0x1e
 13696 1b46 CF010000 		.4byte	.LASF73
 13697 1b4a 01       		.byte	0x1
ARM GAS  C:\Users\USUARIO\AppData\Local\Temp\ccWuTYF0.s 			page 271


 13698 1b4b DA03     		.2byte	0x3da
 13699 1b4d 25000000 		.4byte	0x25
 13700 1b51 E0030000 		.4byte	.LLST23
 13701 1b55 1E       		.uleb128 0x1e
 13702 1b56 EC000000 		.4byte	.LASF74
 13703 1b5a 01       		.byte	0x1
 13704 1b5b DA03     		.2byte	0x3da
 13705 1b5d 25000000 		.4byte	0x25
 13706 1b61 09040000 		.4byte	.LLST24
 13707 1b65 1E       		.uleb128 0x1e
 13708 1b66 C30D0000 		.4byte	.LASF69
 13709 1b6a 01       		.byte	0x1
 13710 1b6b DB03     		.2byte	0x3db
 13711 1b6d 25000000 		.4byte	0x25
 13712 1b71 32040000 		.4byte	.LLST25
 13713 1b75 15       		.uleb128 0x15
 13714 1b76 0E000000 		.4byte	.LVL636
 13715 1b7a CB390000 		.4byte	0x39cb
 13716 1b7e 13       		.uleb128 0x13
 13717 1b7f 18000000 		.4byte	.LVL637
 13718 1b83 D6390000 		.4byte	0x39d6
 13719 1b87 911B0000 		.4byte	0x1b91
 13720 1b8b 14       		.uleb128 0x14
 13721 1b8c 01       		.uleb128 0x1
 13722 1b8d 51       		.byte	0x51
 13723 1b8e 01       		.uleb128 0x1
 13724 1b8f 31       		.byte	0x31
 13725 1b90 00       		.byte	0
 13726 1b91 15       		.uleb128 0x15
 13727 1b92 20000000 		.4byte	.LVL638
 13728 1b96 E1390000 		.4byte	0x39e1
 13729 1b9a 00       		.byte	0
 13730 1b9b 1F       		.uleb128 0x1f
 13731 1b9c 360B0000 		.4byte	.LASF75
 13732 1ba0 01       		.byte	0x1
 13733 1ba1 0604     		.2byte	0x406
 13734 1ba3 F0000000 		.4byte	0xf0
 13735 1ba7 00000000 		.4byte	.LFB81
 13736 1bab 24000000 		.4byte	.LFE81-.LFB81
 13737 1baf 01       		.uleb128 0x1
 13738 1bb0 9C       		.byte	0x9c
 13739 1bb1 D41B0000 		.4byte	0x1bd4
 13740 1bb5 1B       		.uleb128 0x1b
 13741 1bb6 35060000 		.4byte	.LASF76
 13742 1bba 01       		.byte	0x1
 13743 1bbb 0604     		.2byte	0x406
 13744 1bbd F0000000 		.4byte	0xf0
 13745 1bc1 50040000 		.4byte	.LLST26
 13746 1bc5 19       		.uleb128 0x19
 13747 1bc6 6B00     		.ascii	"k\000"
 13748 1bc8 01       		.byte	0x1
 13749 1bc9 0704     		.2byte	0x407
 13750 1bcb F0000000 		.4byte	0xf0
 13751 1bcf 82040000 		.4byte	.LLST27
 13752 1bd3 00       		.byte	0
 13753 1bd4 20       		.uleb128 0x20
 13754 1bd5 79090000 		.4byte	.LASF77
ARM GAS  C:\Users\USUARIO\AppData\Local\Temp\ccWuTYF0.s 			page 272


 13755 1bd9 01       		.byte	0x1
 13756 1bda 0E04     		.2byte	0x40e
 13757 1bdc F0000000 		.4byte	0xf0
 13758 1be0 00000000 		.4byte	.LFB82
 13759 1be4 90000000 		.4byte	.LFE82-.LFB82
 13760 1be8 01       		.uleb128 0x1
 13761 1be9 9C       		.byte	0x9c
 13762 1bea 371C0000 		.4byte	0x1c37
 13763 1bee 1E       		.uleb128 0x1e
 13764 1bef 49070000 		.4byte	.LASF78
 13765 1bf3 01       		.byte	0x1
 13766 1bf4 0F04     		.2byte	0x40f
 13767 1bf6 25000000 		.4byte	0x25
 13768 1bfa A7040000 		.4byte	.LLST28
 13769 1bfe 13       		.uleb128 0x13
 13770 1bff 08000000 		.4byte	.LVL675
 13771 1c03 EC390000 		.4byte	0x39ec
 13772 1c07 111C0000 		.4byte	0x1c11
 13773 1c0b 14       		.uleb128 0x14
 13774 1c0c 01       		.uleb128 0x1
 13775 1c0d 50       		.byte	0x50
 13776 1c0e 01       		.uleb128 0x1
 13777 1c0f 30       		.byte	0x30
 13778 1c10 00       		.byte	0
 13779 1c11 13       		.uleb128 0x13
 13780 1c12 0E000000 		.4byte	.LVL676
 13781 1c16 F7390000 		.4byte	0x39f7
 13782 1c1a 241C0000 		.4byte	0x1c24
 13783 1c1e 14       		.uleb128 0x14
 13784 1c1f 01       		.uleb128 0x1
 13785 1c20 50       		.byte	0x50
 13786 1c21 01       		.uleb128 0x1
 13787 1c22 30       		.byte	0x30
 13788 1c23 00       		.byte	0
 13789 1c24 15       		.uleb128 0x15
 13790 1c25 16000000 		.4byte	.LVL677
 13791 1c29 023A0000 		.4byte	0x3a02
 13792 1c2d 15       		.uleb128 0x15
 13793 1c2e 1A000000 		.4byte	.LVL678
 13794 1c32 9B1B0000 		.4byte	0x1b9b
 13795 1c36 00       		.byte	0
 13796 1c37 1D       		.uleb128 0x1d
 13797 1c38 A7070000 		.4byte	.LASF79
 13798 1c3c 01       		.byte	0x1
 13799 1c3d 1E04     		.2byte	0x41e
 13800 1c3f 25000000 		.4byte	0x25
 13801 1c43 00000000 		.4byte	.LFB83
 13802 1c47 D8020000 		.4byte	.LFE83-.LFB83
 13803 1c4b 01       		.uleb128 0x1
 13804 1c4c 9C       		.byte	0x9c
 13805 1c4d 3D1D0000 		.4byte	0x1d3d
 13806 1c51 1B       		.uleb128 0x1b
 13807 1c52 61060000 		.4byte	.LASF67
 13808 1c56 01       		.byte	0x1
 13809 1c57 1E04     		.2byte	0x41e
 13810 1c59 D8000000 		.4byte	0xd8
 13811 1c5d E0040000 		.4byte	.LLST29
ARM GAS  C:\Users\USUARIO\AppData\Local\Temp\ccWuTYF0.s 			page 273


 13812 1c61 19       		.uleb128 0x19
 13813 1c62 564800   		.ascii	"VH\000"
 13814 1c65 01       		.byte	0x1
 13815 1c66 1F04     		.2byte	0x41f
 13816 1c68 25000000 		.4byte	0x25
 13817 1c6c 01050000 		.4byte	.LLST30
 13818 1c70 19       		.uleb128 0x19
 13819 1c71 524800   		.ascii	"RH\000"
 13820 1c74 01       		.byte	0x1
 13821 1c75 1F04     		.2byte	0x41f
 13822 1c77 25000000 		.4byte	0x25
 13823 1c7b 45050000 		.4byte	.LLST31
 13824 1c7f 19       		.uleb128 0x19
 13825 1c80 546100   		.ascii	"Ta\000"
 13826 1c83 01       		.byte	0x1
 13827 1c84 1F04     		.2byte	0x41f
 13828 1c86 25000000 		.4byte	0x25
 13829 1c8a 73050000 		.4byte	.LLST32
 13830 1c8e 19       		.uleb128 0x19
 13831 1c8f 565400   		.ascii	"VT\000"
 13832 1c92 01       		.byte	0x1
 13833 1c93 1F04     		.2byte	0x41f
 13834 1c95 25000000 		.4byte	0x25
 13835 1c99 96050000 		.4byte	.LLST33
 13836 1c9d 1E       		.uleb128 0x1e
 13837 1c9e A50C0000 		.4byte	.LASF80
 13838 1ca2 01       		.byte	0x1
 13839 1ca3 2004     		.2byte	0x420
 13840 1ca5 25000000 		.4byte	0x25
 13841 1ca9 C4050000 		.4byte	.LLST34
 13842 1cad 1E       		.uleb128 0x1e
 13843 1cae F8030000 		.4byte	.LASF81
 13844 1cb2 01       		.byte	0x1
 13845 1cb3 2004     		.2byte	0x420
 13846 1cb5 25000000 		.4byte	0x25
 13847 1cb9 08060000 		.4byte	.LLST35
 13848 1cbd 1E       		.uleb128 0x1e
 13849 1cbe E80C0000 		.4byte	.LASF82
 13850 1cc2 01       		.byte	0x1
 13851 1cc3 2104     		.2byte	0x421
 13852 1cc5 25000000 		.4byte	0x25
 13853 1cc9 57060000 		.4byte	.LLST36
 13854 1ccd 13       		.uleb128 0x13
 13855 1cce 0C000000 		.4byte	.LVL689
 13856 1cd2 EC390000 		.4byte	0x39ec
 13857 1cd6 E01C0000 		.4byte	0x1ce0
 13858 1cda 14       		.uleb128 0x14
 13859 1cdb 01       		.uleb128 0x1
 13860 1cdc 50       		.byte	0x50
 13861 1cdd 01       		.uleb128 0x1
 13862 1cde 30       		.byte	0x30
 13863 1cdf 00       		.byte	0
 13864 1ce0 13       		.uleb128 0x13
 13865 1ce1 12000000 		.4byte	.LVL690
 13866 1ce5 F7390000 		.4byte	0x39f7
 13867 1ce9 F31C0000 		.4byte	0x1cf3
 13868 1ced 14       		.uleb128 0x14
ARM GAS  C:\Users\USUARIO\AppData\Local\Temp\ccWuTYF0.s 			page 274


 13869 1cee 01       		.uleb128 0x1
 13870 1cef 50       		.byte	0x50
 13871 1cf0 01       		.uleb128 0x1
 13872 1cf1 31       		.byte	0x31
 13873 1cf2 00       		.byte	0
 13874 1cf3 15       		.uleb128 0x15
 13875 1cf4 16000000 		.4byte	.LVL691
 13876 1cf8 0D3A0000 		.4byte	0x3a0d
 13877 1cfc 13       		.uleb128 0x13
 13878 1cfd 1E000000 		.4byte	.LVL694
 13879 1d01 F7390000 		.4byte	0x39f7
 13880 1d05 0F1D0000 		.4byte	0x1d0f
 13881 1d09 14       		.uleb128 0x14
 13882 1d0a 01       		.uleb128 0x1
 13883 1d0b 50       		.byte	0x50
 13884 1d0c 01       		.uleb128 0x1
 13885 1d0d 32       		.byte	0x32
 13886 1d0e 00       		.byte	0
 13887 1d0f 15       		.uleb128 0x15
 13888 1d10 22000000 		.4byte	.LVL695
 13889 1d14 0D3A0000 		.4byte	0x3a0d
 13890 1d18 15       		.uleb128 0x15
 13891 1d19 40000000 		.4byte	.LVL703
 13892 1d1d 183A0000 		.4byte	0x3a18
 13893 1d21 15       		.uleb128 0x15
 13894 1d22 5C000000 		.4byte	.LVL705
 13895 1d26 183A0000 		.4byte	0x3a18
 13896 1d2a 15       		.uleb128 0x15
 13897 1d2b 14010000 		.4byte	.LVL722
 13898 1d2f 183A0000 		.4byte	0x3a18
 13899 1d33 15       		.uleb128 0x15
 13900 1d34 30010000 		.4byte	.LVL724
 13901 1d38 183A0000 		.4byte	0x3a18
 13902 1d3c 00       		.byte	0
 13903 1d3d 1F       		.uleb128 0x1f
 13904 1d3e 89090000 		.4byte	.LASF83
 13905 1d42 01       		.byte	0x1
 13906 1d43 4C04     		.2byte	0x44c
 13907 1d45 45000000 		.4byte	0x45
 13908 1d49 00000000 		.4byte	.LFB84
 13909 1d4d 2C000000 		.4byte	.LFE84-.LFB84
 13910 1d51 01       		.uleb128 0x1
 13911 1d52 9C       		.byte	0x9c
 13912 1d53 681D0000 		.4byte	0x1d68
 13913 1d57 1B       		.uleb128 0x1b
 13914 1d58 5D010000 		.4byte	.LASF84
 13915 1d5c 01       		.byte	0x1
 13916 1d5d 4C04     		.2byte	0x44c
 13917 1d5f B4000000 		.4byte	0xb4
 13918 1d63 75060000 		.4byte	.LLST37
 13919 1d67 00       		.byte	0
 13920 1d68 21       		.uleb128 0x21
 13921 1d69 38070000 		.4byte	.LASF85
 13922 1d6d 01       		.byte	0x1
 13923 1d6e 5004     		.2byte	0x450
 13924 1d70 00000000 		.4byte	.LFB85
 13925 1d74 B0000000 		.4byte	.LFE85-.LFB85
ARM GAS  C:\Users\USUARIO\AppData\Local\Temp\ccWuTYF0.s 			page 275


 13926 1d78 01       		.uleb128 0x1
 13927 1d79 9C       		.byte	0x9c
 13928 1d7a 881D0000 		.4byte	0x1d88
 13929 1d7e 15       		.uleb128 0x15
 13930 1d7f 58000000 		.4byte	.LVL760
 13931 1d83 3D1D0000 		.4byte	0x1d3d
 13932 1d87 00       		.byte	0
 13933 1d88 21       		.uleb128 0x21
 13934 1d89 290B0000 		.4byte	.LASF86
 13935 1d8d 01       		.byte	0x1
 13936 1d8e 7B04     		.2byte	0x47b
 13937 1d90 00000000 		.4byte	.LFB86
 13938 1d94 46000000 		.4byte	.LFE86-.LFB86
 13939 1d98 01       		.uleb128 0x1
 13940 1d99 9C       		.byte	0x9c
 13941 1d9a 6C1E0000 		.4byte	0x1e6c
 13942 1d9e 13       		.uleb128 0x13
 13943 1d9f 08000000 		.4byte	.LVL761
 13944 1da3 233A0000 		.4byte	0x3a23
 13945 1da7 B11D0000 		.4byte	0x1db1
 13946 1dab 14       		.uleb128 0x14
 13947 1dac 01       		.uleb128 0x1
 13948 1dad 50       		.byte	0x50
 13949 1dae 01       		.uleb128 0x1
 13950 1daf 30       		.byte	0x30
 13951 1db0 00       		.byte	0
 13952 1db1 13       		.uleb128 0x13
 13953 1db2 0E000000 		.4byte	.LVL762
 13954 1db6 2E3A0000 		.4byte	0x3a2e
 13955 1dba C41D0000 		.4byte	0x1dc4
 13956 1dbe 14       		.uleb128 0x14
 13957 1dbf 01       		.uleb128 0x1
 13958 1dc0 50       		.byte	0x50
 13959 1dc1 01       		.uleb128 0x1
 13960 1dc2 30       		.byte	0x30
 13961 1dc3 00       		.byte	0
 13962 1dc4 13       		.uleb128 0x13
 13963 1dc5 14000000 		.4byte	.LVL763
 13964 1dc9 393A0000 		.4byte	0x3a39
 13965 1dcd D71D0000 		.4byte	0x1dd7
 13966 1dd1 14       		.uleb128 0x14
 13967 1dd2 01       		.uleb128 0x1
 13968 1dd3 50       		.byte	0x50
 13969 1dd4 01       		.uleb128 0x1
 13970 1dd5 30       		.byte	0x30
 13971 1dd6 00       		.byte	0
 13972 1dd7 13       		.uleb128 0x13
 13973 1dd8 1A000000 		.4byte	.LVL764
 13974 1ddc 443A0000 		.4byte	0x3a44
 13975 1de0 EA1D0000 		.4byte	0x1dea
 13976 1de4 14       		.uleb128 0x14
 13977 1de5 01       		.uleb128 0x1
 13978 1de6 50       		.byte	0x50
 13979 1de7 01       		.uleb128 0x1
 13980 1de8 30       		.byte	0x30
 13981 1de9 00       		.byte	0
 13982 1dea 13       		.uleb128 0x13
ARM GAS  C:\Users\USUARIO\AppData\Local\Temp\ccWuTYF0.s 			page 276


 13983 1deb 20000000 		.4byte	.LVL765
 13984 1def 4F3A0000 		.4byte	0x3a4f
 13985 1df3 FD1D0000 		.4byte	0x1dfd
 13986 1df7 14       		.uleb128 0x14
 13987 1df8 01       		.uleb128 0x1
 13988 1df9 50       		.byte	0x50
 13989 1dfa 01       		.uleb128 0x1
 13990 1dfb 30       		.byte	0x30
 13991 1dfc 00       		.byte	0
 13992 1dfd 13       		.uleb128 0x13
 13993 1dfe 26000000 		.4byte	.LVL766
 13994 1e02 5A3A0000 		.4byte	0x3a5a
 13995 1e06 101E0000 		.4byte	0x1e10
 13996 1e0a 14       		.uleb128 0x14
 13997 1e0b 01       		.uleb128 0x1
 13998 1e0c 50       		.byte	0x50
 13999 1e0d 01       		.uleb128 0x1
 14000 1e0e 30       		.byte	0x30
 14001 1e0f 00       		.byte	0
 14002 1e10 13       		.uleb128 0x13
 14003 1e11 2C000000 		.4byte	.LVL767
 14004 1e15 73390000 		.4byte	0x3973
 14005 1e19 231E0000 		.4byte	0x1e23
 14006 1e1d 14       		.uleb128 0x14
 14007 1e1e 01       		.uleb128 0x1
 14008 1e1f 50       		.byte	0x50
 14009 1e20 01       		.uleb128 0x1
 14010 1e21 31       		.byte	0x31
 14011 1e22 00       		.byte	0
 14012 1e23 13       		.uleb128 0x13
 14013 1e24 32000000 		.4byte	.LVL768
 14014 1e28 653A0000 		.4byte	0x3a65
 14015 1e2c 361E0000 		.4byte	0x1e36
 14016 1e30 14       		.uleb128 0x14
 14017 1e31 01       		.uleb128 0x1
 14018 1e32 50       		.byte	0x50
 14019 1e33 01       		.uleb128 0x1
 14020 1e34 31       		.byte	0x31
 14021 1e35 00       		.byte	0
 14022 1e36 13       		.uleb128 0x13
 14023 1e37 38000000 		.4byte	.LVL769
 14024 1e3b 703A0000 		.4byte	0x3a70
 14025 1e3f 491E0000 		.4byte	0x1e49
 14026 1e43 14       		.uleb128 0x14
 14027 1e44 01       		.uleb128 0x1
 14028 1e45 50       		.byte	0x50
 14029 1e46 01       		.uleb128 0x1
 14030 1e47 30       		.byte	0x30
 14031 1e48 00       		.byte	0
 14032 1e49 13       		.uleb128 0x13
 14033 1e4a 3E000000 		.4byte	.LVL770
 14034 1e4e 7E390000 		.4byte	0x397e
 14035 1e52 5C1E0000 		.4byte	0x1e5c
 14036 1e56 14       		.uleb128 0x14
 14037 1e57 01       		.uleb128 0x1
 14038 1e58 50       		.byte	0x50
 14039 1e59 01       		.uleb128 0x1
ARM GAS  C:\Users\USUARIO\AppData\Local\Temp\ccWuTYF0.s 			page 277


 14040 1e5a 30       		.byte	0x30
 14041 1e5b 00       		.byte	0
 14042 1e5c 16       		.uleb128 0x16
 14043 1e5d 44000000 		.4byte	.LVL771
 14044 1e61 89390000 		.4byte	0x3989
 14045 1e65 14       		.uleb128 0x14
 14046 1e66 01       		.uleb128 0x1
 14047 1e67 50       		.byte	0x50
 14048 1e68 01       		.uleb128 0x1
 14049 1e69 30       		.byte	0x30
 14050 1e6a 00       		.byte	0
 14051 1e6b 00       		.byte	0
 14052 1e6c 18       		.uleb128 0x18
 14053 1e6d E2070000 		.4byte	.LASF87
 14054 1e71 01       		.byte	0x1
 14055 1e72 8A04     		.2byte	0x48a
 14056 1e74 00000000 		.4byte	.LFB87
 14057 1e78 1C050000 		.4byte	.LFE87-.LFB87
 14058 1e7c 01       		.uleb128 0x1
 14059 1e7d 9C       		.byte	0x9c
 14060 1e7e 81200000 		.4byte	0x2081
 14061 1e82 13       		.uleb128 0x13
 14062 1e83 16000000 		.4byte	.LVL772
 14063 1e87 4F3A0000 		.4byte	0x3a4f
 14064 1e8b 951E0000 		.4byte	0x1e95
 14065 1e8f 14       		.uleb128 0x14
 14066 1e90 01       		.uleb128 0x1
 14067 1e91 50       		.byte	0x50
 14068 1e92 01       		.uleb128 0x1
 14069 1e93 31       		.byte	0x31
 14070 1e94 00       		.byte	0
 14071 1e95 13       		.uleb128 0x13
 14072 1e96 66000000 		.4byte	.LVL777
 14073 1e9a A8170000 		.4byte	0x17a8
 14074 1e9e AC1E0000 		.4byte	0x1eac
 14075 1ea2 14       		.uleb128 0x14
 14076 1ea3 01       		.uleb128 0x1
 14077 1ea4 50       		.byte	0x50
 14078 1ea5 05       		.uleb128 0x5
 14079 1ea6 03       		.byte	0x3
 14080 1ea7 98000000 		.4byte	.LC6
 14081 1eab 00       		.byte	0
 14082 1eac 13       		.uleb128 0x13
 14083 1ead 70000000 		.4byte	.LVL778
 14084 1eb1 5A3A0000 		.4byte	0x3a5a
 14085 1eb5 C01E0000 		.4byte	0x1ec0
 14086 1eb9 14       		.uleb128 0x14
 14087 1eba 01       		.uleb128 0x1
 14088 1ebb 50       		.byte	0x50
 14089 1ebc 02       		.uleb128 0x2
 14090 1ebd 74       		.byte	0x74
 14091 1ebe 00       		.sleb128 0
 14092 1ebf 00       		.byte	0
 14093 1ec0 15       		.uleb128 0x15
 14094 1ec1 74000000 		.4byte	.LVL779
 14095 1ec5 7B3A0000 		.4byte	0x3a7b
 14096 1ec9 13       		.uleb128 0x13
ARM GAS  C:\Users\USUARIO\AppData\Local\Temp\ccWuTYF0.s 			page 278


 14097 1eca AC000000 		.4byte	.LVL784
 14098 1ece 653A0000 		.4byte	0x3a65
 14099 1ed2 DC1E0000 		.4byte	0x1edc
 14100 1ed6 14       		.uleb128 0x14
 14101 1ed7 01       		.uleb128 0x1
 14102 1ed8 50       		.byte	0x50
 14103 1ed9 01       		.uleb128 0x1
 14104 1eda 30       		.byte	0x30
 14105 1edb 00       		.byte	0
 14106 1edc 13       		.uleb128 0x13
 14107 1edd C0000000 		.4byte	.LVL785
 14108 1ee1 653A0000 		.4byte	0x3a65
 14109 1ee5 EF1E0000 		.4byte	0x1eef
 14110 1ee9 14       		.uleb128 0x14
 14111 1eea 01       		.uleb128 0x1
 14112 1eeb 50       		.byte	0x50
 14113 1eec 01       		.uleb128 0x1
 14114 1eed 30       		.byte	0x30
 14115 1eee 00       		.byte	0
 14116 1eef 13       		.uleb128 0x13
 14117 1ef0 D4000000 		.4byte	.LVL786
 14118 1ef4 653A0000 		.4byte	0x3a65
 14119 1ef8 021F0000 		.4byte	0x1f02
 14120 1efc 14       		.uleb128 0x14
 14121 1efd 01       		.uleb128 0x1
 14122 1efe 50       		.byte	0x50
 14123 1eff 01       		.uleb128 0x1
 14124 1f00 31       		.byte	0x31
 14125 1f01 00       		.byte	0
 14126 1f02 13       		.uleb128 0x13
 14127 1f03 EC000000 		.4byte	.LVL787
 14128 1f07 653A0000 		.4byte	0x3a65
 14129 1f0b 151F0000 		.4byte	0x1f15
 14130 1f0f 14       		.uleb128 0x14
 14131 1f10 01       		.uleb128 0x1
 14132 1f11 50       		.byte	0x50
 14133 1f12 01       		.uleb128 0x1
 14134 1f13 31       		.byte	0x31
 14135 1f14 00       		.byte	0
 14136 1f15 13       		.uleb128 0x13
 14137 1f16 6E010000 		.4byte	.LVL796
 14138 1f1a A8170000 		.4byte	0x17a8
 14139 1f1e 2C1F0000 		.4byte	0x1f2c
 14140 1f22 14       		.uleb128 0x14
 14141 1f23 01       		.uleb128 0x1
 14142 1f24 50       		.byte	0x50
 14143 1f25 05       		.uleb128 0x5
 14144 1f26 03       		.byte	0x3
 14145 1f27 B4000000 		.4byte	.LC7
 14146 1f2b 00       		.byte	0
 14147 1f2c 13       		.uleb128 0x13
 14148 1f2d 78010000 		.4byte	.LVL797
 14149 1f31 5A3A0000 		.4byte	0x3a5a
 14150 1f35 401F0000 		.4byte	0x1f40
 14151 1f39 14       		.uleb128 0x14
 14152 1f3a 01       		.uleb128 0x1
 14153 1f3b 50       		.byte	0x50
ARM GAS  C:\Users\USUARIO\AppData\Local\Temp\ccWuTYF0.s 			page 279


 14154 1f3c 02       		.uleb128 0x2
 14155 1f3d 74       		.byte	0x74
 14156 1f3e 00       		.sleb128 0
 14157 1f3f 00       		.byte	0
 14158 1f40 15       		.uleb128 0x15
 14159 1f41 7C010000 		.4byte	.LVL798
 14160 1f45 7B3A0000 		.4byte	0x3a7b
 14161 1f49 13       		.uleb128 0x13
 14162 1f4a 94010000 		.4byte	.LVL799
 14163 1f4e 653A0000 		.4byte	0x3a65
 14164 1f52 5D1F0000 		.4byte	0x1f5d
 14165 1f56 14       		.uleb128 0x14
 14166 1f57 01       		.uleb128 0x1
 14167 1f58 50       		.byte	0x50
 14168 1f59 02       		.uleb128 0x2
 14169 1f5a 74       		.byte	0x74
 14170 1f5b 00       		.sleb128 0
 14171 1f5c 00       		.byte	0
 14172 1f5d 13       		.uleb128 0x13
 14173 1f5e A8010000 		.4byte	.LVL800
 14174 1f62 653A0000 		.4byte	0x3a65
 14175 1f66 701F0000 		.4byte	0x1f70
 14176 1f6a 14       		.uleb128 0x14
 14177 1f6b 01       		.uleb128 0x1
 14178 1f6c 50       		.byte	0x50
 14179 1f6d 01       		.uleb128 0x1
 14180 1f6e 31       		.byte	0x31
 14181 1f6f 00       		.byte	0
 14182 1f70 13       		.uleb128 0x13
 14183 1f71 C0010000 		.4byte	.LVL801
 14184 1f75 653A0000 		.4byte	0x3a65
 14185 1f79 831F0000 		.4byte	0x1f83
 14186 1f7d 14       		.uleb128 0x14
 14187 1f7e 01       		.uleb128 0x1
 14188 1f7f 50       		.byte	0x50
 14189 1f80 01       		.uleb128 0x1
 14190 1f81 31       		.byte	0x31
 14191 1f82 00       		.byte	0
 14192 1f83 13       		.uleb128 0x13
 14193 1f84 14020000 		.4byte	.LVL806
 14194 1f88 653A0000 		.4byte	0x3a65
 14195 1f8c 961F0000 		.4byte	0x1f96
 14196 1f90 14       		.uleb128 0x14
 14197 1f91 01       		.uleb128 0x1
 14198 1f92 50       		.byte	0x50
 14199 1f93 01       		.uleb128 0x1
 14200 1f94 31       		.byte	0x31
 14201 1f95 00       		.byte	0
 14202 1f96 13       		.uleb128 0x13
 14203 1f97 1A020000 		.4byte	.LVL807
 14204 1f9b 5A3A0000 		.4byte	0x3a5a
 14205 1f9f AA1F0000 		.4byte	0x1faa
 14206 1fa3 14       		.uleb128 0x14
 14207 1fa4 01       		.uleb128 0x1
 14208 1fa5 50       		.byte	0x50
 14209 1fa6 02       		.uleb128 0x2
 14210 1fa7 74       		.byte	0x74
ARM GAS  C:\Users\USUARIO\AppData\Local\Temp\ccWuTYF0.s 			page 280


 14211 1fa8 00       		.sleb128 0
 14212 1fa9 00       		.byte	0
 14213 1faa 13       		.uleb128 0x13
 14214 1fab CE020000 		.4byte	.LVL810
 14215 1faf 4F3A0000 		.4byte	0x3a4f
 14216 1fb3 BD1F0000 		.4byte	0x1fbd
 14217 1fb7 14       		.uleb128 0x14
 14218 1fb8 01       		.uleb128 0x1
 14219 1fb9 50       		.byte	0x50
 14220 1fba 01       		.uleb128 0x1
 14221 1fbb 30       		.byte	0x30
 14222 1fbc 00       		.byte	0
 14223 1fbd 13       		.uleb128 0x13
 14224 1fbe 18030000 		.4byte	.LVL815
 14225 1fc2 A8170000 		.4byte	0x17a8
 14226 1fc6 D41F0000 		.4byte	0x1fd4
 14227 1fca 14       		.uleb128 0x14
 14228 1fcb 01       		.uleb128 0x1
 14229 1fcc 50       		.byte	0x50
 14230 1fcd 05       		.uleb128 0x5
 14231 1fce 03       		.byte	0x3
 14232 1fcf D0000000 		.4byte	.LC8
 14233 1fd3 00       		.byte	0
 14234 1fd4 13       		.uleb128 0x13
 14235 1fd5 36030000 		.4byte	.LVL816
 14236 1fd9 5A3A0000 		.4byte	0x3a5a
 14237 1fdd E71F0000 		.4byte	0x1fe7
 14238 1fe1 14       		.uleb128 0x14
 14239 1fe2 01       		.uleb128 0x1
 14240 1fe3 50       		.byte	0x50
 14241 1fe4 01       		.uleb128 0x1
 14242 1fe5 31       		.byte	0x31
 14243 1fe6 00       		.byte	0
 14244 1fe7 13       		.uleb128 0x13
 14245 1fe8 52030000 		.4byte	.LVL817
 14246 1fec 5A3A0000 		.4byte	0x3a5a
 14247 1ff0 FA1F0000 		.4byte	0x1ffa
 14248 1ff4 14       		.uleb128 0x14
 14249 1ff5 01       		.uleb128 0x1
 14250 1ff6 50       		.byte	0x50
 14251 1ff7 01       		.uleb128 0x1
 14252 1ff8 30       		.byte	0x30
 14253 1ff9 00       		.byte	0
 14254 1ffa 13       		.uleb128 0x13
 14255 1ffb 70030000 		.4byte	.LVL818
 14256 1fff 653A0000 		.4byte	0x3a65
 14257 2003 0D200000 		.4byte	0x200d
 14258 2007 14       		.uleb128 0x14
 14259 2008 01       		.uleb128 0x1
 14260 2009 50       		.byte	0x50
 14261 200a 01       		.uleb128 0x1
 14262 200b 31       		.byte	0x31
 14263 200c 00       		.byte	0
 14264 200d 13       		.uleb128 0x13
 14265 200e DE030000 		.4byte	.LVL827
 14266 2012 A8170000 		.4byte	0x17a8
 14267 2016 24200000 		.4byte	0x2024
ARM GAS  C:\Users\USUARIO\AppData\Local\Temp\ccWuTYF0.s 			page 281


 14268 201a 14       		.uleb128 0x14
 14269 201b 01       		.uleb128 0x1
 14270 201c 50       		.byte	0x50
 14271 201d 05       		.uleb128 0x5
 14272 201e 03       		.byte	0x3
 14273 201f B4000000 		.4byte	.LC7
 14274 2023 00       		.byte	0
 14275 2024 13       		.uleb128 0x13
 14276 2025 F6030000 		.4byte	.LVL828
 14277 2029 5A3A0000 		.4byte	0x3a5a
 14278 202d 37200000 		.4byte	0x2037
 14279 2031 14       		.uleb128 0x14
 14280 2032 01       		.uleb128 0x1
 14281 2033 50       		.byte	0x50
 14282 2034 01       		.uleb128 0x1
 14283 2035 31       		.byte	0x31
 14284 2036 00       		.byte	0
 14285 2037 13       		.uleb128 0x13
 14286 2038 12040000 		.4byte	.LVL829
 14287 203c 5A3A0000 		.4byte	0x3a5a
 14288 2040 4A200000 		.4byte	0x204a
 14289 2044 14       		.uleb128 0x14
 14290 2045 01       		.uleb128 0x1
 14291 2046 50       		.byte	0x50
 14292 2047 01       		.uleb128 0x1
 14293 2048 30       		.byte	0x30
 14294 2049 00       		.byte	0
 14295 204a 13       		.uleb128 0x13
 14296 204b 30040000 		.4byte	.LVL830
 14297 204f 653A0000 		.4byte	0x3a65
 14298 2053 5D200000 		.4byte	0x205d
 14299 2057 14       		.uleb128 0x14
 14300 2058 01       		.uleb128 0x1
 14301 2059 50       		.byte	0x50
 14302 205a 01       		.uleb128 0x1
 14303 205b 31       		.byte	0x31
 14304 205c 00       		.byte	0
 14305 205d 13       		.uleb128 0x13
 14306 205e 94040000 		.4byte	.LVL835
 14307 2062 653A0000 		.4byte	0x3a65
 14308 2066 70200000 		.4byte	0x2070
 14309 206a 14       		.uleb128 0x14
 14310 206b 01       		.uleb128 0x1
 14311 206c 50       		.byte	0x50
 14312 206d 01       		.uleb128 0x1
 14313 206e 31       		.byte	0x31
 14314 206f 00       		.byte	0
 14315 2070 16       		.uleb128 0x16
 14316 2071 9A040000 		.4byte	.LVL836
 14317 2075 5A3A0000 		.4byte	0x3a5a
 14318 2079 14       		.uleb128 0x14
 14319 207a 01       		.uleb128 0x1
 14320 207b 50       		.byte	0x50
 14321 207c 02       		.uleb128 0x2
 14322 207d 74       		.byte	0x74
 14323 207e 00       		.sleb128 0
 14324 207f 00       		.byte	0
ARM GAS  C:\Users\USUARIO\AppData\Local\Temp\ccWuTYF0.s 			page 282


 14325 2080 00       		.byte	0
 14326 2081 18       		.uleb128 0x18
 14327 2082 150E0000 		.4byte	.LASF88
 14328 2086 01       		.byte	0x1
 14329 2087 FC04     		.2byte	0x4fc
 14330 2089 00000000 		.4byte	.LFB88
 14331 208d 0C050000 		.4byte	.LFE88-.LFB88
 14332 2091 01       		.uleb128 0x1
 14333 2092 9C       		.byte	0x9c
 14334 2093 C0220000 		.4byte	0x22c0
 14335 2097 13       		.uleb128 0x13
 14336 2098 16000000 		.4byte	.LVL839
 14337 209c 4F3A0000 		.4byte	0x3a4f
 14338 20a0 AA200000 		.4byte	0x20aa
 14339 20a4 14       		.uleb128 0x14
 14340 20a5 01       		.uleb128 0x1
 14341 20a6 50       		.byte	0x50
 14342 20a7 01       		.uleb128 0x1
 14343 20a8 31       		.byte	0x31
 14344 20a9 00       		.byte	0
 14345 20aa 13       		.uleb128 0x13
 14346 20ab 62000000 		.4byte	.LVL844
 14347 20af A8170000 		.4byte	0x17a8
 14348 20b3 C1200000 		.4byte	0x20c1
 14349 20b7 14       		.uleb128 0x14
 14350 20b8 01       		.uleb128 0x1
 14351 20b9 50       		.byte	0x50
 14352 20ba 05       		.uleb128 0x5
 14353 20bb 03       		.byte	0x3
 14354 20bc 98000000 		.4byte	.LC6
 14355 20c0 00       		.byte	0
 14356 20c1 13       		.uleb128 0x13
 14357 20c2 6C000000 		.4byte	.LVL845
 14358 20c6 5A3A0000 		.4byte	0x3a5a
 14359 20ca D5200000 		.4byte	0x20d5
 14360 20ce 14       		.uleb128 0x14
 14361 20cf 01       		.uleb128 0x1
 14362 20d0 50       		.byte	0x50
 14363 20d1 02       		.uleb128 0x2
 14364 20d2 74       		.byte	0x74
 14365 20d3 00       		.sleb128 0
 14366 20d4 00       		.byte	0
 14367 20d5 15       		.uleb128 0x15
 14368 20d6 70000000 		.4byte	.LVL846
 14369 20da 7B3A0000 		.4byte	0x3a7b
 14370 20de 13       		.uleb128 0x13
 14371 20df A8000000 		.4byte	.LVL851
 14372 20e3 653A0000 		.4byte	0x3a65
 14373 20e7 F1200000 		.4byte	0x20f1
 14374 20eb 14       		.uleb128 0x14
 14375 20ec 01       		.uleb128 0x1
 14376 20ed 50       		.byte	0x50
 14377 20ee 01       		.uleb128 0x1
 14378 20ef 30       		.byte	0x30
 14379 20f0 00       		.byte	0
 14380 20f1 13       		.uleb128 0x13
 14381 20f2 C6000000 		.4byte	.LVL852
ARM GAS  C:\Users\USUARIO\AppData\Local\Temp\ccWuTYF0.s 			page 283


 14382 20f6 653A0000 		.4byte	0x3a65
 14383 20fa 04210000 		.4byte	0x2104
 14384 20fe 14       		.uleb128 0x14
 14385 20ff 01       		.uleb128 0x1
 14386 2100 50       		.byte	0x50
 14387 2101 01       		.uleb128 0x1
 14388 2102 30       		.byte	0x30
 14389 2103 00       		.byte	0
 14390 2104 13       		.uleb128 0x13
 14391 2105 DA000000 		.4byte	.LVL853
 14392 2109 653A0000 		.4byte	0x3a65
 14393 210d 17210000 		.4byte	0x2117
 14394 2111 14       		.uleb128 0x14
 14395 2112 01       		.uleb128 0x1
 14396 2113 50       		.byte	0x50
 14397 2114 01       		.uleb128 0x1
 14398 2115 31       		.byte	0x31
 14399 2116 00       		.byte	0
 14400 2117 13       		.uleb128 0x13
 14401 2118 F2000000 		.4byte	.LVL854
 14402 211c 653A0000 		.4byte	0x3a65
 14403 2120 2A210000 		.4byte	0x212a
 14404 2124 14       		.uleb128 0x14
 14405 2125 01       		.uleb128 0x1
 14406 2126 50       		.byte	0x50
 14407 2127 01       		.uleb128 0x1
 14408 2128 31       		.byte	0x31
 14409 2129 00       		.byte	0
 14410 212a 13       		.uleb128 0x13
 14411 212b 6A010000 		.4byte	.LVL862
 14412 212f A8170000 		.4byte	0x17a8
 14413 2133 41210000 		.4byte	0x2141
 14414 2137 14       		.uleb128 0x14
 14415 2138 01       		.uleb128 0x1
 14416 2139 50       		.byte	0x50
 14417 213a 05       		.uleb128 0x5
 14418 213b 03       		.byte	0x3
 14419 213c B4000000 		.4byte	.LC7
 14420 2140 00       		.byte	0
 14421 2141 13       		.uleb128 0x13
 14422 2142 74010000 		.4byte	.LVL863
 14423 2146 5A3A0000 		.4byte	0x3a5a
 14424 214a 55210000 		.4byte	0x2155
 14425 214e 14       		.uleb128 0x14
 14426 214f 01       		.uleb128 0x1
 14427 2150 50       		.byte	0x50
 14428 2151 02       		.uleb128 0x2
 14429 2152 74       		.byte	0x74
 14430 2153 00       		.sleb128 0
 14431 2154 00       		.byte	0
 14432 2155 15       		.uleb128 0x15
 14433 2156 78010000 		.4byte	.LVL864
 14434 215a 7B3A0000 		.4byte	0x3a7b
 14435 215e 13       		.uleb128 0x13
 14436 215f 90010000 		.4byte	.LVL865
 14437 2163 653A0000 		.4byte	0x3a65
 14438 2167 72210000 		.4byte	0x2172
ARM GAS  C:\Users\USUARIO\AppData\Local\Temp\ccWuTYF0.s 			page 284


 14439 216b 14       		.uleb128 0x14
 14440 216c 01       		.uleb128 0x1
 14441 216d 50       		.byte	0x50
 14442 216e 02       		.uleb128 0x2
 14443 216f 74       		.byte	0x74
 14444 2170 00       		.sleb128 0
 14445 2171 00       		.byte	0
 14446 2172 13       		.uleb128 0x13
 14447 2173 A4010000 		.4byte	.LVL866
 14448 2177 653A0000 		.4byte	0x3a65
 14449 217b 85210000 		.4byte	0x2185
 14450 217f 14       		.uleb128 0x14
 14451 2180 01       		.uleb128 0x1
 14452 2181 50       		.byte	0x50
 14453 2182 01       		.uleb128 0x1
 14454 2183 31       		.byte	0x31
 14455 2184 00       		.byte	0
 14456 2185 13       		.uleb128 0x13
 14457 2186 BC010000 		.4byte	.LVL867
 14458 218a 653A0000 		.4byte	0x3a65
 14459 218e 98210000 		.4byte	0x2198
 14460 2192 14       		.uleb128 0x14
 14461 2193 01       		.uleb128 0x1
 14462 2194 50       		.byte	0x50
 14463 2195 01       		.uleb128 0x1
 14464 2196 31       		.byte	0x31
 14465 2197 00       		.byte	0
 14466 2198 13       		.uleb128 0x13
 14467 2199 06020000 		.4byte	.LVL871
 14468 219d A8170000 		.4byte	0x17a8
 14469 21a1 AF210000 		.4byte	0x21af
 14470 21a5 14       		.uleb128 0x14
 14471 21a6 01       		.uleb128 0x1
 14472 21a7 50       		.byte	0x50
 14473 21a8 05       		.uleb128 0x5
 14474 21a9 03       		.byte	0x3
 14475 21aa B4000000 		.4byte	.LC7
 14476 21ae 00       		.byte	0
 14477 21af 13       		.uleb128 0x13
 14478 21b0 14020000 		.4byte	.LVL872
 14479 21b4 653A0000 		.4byte	0x3a65
 14480 21b8 C2210000 		.4byte	0x21c2
 14481 21bc 14       		.uleb128 0x14
 14482 21bd 01       		.uleb128 0x1
 14483 21be 50       		.byte	0x50
 14484 21bf 01       		.uleb128 0x1
 14485 21c0 31       		.byte	0x31
 14486 21c1 00       		.byte	0
 14487 21c2 13       		.uleb128 0x13
 14488 21c3 1A020000 		.4byte	.LVL873
 14489 21c7 5A3A0000 		.4byte	0x3a5a
 14490 21cb D6210000 		.4byte	0x21d6
 14491 21cf 14       		.uleb128 0x14
 14492 21d0 01       		.uleb128 0x1
 14493 21d1 50       		.byte	0x50
 14494 21d2 02       		.uleb128 0x2
 14495 21d3 74       		.byte	0x74
ARM GAS  C:\Users\USUARIO\AppData\Local\Temp\ccWuTYF0.s 			page 285


 14496 21d4 00       		.sleb128 0
 14497 21d5 00       		.byte	0
 14498 21d6 13       		.uleb128 0x13
 14499 21d7 68020000 		.4byte	.LVL876
 14500 21db 653A0000 		.4byte	0x3a65
 14501 21df E9210000 		.4byte	0x21e9
 14502 21e3 14       		.uleb128 0x14
 14503 21e4 01       		.uleb128 0x1
 14504 21e5 50       		.byte	0x50
 14505 21e6 01       		.uleb128 0x1
 14506 21e7 31       		.byte	0x31
 14507 21e8 00       		.byte	0
 14508 21e9 13       		.uleb128 0x13
 14509 21ea C2020000 		.4byte	.LVL877
 14510 21ee 4F3A0000 		.4byte	0x3a4f
 14511 21f2 FC210000 		.4byte	0x21fc
 14512 21f6 14       		.uleb128 0x14
 14513 21f7 01       		.uleb128 0x1
 14514 21f8 50       		.byte	0x50
 14515 21f9 01       		.uleb128 0x1
 14516 21fa 30       		.byte	0x30
 14517 21fb 00       		.byte	0
 14518 21fc 13       		.uleb128 0x13
 14519 21fd 0C030000 		.4byte	.LVL882
 14520 2201 A8170000 		.4byte	0x17a8
 14521 2205 13220000 		.4byte	0x2213
 14522 2209 14       		.uleb128 0x14
 14523 220a 01       		.uleb128 0x1
 14524 220b 50       		.byte	0x50
 14525 220c 05       		.uleb128 0x5
 14526 220d 03       		.byte	0x3
 14527 220e D0000000 		.4byte	.LC8
 14528 2212 00       		.byte	0
 14529 2213 13       		.uleb128 0x13
 14530 2214 2A030000 		.4byte	.LVL883
 14531 2218 5A3A0000 		.4byte	0x3a5a
 14532 221c 26220000 		.4byte	0x2226
 14533 2220 14       		.uleb128 0x14
 14534 2221 01       		.uleb128 0x1
 14535 2222 50       		.byte	0x50
 14536 2223 01       		.uleb128 0x1
 14537 2224 31       		.byte	0x31
 14538 2225 00       		.byte	0
 14539 2226 13       		.uleb128 0x13
 14540 2227 46030000 		.4byte	.LVL884
 14541 222b 5A3A0000 		.4byte	0x3a5a
 14542 222f 39220000 		.4byte	0x2239
 14543 2233 14       		.uleb128 0x14
 14544 2234 01       		.uleb128 0x1
 14545 2235 50       		.byte	0x50
 14546 2236 01       		.uleb128 0x1
 14547 2237 30       		.byte	0x30
 14548 2238 00       		.byte	0
 14549 2239 13       		.uleb128 0x13
 14550 223a 64030000 		.4byte	.LVL885
 14551 223e 653A0000 		.4byte	0x3a65
 14552 2242 4C220000 		.4byte	0x224c
ARM GAS  C:\Users\USUARIO\AppData\Local\Temp\ccWuTYF0.s 			page 286


 14553 2246 14       		.uleb128 0x14
 14554 2247 01       		.uleb128 0x1
 14555 2248 50       		.byte	0x50
 14556 2249 01       		.uleb128 0x1
 14557 224a 31       		.byte	0x31
 14558 224b 00       		.byte	0
 14559 224c 13       		.uleb128 0x13
 14560 224d D2030000 		.4byte	.LVL894
 14561 2251 A8170000 		.4byte	0x17a8
 14562 2255 63220000 		.4byte	0x2263
 14563 2259 14       		.uleb128 0x14
 14564 225a 01       		.uleb128 0x1
 14565 225b 50       		.byte	0x50
 14566 225c 05       		.uleb128 0x5
 14567 225d 03       		.byte	0x3
 14568 225e B4000000 		.4byte	.LC7
 14569 2262 00       		.byte	0
 14570 2263 13       		.uleb128 0x13
 14571 2264 EA030000 		.4byte	.LVL895
 14572 2268 5A3A0000 		.4byte	0x3a5a
 14573 226c 76220000 		.4byte	0x2276
 14574 2270 14       		.uleb128 0x14
 14575 2271 01       		.uleb128 0x1
 14576 2272 50       		.byte	0x50
 14577 2273 01       		.uleb128 0x1
 14578 2274 31       		.byte	0x31
 14579 2275 00       		.byte	0
 14580 2276 13       		.uleb128 0x13
 14581 2277 06040000 		.4byte	.LVL896
 14582 227b 5A3A0000 		.4byte	0x3a5a
 14583 227f 89220000 		.4byte	0x2289
 14584 2283 14       		.uleb128 0x14
 14585 2284 01       		.uleb128 0x1
 14586 2285 50       		.byte	0x50
 14587 2286 01       		.uleb128 0x1
 14588 2287 30       		.byte	0x30
 14589 2288 00       		.byte	0
 14590 2289 13       		.uleb128 0x13
 14591 228a 24040000 		.4byte	.LVL897
 14592 228e 653A0000 		.4byte	0x3a65
 14593 2292 9C220000 		.4byte	0x229c
 14594 2296 14       		.uleb128 0x14
 14595 2297 01       		.uleb128 0x1
 14596 2298 50       		.byte	0x50
 14597 2299 01       		.uleb128 0x1
 14598 229a 31       		.byte	0x31
 14599 229b 00       		.byte	0
 14600 229c 13       		.uleb128 0x13
 14601 229d 88040000 		.4byte	.LVL902
 14602 22a1 653A0000 		.4byte	0x3a65
 14603 22a5 AF220000 		.4byte	0x22af
 14604 22a9 14       		.uleb128 0x14
 14605 22aa 01       		.uleb128 0x1
 14606 22ab 50       		.byte	0x50
 14607 22ac 01       		.uleb128 0x1
 14608 22ad 31       		.byte	0x31
 14609 22ae 00       		.byte	0
ARM GAS  C:\Users\USUARIO\AppData\Local\Temp\ccWuTYF0.s 			page 287


 14610 22af 16       		.uleb128 0x16
 14611 22b0 8E040000 		.4byte	.LVL903
 14612 22b4 5A3A0000 		.4byte	0x3a5a
 14613 22b8 14       		.uleb128 0x14
 14614 22b9 01       		.uleb128 0x1
 14615 22ba 50       		.byte	0x50
 14616 22bb 02       		.uleb128 0x2
 14617 22bc 74       		.byte	0x74
 14618 22bd 00       		.sleb128 0
 14619 22be 00       		.byte	0
 14620 22bf 00       		.byte	0
 14621 22c0 18       		.uleb128 0x18
 14622 22c1 C7040000 		.4byte	.LASF89
 14623 22c5 01       		.byte	0x1
 14624 22c6 7105     		.2byte	0x571
 14625 22c8 00000000 		.4byte	.LFB89
 14626 22cc E0020000 		.4byte	.LFE89-.LFB89
 14627 22d0 01       		.uleb128 0x1
 14628 22d1 9C       		.byte	0x9c
 14629 22d2 3C240000 		.4byte	0x243c
 14630 22d6 15       		.uleb128 0x15
 14631 22d7 08000000 		.4byte	.LVL906
 14632 22db 863A0000 		.4byte	0x3a86
 14633 22df 13       		.uleb128 0x13
 14634 22e0 20000000 		.4byte	.LVL908
 14635 22e4 A8170000 		.4byte	0x17a8
 14636 22e8 F6220000 		.4byte	0x22f6
 14637 22ec 14       		.uleb128 0x14
 14638 22ed 01       		.uleb128 0x1
 14639 22ee 50       		.byte	0x50
 14640 22ef 05       		.uleb128 0x5
 14641 22f0 03       		.byte	0x3
 14642 22f1 F0000000 		.4byte	.LC9
 14643 22f5 00       		.byte	0
 14644 22f6 13       		.uleb128 0x13
 14645 22f7 26000000 		.4byte	.LVL909
 14646 22fb 7E390000 		.4byte	0x397e
 14647 22ff 09230000 		.4byte	0x2309
 14648 2303 14       		.uleb128 0x14
 14649 2304 01       		.uleb128 0x1
 14650 2305 50       		.byte	0x50
 14651 2306 01       		.uleb128 0x1
 14652 2307 30       		.byte	0x30
 14653 2308 00       		.byte	0
 14654 2309 13       		.uleb128 0x13
 14655 230a 2C000000 		.4byte	.LVL910
 14656 230e 89390000 		.4byte	0x3989
 14657 2312 1C230000 		.4byte	0x231c
 14658 2316 14       		.uleb128 0x14
 14659 2317 01       		.uleb128 0x1
 14660 2318 50       		.byte	0x50
 14661 2319 01       		.uleb128 0x1
 14662 231a 30       		.byte	0x30
 14663 231b 00       		.byte	0
 14664 231c 13       		.uleb128 0x13
 14665 231d 56000000 		.4byte	.LVL914
 14666 2321 233A0000 		.4byte	0x3a23
ARM GAS  C:\Users\USUARIO\AppData\Local\Temp\ccWuTYF0.s 			page 288


 14667 2325 2F230000 		.4byte	0x232f
 14668 2329 14       		.uleb128 0x14
 14669 232a 01       		.uleb128 0x1
 14670 232b 50       		.byte	0x50
 14671 232c 01       		.uleb128 0x1
 14672 232d 31       		.byte	0x31
 14673 232e 00       		.byte	0
 14674 232f 13       		.uleb128 0x13
 14675 2330 5E000000 		.4byte	.LVL915
 14676 2334 5D390000 		.4byte	0x395d
 14677 2338 44230000 		.4byte	0x2344
 14678 233c 14       		.uleb128 0x14
 14679 233d 01       		.uleb128 0x1
 14680 233e 50       		.byte	0x50
 14681 233f 03       		.uleb128 0x3
 14682 2340 0A       		.byte	0xa
 14683 2341 2C01     		.2byte	0x12c
 14684 2343 00       		.byte	0
 14685 2344 13       		.uleb128 0x13
 14686 2345 64000000 		.4byte	.LVL916
 14687 2349 233A0000 		.4byte	0x3a23
 14688 234d 58230000 		.4byte	0x2358
 14689 2351 14       		.uleb128 0x14
 14690 2352 01       		.uleb128 0x1
 14691 2353 50       		.byte	0x50
 14692 2354 02       		.uleb128 0x2
 14693 2355 74       		.byte	0x74
 14694 2356 00       		.sleb128 0
 14695 2357 00       		.byte	0
 14696 2358 13       		.uleb128 0x13
 14697 2359 6C000000 		.4byte	.LVL917
 14698 235d 5D390000 		.4byte	0x395d
 14699 2361 6D230000 		.4byte	0x236d
 14700 2365 14       		.uleb128 0x14
 14701 2366 01       		.uleb128 0x1
 14702 2367 50       		.byte	0x50
 14703 2368 03       		.uleb128 0x3
 14704 2369 0A       		.byte	0xa
 14705 236a 2C01     		.2byte	0x12c
 14706 236c 00       		.byte	0
 14707 236d 13       		.uleb128 0x13
 14708 236e CA000000 		.4byte	.LVL924
 14709 2372 A8170000 		.4byte	0x17a8
 14710 2376 84230000 		.4byte	0x2384
 14711 237a 14       		.uleb128 0x14
 14712 237b 01       		.uleb128 0x1
 14713 237c 50       		.byte	0x50
 14714 237d 05       		.uleb128 0x5
 14715 237e 03       		.byte	0x3
 14716 237f 0C010000 		.4byte	.LC10
 14717 2383 00       		.byte	0
 14718 2384 15       		.uleb128 0x15
 14719 2385 E4000000 		.4byte	.LVL925
 14720 2389 C8160000 		.4byte	0x16c8
 14721 238d 13       		.uleb128 0x13
 14722 238e 30010000 		.4byte	.LVL931
 14723 2392 7E390000 		.4byte	0x397e
ARM GAS  C:\Users\USUARIO\AppData\Local\Temp\ccWuTYF0.s 			page 289


 14724 2396 A1230000 		.4byte	0x23a1
 14725 239a 14       		.uleb128 0x14
 14726 239b 01       		.uleb128 0x1
 14727 239c 50       		.byte	0x50
 14728 239d 02       		.uleb128 0x2
 14729 239e 74       		.byte	0x74
 14730 239f 00       		.sleb128 0
 14731 23a0 00       		.byte	0
 14732 23a1 13       		.uleb128 0x13
 14733 23a2 36010000 		.4byte	.LVL932
 14734 23a6 89390000 		.4byte	0x3989
 14735 23aa B5230000 		.4byte	0x23b5
 14736 23ae 14       		.uleb128 0x14
 14737 23af 01       		.uleb128 0x1
 14738 23b0 50       		.byte	0x50
 14739 23b1 02       		.uleb128 0x2
 14740 23b2 74       		.byte	0x74
 14741 23b3 00       		.sleb128 0
 14742 23b4 00       		.byte	0
 14743 23b5 13       		.uleb128 0x13
 14744 23b6 6A010000 		.4byte	.LVL935
 14745 23ba A8170000 		.4byte	0x17a8
 14746 23be CC230000 		.4byte	0x23cc
 14747 23c2 14       		.uleb128 0x14
 14748 23c3 01       		.uleb128 0x1
 14749 23c4 50       		.byte	0x50
 14750 23c5 05       		.uleb128 0x5
 14751 23c6 03       		.byte	0x3
 14752 23c7 4C000000 		.4byte	.LC3
 14753 23cb 00       		.byte	0
 14754 23cc 15       		.uleb128 0x15
 14755 23cd 72010000 		.4byte	.LVL936
 14756 23d1 C8160000 		.4byte	0x16c8
 14757 23d5 13       		.uleb128 0x13
 14758 23d6 CA010000 		.4byte	.LVL943
 14759 23da A8170000 		.4byte	0x17a8
 14760 23de EC230000 		.4byte	0x23ec
 14761 23e2 14       		.uleb128 0x14
 14762 23e3 01       		.uleb128 0x1
 14763 23e4 50       		.byte	0x50
 14764 23e5 05       		.uleb128 0x5
 14765 23e6 03       		.byte	0x3
 14766 23e7 28010000 		.4byte	.LC11
 14767 23eb 00       		.byte	0
 14768 23ec 15       		.uleb128 0x15
 14769 23ed E4010000 		.4byte	.LVL944
 14770 23f1 C8160000 		.4byte	0x16c8
 14771 23f5 13       		.uleb128 0x13
 14772 23f6 4C020000 		.4byte	.LVL952
 14773 23fa 7E390000 		.4byte	0x397e
 14774 23fe 08240000 		.4byte	0x2408
 14775 2402 14       		.uleb128 0x14
 14776 2403 01       		.uleb128 0x1
 14777 2404 50       		.byte	0x50
 14778 2405 01       		.uleb128 0x1
 14779 2406 30       		.byte	0x30
 14780 2407 00       		.byte	0
ARM GAS  C:\Users\USUARIO\AppData\Local\Temp\ccWuTYF0.s 			page 290


 14781 2408 13       		.uleb128 0x13
 14782 2409 52020000 		.4byte	.LVL953
 14783 240d 89390000 		.4byte	0x3989
 14784 2411 1B240000 		.4byte	0x241b
 14785 2415 14       		.uleb128 0x14
 14786 2416 01       		.uleb128 0x1
 14787 2417 50       		.byte	0x50
 14788 2418 01       		.uleb128 0x1
 14789 2419 30       		.byte	0x30
 14790 241a 00       		.byte	0
 14791 241b 13       		.uleb128 0x13
 14792 241c 76020000 		.4byte	.LVL955
 14793 2420 A8170000 		.4byte	0x17a8
 14794 2424 32240000 		.4byte	0x2432
 14795 2428 14       		.uleb128 0x14
 14796 2429 01       		.uleb128 0x1
 14797 242a 50       		.byte	0x50
 14798 242b 05       		.uleb128 0x5
 14799 242c 03       		.byte	0x3
 14800 242d 7C000000 		.4byte	.LC5
 14801 2431 00       		.byte	0
 14802 2432 15       		.uleb128 0x15
 14803 2433 80020000 		.4byte	.LVL956
 14804 2437 C8160000 		.4byte	0x16c8
 14805 243b 00       		.byte	0
 14806 243c 18       		.uleb128 0x18
 14807 243d 22000000 		.4byte	.LASF90
 14808 2441 01       		.byte	0x1
 14809 2442 B705     		.2byte	0x5b7
 14810 2444 00000000 		.4byte	.LFB90
 14811 2448 08010000 		.4byte	.LFE90-.LFB90
 14812 244c 01       		.uleb128 0x1
 14813 244d 9C       		.byte	0x9c
 14814 244e 8F240000 		.4byte	0x248f
 14815 2452 15       		.uleb128 0x15
 14816 2453 6C000000 		.4byte	.LVL965
 14817 2457 B3020000 		.4byte	0x2b3
 14818 245b 13       		.uleb128 0x13
 14819 245c BA000000 		.4byte	.LVL969
 14820 2460 913A0000 		.4byte	0x3a91
 14821 2464 7E240000 		.4byte	0x247e
 14822 2468 14       		.uleb128 0x14
 14823 2469 01       		.uleb128 0x1
 14824 246a 50       		.byte	0x50
 14825 246b 02       		.uleb128 0x2
 14826 246c 75       		.byte	0x75
 14827 246d 00       		.sleb128 0
 14828 246e 14       		.uleb128 0x14
 14829 246f 01       		.uleb128 0x1
 14830 2470 51       		.byte	0x51
 14831 2471 05       		.uleb128 0x5
 14832 2472 03       		.byte	0x3
 14833 2473 44010000 		.4byte	.LC12
 14834 2477 14       		.uleb128 0x14
 14835 2478 01       		.uleb128 0x1
 14836 2479 52       		.byte	0x52
 14837 247a 02       		.uleb128 0x2
ARM GAS  C:\Users\USUARIO\AppData\Local\Temp\ccWuTYF0.s 			page 291


 14838 247b 74       		.byte	0x74
 14839 247c 0B       		.sleb128 11
 14840 247d 00       		.byte	0
 14841 247e 16       		.uleb128 0x16
 14842 247f C0000000 		.4byte	.LVL970
 14843 2483 68180000 		.4byte	0x1868
 14844 2487 14       		.uleb128 0x14
 14845 2488 01       		.uleb128 0x1
 14846 2489 50       		.byte	0x50
 14847 248a 02       		.uleb128 0x2
 14848 248b 75       		.byte	0x75
 14849 248c 00       		.sleb128 0
 14850 248d 00       		.byte	0
 14851 248e 00       		.byte	0
 14852 248f 22       		.uleb128 0x22
 14853 2490 CC0E0000 		.4byte	.LASF91
 14854 2494 01       		.byte	0x1
 14855 2495 C605     		.2byte	0x5c6
 14856 2497 00000000 		.4byte	.LFB91
 14857 249b 5C000000 		.4byte	.LFE91-.LFB91
 14858 249f 01       		.uleb128 0x1
 14859 24a0 9C       		.byte	0x9c
 14860 24a1 18       		.uleb128 0x18
 14861 24a2 73060000 		.4byte	.LASF92
 14862 24a6 01       		.byte	0x1
 14863 24a7 D305     		.2byte	0x5d3
 14864 24a9 00000000 		.4byte	.LFB92
 14865 24ad 38030000 		.4byte	.LFE92-.LFB92
 14866 24b1 01       		.uleb128 0x1
 14867 24b2 9C       		.byte	0x9c
 14868 24b3 5D250000 		.4byte	0x255d
 14869 24b7 15       		.uleb128 0x15
 14870 24b8 08000000 		.4byte	.LVL971
 14871 24bc 9C3A0000 		.4byte	0x3a9c
 14872 24c0 15       		.uleb128 0x15
 14873 24c1 16000000 		.4byte	.LVL972
 14874 24c5 A83A0000 		.4byte	0x3aa8
 14875 24c9 13       		.uleb128 0x13
 14876 24ca A2010000 		.4byte	.LVL980
 14877 24ce 913A0000 		.4byte	0x3a91
 14878 24d2 E9240000 		.4byte	0x24e9
 14879 24d6 14       		.uleb128 0x14
 14880 24d7 01       		.uleb128 0x1
 14881 24d8 50       		.byte	0x50
 14882 24d9 05       		.uleb128 0x5
 14883 24da 03       		.byte	0x3
 14884 24db 00000000 		.4byte	displayStr
 14885 24df 14       		.uleb128 0x14
 14886 24e0 01       		.uleb128 0x1
 14887 24e1 51       		.byte	0x51
 14888 24e2 05       		.uleb128 0x5
 14889 24e3 03       		.byte	0x3
 14890 24e4 58010000 		.4byte	.LC13
 14891 24e8 00       		.byte	0
 14892 24e9 13       		.uleb128 0x13
 14893 24ea FC010000 		.4byte	.LVL983
 14894 24ee 913A0000 		.4byte	0x3a91
ARM GAS  C:\Users\USUARIO\AppData\Local\Temp\ccWuTYF0.s 			page 292


 14895 24f2 09250000 		.4byte	0x2509
 14896 24f6 14       		.uleb128 0x14
 14897 24f7 01       		.uleb128 0x1
 14898 24f8 50       		.byte	0x50
 14899 24f9 05       		.uleb128 0x5
 14900 24fa 03       		.byte	0x3
 14901 24fb 00000000 		.4byte	displayStr
 14902 24ff 14       		.uleb128 0x14
 14903 2500 01       		.uleb128 0x1
 14904 2501 51       		.byte	0x51
 14905 2502 05       		.uleb128 0x5
 14906 2503 03       		.byte	0x3
 14907 2504 A0010000 		.4byte	.LC14
 14908 2508 00       		.byte	0
 14909 2509 13       		.uleb128 0x13
 14910 250a 56020000 		.4byte	.LVL986
 14911 250e 913A0000 		.4byte	0x3a91
 14912 2512 29250000 		.4byte	0x2529
 14913 2516 14       		.uleb128 0x14
 14914 2517 01       		.uleb128 0x1
 14915 2518 50       		.byte	0x50
 14916 2519 05       		.uleb128 0x5
 14917 251a 03       		.byte	0x3
 14918 251b 00000000 		.4byte	displayStr
 14919 251f 14       		.uleb128 0x14
 14920 2520 01       		.uleb128 0x1
 14921 2521 51       		.byte	0x51
 14922 2522 05       		.uleb128 0x5
 14923 2523 03       		.byte	0x3
 14924 2524 E4010000 		.4byte	.LC15
 14925 2528 00       		.byte	0
 14926 2529 13       		.uleb128 0x13
 14927 252a 00030000 		.4byte	.LVL988
 14928 252e 913A0000 		.4byte	0x3a91
 14929 2532 49250000 		.4byte	0x2549
 14930 2536 14       		.uleb128 0x14
 14931 2537 01       		.uleb128 0x1
 14932 2538 50       		.byte	0x50
 14933 2539 05       		.uleb128 0x5
 14934 253a 03       		.byte	0x3
 14935 253b 00000000 		.4byte	displayStr
 14936 253f 14       		.uleb128 0x14
 14937 2540 01       		.uleb128 0x1
 14938 2541 51       		.byte	0x51
 14939 2542 05       		.uleb128 0x5
 14940 2543 03       		.byte	0x3
 14941 2544 28020000 		.4byte	.LC16
 14942 2548 00       		.byte	0
 14943 2549 16       		.uleb128 0x16
 14944 254a 06030000 		.4byte	.LVL989
 14945 254e B33A0000 		.4byte	0x3ab3
 14946 2552 14       		.uleb128 0x14
 14947 2553 01       		.uleb128 0x1
 14948 2554 50       		.byte	0x50
 14949 2555 05       		.uleb128 0x5
 14950 2556 03       		.byte	0x3
 14951 2557 00000000 		.4byte	displayStr
ARM GAS  C:\Users\USUARIO\AppData\Local\Temp\ccWuTYF0.s 			page 293


 14952 255b 00       		.byte	0
 14953 255c 00       		.byte	0
 14954 255d 21       		.uleb128 0x21
 14955 255e C0000000 		.4byte	.LASF93
 14956 2562 01       		.byte	0x1
 14957 2563 1406     		.2byte	0x614
 14958 2565 00000000 		.4byte	.LFB93
 14959 2569 90000000 		.4byte	.LFE93-.LFB93
 14960 256d 01       		.uleb128 0x1
 14961 256e 9C       		.byte	0x9c
 14962 256f 17260000 		.4byte	0x2617
 14963 2573 13       		.uleb128 0x13
 14964 2574 08000000 		.4byte	.LVL990
 14965 2578 BE3A0000 		.4byte	0x3abe
 14966 257c 87250000 		.4byte	0x2587
 14967 2580 14       		.uleb128 0x14
 14968 2581 01       		.uleb128 0x1
 14969 2582 50       		.byte	0x50
 14970 2583 02       		.uleb128 0x2
 14971 2584 08       		.byte	0x8
 14972 2585 50       		.byte	0x50
 14973 2586 00       		.byte	0
 14974 2587 15       		.uleb128 0x15
 14975 2588 14000000 		.4byte	.LVL991
 14976 258c CA3A0000 		.4byte	0x3aca
 14977 2590 15       		.uleb128 0x15
 14978 2591 24000000 		.4byte	.LVL992
 14979 2595 D63A0000 		.4byte	0x3ad6
 14980 2599 13       		.uleb128 0x13
 14981 259a 2C000000 		.4byte	.LVL993
 14982 259e 5D390000 		.4byte	0x395d
 14983 25a2 AD250000 		.4byte	0x25ad
 14984 25a6 14       		.uleb128 0x14
 14985 25a7 01       		.uleb128 0x1
 14986 25a8 50       		.byte	0x50
 14987 25a9 02       		.uleb128 0x2
 14988 25aa 08       		.byte	0x8
 14989 25ab 32       		.byte	0x32
 14990 25ac 00       		.byte	0
 14991 25ad 15       		.uleb128 0x15
 14992 25ae 4A000000 		.4byte	.LVL994
 14993 25b2 E23A0000 		.4byte	0x3ae2
 14994 25b6 13       		.uleb128 0x13
 14995 25b7 5E000000 		.4byte	.LVL995
 14996 25bb EE3A0000 		.4byte	0x3aee
 14997 25bf D6250000 		.4byte	0x25d6
 14998 25c3 14       		.uleb128 0x14
 14999 25c4 01       		.uleb128 0x1
 15000 25c5 50       		.byte	0x50
 15001 25c6 02       		.uleb128 0x2
 15002 25c7 75       		.byte	0x75
 15003 25c8 00       		.sleb128 0
 15004 25c9 14       		.uleb128 0x14
 15005 25ca 01       		.uleb128 0x1
 15006 25cb 51       		.byte	0x51
 15007 25cc 01       		.uleb128 0x1
 15008 25cd 30       		.byte	0x30
ARM GAS  C:\Users\USUARIO\AppData\Local\Temp\ccWuTYF0.s 			page 294


 15009 25ce 14       		.uleb128 0x14
 15010 25cf 01       		.uleb128 0x1
 15011 25d0 52       		.byte	0x52
 15012 25d1 03       		.uleb128 0x3
 15013 25d2 0A       		.byte	0xa
 15014 25d3 D007     		.2byte	0x7d0
 15015 25d5 00       		.byte	0
 15016 25d6 13       		.uleb128 0x13
 15017 25d7 68000000 		.4byte	.LVL996
 15018 25db F73A0000 		.4byte	0x3af7
 15019 25df F0250000 		.4byte	0x25f0
 15020 25e3 14       		.uleb128 0x14
 15021 25e4 01       		.uleb128 0x1
 15022 25e5 51       		.byte	0x51
 15023 25e6 02       		.uleb128 0x2
 15024 25e7 75       		.byte	0x75
 15025 25e8 00       		.sleb128 0
 15026 25e9 14       		.uleb128 0x14
 15027 25ea 01       		.uleb128 0x1
 15028 25eb 52       		.byte	0x52
 15029 25ec 02       		.uleb128 0x2
 15030 25ed 76       		.byte	0x76
 15031 25ee 00       		.sleb128 0
 15032 25ef 00       		.byte	0
 15033 25f0 13       		.uleb128 0x13
 15034 25f1 70000000 		.4byte	.LVL997
 15035 25f5 033B0000 		.4byte	0x3b03
 15036 25f9 04260000 		.4byte	0x2604
 15037 25fd 14       		.uleb128 0x14
 15038 25fe 01       		.uleb128 0x1
 15039 25ff 51       		.byte	0x51
 15040 2600 02       		.uleb128 0x2
 15041 2601 75       		.byte	0x75
 15042 2602 00       		.sleb128 0
 15043 2603 00       		.byte	0
 15044 2604 15       		.uleb128 0x15
 15045 2605 76000000 		.4byte	.LVL998
 15046 2609 0E3B0000 		.4byte	0x3b0e
 15047 260d 15       		.uleb128 0x15
 15048 260e 7C000000 		.4byte	.LVL999
 15049 2612 1A3B0000 		.4byte	0x3b1a
 15050 2616 00       		.byte	0
 15051 2617 23       		.uleb128 0x23
 15052 2618 8B080000 		.4byte	.LASF94
 15053 261c 06       		.byte	0x6
 15054 261d 1207     		.2byte	0x712
 15055 261f 23260000 		.4byte	0x2623
 15056 2623 24       		.uleb128 0x24
 15057 2624 9E000000 		.4byte	0x9e
 15058 2628 07       		.uleb128 0x7
 15059 2629 7F010000 		.4byte	0x17f
 15060 262d 38260000 		.4byte	0x2638
 15061 2631 08       		.uleb128 0x8
 15062 2632 11010000 		.4byte	0x111
 15063 2636 13       		.byte	0x13
 15064 2637 00       		.byte	0
 15065 2638 25       		.uleb128 0x25
ARM GAS  C:\Users\USUARIO\AppData\Local\Temp\ccWuTYF0.s 			page 295


 15066 2639 6C060000 		.4byte	.LASF95
 15067 263d 05       		.byte	0x5
 15068 263e 2D       		.byte	0x2d
 15069 263f 28260000 		.4byte	0x2628
 15070 2643 05       		.uleb128 0x5
 15071 2644 03       		.byte	0x3
 15072 2645 00000000 		.4byte	rampas
 15073 2649 07       		.uleb128 0x7
 15074 264a C3010000 		.4byte	0x1c3
 15075 264e 5A260000 		.4byte	0x265a
 15076 2652 26       		.uleb128 0x26
 15077 2653 11010000 		.4byte	0x111
 15078 2657 1F03     		.2byte	0x31f
 15079 2659 00       		.byte	0
 15080 265a 25       		.uleb128 0x25
 15081 265b B7070000 		.4byte	.LASF96
 15082 265f 05       		.byte	0x5
 15083 2660 35       		.byte	0x35
 15084 2661 49260000 		.4byte	0x2649
 15085 2665 05       		.uleb128 0x5
 15086 2666 03       		.byte	0x3
 15087 2667 00000000 		.4byte	graph
 15088 266b 07       		.uleb128 0x7
 15089 266c 61020000 		.4byte	0x261
 15090 2670 7B260000 		.4byte	0x267b
 15091 2674 08       		.uleb128 0x8
 15092 2675 11010000 		.4byte	0x111
 15093 2679 02       		.byte	0x2
 15094 267a 00       		.byte	0
 15095 267b 25       		.uleb128 0x25
 15096 267c DC070000 		.4byte	.LASF97
 15097 2680 05       		.byte	0x5
 15098 2681 3A       		.byte	0x3a
 15099 2682 6B260000 		.4byte	0x266b
 15100 2686 05       		.uleb128 0x5
 15101 2687 03       		.byte	0x3
 15102 2688 00000000 		.4byte	calib
 15103 268c 25       		.uleb128 0x25
 15104 268d 6A040000 		.4byte	.LASF98
 15105 2691 01       		.byte	0x1
 15106 2692 42       		.byte	0x42
 15107 2693 C0000000 		.4byte	0xc0
 15108 2697 05       		.uleb128 0x5
 15109 2698 03       		.byte	0x3
 15110 2699 00000000 		.4byte	pwm1
 15111 269d 25       		.uleb128 0x25
 15112 269e 6F040000 		.4byte	.LASF99
 15113 26a2 01       		.byte	0x1
 15114 26a3 1A       		.byte	0x1a
 15115 26a4 C0000000 		.4byte	0xc0
 15116 26a8 05       		.uleb128 0x5
 15117 26a9 03       		.byte	0x3
 15118 26aa 00000000 		.4byte	pwm2
 15119 26ae 25       		.uleb128 0x25
 15120 26af 7B100000 		.4byte	.LASF46
 15121 26b3 01       		.byte	0x1
 15122 26b4 1A       		.byte	0x1a
ARM GAS  C:\Users\USUARIO\AppData\Local\Temp\ccWuTYF0.s 			page 296


 15123 26b5 C0000000 		.4byte	0xc0
 15124 26b9 05       		.uleb128 0x5
 15125 26ba 03       		.byte	0x3
 15126 26bb 00000000 		.4byte	data
 15127 26bf 25       		.uleb128 0x25
 15128 26c0 1D0B0000 		.4byte	.LASF100
 15129 26c4 01       		.byte	0x1
 15130 26c5 1A       		.byte	0x1a
 15131 26c6 C0000000 		.4byte	0xc0
 15132 26ca 05       		.uleb128 0x5
 15133 26cb 03       		.byte	0x3
 15134 26cc 00000000 		.4byte	data2
 15135 26d0 25       		.uleb128 0x25
 15136 26d1 E50D0000 		.4byte	.LASF101
 15137 26d5 01       		.byte	0x1
 15138 26d6 1A       		.byte	0x1a
 15139 26d7 C0000000 		.4byte	0xc0
 15140 26db 05       		.uleb128 0x5
 15141 26dc 03       		.byte	0x3
 15142 26dd 00000000 		.4byte	datacount
 15143 26e1 25       		.uleb128 0x25
 15144 26e2 69090000 		.4byte	.LASF102
 15145 26e6 01       		.byte	0x1
 15146 26e7 1A       		.byte	0x1a
 15147 26e8 C0000000 		.4byte	0xc0
 15148 26ec 05       		.uleb128 0x5
 15149 26ed 03       		.byte	0x3
 15150 26ee 00000000 		.4byte	tDisplayHumedad
 15151 26f2 27       		.uleb128 0x27
 15152 26f3 FB040000 		.4byte	.LASF103
 15153 26f7 05       		.byte	0x5
 15154 26f8 3D       		.byte	0x3d
 15155 26f9 85000000 		.4byte	0x85
 15156 26fd 07       		.uleb128 0x7
 15157 26fe 03010000 		.4byte	0x103
 15158 2702 0E270000 		.4byte	0x270e
 15159 2706 26       		.uleb128 0x26
 15160 2707 11010000 		.4byte	0x111
 15161 270b CF07     		.2byte	0x7cf
 15162 270d 00       		.byte	0
 15163 270e 27       		.uleb128 0x27
 15164 270f 850D0000 		.4byte	.LASF104
 15165 2713 05       		.byte	0x5
 15166 2714 3E       		.byte	0x3e
 15167 2715 FD260000 		.4byte	0x26fd
 15168 2719 27       		.uleb128 0x27
 15169 271a 380E0000 		.4byte	.LASF105
 15170 271e 05       		.byte	0x5
 15171 271f 3F       		.byte	0x3f
 15172 2720 B4000000 		.4byte	0xb4
 15173 2724 07       		.uleb128 0x7
 15174 2725 D8000000 		.4byte	0xd8
 15175 2729 34270000 		.4byte	0x2734
 15176 272d 08       		.uleb128 0x8
 15177 272e 11010000 		.4byte	0x111
 15178 2732 4F       		.byte	0x4f
 15179 2733 00       		.byte	0
ARM GAS  C:\Users\USUARIO\AppData\Local\Temp\ccWuTYF0.s 			page 297


 15180 2734 25       		.uleb128 0x25
 15181 2735 00000000 		.4byte	.LASF106
 15182 2739 01       		.byte	0x1
 15183 273a 17       		.byte	0x17
 15184 273b 24270000 		.4byte	0x2724
 15185 273f 05       		.uleb128 0x5
 15186 2740 03       		.byte	0x3
 15187 2741 00000000 		.4byte	prueba
 15188 2745 07       		.uleb128 0x7
 15189 2746 B4000000 		.4byte	0xb4
 15190 274a 55270000 		.4byte	0x2755
 15191 274e 08       		.uleb128 0x8
 15192 274f 11010000 		.4byte	0x111
 15193 2753 13       		.byte	0x13
 15194 2754 00       		.byte	0
 15195 2755 27       		.uleb128 0x27
 15196 2756 910B0000 		.4byte	.LASF107
 15197 275a 05       		.byte	0x5
 15198 275b 41       		.byte	0x41
 15199 275c 45270000 		.4byte	0x2745
 15200 2760 27       		.uleb128 0x27
 15201 2761 830B0000 		.4byte	.LASF108
 15202 2765 05       		.byte	0x5
 15203 2766 41       		.byte	0x41
 15204 2767 45270000 		.4byte	0x2745
 15205 276b 25       		.uleb128 0x25
 15206 276c 47030000 		.4byte	.LASF109
 15207 2770 01       		.byte	0x1
 15208 2771 45       		.byte	0x45
 15209 2772 45000000 		.4byte	0x45
 15210 2776 05       		.uleb128 0x5
 15211 2777 03       		.byte	0x3
 15212 2778 00000000 		.4byte	flagRed
 15213 277c 27       		.uleb128 0x27
 15214 277d 85100000 		.4byte	.LASF110
 15215 2781 05       		.byte	0x5
 15216 2782 42       		.byte	0x42
 15217 2783 45000000 		.4byte	0x45
 15218 2787 25       		.uleb128 0x25
 15219 2788 EF0D0000 		.4byte	.LASF111
 15220 278c 01       		.byte	0x1
 15221 278d 18       		.byte	0x18
 15222 278e 45000000 		.4byte	0x45
 15223 2792 05       		.uleb128 0x5
 15224 2793 03       		.byte	0x3
 15225 2794 00000000 		.4byte	desconectoTemperatura
 15226 2798 25       		.uleb128 0x25
 15227 2799 53000000 		.4byte	.LASF112
 15228 279d 01       		.byte	0x1
 15229 279e 18       		.byte	0x18
 15230 279f 45000000 		.4byte	0x45
 15231 27a3 05       		.uleb128 0x5
 15232 27a4 03       		.byte	0x3
 15233 27a5 00000000 		.4byte	desconectoHumedad
 15234 27a9 07       		.uleb128 0x7
 15235 27aa D8000000 		.4byte	0xd8
 15236 27ae B9270000 		.4byte	0x27b9
ARM GAS  C:\Users\USUARIO\AppData\Local\Temp\ccWuTYF0.s 			page 298


 15237 27b2 08       		.uleb128 0x8
 15238 27b3 11010000 		.4byte	0x111
 15239 27b7 0B       		.byte	0xb
 15240 27b8 00       		.byte	0
 15241 27b9 25       		.uleb128 0x25
 15242 27ba 24020000 		.4byte	.LASF113
 15243 27be 01       		.byte	0x1
 15244 27bf 14       		.byte	0x14
 15245 27c0 A9270000 		.4byte	0x27a9
 15246 27c4 05       		.uleb128 0x5
 15247 27c5 03       		.byte	0x3
 15248 27c6 00000000 		.4byte	Regular
 15249 27ca 25       		.uleb128 0x25
 15250 27cb 590B0000 		.4byte	.LASF114
 15251 27cf 01       		.byte	0x1
 15252 27d0 15       		.byte	0x15
 15253 27d1 A9270000 		.4byte	0x27a9
 15254 27d5 05       		.uleb128 0x5
 15255 27d6 03       		.byte	0x3
 15256 27d7 00000000 		.4byte	Bisiesto
 15257 27db 25       		.uleb128 0x25
 15258 27dc F1000000 		.4byte	.LASF115
 15259 27e0 01       		.byte	0x1
 15260 27e1 18       		.byte	0x18
 15261 27e2 45000000 		.4byte	0x45
 15262 27e6 05       		.uleb128 0x5
 15263 27e7 03       		.byte	0x3
 15264 27e8 00000000 		.4byte	Humidificar
 15265 27ec 25       		.uleb128 0x25
 15266 27ed 8F010000 		.4byte	.LASF116
 15267 27f1 01       		.byte	0x1
 15268 27f2 18       		.byte	0x18
 15269 27f3 45000000 		.4byte	0x45
 15270 27f7 05       		.uleb128 0x5
 15271 27f8 03       		.byte	0x3
 15272 27f9 00000000 		.4byte	flagHumedad
 15273 27fd 25       		.uleb128 0x25
 15274 27fe 98080000 		.4byte	.LASF117
 15275 2802 01       		.byte	0x1
 15276 2803 18       		.byte	0x18
 15277 2804 45000000 		.4byte	0x45
 15278 2808 05       		.uleb128 0x5
 15279 2809 03       		.byte	0x3
 15280 280a 00000000 		.4byte	humidificador
 15281 280e 25       		.uleb128 0x25
 15282 280f 460E0000 		.4byte	.LASF118
 15283 2813 01       		.byte	0x1
 15284 2814 18       		.byte	0x18
 15285 2815 45000000 		.4byte	0x45
 15286 2819 05       		.uleb128 0x5
 15287 281a 03       		.byte	0x3
 15288 281b 00000000 		.4byte	flagSobrepasoHumedad
 15289 281f 28       		.uleb128 0x28
 15290 2820 6600     		.ascii	"f\000"
 15291 2822 01       		.byte	0x1
 15292 2823 19       		.byte	0x19
 15293 2824 B4000000 		.4byte	0xb4
ARM GAS  C:\Users\USUARIO\AppData\Local\Temp\ccWuTYF0.s 			page 299


 15294 2828 05       		.uleb128 0x5
 15295 2829 03       		.byte	0x3
 15296 282a 00000000 		.4byte	f
 15297 282e 25       		.uleb128 0x25
 15298 282f ED0C0000 		.4byte	.LASF119
 15299 2833 01       		.byte	0x1
 15300 2834 19       		.byte	0x19
 15301 2835 B4000000 		.4byte	0xb4
 15302 2839 05       		.uleb128 0x5
 15303 283a 03       		.byte	0x3
 15304 283b 00000000 		.4byte	T1Humedad
 15305 283f 25       		.uleb128 0x25
 15306 2840 12070000 		.4byte	.LASF120
 15307 2844 01       		.byte	0x1
 15308 2845 19       		.byte	0x19
 15309 2846 B4000000 		.4byte	0xb4
 15310 284a 05       		.uleb128 0x5
 15311 284b 03       		.byte	0x3
 15312 284c 00000000 		.4byte	T2Humedad
 15313 2850 25       		.uleb128 0x25
 15314 2851 AF000000 		.4byte	.LASF121
 15315 2855 01       		.byte	0x1
 15316 2856 19       		.byte	0x19
 15317 2857 B4000000 		.4byte	0xb4
 15318 285b 05       		.uleb128 0x5
 15319 285c 03       		.byte	0x3
 15320 285d 00000000 		.4byte	T3Humedad
 15321 2861 28       		.uleb128 0x28
 15322 2862 543100   		.ascii	"T1\000"
 15323 2865 01       		.byte	0x1
 15324 2866 19       		.byte	0x19
 15325 2867 B4000000 		.4byte	0xb4
 15326 286b 05       		.uleb128 0x5
 15327 286c 03       		.byte	0x3
 15328 286d 00000000 		.4byte	T1
 15329 2871 28       		.uleb128 0x28
 15330 2872 543200   		.ascii	"T2\000"
 15331 2875 01       		.byte	0x1
 15332 2876 19       		.byte	0x19
 15333 2877 B4000000 		.4byte	0xb4
 15334 287b 05       		.uleb128 0x5
 15335 287c 03       		.byte	0x3
 15336 287d 00000000 		.4byte	T2
 15337 2881 28       		.uleb128 0x28
 15338 2882 543300   		.ascii	"T3\000"
 15339 2885 01       		.byte	0x1
 15340 2886 19       		.byte	0x19
 15341 2887 B4000000 		.4byte	0xb4
 15342 288b 05       		.uleb128 0x5
 15343 288c 03       		.byte	0x3
 15344 288d 00000000 		.4byte	T3
 15345 2891 25       		.uleb128 0x25
 15346 2892 080D0000 		.4byte	.LASF122
 15347 2896 01       		.byte	0x1
 15348 2897 19       		.byte	0x19
 15349 2898 B4000000 		.4byte	0xb4
 15350 289c 05       		.uleb128 0x5
ARM GAS  C:\Users\USUARIO\AppData\Local\Temp\ccWuTYF0.s 			page 300


 15351 289d 03       		.byte	0x3
 15352 289e 00000000 		.4byte	tDisplay
 15353 28a2 25       		.uleb128 0x25
 15354 28a3 5F070000 		.4byte	.LASF123
 15355 28a7 01       		.byte	0x1
 15356 28a8 1A       		.byte	0x1a
 15357 28a9 C0000000 		.4byte	0xc0
 15358 28ad 05       		.uleb128 0x5
 15359 28ae 03       		.byte	0x3
 15360 28af 00000000 		.4byte	tdehumidificador
 15361 28b3 25       		.uleb128 0x25
 15362 28b4 63080000 		.4byte	.LASF124
 15363 28b8 01       		.byte	0x1
 15364 28b9 1A       		.byte	0x1a
 15365 28ba C0000000 		.4byte	0xc0
 15366 28be 05       		.uleb128 0x5
 15367 28bf 03       		.byte	0x3
 15368 28c0 00000000 		.4byte	thumidificador
 15369 28c4 25       		.uleb128 0x25
 15370 28c5 360A0000 		.4byte	.LASF125
 15371 28c9 01       		.byte	0x1
 15372 28ca 1A       		.byte	0x1a
 15373 28cb C0000000 		.4byte	0xc0
 15374 28cf 05       		.uleb128 0x5
 15375 28d0 03       		.byte	0x3
 15376 28d1 00000000 		.4byte	tllenado
 15377 28d5 25       		.uleb128 0x25
 15378 28d6 9D020000 		.4byte	.LASF126
 15379 28da 01       		.byte	0x1
 15380 28db 1A       		.byte	0x1a
 15381 28dc C0000000 		.4byte	0xc0
 15382 28e0 05       		.uleb128 0x5
 15383 28e1 03       		.byte	0x3
 15384 28e2 00000000 		.4byte	tlevel
 15385 28e6 25       		.uleb128 0x25
 15386 28e7 5B040000 		.4byte	.LASF127
 15387 28eb 01       		.byte	0x1
 15388 28ec 1A       		.byte	0x1a
 15389 28ed C0000000 		.4byte	0xc0
 15390 28f1 05       		.uleb128 0x5
 15391 28f2 03       		.byte	0x3
 15392 28f3 00000000 		.4byte	tlevelH
 15393 28f7 25       		.uleb128 0x25
 15394 28f8 990E0000 		.4byte	.LASF128
 15395 28fc 01       		.byte	0x1
 15396 28fd 1A       		.byte	0x1a
 15397 28fe C0000000 		.4byte	0xc0
 15398 2902 05       		.uleb128 0x5
 15399 2903 03       		.byte	0x3
 15400 2904 00000000 		.4byte	tDefrost
 15401 2908 25       		.uleb128 0x25
 15402 2909 220F0000 		.4byte	.LASF129
 15403 290d 01       		.byte	0x1
 15404 290e 1A       		.byte	0x1a
 15405 290f C0000000 		.4byte	0xc0
 15406 2913 05       		.uleb128 0x5
 15407 2914 03       		.byte	0x3
ARM GAS  C:\Users\USUARIO\AppData\Local\Temp\ccWuTYF0.s 			page 301


 15408 2915 00000000 		.4byte	tCongela
 15409 2919 25       		.uleb128 0x25
 15410 291a 49100000 		.4byte	.LASF130
 15411 291e 01       		.byte	0x1
 15412 291f 1A       		.byte	0x1a
 15413 2920 C0000000 		.4byte	0xc0
 15414 2924 05       		.uleb128 0x5
 15415 2925 03       		.byte	0x3
 15416 2926 00000000 		.4byte	tSobrepaso
 15417 292a 28       		.uleb128 0x28
 15418 292b 52483200 		.ascii	"RH2\000"
 15419 292f 01       		.byte	0x1
 15420 2930 1B       		.byte	0x1b
 15421 2931 25000000 		.4byte	0x25
 15422 2935 05       		.uleb128 0x5
 15423 2936 03       		.byte	0x3
 15424 2937 00000000 		.4byte	RH2
 15425 293b 28       		.uleb128 0x28
 15426 293c 54616D00 		.ascii	"Tam\000"
 15427 2940 01       		.byte	0x1
 15428 2941 5E       		.byte	0x5e
 15429 2942 25000000 		.4byte	0x25
 15430 2946 05       		.uleb128 0x5
 15431 2947 03       		.byte	0x3
 15432 2948 00000000 		.4byte	Tam
 15433 294c 25       		.uleb128 0x25
 15434 294d A4020000 		.4byte	.LASF30
 15435 2951 01       		.byte	0x1
 15436 2952 1B       		.byte	0x1b
 15437 2953 25000000 		.4byte	0x25
 15438 2957 05       		.uleb128 0x5
 15439 2958 03       		.byte	0x3
 15440 2959 00000000 		.4byte	Humedad
 15441 295d 25       		.uleb128 0x25
 15442 295e E2050000 		.4byte	.LASF131
 15443 2962 01       		.byte	0x1
 15444 2963 1B       		.byte	0x1b
 15445 2964 25000000 		.4byte	0x25
 15446 2968 05       		.uleb128 0x5
 15447 2969 03       		.byte	0x3
 15448 296a 00000000 		.4byte	humedadDisplay
 15449 296e 25       		.uleb128 0x25
 15450 296f A50F0000 		.4byte	.LASF132
 15451 2973 01       		.byte	0x1
 15452 2974 1B       		.byte	0x1b
 15453 2975 25000000 		.4byte	0x25
 15454 2979 05       		.uleb128 0x5
 15455 297a 03       		.byte	0x3
 15456 297b 00000000 		.4byte	minH
 15457 297f 25       		.uleb128 0x25
 15458 2980 A90A0000 		.4byte	.LASF133
 15459 2984 01       		.byte	0x1
 15460 2985 1B       		.byte	0x1b
 15461 2986 25000000 		.4byte	0x25
 15462 298a 05       		.uleb128 0x5
 15463 298b 03       		.byte	0x3
 15464 298c 00000000 		.4byte	maxH
ARM GAS  C:\Users\USUARIO\AppData\Local\Temp\ccWuTYF0.s 			page 302


 15465 2990 07       		.uleb128 0x7
 15466 2991 25000000 		.4byte	0x25
 15467 2995 A0290000 		.4byte	0x29a0
 15468 2999 08       		.uleb128 0x8
 15469 299a 11010000 		.4byte	0x111
 15470 299e 4F       		.byte	0x4f
 15471 299f 00       		.byte	0
 15472 29a0 25       		.uleb128 0x25
 15473 29a1 7B0D0000 		.4byte	.LASF134
 15474 29a5 01       		.byte	0x1
 15475 29a6 1C       		.byte	0x1c
 15476 29a7 90290000 		.4byte	0x2990
 15477 29ab 05       		.uleb128 0x5
 15478 29ac 03       		.byte	0x3
 15479 29ad 00000000 		.4byte	promedioH
 15480 29b1 25       		.uleb128 0x25
 15481 29b2 72080000 		.4byte	.LASF135
 15482 29b6 01       		.byte	0x1
 15483 29b7 1D       		.byte	0x1d
 15484 29b8 90290000 		.4byte	0x2990
 15485 29bc 05       		.uleb128 0x5
 15486 29bd 03       		.byte	0x3
 15487 29be 00000000 		.4byte	promedioTa
 15488 29c2 29       		.uleb128 0x29
 15489 29c3 495000   		.ascii	"IP\000"
 15490 29c6 05       		.byte	0x5
 15491 29c7 50       		.byte	0x50
 15492 29c8 1E010000 		.4byte	0x11e
 15493 29cc 27       		.uleb128 0x27
 15494 29cd 3F0A0000 		.4byte	.LASF136
 15495 29d1 05       		.byte	0x5
 15496 29d2 51       		.byte	0x51
 15497 29d3 1E010000 		.4byte	0x11e
 15498 29d7 27       		.uleb128 0x27
 15499 29d8 62010000 		.4byte	.LASF137
 15500 29dc 05       		.byte	0x5
 15501 29dd 52       		.byte	0x52
 15502 29de 1E010000 		.4byte	0x11e
 15503 29e2 07       		.uleb128 0x7
 15504 29e3 B4000000 		.4byte	0xb4
 15505 29e7 F2290000 		.4byte	0x29f2
 15506 29eb 08       		.uleb128 0x8
 15507 29ec 11010000 		.4byte	0x111
 15508 29f0 05       		.byte	0x5
 15509 29f1 00       		.byte	0
 15510 29f2 29       		.uleb128 0x29
 15511 29f3 4D414300 		.ascii	"MAC\000"
 15512 29f7 05       		.byte	0x5
 15513 29f8 53       		.byte	0x53
 15514 29f9 E2290000 		.4byte	0x29e2
 15515 29fd 25       		.uleb128 0x25
 15516 29fe A0090000 		.4byte	.LASF138
 15517 2a02 01       		.byte	0x1
 15518 2a03 1F       		.byte	0x1f
 15519 2a04 E4000000 		.4byte	0xe4
 15520 2a08 05       		.uleb128 0x5
 15521 2a09 03       		.byte	0x3
ARM GAS  C:\Users\USUARIO\AppData\Local\Temp\ccWuTYF0.s 			page 303


 15522 2a0a 00000000 		.4byte	offset
 15523 2a0e 25       		.uleb128 0x25
 15524 2a0f 99050000 		.4byte	.LASF139
 15525 2a13 01       		.byte	0x1
 15526 2a14 20       		.byte	0x20
 15527 2a15 E4000000 		.4byte	0xe4
 15528 2a19 05       		.uleb128 0x5
 15529 2a1a 03       		.byte	0x3
 15530 2a1b 00000000 		.4byte	coldJnTemp
 15531 2a1f 25       		.uleb128 0x25
 15532 2a20 1E060000 		.4byte	.LASF140
 15533 2a24 01       		.byte	0x1
 15534 2a25 21       		.byte	0x21
 15535 2a26 F0000000 		.4byte	0xf0
 15536 2a2a 05       		.uleb128 0x5
 15537 2a2b 03       		.byte	0x3
 15538 2a2c 00000000 		.4byte	tcColdJnuVolt
 15539 2a30 25       		.uleb128 0x25
 15540 2a31 9A040000 		.4byte	.LASF141
 15541 2a35 01       		.byte	0x1
 15542 2a36 22       		.byte	0x22
 15543 2a37 F0000000 		.4byte	0xf0
 15544 2a3b 05       		.uleb128 0x5
 15545 2a3c 03       		.byte	0x3
 15546 2a3d 00000000 		.4byte	hotJnCount
 15547 2a41 25       		.uleb128 0x25
 15548 2a42 E40A0000 		.4byte	.LASF142
 15549 2a46 01       		.byte	0x1
 15550 2a47 23       		.byte	0x23
 15551 2a48 F0000000 		.4byte	0xf0
 15552 2a4c 05       		.uleb128 0x5
 15553 2a4d 03       		.byte	0x3
 15554 2a4e 00000000 		.4byte	filHotJnCount
 15555 2a52 25       		.uleb128 0x25
 15556 2a53 39040000 		.4byte	.LASF143
 15557 2a57 01       		.byte	0x1
 15558 2a58 24       		.byte	0x24
 15559 2a59 F0000000 		.4byte	0xf0
 15560 2a5d 05       		.uleb128 0x5
 15561 2a5e 03       		.byte	0x3
 15562 2a5f 00000000 		.4byte	tcHotJnuVolt
 15563 2a63 25       		.uleb128 0x25
 15564 2a64 48010000 		.4byte	.LASF144
 15565 2a68 01       		.byte	0x1
 15566 2a69 25       		.byte	0x25
 15567 2a6a F0000000 		.4byte	0xf0
 15568 2a6e 05       		.uleb128 0x5
 15569 2a6f 03       		.byte	0x3
 15570 2a70 00000000 		.4byte	tcuVolt
 15571 2a74 25       		.uleb128 0x25
 15572 2a75 B20D0000 		.4byte	.LASF145
 15573 2a79 01       		.byte	0x1
 15574 2a7a 26       		.byte	0x26
 15575 2a7b F0000000 		.4byte	0xf0
 15576 2a7f 05       		.uleb128 0x5
 15577 2a80 03       		.byte	0x3
 15578 2a81 00000000 		.4byte	tcTemp
ARM GAS  C:\Users\USUARIO\AppData\Local\Temp\ccWuTYF0.s 			page 304


 15579 2a85 07       		.uleb128 0x7
 15580 2a86 03010000 		.4byte	0x103
 15581 2a8a 952A0000 		.4byte	0x2a95
 15582 2a8e 08       		.uleb128 0x8
 15583 2a8f 11010000 		.4byte	0x111
 15584 2a93 63       		.byte	0x63
 15585 2a94 00       		.byte	0
 15586 2a95 25       		.uleb128 0x25
 15587 2a96 0B010000 		.4byte	.LASF146
 15588 2a9a 01       		.byte	0x1
 15589 2a9b 27       		.byte	0x27
 15590 2a9c 852A0000 		.4byte	0x2a85
 15591 2aa0 05       		.uleb128 0x5
 15592 2aa1 03       		.byte	0x3
 15593 2aa2 00000000 		.4byte	displayStr
 15594 2aa6 28       		.uleb128 0x28
 15595 2aa7 53747200 		.ascii	"Str\000"
 15596 2aab 01       		.byte	0x1
 15597 2aac 28       		.byte	0x28
 15598 2aad 852A0000 		.4byte	0x2a85
 15599 2ab1 05       		.uleb128 0x5
 15600 2ab2 03       		.byte	0x3
 15601 2ab3 00000000 		.4byte	Str
 15602 2ab7 25       		.uleb128 0x25
 15603 2ab8 E5010000 		.4byte	.LASF147
 15604 2abc 01       		.byte	0x1
 15605 2abd 29       		.byte	0x29
 15606 2abe 852A0000 		.4byte	0x2a85
 15607 2ac2 05       		.uleb128 0x5
 15608 2ac3 03       		.byte	0x3
 15609 2ac4 00000000 		.4byte	Str2
 15610 2ac8 25       		.uleb128 0x25
 15611 2ac9 C6090000 		.4byte	.LASF148
 15612 2acd 01       		.byte	0x1
 15613 2ace 2A       		.byte	0x2a
 15614 2acf B4000000 		.4byte	0xb4
 15615 2ad3 05       		.uleb128 0x5
 15616 2ad4 03       		.byte	0x3
 15617 2ad5 00000000 		.4byte	first
 15618 2ad9 28       		.uleb128 0x28
 15619 2ada 6900     		.ascii	"i\000"
 15620 2adc 01       		.byte	0x1
 15621 2add 5F       		.byte	0x5f
 15622 2ade B4000000 		.4byte	0xb4
 15623 2ae2 05       		.uleb128 0x5
 15624 2ae3 03       		.byte	0x3
 15625 2ae4 00000000 		.4byte	i
 15626 2ae8 28       		.uleb128 0x28
 15627 2ae9 6E00     		.ascii	"n\000"
 15628 2aeb 01       		.byte	0x1
 15629 2aec 2B       		.byte	0x2b
 15630 2aed 93000000 		.4byte	0x93
 15631 2af1 05       		.uleb128 0x5
 15632 2af2 03       		.byte	0x3
 15633 2af3 00000000 		.4byte	n
 15634 2af7 25       		.uleb128 0x25
 15635 2af8 70050000 		.4byte	.LASF149
ARM GAS  C:\Users\USUARIO\AppData\Local\Temp\ccWuTYF0.s 			page 305


 15636 2afc 01       		.byte	0x1
 15637 2afd 2B       		.byte	0x2b
 15638 2afe 93000000 		.4byte	0x93
 15639 2b02 05       		.uleb128 0x5
 15640 2b03 03       		.byte	0x3
 15641 2b04 00000000 		.4byte	PantallaPrincipal
 15642 2b08 25       		.uleb128 0x25
 15643 2b09 C30E0000 		.4byte	.LASF150
 15644 2b0d 01       		.byte	0x1
 15645 2b0e 2B       		.byte	0x2b
 15646 2b0f 93000000 		.4byte	0x93
 15647 2b13 05       		.uleb128 0x5
 15648 2b14 03       		.byte	0x3
 15649 2b15 00000000 		.4byte	Programa
 15650 2b19 25       		.uleb128 0x25
 15651 2b1a D2050000 		.4byte	.LASF151
 15652 2b1e 01       		.byte	0x1
 15653 2b1f 2B       		.byte	0x2b
 15654 2b20 93000000 		.4byte	0x93
 15655 2b24 05       		.uleb128 0x5
 15656 2b25 03       		.byte	0x3
 15657 2b26 00000000 		.4byte	Opcion2
 15658 2b2a 25       		.uleb128 0x25
 15659 2b2b E70B0000 		.4byte	.LASF152
 15660 2b2f 01       		.byte	0x1
 15661 2b30 2B       		.byte	0x2b
 15662 2b31 93000000 		.4byte	0x93
 15663 2b35 05       		.uleb128 0x5
 15664 2b36 03       		.byte	0x3
 15665 2b37 00000000 		.4byte	Derivativo
 15666 2b3b 25       		.uleb128 0x25
 15667 2b3c BC010000 		.4byte	.LASF153
 15668 2b40 01       		.byte	0x1
 15669 2b41 2B       		.byte	0x2b
 15670 2b42 93000000 		.4byte	0x93
 15671 2b46 05       		.uleb128 0x5
 15672 2b47 03       		.byte	0x3
 15673 2b48 00000000 		.4byte	Integral
 15674 2b4c 25       		.uleb128 0x25
 15675 2b4d 07000000 		.4byte	.LASF154
 15676 2b51 01       		.byte	0x1
 15677 2b52 2B       		.byte	0x2b
 15678 2b53 93000000 		.4byte	0x93
 15679 2b57 05       		.uleb128 0x5
 15680 2b58 03       		.byte	0x3
 15681 2b59 00000000 		.4byte	MediaMovil
 15682 2b5d 25       		.uleb128 0x25
 15683 2b5e 82040000 		.4byte	.LASF155
 15684 2b62 01       		.byte	0x1
 15685 2b63 2B       		.byte	0x2b
 15686 2b64 93000000 		.4byte	0x93
 15687 2b68 05       		.uleb128 0x5
 15688 2b69 03       		.byte	0x3
 15689 2b6a 00000000 		.4byte	MediaMovil2
 15690 2b6e 25       		.uleb128 0x25
 15691 2b6f CD000000 		.4byte	.LASF156
 15692 2b73 01       		.byte	0x1
ARM GAS  C:\Users\USUARIO\AppData\Local\Temp\ccWuTYF0.s 			page 306


 15693 2b74 2B       		.byte	0x2b
 15694 2b75 93000000 		.4byte	0x93
 15695 2b79 05       		.uleb128 0x5
 15696 2b7a 03       		.byte	0x3
 15697 2b7b 00000000 		.4byte	Tciclo
 15698 2b7f 25       		.uleb128 0x25
 15699 2b80 3F0E0000 		.4byte	.LASF157
 15700 2b84 01       		.byte	0x1
 15701 2b85 2B       		.byte	0x2b
 15702 2b86 93000000 		.4byte	0x93
 15703 2b8a 05       		.uleb128 0x5
 15704 2b8b 03       		.byte	0x3
 15705 2b8c 00000000 		.4byte	Ajuste
 15706 2b90 25       		.uleb128 0x25
 15707 2b91 16100000 		.4byte	.LASF158
 15708 2b95 01       		.byte	0x1
 15709 2b96 2B       		.byte	0x2b
 15710 2b97 93000000 		.4byte	0x93
 15711 2b9b 05       		.uleb128 0x5
 15712 2b9c 03       		.byte	0x3
 15713 2b9d 00000000 		.4byte	Ajusten
 15714 2ba1 25       		.uleb128 0x25
 15715 2ba2 9D0F0000 		.4byte	.LASF159
 15716 2ba6 01       		.byte	0x1
 15717 2ba7 2B       		.byte	0x2b
 15718 2ba8 93000000 		.4byte	0x93
 15719 2bac 05       		.uleb128 0x5
 15720 2bad 03       		.byte	0x3
 15721 2bae 00000000 		.4byte	Ajuste2
 15722 2bb2 25       		.uleb128 0x25
 15723 2bb3 BD090000 		.4byte	.LASF160
 15724 2bb7 01       		.byte	0x1
 15725 2bb8 2B       		.byte	0x2b
 15726 2bb9 93000000 		.4byte	0x93
 15727 2bbd 05       		.uleb128 0x5
 15728 2bbe 03       		.byte	0x3
 15729 2bbf 00000000 		.4byte	Ajusten2
 15730 2bc3 25       		.uleb128 0x25
 15731 2bc4 3B060000 		.4byte	.LASF161
 15732 2bc8 01       		.byte	0x1
 15733 2bc9 2B       		.byte	0x2b
 15734 2bca 93000000 		.4byte	0x93
 15735 2bce 05       		.uleb128 0x5
 15736 2bcf 03       		.byte	0x3
 15737 2bd0 00000000 		.4byte	Modulo
 15738 2bd4 25       		.uleb128 0x25
 15739 2bd5 7D0E0000 		.4byte	.LASF162
 15740 2bd9 01       		.byte	0x1
 15741 2bda 2B       		.byte	0x2b
 15742 2bdb 93000000 		.4byte	0x93
 15743 2bdf 05       		.uleb128 0x5
 15744 2be0 03       		.byte	0x3
 15745 2be1 00000000 		.4byte	Ajusto
 15746 2be5 28       		.uleb128 0x28
 15747 2be6 63747200 		.ascii	"ctr\000"
 15748 2bea 01       		.byte	0x1
 15749 2beb 2C       		.byte	0x2c
ARM GAS  C:\Users\USUARIO\AppData\Local\Temp\ccWuTYF0.s 			page 307


 15750 2bec C0000000 		.4byte	0xc0
 15751 2bf0 05       		.uleb128 0x5
 15752 2bf1 03       		.byte	0x3
 15753 2bf2 00000000 		.4byte	ctr
 15754 2bf6 25       		.uleb128 0x25
 15755 2bf7 7B060000 		.4byte	.LASF163
 15756 2bfb 01       		.byte	0x1
 15757 2bfc 2C       		.byte	0x2c
 15758 2bfd C0000000 		.4byte	0xc0
 15759 2c01 05       		.uleb128 0x5
 15760 2c02 03       		.byte	0x3
 15761 2c03 00000000 		.4byte	SetpointH
 15762 2c07 25       		.uleb128 0x25
 15763 2c08 DF000000 		.4byte	.LASF164
 15764 2c0c 01       		.byte	0x1
 15765 2c0d 2C       		.byte	0x2c
 15766 2c0e C0000000 		.4byte	0xc0
 15767 2c12 05       		.uleb128 0x5
 15768 2c13 03       		.byte	0x3
 15769 2c14 00000000 		.4byte	SetpointHAnt
 15770 2c18 25       		.uleb128 0x25
 15771 2c19 82050000 		.4byte	.LASF165
 15772 2c1d 01       		.byte	0x1
 15773 2c1e 2C       		.byte	0x2c
 15774 2c1f C0000000 		.4byte	0xc0
 15775 2c23 05       		.uleb128 0x5
 15776 2c24 03       		.byte	0x3
 15777 2c25 00000000 		.4byte	derivativo_ant
 15778 2c29 25       		.uleb128 0x25
 15779 2c2a CF0F0000 		.4byte	.LASF166
 15780 2c2e 01       		.byte	0x1
 15781 2c2f 2C       		.byte	0x2c
 15782 2c30 C0000000 		.4byte	0xc0
 15783 2c34 05       		.uleb128 0x5
 15784 2c35 03       		.byte	0x3
 15785 2c36 00000000 		.4byte	contador
 15786 2c3a 25       		.uleb128 0x25
 15787 2c3b A4050000 		.4byte	.LASF167
 15788 2c3f 01       		.byte	0x1
 15789 2c40 2D       		.byte	0x2d
 15790 2c41 25000000 		.4byte	0x25
 15791 2c45 05       		.uleb128 0x5
 15792 2c46 03       		.byte	0x3
 15793 2c47 00000000 		.4byte	Setpoint
 15794 2c4b 25       		.uleb128 0x25
 15795 2c4c 74010000 		.4byte	.LASF168
 15796 2c50 01       		.byte	0x1
 15797 2c51 2D       		.byte	0x2d
 15798 2c52 25000000 		.4byte	0x25
 15799 2c56 05       		.uleb128 0x5
 15800 2c57 03       		.byte	0x3
 15801 2c58 00000000 		.4byte	SetpointAnt
 15802 2c5c 25       		.uleb128 0x25
 15803 2c5d 22050000 		.4byte	.LASF169
 15804 2c61 01       		.byte	0x1
 15805 2c62 2E       		.byte	0x2e
 15806 2c63 A9000000 		.4byte	0xa9
ARM GAS  C:\Users\USUARIO\AppData\Local\Temp\ccWuTYF0.s 			page 308


 15807 2c67 05       		.uleb128 0x5
 15808 2c68 03       		.byte	0x3
 15809 2c69 00000000 		.4byte	output
 15810 2c6d 25       		.uleb128 0x25
 15811 2c6e 2D0A0000 		.4byte	.LASF170
 15812 2c72 01       		.byte	0x1
 15813 2c73 2E       		.byte	0x2e
 15814 2c74 A9000000 		.4byte	0xa9
 15815 2c78 05       		.uleb128 0x5
 15816 2c79 03       		.byte	0x3
 15817 2c7a 00000000 		.4byte	tGrafica
 15818 2c7e 25       		.uleb128 0x25
 15819 2c7f 510F0000 		.4byte	.LASF171
 15820 2c83 01       		.byte	0x1
 15821 2c84 2F       		.byte	0x2f
 15822 2c85 45000000 		.4byte	0x45
 15823 2c89 05       		.uleb128 0x5
 15824 2c8a 03       		.byte	0x3
 15825 2c8b 00000000 		.4byte	flagButton0
 15826 2c8f 25       		.uleb128 0x25
 15827 2c90 5D0F0000 		.4byte	.LASF172
 15828 2c94 01       		.byte	0x1
 15829 2c95 2F       		.byte	0x2f
 15830 2c96 45000000 		.4byte	0x45
 15831 2c9a 05       		.uleb128 0x5
 15832 2c9b 03       		.byte	0x3
 15833 2c9c 00000000 		.4byte	flagButton1
 15834 2ca0 25       		.uleb128 0x25
 15835 2ca1 690F0000 		.4byte	.LASF173
 15836 2ca5 01       		.byte	0x1
 15837 2ca6 2F       		.byte	0x2f
 15838 2ca7 45000000 		.4byte	0x45
 15839 2cab 05       		.uleb128 0x5
 15840 2cac 03       		.byte	0x3
 15841 2cad 00000000 		.4byte	flagButton2
 15842 2cb1 25       		.uleb128 0x25
 15843 2cb2 750F0000 		.4byte	.LASF174
 15844 2cb6 01       		.byte	0x1
 15845 2cb7 2F       		.byte	0x2f
 15846 2cb8 45000000 		.4byte	0x45
 15847 2cbc 05       		.uleb128 0x5
 15848 2cbd 03       		.byte	0x3
 15849 2cbe 00000000 		.4byte	flagButton3
 15850 2cc2 25       		.uleb128 0x25
 15851 2cc3 E7090000 		.4byte	.LASF175
 15852 2cc7 01       		.byte	0x1
 15853 2cc8 2F       		.byte	0x2f
 15854 2cc9 45000000 		.4byte	0x45
 15855 2ccd 05       		.uleb128 0x5
 15856 2cce 03       		.byte	0x3
 15857 2ccf 00000000 		.4byte	dibujo
 15858 2cd3 25       		.uleb128 0x25
 15859 2cd4 D1100000 		.4byte	.LASF176
 15860 2cd8 01       		.byte	0x1
 15861 2cd9 2F       		.byte	0x2f
 15862 2cda 45000000 		.4byte	0x45
 15863 2cde 05       		.uleb128 0x5
ARM GAS  C:\Users\USUARIO\AppData\Local\Temp\ccWuTYF0.s 			page 309


 15864 2cdf 03       		.byte	0x3
 15865 2ce0 00000000 		.4byte	pulsoAumentar
 15866 2ce4 25       		.uleb128 0x25
 15867 2ce5 DB040000 		.4byte	.LASF177
 15868 2ce9 01       		.byte	0x1
 15869 2cea 2F       		.byte	0x2f
 15870 2ceb 45000000 		.4byte	0x45
 15871 2cef 05       		.uleb128 0x5
 15872 2cf0 03       		.byte	0x3
 15873 2cf1 00000000 		.4byte	pulsoDisminuir
 15874 2cf5 25       		.uleb128 0x25
 15875 2cf6 94090000 		.4byte	.LASF178
 15876 2cfa 01       		.byte	0x1
 15877 2cfb 2F       		.byte	0x2f
 15878 2cfc 45000000 		.4byte	0x45
 15879 2d00 05       		.uleb128 0x5
 15880 2d01 03       		.byte	0x3
 15881 2d02 00000000 		.4byte	flagBorrado
 15882 2d06 27       		.uleb128 0x27
 15883 2d07 91050000 		.4byte	.LASF179
 15884 2d0b 05       		.byte	0x5
 15885 2d0c 65       		.byte	0x65
 15886 2d0d 45000000 		.4byte	0x45
 15887 2d11 25       		.uleb128 0x25
 15888 2d12 F1040000 		.4byte	.LASF180
 15889 2d16 01       		.byte	0x1
 15890 2d17 2F       		.byte	0x2f
 15891 2d18 45000000 		.4byte	0x45
 15892 2d1c 05       		.uleb128 0x5
 15893 2d1d 03       		.byte	0x3
 15894 2d1e 00000000 		.4byte	estadoSSR
 15895 2d22 25       		.uleb128 0x25
 15896 2d23 10040000 		.4byte	.LASF181
 15897 2d27 01       		.byte	0x1
 15898 2d28 2F       		.byte	0x2f
 15899 2d29 45000000 		.4byte	0x45
 15900 2d2d 05       		.uleb128 0x5
 15901 2d2e 03       		.byte	0x3
 15902 2d2f 00000000 		.4byte	estadoBuzzer
 15903 2d33 25       		.uleb128 0x25
 15904 2d34 99100000 		.4byte	.LASF182
 15905 2d38 01       		.byte	0x1
 15906 2d39 2F       		.byte	0x2f
 15907 2d3a 45000000 		.4byte	0x45
 15908 2d3e 05       		.uleb128 0x5
 15909 2d3f 03       		.byte	0x3
 15910 2d40 00000000 		.4byte	estadoCR1
 15911 2d44 25       		.uleb128 0x25
 15912 2d45 52070000 		.4byte	.LASF183
 15913 2d49 01       		.byte	0x1
 15914 2d4a 2F       		.byte	0x2f
 15915 2d4b 45000000 		.4byte	0x45
 15916 2d4f 05       		.uleb128 0x5
 15917 2d50 03       		.byte	0x3
 15918 2d51 00000000 		.4byte	flagFinalizo
 15919 2d55 25       		.uleb128 0x25
 15920 2d56 A3100000 		.4byte	.LASF184
ARM GAS  C:\Users\USUARIO\AppData\Local\Temp\ccWuTYF0.s 			page 310


 15921 2d5a 01       		.byte	0x1
 15922 2d5b 30       		.byte	0x30
 15923 2d5c 45000000 		.4byte	0x45
 15924 2d60 05       		.uleb128 0x5
 15925 2d61 03       		.byte	0x3
 15926 2d62 00000000 		.4byte	estadoCR2
 15927 2d66 25       		.uleb128 0x25
 15928 2d67 AD100000 		.4byte	.LASF185
 15929 2d6b 01       		.byte	0x1
 15930 2d6c 30       		.byte	0x30
 15931 2d6d 45000000 		.4byte	0x45
 15932 2d71 05       		.uleb128 0x5
 15933 2d72 03       		.byte	0x3
 15934 2d73 00000000 		.4byte	estadoCR3
 15935 2d77 25       		.uleb128 0x25
 15936 2d78 5C0C0000 		.4byte	.LASF186
 15937 2d7c 01       		.byte	0x1
 15938 2d7d 30       		.byte	0x30
 15939 2d7e 45000000 		.4byte	0x45
 15940 2d82 05       		.uleb128 0x5
 15941 2d83 03       		.byte	0x3
 15942 2d84 00000000 		.4byte	inicioControlT
 15943 2d88 25       		.uleb128 0x25
 15944 2d89 430C0000 		.4byte	.LASF187
 15945 2d8d 01       		.byte	0x1
 15946 2d8e 30       		.byte	0x30
 15947 2d8f 45000000 		.4byte	0x45
 15948 2d93 05       		.uleb128 0x5
 15949 2d94 03       		.byte	0x3
 15950 2d95 00000000 		.4byte	inicioControlH
 15951 2d99 25       		.uleb128 0x25
 15952 2d9a 05010000 		.4byte	.LASF188
 15953 2d9e 01       		.byte	0x1
 15954 2d9f 31       		.byte	0x31
 15955 2da0 25000000 		.4byte	0x25
 15956 2da4 05       		.uleb128 0x5
 15957 2da5 03       		.byte	0x3
 15958 2da6 00000000 		.4byte	valor
 15959 2daa 25       		.uleb128 0x25
 15960 2dab 1B0C0000 		.4byte	.LASF189
 15961 2daf 01       		.byte	0x1
 15962 2db0 31       		.byte	0x31
 15963 2db1 25000000 		.4byte	0x25
 15964 2db5 05       		.uleb128 0x5
 15965 2db6 03       		.byte	0x3
 15966 2db7 00000000 		.4byte	pendiente
 15967 2dbb 25       		.uleb128 0x25
 15968 2dbc 330F0000 		.4byte	.LASF190
 15969 2dc0 01       		.byte	0x1
 15970 2dc1 31       		.byte	0x31
 15971 2dc2 25000000 		.4byte	0x25
 15972 2dc6 05       		.uleb128 0x5
 15973 2dc7 03       		.byte	0x3
 15974 2dc8 00000000 		.4byte	Ganancia
 15975 2dcc 25       		.uleb128 0x25
 15976 2dcd C3060000 		.4byte	.LASF191
 15977 2dd1 01       		.byte	0x1
ARM GAS  C:\Users\USUARIO\AppData\Local\Temp\ccWuTYF0.s 			page 311


 15978 2dd2 31       		.byte	0x31
 15979 2dd3 25000000 		.4byte	0x25
 15980 2dd7 05       		.uleb128 0x5
 15981 2dd8 03       		.byte	0x3
 15982 2dd9 00000000 		.4byte	GananciaIn
 15983 2ddd 25       		.uleb128 0x25
 15984 2dde 58050000 		.4byte	.LASF192
 15985 2de2 01       		.byte	0x1
 15986 2de3 31       		.byte	0x31
 15987 2de4 25000000 		.4byte	0x25
 15988 2de8 05       		.uleb128 0x5
 15989 2de9 03       		.byte	0x3
 15990 2dea 00000000 		.4byte	vacio
 15991 2dee 25       		.uleb128 0x25
 15992 2def E50F0000 		.4byte	.LASF193
 15993 2df3 01       		.byte	0x1
 15994 2df4 31       		.byte	0x31
 15995 2df5 25000000 		.4byte	0x25
 15996 2df9 05       		.uleb128 0x5
 15997 2dfa 03       		.byte	0x3
 15998 2dfb 00000000 		.4byte	pwmPeltier
 15999 2dff 07       		.uleb128 0x7
 16000 2e00 03010000 		.4byte	0x103
 16001 2e04 0F2E0000 		.4byte	0x2e0f
 16002 2e08 08       		.uleb128 0x8
 16003 2e09 11010000 		.4byte	0x111
 16004 2e0d 0A       		.byte	0xa
 16005 2e0e 00       		.byte	0
 16006 2e0f 25       		.uleb128 0x25
 16007 2e10 C5010000 		.4byte	.LASF194
 16008 2e14 01       		.byte	0x1
 16009 2e15 35       		.byte	0x35
 16010 2e16 FF2D0000 		.4byte	0x2dff
 16011 2e1a 05       		.uleb128 0x5
 16012 2e1b 03       		.byte	0x3
 16013 2e1c 00000000 		.4byte	Rx_Buffer
 16014 2e20 25       		.uleb128 0x25
 16015 2e21 A20E0000 		.4byte	.LASF195
 16016 2e25 01       		.byte	0x1
 16017 2e26 36       		.byte	0x36
 16018 2e27 FF2D0000 		.4byte	0x2dff
 16019 2e2b 05       		.uleb128 0x5
 16020 2e2c 03       		.byte	0x3
 16021 2e2d 00000000 		.4byte	Rx_Buffer2
 16022 2e31 25       		.uleb128 0x25
 16023 2e32 AB0C0000 		.4byte	.LASF196
 16024 2e36 01       		.byte	0x1
 16025 2e37 37       		.byte	0x37
 16026 2e38 B4000000 		.4byte	0xb4
 16027 2e3c 05       		.uleb128 0x5
 16028 2e3d 03       		.byte	0x3
 16029 2e3e 00000000 		.4byte	RX_Wr_Index
 16030 2e42 25       		.uleb128 0x25
 16031 2e43 D5080000 		.4byte	.LASF197
 16032 2e47 01       		.byte	0x1
 16033 2e48 38       		.byte	0x38
 16034 2e49 B4000000 		.4byte	0xb4
ARM GAS  C:\Users\USUARIO\AppData\Local\Temp\ccWuTYF0.s 			page 312


 16035 2e4d 05       		.uleb128 0x5
 16036 2e4e 03       		.byte	0x3
 16037 2e4f 00000000 		.4byte	RX_Rd_Index
 16038 2e53 25       		.uleb128 0x25
 16039 2e54 4F030000 		.4byte	.LASF198
 16040 2e58 01       		.byte	0x1
 16041 2e59 39       		.byte	0x39
 16042 2e5a B4000000 		.4byte	0xb4
 16043 2e5e 05       		.uleb128 0x5
 16044 2e5f 03       		.byte	0x3
 16045 2e60 00000000 		.4byte	RX_Counter
 16046 2e64 25       		.uleb128 0x25
 16047 2e65 AD0E0000 		.4byte	.LASF199
 16048 2e69 01       		.byte	0x1
 16049 2e6a 3B       		.byte	0x3b
 16050 2e6b FF2D0000 		.4byte	0x2dff
 16051 2e6f 05       		.uleb128 0x5
 16052 2e70 03       		.byte	0x3
 16053 2e71 00000000 		.4byte	Rx_Buffer3
 16054 2e75 25       		.uleb128 0x25
 16055 2e76 B80E0000 		.4byte	.LASF200
 16056 2e7a 01       		.byte	0x1
 16057 2e7b 3C       		.byte	0x3c
 16058 2e7c FF2D0000 		.4byte	0x2dff
 16059 2e80 05       		.uleb128 0x5
 16060 2e81 03       		.byte	0x3
 16061 2e82 00000000 		.4byte	Rx_Buffer4
 16062 2e86 25       		.uleb128 0x25
 16063 2e87 260E0000 		.4byte	.LASF201
 16064 2e8b 01       		.byte	0x1
 16065 2e8c 3D       		.byte	0x3d
 16066 2e8d B4000000 		.4byte	0xb4
 16067 2e91 05       		.uleb128 0x5
 16068 2e92 03       		.byte	0x3
 16069 2e93 00000000 		.4byte	RX_Wr_Index2
 16070 2e97 25       		.uleb128 0x25
 16071 2e98 4E040000 		.4byte	.LASF202
 16072 2e9c 01       		.byte	0x1
 16073 2e9d 3E       		.byte	0x3e
 16074 2e9e B4000000 		.4byte	0xb4
 16075 2ea2 05       		.uleb128 0x5
 16076 2ea3 03       		.byte	0x3
 16077 2ea4 00000000 		.4byte	RX_Rd_Index2
 16078 2ea8 25       		.uleb128 0x25
 16079 2ea9 01050000 		.4byte	.LASF203
 16080 2ead 01       		.byte	0x1
 16081 2eae 3F       		.byte	0x3f
 16082 2eaf B4000000 		.4byte	0xb4
 16083 2eb3 05       		.uleb128 0x5
 16084 2eb4 03       		.byte	0x3
 16085 2eb5 00000000 		.4byte	RX_Counter2
 16086 2eb9 25       		.uleb128 0x25
 16087 2eba D80E0000 		.4byte	.LASF204
 16088 2ebe 01       		.byte	0x1
 16089 2ebf 41       		.byte	0x41
 16090 2ec0 1E010000 		.4byte	0x11e
 16091 2ec4 05       		.uleb128 0x5
ARM GAS  C:\Users\USUARIO\AppData\Local\Temp\ccWuTYF0.s 			page 313


 16092 2ec5 03       		.byte	0x3
 16093 2ec6 00000000 		.4byte	i2cbuf
 16094 2eca 25       		.uleb128 0x25
 16095 2ecb 20010000 		.4byte	.LASF205
 16096 2ecf 01       		.byte	0x1
 16097 2ed0 43       		.byte	0x43
 16098 2ed1 B4000000 		.4byte	0xb4
 16099 2ed5 05       		.uleb128 0x5
 16100 2ed6 03       		.byte	0x3
 16101 2ed7 00000000 		.4byte	Dato2
 16102 2edb 25       		.uleb128 0x25
 16103 2edc 26010000 		.4byte	.LASF206
 16104 2ee0 01       		.byte	0x1
 16105 2ee1 43       		.byte	0x43
 16106 2ee2 B4000000 		.4byte	0xb4
 16107 2ee6 05       		.uleb128 0x5
 16108 2ee7 03       		.byte	0x3
 16109 2ee8 00000000 		.4byte	Dato3
 16110 2eec 25       		.uleb128 0x25
 16111 2eed AD050000 		.4byte	.LASF207
 16112 2ef1 01       		.byte	0x1
 16113 2ef2 43       		.byte	0x43
 16114 2ef3 B4000000 		.4byte	0xb4
 16115 2ef7 05       		.uleb128 0x5
 16116 2ef8 03       		.byte	0x3
 16117 2ef9 00000000 		.4byte	Dato_Exitoso
 16118 2efd 25       		.uleb128 0x25
 16119 2efe F20B0000 		.4byte	.LASF208
 16120 2f02 01       		.byte	0x1
 16121 2f03 43       		.byte	0x43
 16122 2f04 B4000000 		.4byte	0xb4
 16123 2f08 05       		.uleb128 0x5
 16124 2f09 03       		.byte	0x3
 16125 2f0a 00000000 		.4byte	Dato_Exitoso2
 16126 2f0e 25       		.uleb128 0x25
 16127 2f0f 80100000 		.4byte	.LASF209
 16128 2f13 01       		.byte	0x1
 16129 2f14 43       		.byte	0x43
 16130 2f15 B4000000 		.4byte	0xb4
 16131 2f19 05       		.uleb128 0x5
 16132 2f1a 03       		.byte	0x3
 16133 2f1b 00000000 		.4byte	Menu
 16134 2f1f 25       		.uleb128 0x25
 16135 2f20 2C060000 		.4byte	.LASF210
 16136 2f24 01       		.byte	0x1
 16137 2f25 43       		.byte	0x43
 16138 2f26 B4000000 		.4byte	0xb4
 16139 2f2a 05       		.uleb128 0x5
 16140 2f2b 03       		.byte	0x3
 16141 2f2c 00000000 		.4byte	MenuAntt
 16142 2f30 25       		.uleb128 0x25
 16143 2f31 4F090000 		.4byte	.LASF211
 16144 2f35 01       		.byte	0x1
 16145 2f36 43       		.byte	0x43
 16146 2f37 B4000000 		.4byte	0xb4
 16147 2f3b 05       		.uleb128 0x5
 16148 2f3c 03       		.byte	0x3
ARM GAS  C:\Users\USUARIO\AppData\Local\Temp\ccWuTYF0.s 			page 314


 16149 2f3d 00000000 		.4byte	MenuAnt
 16150 2f41 25       		.uleb128 0x25
 16151 2f42 D30B0000 		.4byte	.LASF212
 16152 2f46 01       		.byte	0x1
 16153 2f47 43       		.byte	0x43
 16154 2f48 B4000000 		.4byte	0xb4
 16155 2f4c 05       		.uleb128 0x5
 16156 2f4d 03       		.byte	0x3
 16157 2f4e 00000000 		.4byte	Menu2
 16158 2f52 25       		.uleb128 0x25
 16159 2f53 C7100000 		.4byte	.LASF213
 16160 2f57 01       		.byte	0x1
 16161 2f58 43       		.byte	0x43
 16162 2f59 B4000000 		.4byte	0xb4
 16163 2f5d 05       		.uleb128 0x5
 16164 2f5e 03       		.byte	0x3
 16165 2f5f 00000000 		.4byte	MenuAntt2
 16166 2f63 28       		.uleb128 0x28
 16167 2f64 7A00     		.ascii	"z\000"
 16168 2f66 01       		.byte	0x1
 16169 2f67 43       		.byte	0x43
 16170 2f68 B4000000 		.4byte	0xb4
 16171 2f6c 05       		.uleb128 0x5
 16172 2f6d 03       		.byte	0x3
 16173 2f6e 00000000 		.4byte	z
 16174 2f72 25       		.uleb128 0x25
 16175 2f73 85010000 		.4byte	.LASF214
 16176 2f77 01       		.byte	0x1
 16177 2f78 43       		.byte	0x43
 16178 2f79 B4000000 		.4byte	0xb4
 16179 2f7d 05       		.uleb128 0x5
 16180 2f7e 03       		.byte	0x3
 16181 2f7f 00000000 		.4byte	TipoClave
 16182 2f83 25       		.uleb128 0x25
 16183 2f84 93020000 		.4byte	.LASF215
 16184 2f88 01       		.byte	0x1
 16185 2f89 43       		.byte	0x43
 16186 2f8a B4000000 		.4byte	0xb4
 16187 2f8e 05       		.uleb128 0x5
 16188 2f8f 03       		.byte	0x3
 16189 2f90 00000000 		.4byte	Segmentos
 16190 2f94 25       		.uleb128 0x25
 16191 2f95 7E000000 		.4byte	.LASF216
 16192 2f99 01       		.byte	0x1
 16193 2f9a 43       		.byte	0x43
 16194 2f9b B4000000 		.4byte	0xb4
 16195 2f9f 05       		.uleb128 0x5
 16196 2fa0 03       		.byte	0x3
 16197 2fa1 00000000 		.4byte	CicloLibre
 16198 2fa5 25       		.uleb128 0x25
 16199 2fa6 140F0000 		.4byte	.LASF217
 16200 2faa 01       		.byte	0x1
 16201 2fab 43       		.byte	0x43
 16202 2fac B4000000 		.4byte	0xb4
 16203 2fb0 05       		.uleb128 0x5
 16204 2fb1 03       		.byte	0x3
 16205 2fb2 00000000 		.4byte	Opcion
ARM GAS  C:\Users\USUARIO\AppData\Local\Temp\ccWuTYF0.s 			page 315


 16206 2fb6 28       		.uleb128 0x28
 16207 2fb7 6800     		.ascii	"h\000"
 16208 2fb9 01       		.byte	0x1
 16209 2fba 57       		.byte	0x57
 16210 2fbb B4000000 		.4byte	0xb4
 16211 2fbf 05       		.uleb128 0x5
 16212 2fc0 03       		.byte	0x3
 16213 2fc1 00000000 		.4byte	h
 16214 2fc5 28       		.uleb128 0x28
 16215 2fc6 6C00     		.ascii	"l\000"
 16216 2fc8 01       		.byte	0x1
 16217 2fc9 57       		.byte	0x57
 16218 2fca B4000000 		.4byte	0xb4
 16219 2fce 05       		.uleb128 0x5
 16220 2fcf 03       		.byte	0x3
 16221 2fd0 00000000 		.4byte	l
 16222 2fd4 28       		.uleb128 0x28
 16223 2fd5 44696100 		.ascii	"Dia\000"
 16224 2fd9 01       		.byte	0x1
 16225 2fda 44       		.byte	0x44
 16226 2fdb B4000000 		.4byte	0xb4
 16227 2fdf 05       		.uleb128 0x5
 16228 2fe0 03       		.byte	0x3
 16229 2fe1 00000000 		.4byte	Dia
 16230 2fe5 28       		.uleb128 0x28
 16231 2fe6 4D657300 		.ascii	"Mes\000"
 16232 2fea 01       		.byte	0x1
 16233 2feb 44       		.byte	0x44
 16234 2fec B4000000 		.4byte	0xb4
 16235 2ff0 05       		.uleb128 0x5
 16236 2ff1 03       		.byte	0x3
 16237 2ff2 00000000 		.4byte	Mes
 16238 2ff6 25       		.uleb128 0x25
 16239 2ff7 330E0000 		.4byte	.LASF218
 16240 2ffb 01       		.byte	0x1
 16241 2ffc 44       		.byte	0x44
 16242 2ffd B4000000 		.4byte	0xb4
 16243 3001 05       		.uleb128 0x5
 16244 3002 03       		.byte	0x3
 16245 3003 00000000 		.4byte	Year
 16246 3007 25       		.uleb128 0x25
 16247 3008 57090000 		.4byte	.LASF33
 16248 300c 01       		.byte	0x1
 16249 300d 44       		.byte	0x44
 16250 300e B4000000 		.4byte	0xb4
 16251 3012 05       		.uleb128 0x5
 16252 3013 03       		.byte	0x3
 16253 3014 00000000 		.4byte	Hora
 16254 3018 25       		.uleb128 0x25
 16255 3019 40090000 		.4byte	.LASF34
 16256 301d 01       		.byte	0x1
 16257 301e 44       		.byte	0x44
 16258 301f B4000000 		.4byte	0xb4
 16259 3023 05       		.uleb128 0x5
 16260 3024 03       		.byte	0x3
 16261 3025 00000000 		.4byte	Minuto
 16262 3029 25       		.uleb128 0x25
ARM GAS  C:\Users\USUARIO\AppData\Local\Temp\ccWuTYF0.s 			page 316


 16263 302a 090C0000 		.4byte	.LASF219
 16264 302e 01       		.byte	0x1
 16265 302f 44       		.byte	0x44
 16266 3030 B4000000 		.4byte	0xb4
 16267 3034 05       		.uleb128 0x5
 16268 3035 03       		.byte	0x3
 16269 3036 00000000 		.4byte	Segundo
 16270 303a 28       		.uleb128 0x28
 16271 303b 646F7700 		.ascii	"dow\000"
 16272 303f 01       		.byte	0x1
 16273 3040 44       		.byte	0x44
 16274 3041 B4000000 		.4byte	0xb4
 16275 3045 05       		.uleb128 0x5
 16276 3046 03       		.byte	0x3
 16277 3047 00000000 		.4byte	dow
 16278 304b 25       		.uleb128 0x25
 16279 304c 1A080000 		.4byte	.LASF220
 16280 3050 01       		.byte	0x1
 16281 3051 45       		.byte	0x45
 16282 3052 45000000 		.4byte	0x45
 16283 3056 05       		.uleb128 0x5
 16284 3057 03       		.byte	0x3
 16285 3058 00000000 		.4byte	Inicio
 16286 305c 25       		.uleb128 0x25
 16287 305d 07060000 		.4byte	.LASF221
 16288 3061 01       		.byte	0x1
 16289 3062 45       		.byte	0x45
 16290 3063 45000000 		.4byte	0x45
 16291 3067 05       		.uleb128 0x5
 16292 3068 03       		.byte	0x3
 16293 3069 00000000 		.4byte	Inicio2
 16294 306d 25       		.uleb128 0x25
 16295 306e 890A0000 		.4byte	.LASF222
 16296 3072 01       		.byte	0x1
 16297 3073 45       		.byte	0x45
 16298 3074 45000000 		.4byte	0x45
 16299 3078 05       		.uleb128 0x5
 16300 3079 03       		.byte	0x3
 16301 307a 00000000 		.4byte	EstadoPaso
 16302 307e 25       		.uleb128 0x25
 16303 307f 230B0000 		.4byte	.LASF223
 16304 3083 01       		.byte	0x1
 16305 3084 45       		.byte	0x45
 16306 3085 45000000 		.4byte	0x45
 16307 3089 05       		.uleb128 0x5
 16308 308a 03       		.byte	0x3
 16309 308b 00000000 		.4byte	entro
 16310 308f 25       		.uleb128 0x25
 16311 3090 A6080000 		.4byte	.LASF224
 16312 3094 01       		.byte	0x1
 16313 3095 45       		.byte	0x45
 16314 3096 45000000 		.4byte	0x45
 16315 309a 05       		.uleb128 0x5
 16316 309b 03       		.byte	0x3
 16317 309c 00000000 		.4byte	GuardaEEPROM
 16318 30a0 25       		.uleb128 0x25
 16319 30a1 3C0F0000 		.4byte	.LASF225
ARM GAS  C:\Users\USUARIO\AppData\Local\Temp\ccWuTYF0.s 			page 317


 16320 30a5 01       		.byte	0x1
 16321 30a6 45       		.byte	0x45
 16322 30a7 45000000 		.4byte	0x45
 16323 30ab 05       		.uleb128 0x5
 16324 30ac 03       		.byte	0x3
 16325 30ad 00000000 		.4byte	rampa
 16326 30b1 25       		.uleb128 0x25
 16327 30b2 AA0B0000 		.4byte	.LASF29
 16328 30b6 01       		.byte	0x1
 16329 30b7 45       		.byte	0x45
 16330 30b8 45000000 		.4byte	0x45
 16331 30bc 05       		.uleb128 0x5
 16332 30bd 03       		.byte	0x3
 16333 30be 00000000 		.4byte	Minutos
 16334 30c2 25       		.uleb128 0x25
 16335 30c3 E10B0000 		.4byte	.LASF28
 16336 30c7 01       		.byte	0x1
 16337 30c8 45       		.byte	0x45
 16338 30c9 45000000 		.4byte	0x45
 16339 30cd 05       		.uleb128 0x5
 16340 30ce 03       		.byte	0x3
 16341 30cf 00000000 		.4byte	Horas
 16342 30d3 25       		.uleb128 0x25
 16343 30d4 F00F0000 		.4byte	.LASF226
 16344 30d8 01       		.byte	0x1
 16345 30d9 45       		.byte	0x45
 16346 30da 45000000 		.4byte	0x45
 16347 30de 05       		.uleb128 0x5
 16348 30df 03       		.byte	0x3
 16349 30e0 00000000 		.4byte	flagTemperatura
 16350 30e4 28       		.uleb128 0x28
 16351 30e5 783100   		.ascii	"x1\000"
 16352 30e8 01       		.byte	0x1
 16353 30e9 45       		.byte	0x45
 16354 30ea 45000000 		.4byte	0x45
 16355 30ee 05       		.uleb128 0x5
 16356 30ef 03       		.byte	0x3
 16357 30f0 00000000 		.4byte	x1
 16358 30f4 28       		.uleb128 0x28
 16359 30f5 78313000 		.ascii	"x10\000"
 16360 30f9 01       		.byte	0x1
 16361 30fa 45       		.byte	0x45
 16362 30fb 45000000 		.4byte	0x45
 16363 30ff 05       		.uleb128 0x5
 16364 3100 03       		.byte	0x3
 16365 3101 00000000 		.4byte	x10
 16366 3105 25       		.uleb128 0x25
 16367 3106 B2070000 		.4byte	.LASF227
 16368 310a 01       		.byte	0x1
 16369 310b 45       		.byte	0x45
 16370 310c 45000000 		.4byte	0x45
 16371 3110 05       		.uleb128 0x5
 16372 3111 03       		.byte	0x3
 16373 3112 00000000 		.4byte	x100
 16374 3116 25       		.uleb128 0x25
 16375 3117 FD000000 		.4byte	.LASF228
 16376 311b 01       		.byte	0x1
ARM GAS  C:\Users\USUARIO\AppData\Local\Temp\ccWuTYF0.s 			page 318


 16377 311c 45       		.byte	0x45
 16378 311d 45000000 		.4byte	0x45
 16379 3121 05       		.uleb128 0x5
 16380 3122 03       		.byte	0x3
 16381 3123 00000000 		.4byte	Succion
 16382 3127 25       		.uleb128 0x25
 16383 3128 B90D0000 		.4byte	.LASF229
 16384 312c 01       		.byte	0x1
 16385 312d 45       		.byte	0x45
 16386 312e 45000000 		.4byte	0x45
 16387 3132 05       		.uleb128 0x5
 16388 3133 03       		.byte	0x3
 16389 3134 00000000 		.4byte	flagVacio
 16390 3138 25       		.uleb128 0x25
 16391 3139 63040000 		.4byte	.LASF230
 16392 313d 01       		.byte	0x1
 16393 313e 45       		.byte	0x45
 16394 313f 45000000 		.4byte	0x45
 16395 3143 05       		.uleb128 0x5
 16396 3144 03       		.byte	0x3
 16397 3145 00000000 		.4byte	Enfria
 16398 3149 25       		.uleb128 0x25
 16399 314a 38000000 		.4byte	.LASF231
 16400 314e 01       		.byte	0x1
 16401 314f 45       		.byte	0x45
 16402 3150 45000000 		.4byte	0x45
 16403 3154 05       		.uleb128 0x5
 16404 3155 03       		.byte	0x3
 16405 3156 00000000 		.4byte	flagVelocidad
 16406 315a 25       		.uleb128 0x25
 16407 315b E1080000 		.4byte	.LASF232
 16408 315f 01       		.byte	0x1
 16409 3160 45       		.byte	0x45
 16410 3161 45000000 		.4byte	0x45
 16411 3165 05       		.uleb128 0x5
 16412 3166 03       		.byte	0x3
 16413 3167 00000000 		.4byte	envioUSB
 16414 316b 25       		.uleb128 0x25
 16415 316c 2C020000 		.4byte	.LASF233
 16416 3170 01       		.byte	0x1
 16417 3171 46       		.byte	0x46
 16418 3172 1E010000 		.4byte	0x11e
 16419 3176 05       		.uleb128 0x5
 16420 3177 03       		.byte	0x3
 16421 3178 00000000 		.4byte	Password
 16422 317c 25       		.uleb128 0x25
 16423 317d F1050000 		.4byte	.LASF234
 16424 3181 01       		.byte	0x1
 16425 3182 47       		.byte	0x47
 16426 3183 B4000000 		.4byte	0xb4
 16427 3187 05       		.uleb128 0x5
 16428 3188 03       		.byte	0x3
 16429 3189 00000000 		.4byte	tiempo_esterilizacion
 16430 318d 28       		.uleb128 0x28
 16431 318e 7900     		.ascii	"y\000"
 16432 3190 01       		.byte	0x1
 16433 3191 47       		.byte	0x47
ARM GAS  C:\Users\USUARIO\AppData\Local\Temp\ccWuTYF0.s 			page 319


 16434 3192 B4000000 		.4byte	0xb4
 16435 3196 05       		.uleb128 0x5
 16436 3197 03       		.byte	0x3
 16437 3198 00000000 		.4byte	y
 16438 319c 25       		.uleb128 0x25
 16439 319d 19060000 		.4byte	.LASF235
 16440 31a1 01       		.byte	0x1
 16441 31a2 47       		.byte	0x47
 16442 31a3 B4000000 		.4byte	0xb4
 16443 31a7 05       		.uleb128 0x5
 16444 31a8 03       		.byte	0x3
 16445 31a9 00000000 		.4byte	hEst
 16446 31ad 25       		.uleb128 0x25
 16447 31ae 050E0000 		.4byte	.LASF236
 16448 31b2 01       		.byte	0x1
 16449 31b3 47       		.byte	0x47
 16450 31b4 B4000000 		.4byte	0xb4
 16451 31b8 05       		.uleb128 0x5
 16452 31b9 03       		.byte	0x3
 16453 31ba 00000000 		.4byte	mEst
 16454 31be 25       		.uleb128 0x25
 16455 31bf 08020000 		.4byte	.LASF237
 16456 31c3 01       		.byte	0x1
 16457 31c4 47       		.byte	0x47
 16458 31c5 B4000000 		.4byte	0xb4
 16459 31c9 05       		.uleb128 0x5
 16460 31ca 03       		.byte	0x3
 16461 31cb 00000000 		.4byte	hEstp
 16462 31cf 25       		.uleb128 0x25
 16463 31d0 2A090000 		.4byte	.LASF238
 16464 31d4 01       		.byte	0x1
 16465 31d5 47       		.byte	0x47
 16466 31d6 B4000000 		.4byte	0xb4
 16467 31da 05       		.uleb128 0x5
 16468 31db 03       		.byte	0x3
 16469 31dc 00000000 		.4byte	mEstp
 16470 31e0 25       		.uleb128 0x25
 16471 31e1 29050000 		.4byte	.LASF239
 16472 31e5 01       		.byte	0x1
 16473 31e6 47       		.byte	0x47
 16474 31e7 B4000000 		.4byte	0xb4
 16475 31eb 05       		.uleb128 0x5
 16476 31ec 03       		.byte	0x3
 16477 31ed 00000000 		.4byte	hEstpAnt
 16478 31f1 25       		.uleb128 0x25
 16479 31f2 220D0000 		.4byte	.LASF240
 16480 31f6 01       		.byte	0x1
 16481 31f7 47       		.byte	0x47
 16482 31f8 B4000000 		.4byte	0xb4
 16483 31fc 05       		.uleb128 0x5
 16484 31fd 03       		.byte	0x3
 16485 31fe 00000000 		.4byte	mEstpAnt
 16486 3202 25       		.uleb128 0x25
 16487 3203 EE090000 		.4byte	.LASF241
 16488 3207 01       		.byte	0x1
 16489 3208 47       		.byte	0x47
 16490 3209 B4000000 		.4byte	0xb4
ARM GAS  C:\Users\USUARIO\AppData\Local\Temp\ccWuTYF0.s 			page 320


 16491 320d 05       		.uleb128 0x5
 16492 320e 03       		.byte	0x3
 16493 320f 00000000 		.4byte	Segmento
 16494 3213 25       		.uleb128 0x25
 16495 3214 E10C0000 		.4byte	.LASF242
 16496 3218 01       		.byte	0x1
 16497 3219 47       		.byte	0x47
 16498 321a B4000000 		.4byte	0xb4
 16499 321e 05       		.uleb128 0x5
 16500 321f 03       		.byte	0x3
 16501 3220 00000000 		.4byte	conteo
 16502 3224 25       		.uleb128 0x25
 16503 3225 080A0000 		.4byte	.LASF243
 16504 3229 01       		.byte	0x1
 16505 322a 48       		.byte	0x48
 16506 322b C0000000 		.4byte	0xc0
 16507 322f 05       		.uleb128 0x5
 16508 3230 03       		.byte	0x3
 16509 3231 00000000 		.4byte	tiemporeset
 16510 3235 25       		.uleb128 0x25
 16511 3236 BA050000 		.4byte	.LASF244
 16512 323a 01       		.byte	0x1
 16513 323b 48       		.byte	0x48
 16514 323c C0000000 		.4byte	0xc0
 16515 3240 05       		.uleb128 0x5
 16516 3241 03       		.byte	0x3
 16517 3242 00000000 		.4byte	TiempoControl
 16518 3246 25       		.uleb128 0x25
 16519 3247 0A100000 		.4byte	.LASF245
 16520 324b 01       		.byte	0x1
 16521 324c 48       		.byte	0x48
 16522 324d C0000000 		.4byte	0xc0
 16523 3251 05       		.uleb128 0x5
 16524 3252 03       		.byte	0x3
 16525 3253 00000000 		.4byte	tiemporecta
 16526 3257 25       		.uleb128 0x25
 16527 3258 420F0000 		.4byte	.LASF246
 16528 325c 01       		.byte	0x1
 16529 325d 48       		.byte	0x48
 16530 325e C0000000 		.4byte	0xc0
 16531 3262 05       		.uleb128 0x5
 16532 3263 03       		.byte	0x3
 16533 3264 00000000 		.4byte	tiemposetpoint
 16534 3268 25       		.uleb128 0x25
 16535 3269 81090000 		.4byte	.LASF247
 16536 326d 01       		.byte	0x1
 16537 326e 48       		.byte	0x48
 16538 326f C0000000 		.4byte	0xc0
 16539 3273 05       		.uleb128 0x5
 16540 3274 03       		.byte	0x3
 16541 3275 00000000 		.4byte	tinicio
 16542 3279 25       		.uleb128 0x25
 16543 327a FE060000 		.4byte	.LASF248
 16544 327e 01       		.byte	0x1
 16545 327f 48       		.byte	0x48
 16546 3280 C0000000 		.4byte	0xc0
 16547 3284 05       		.uleb128 0x5
ARM GAS  C:\Users\USUARIO\AppData\Local\Temp\ccWuTYF0.s 			page 321


 16548 3285 03       		.byte	0x3
 16549 3286 00000000 		.4byte	tiempocalentamiento
 16550 328a 25       		.uleb128 0x25
 16551 328b 7A0B0000 		.4byte	.LASF249
 16552 328f 01       		.byte	0x1
 16553 3290 48       		.byte	0x48
 16554 3291 C0000000 		.4byte	0xc0
 16555 3295 05       		.uleb128 0x5
 16556 3296 03       		.byte	0x3
 16557 3297 00000000 		.4byte	tiempoup
 16558 329b 25       		.uleb128 0x25
 16559 329c B3010000 		.4byte	.LASF250
 16560 32a0 01       		.byte	0x1
 16561 32a1 48       		.byte	0x48
 16562 32a2 C0000000 		.4byte	0xc0
 16563 32a6 05       		.uleb128 0x5
 16564 32a7 03       		.byte	0x3
 16565 32a8 00000000 		.4byte	tiempodn
 16566 32ac 25       		.uleb128 0x25
 16567 32ad 930D0000 		.4byte	.LASF251
 16568 32b1 01       		.byte	0x1
 16569 32b2 49       		.byte	0x49
 16570 32b3 45000000 		.4byte	0x45
 16571 32b7 05       		.uleb128 0x5
 16572 32b8 03       		.byte	0x3
 16573 32b9 00000000 		.4byte	mensaje
 16574 32bd 25       		.uleb128 0x25
 16575 32be 24040000 		.4byte	.LASF252
 16576 32c2 01       		.byte	0x1
 16577 32c3 49       		.byte	0x49
 16578 32c4 45000000 		.4byte	0x45
 16579 32c8 05       		.uleb128 0x5
 16580 32c9 03       		.byte	0x3
 16581 32ca 00000000 		.4byte	Lectura2
 16582 32ce 25       		.uleb128 0x25
 16583 32cf 2C010000 		.4byte	.LASF253
 16584 32d3 01       		.byte	0x1
 16585 32d4 49       		.byte	0x49
 16586 32d5 45000000 		.4byte	0x45
 16587 32d9 05       		.uleb128 0x5
 16588 32da 03       		.byte	0x3
 16589 32db 00000000 		.4byte	flag_setpoint
 16590 32df 25       		.uleb128 0x25
 16591 32e0 140A0000 		.4byte	.LASF254
 16592 32e4 01       		.byte	0x1
 16593 32e5 49       		.byte	0x49
 16594 32e6 45000000 		.4byte	0x45
 16595 32ea 05       		.uleb128 0x5
 16596 32eb 03       		.byte	0x3
 16597 32ec 00000000 		.4byte	flag_tiempocalentamiento
 16598 32f0 25       		.uleb128 0x25
 16599 32f1 30000000 		.4byte	.LASF255
 16600 32f5 01       		.byte	0x1
 16601 32f6 49       		.byte	0x49
 16602 32f7 45000000 		.4byte	0x45
 16603 32fb 05       		.uleb128 0x5
 16604 32fc 03       		.byte	0x3
ARM GAS  C:\Users\USUARIO\AppData\Local\Temp\ccWuTYF0.s 			page 322


 16605 32fd 00000000 		.4byte	Lectura
 16606 3301 25       		.uleb128 0x25
 16607 3302 9E0C0000 		.4byte	.LASF256
 16608 3306 01       		.byte	0x1
 16609 3307 49       		.byte	0x49
 16610 3308 45000000 		.4byte	0x45
 16611 330c 05       		.uleb128 0x5
 16612 330d 03       		.byte	0x3
 16613 330e 00000000 		.4byte	flagup
 16614 3312 25       		.uleb128 0x25
 16615 3313 40030000 		.4byte	.LASF257
 16616 3317 01       		.byte	0x1
 16617 3318 49       		.byte	0x49
 16618 3319 45000000 		.4byte	0x45
 16619 331d 05       		.uleb128 0x5
 16620 331e 03       		.byte	0x3
 16621 331f 00000000 		.4byte	flagdn
 16622 3323 25       		.uleb128 0x25
 16623 3324 B20B0000 		.4byte	.LASF258
 16624 3328 01       		.byte	0x1
 16625 3329 49       		.byte	0x49
 16626 332a 45000000 		.4byte	0x45
 16627 332e 05       		.uleb128 0x5
 16628 332f 03       		.byte	0x3
 16629 3330 00000000 		.4byte	flagRampa
 16630 3334 25       		.uleb128 0x25
 16631 3335 50010000 		.4byte	.LASF259
 16632 3339 01       		.byte	0x1
 16633 333a 49       		.byte	0x49
 16634 333b 45000000 		.4byte	0x45
 16635 333f 05       		.uleb128 0x5
 16636 3340 03       		.byte	0x3
 16637 3341 00000000 		.4byte	flag_calcula
 16638 3345 25       		.uleb128 0x25
 16639 3346 D90B0000 		.4byte	.LASF260
 16640 334a 01       		.byte	0x1
 16641 334b 49       		.byte	0x49
 16642 334c 45000000 		.4byte	0x45
 16643 3350 05       		.uleb128 0x5
 16644 3351 03       		.byte	0x3
 16645 3352 00000000 		.4byte	flagusb
 16646 3356 25       		.uleb128 0x25
 16647 3357 D50D0000 		.4byte	.LASF261
 16648 335b 01       		.byte	0x1
 16649 335c 49       		.byte	0x49
 16650 335d 45000000 		.4byte	0x45
 16651 3361 05       		.uleb128 0x5
 16652 3362 03       		.byte	0x3
 16653 3363 00000000 		.4byte	dehumidificador
 16654 3367 25       		.uleb128 0x25
 16655 3368 8E040000 		.4byte	.LASF262
 16656 336c 01       		.byte	0x1
 16657 336d 49       		.byte	0x49
 16658 336e 45000000 		.4byte	0x45
 16659 3372 05       		.uleb128 0x5
 16660 3373 03       		.byte	0x3
 16661 3374 00000000 		.4byte	flag_ajuste
ARM GAS  C:\Users\USUARIO\AppData\Local\Temp\ccWuTYF0.s 			page 323


 16662 3378 25       		.uleb128 0x25
 16663 3379 8A0C0000 		.4byte	.LASF263
 16664 337d 01       		.byte	0x1
 16665 337e 49       		.byte	0x49
 16666 337f 45000000 		.4byte	0x45
 16667 3383 05       		.uleb128 0x5
 16668 3384 03       		.byte	0x3
 16669 3385 00000000 		.4byte	flag_ajuste2
 16670 3389 25       		.uleb128 0x25
 16671 338a D80C0000 		.4byte	.LASF264
 16672 338e 01       		.byte	0x1
 16673 338f 4A       		.byte	0x4a
 16674 3390 45000000 		.4byte	0x45
 16675 3394 05       		.uleb128 0x5
 16676 3395 03       		.byte	0x3
 16677 3396 00000000 		.4byte	Finalizo
 16678 339a 25       		.uleb128 0x25
 16679 339b 44050000 		.4byte	.LASF265
 16680 339f 01       		.byte	0x1
 16681 33a0 4A       		.byte	0x4a
 16682 33a1 45000000 		.4byte	0x45
 16683 33a5 05       		.uleb128 0x5
 16684 33a6 03       		.byte	0x3
 16685 33a7 00000000 		.4byte	conteoPregunta
 16686 33ab 25       		.uleb128 0x25
 16687 33ac 940A0000 		.4byte	.LASF266
 16688 33b0 01       		.byte	0x1
 16689 33b1 4A       		.byte	0x4a
 16690 33b2 45000000 		.4byte	0x45
 16691 33b6 05       		.uleb128 0x5
 16692 33b7 03       		.byte	0x3
 16693 33b8 00000000 		.4byte	grafica
 16694 33bc 25       		.uleb128 0x25
 16695 33bd F6060000 		.4byte	.LASF267
 16696 33c1 01       		.byte	0x1
 16697 33c2 4A       		.byte	0x4a
 16698 33c3 45000000 		.4byte	0x45
 16699 33c7 05       		.uleb128 0x5
 16700 33c8 03       		.byte	0x3
 16701 33c9 00000000 		.4byte	imprime
 16702 33cd 25       		.uleb128 0x25
 16703 33ce 810F0000 		.4byte	.LASF268
 16704 33d2 01       		.byte	0x1
 16705 33d3 4A       		.byte	0x4a
 16706 33d4 45000000 		.4byte	0x45
 16707 33d8 05       		.uleb128 0x5
 16708 33d9 03       		.byte	0x3
 16709 33da 00000000 		.4byte	Infinito
 16710 33de 25       		.uleb128 0x25
 16711 33df D70A0000 		.4byte	.LASF269
 16712 33e3 01       		.byte	0x1
 16713 33e4 4A       		.byte	0x4a
 16714 33e5 45000000 		.4byte	0x45
 16715 33e9 05       		.uleb128 0x5
 16716 33ea 03       		.byte	0x3
 16717 33eb 00000000 		.4byte	flagControlT
 16718 33ef 25       		.uleb128 0x25
ARM GAS  C:\Users\USUARIO\AppData\Local\Temp\ccWuTYF0.s 			page 324


 16719 33f0 9C0A0000 		.4byte	.LASF270
 16720 33f4 01       		.byte	0x1
 16721 33f5 4A       		.byte	0x4a
 16722 33f6 45000000 		.4byte	0x45
 16723 33fa 05       		.uleb128 0x5
 16724 33fb 03       		.byte	0x3
 16725 33fc 00000000 		.4byte	flagControlH
 16726 3400 25       		.uleb128 0x25
 16727 3401 74020000 		.4byte	.LASF271
 16728 3405 01       		.byte	0x1
 16729 3406 4A       		.byte	0x4a
 16730 3407 45000000 		.4byte	0x45
 16731 340b 05       		.uleb128 0x5
 16732 340c 03       		.byte	0x3
 16733 340d 00000000 		.4byte	Controlando
 16734 3411 25       		.uleb128 0x25
 16735 3412 2D100000 		.4byte	.LASF272
 16736 3416 01       		.byte	0x1
 16737 3417 4A       		.byte	0x4a
 16738 3418 45000000 		.4byte	0x45
 16739 341c 05       		.uleb128 0x5
 16740 341d 03       		.byte	0x3
 16741 341e 00000000 		.4byte	flag_clear2
 16742 3422 25       		.uleb128 0x25
 16743 3423 CE070000 		.4byte	.LASF273
 16744 3427 01       		.byte	0x1
 16745 3428 4A       		.byte	0x4a
 16746 3429 45000000 		.4byte	0x45
 16747 342d 05       		.uleb128 0x5
 16748 342e 03       		.byte	0x3
 16749 342f 00000000 		.4byte	flag_ganancia
 16750 3433 25       		.uleb128 0x25
 16751 3434 2B0D0000 		.4byte	.LASF274
 16752 3438 01       		.byte	0x1
 16753 3439 4A       		.byte	0x4a
 16754 343a 45000000 		.4byte	0x45
 16755 343e 05       		.uleb128 0x5
 16756 343f 03       		.byte	0x3
 16757 3440 00000000 		.4byte	flag_clear
 16758 3444 25       		.uleb128 0x25
 16759 3445 30090000 		.4byte	.LASF275
 16760 3449 01       		.byte	0x1
 16761 344a 4A       		.byte	0x4a
 16762 344b 45000000 		.4byte	0x45
 16763 344f 05       		.uleb128 0x5
 16764 3450 03       		.byte	0x3
 16765 3451 00000000 		.4byte	Pausa
 16766 3455 07       		.uleb128 0x7
 16767 3456 25000000 		.4byte	0x25
 16768 345a 65340000 		.4byte	0x3465
 16769 345e 08       		.uleb128 0x8
 16770 345f 11010000 		.4byte	0x111
 16771 3463 01       		.byte	0x1
 16772 3464 00       		.byte	0
 16773 3465 28       		.uleb128 0x28
 16774 3466 5800     		.ascii	"X\000"
 16775 3468 01       		.byte	0x1
ARM GAS  C:\Users\USUARIO\AppData\Local\Temp\ccWuTYF0.s 			page 325


 16776 3469 4B       		.byte	0x4b
 16777 346a 55340000 		.4byte	0x3455
 16778 346e 05       		.uleb128 0x5
 16779 346f 03       		.byte	0x3
 16780 3470 00000000 		.4byte	X
 16781 3474 25       		.uleb128 0x25
 16782 3475 35020000 		.4byte	.LASF31
 16783 3479 01       		.byte	0x1
 16784 347a 4C       		.byte	0x4c
 16785 347b 25000000 		.4byte	0x25
 16786 347f 05       		.uleb128 0x5
 16787 3480 03       		.byte	0x3
 16788 3481 00000000 		.4byte	Temperatura
 16789 3485 25       		.uleb128 0x25
 16790 3486 9D0B0000 		.4byte	.LASF276
 16791 348a 01       		.byte	0x1
 16792 348b 4C       		.byte	0x4c
 16793 348c 25000000 		.4byte	0x25
 16794 3490 05       		.uleb128 0x5
 16795 3491 03       		.byte	0x3
 16796 3492 00000000 		.4byte	Temperatura2
 16797 3496 25       		.uleb128 0x25
 16798 3497 BD070000 		.4byte	.LASF277
 16799 349b 01       		.byte	0x1
 16800 349c 4C       		.byte	0x4c
 16801 349d 25000000 		.4byte	0x25
 16802 34a1 05       		.uleb128 0x5
 16803 34a2 03       		.byte	0x3
 16804 34a3 00000000 		.4byte	Aumento
 16805 34a7 25       		.uleb128 0x25
 16806 34a8 0D050000 		.4byte	.LASF278
 16807 34ac 01       		.byte	0x1
 16808 34ad 4C       		.byte	0x4c
 16809 34ae 25000000 		.4byte	0x25
 16810 34b2 05       		.uleb128 0x5
 16811 34b3 03       		.byte	0x3
 16812 34b4 00000000 		.4byte	PendienteActual
 16813 34b8 25       		.uleb128 0x25
 16814 34b9 A7090000 		.4byte	.LASF279
 16815 34bd 01       		.byte	0x1
 16816 34be 4C       		.byte	0x4c
 16817 34bf 25000000 		.4byte	0x25
 16818 34c3 05       		.uleb128 0x5
 16819 34c4 03       		.byte	0x3
 16820 34c5 00000000 		.4byte	DifPendiente
 16821 34c9 25       		.uleb128 0x25
 16822 34ca 400D0000 		.4byte	.LASF280
 16823 34ce 01       		.byte	0x1
 16824 34cf 4C       		.byte	0x4c
 16825 34d0 25000000 		.4byte	0x25
 16826 34d4 05       		.uleb128 0x5
 16827 34d5 03       		.byte	0x3
 16828 34d6 00000000 		.4byte	TempeInicial
 16829 34da 25       		.uleb128 0x25
 16830 34db 6E0A0000 		.4byte	.LASF281
 16831 34df 01       		.byte	0x1
 16832 34e0 4C       		.byte	0x4c
ARM GAS  C:\Users\USUARIO\AppData\Local\Temp\ccWuTYF0.s 			page 326


 16833 34e1 25000000 		.4byte	0x25
 16834 34e5 05       		.uleb128 0x5
 16835 34e6 03       		.byte	0x3
 16836 34e7 00000000 		.4byte	Pendiente
 16837 34eb 25       		.uleb128 0x25
 16838 34ec F7090000 		.4byte	.LASF282
 16839 34f0 01       		.byte	0x1
 16840 34f1 4C       		.byte	0x4c
 16841 34f2 25000000 		.4byte	0x25
 16842 34f6 05       		.uleb128 0x5
 16843 34f7 03       		.byte	0x3
 16844 34f8 00000000 		.4byte	TemperaturaIdeal
 16845 34fc 25       		.uleb128 0x25
 16846 34fd 5E050000 		.4byte	.LASF283
 16847 3501 01       		.byte	0x1
 16848 3502 4C       		.byte	0x4c
 16849 3503 25000000 		.4byte	0x25
 16850 3507 05       		.uleb128 0x5
 16851 3508 03       		.byte	0x3
 16852 3509 00000000 		.4byte	PotenciaEntregada
 16853 350d 25       		.uleb128 0x25
 16854 350e FC010000 		.4byte	.LASF284
 16855 3512 01       		.byte	0x1
 16856 3513 4C       		.byte	0x4c
 16857 3514 25000000 		.4byte	0x25
 16858 3518 05       		.uleb128 0x5
 16859 3519 03       		.byte	0x3
 16860 351a 00000000 		.4byte	Tpulso
 16861 351e 25       		.uleb128 0x25
 16862 351f 21080000 		.4byte	.LASF285
 16863 3523 01       		.byte	0x1
 16864 3524 4C       		.byte	0x4c
 16865 3525 25000000 		.4byte	0x25
 16866 3529 05       		.uleb128 0x5
 16867 352a 03       		.byte	0x3
 16868 352b 00000000 		.4byte	penInicial
 16869 352f 25       		.uleb128 0x25
 16870 3530 C5070000 		.4byte	.LASF286
 16871 3534 01       		.byte	0x1
 16872 3535 4C       		.byte	0x4c
 16873 3536 25000000 		.4byte	0x25
 16874 353a 05       		.uleb128 0x5
 16875 353b 03       		.byte	0x3
 16876 353c 00000000 		.4byte	penMufla
 16877 3540 25       		.uleb128 0x25
 16878 3541 3A030000 		.4byte	.LASF287
 16879 3545 01       		.byte	0x1
 16880 3546 4D       		.byte	0x4d
 16881 3547 25000000 		.4byte	0x25
 16882 354b 05       		.uleb128 0x5
 16883 354c 03       		.byte	0x3
 16884 354d 00000000 		.4byte	error
 16885 3551 25       		.uleb128 0x25
 16886 3552 000C0000 		.4byte	.LASF288
 16887 3556 01       		.byte	0x1
 16888 3557 4D       		.byte	0x4d
 16889 3558 25000000 		.4byte	0x25
ARM GAS  C:\Users\USUARIO\AppData\Local\Temp\ccWuTYF0.s 			page 327


 16890 355c 05       		.uleb128 0x5
 16891 355d 03       		.byte	0x3
 16892 355e 00000000 		.4byte	Potencia
 16893 3562 25       		.uleb128 0x25
 16894 3563 0F060000 		.4byte	.LASF289
 16895 3567 01       		.byte	0x1
 16896 3568 4D       		.byte	0x4d
 16897 3569 25000000 		.4byte	0x25
 16898 356d 05       		.uleb128 0x5
 16899 356e 03       		.byte	0x3
 16900 356f 00000000 		.4byte	TpulsoMax
 16901 3573 25       		.uleb128 0x25
 16902 3574 3E100000 		.4byte	.LASF290
 16903 3578 01       		.byte	0x1
 16904 3579 4D       		.byte	0x4d
 16905 357a 25000000 		.4byte	0x25
 16906 357e 05       		.uleb128 0x5
 16907 357f 03       		.byte	0x3
 16908 3580 00000000 		.4byte	TpulsoMax2
 16909 3584 25       		.uleb128 0x25
 16910 3585 250C0000 		.4byte	.LASF291
 16911 3589 01       		.byte	0x1
 16912 358a 4D       		.byte	0x4d
 16913 358b 25000000 		.4byte	0x25
 16914 358f 05       		.uleb128 0x5
 16915 3590 03       		.byte	0x3
 16916 3591 00000000 		.4byte	Tpulsomin
 16917 3595 25       		.uleb128 0x25
 16918 3596 D4000000 		.4byte	.LASF292
 16919 359a 01       		.byte	0x1
 16920 359b 4D       		.byte	0x4d
 16921 359c 25000000 		.4byte	0x25
 16922 35a0 05       		.uleb128 0x5
 16923 35a1 03       		.byte	0x3
 16924 35a2 00000000 		.4byte	Tpulsomin2
 16925 35a6 25       		.uleb128 0x25
 16926 35a7 46000000 		.4byte	.LASF293
 16927 35ab 01       		.byte	0x1
 16928 35ac 4E       		.byte	0x4e
 16929 35ad C0000000 		.4byte	0xc0
 16930 35b1 05       		.uleb128 0x5
 16931 35b2 03       		.byte	0x3
 16932 35b3 00000000 		.4byte	TiempoActual
 16933 35b7 25       		.uleb128 0x25
 16934 35b8 7D080000 		.4byte	.LASF294
 16935 35bc 01       		.byte	0x1
 16936 35bd 4E       		.byte	0x4e
 16937 35be C0000000 		.4byte	0xc0
 16938 35c2 05       		.uleb128 0x5
 16939 35c3 03       		.byte	0x3
 16940 35c4 00000000 		.4byte	MinutosActual
 16941 35c8 25       		.uleb128 0x25
 16942 35c9 91000000 		.4byte	.LASF295
 16943 35cd 01       		.byte	0x1
 16944 35ce 4E       		.byte	0x4e
 16945 35cf C0000000 		.4byte	0xc0
 16946 35d3 05       		.uleb128 0x5
ARM GAS  C:\Users\USUARIO\AppData\Local\Temp\ccWuTYF0.s 			page 328


 16947 35d4 03       		.byte	0x3
 16948 35d5 00000000 		.4byte	HorasActual
 16949 35d9 25       		.uleb128 0x25
 16950 35da EA040000 		.4byte	.LASF296
 16951 35de 01       		.byte	0x1
 16952 35df 4E       		.byte	0x4e
 16953 35e0 C0000000 		.4byte	0xc0
 16954 35e4 05       		.uleb128 0x5
 16955 35e5 03       		.byte	0x3
 16956 35e6 00000000 		.4byte	Tiempo
 16957 35ea 25       		.uleb128 0x25
 16958 35eb FF030000 		.4byte	.LASF297
 16959 35ef 01       		.byte	0x1
 16960 35f0 4E       		.byte	0x4e
 16961 35f1 C0000000 		.4byte	0xc0
 16962 35f5 05       		.uleb128 0x5
 16963 35f6 03       		.byte	0x3
 16964 35f7 00000000 		.4byte	TiempoRampa
 16965 35fb 25       		.uleb128 0x25
 16966 35fc 4D0D0000 		.4byte	.LASF298
 16967 3600 01       		.byte	0x1
 16968 3601 4E       		.byte	0x4e
 16969 3602 C0000000 		.4byte	0xc0
 16970 3606 05       		.uleb128 0x5
 16971 3607 03       		.byte	0x3
 16972 3608 00000000 		.4byte	tPregunta
 16973 360c 25       		.uleb128 0x25
 16974 360d 110C0000 		.4byte	.LASF299
 16975 3611 01       		.byte	0x1
 16976 3612 4F       		.byte	0x4f
 16977 3613 B4000000 		.4byte	0xb4
 16978 3617 05       		.uleb128 0x5
 16979 3618 03       		.byte	0x3
 16980 3619 00000000 		.4byte	dataReady
 16981 361d 25       		.uleb128 0x25
 16982 361e 36090000 		.4byte	.LASF300
 16983 3622 01       		.byte	0x1
 16984 3623 4F       		.byte	0x4f
 16985 3624 B4000000 		.4byte	0xb4
 16986 3628 05       		.uleb128 0x5
 16987 3629 03       		.byte	0x3
 16988 362a 00000000 		.4byte	GananciaR
 16989 362e 25       		.uleb128 0x25
 16990 362f DE010000 		.4byte	.LASF301
 16991 3633 01       		.byte	0x1
 16992 3634 50       		.byte	0x50
 16993 3635 C0000000 		.4byte	0xc0
 16994 3639 05       		.uleb128 0x5
 16995 363a 03       		.byte	0x3
 16996 363b 00000000 		.4byte	result
 16997 363f 25       		.uleb128 0x25
 16998 3640 03020000 		.4byte	.LASF302
 16999 3644 01       		.byte	0x1
 17000 3645 51       		.byte	0x51
 17001 3646 25000000 		.4byte	0x25
 17002 364a 05       		.uleb128 0x5
 17003 364b 03       		.byte	0x3
ARM GAS  C:\Users\USUARIO\AppData\Local\Temp\ccWuTYF0.s 			page 329


 17004 364c 00000000 		.4byte	Prom
 17005 3650 25       		.uleb128 0x25
 17006 3651 6B0C0000 		.4byte	.LASF303
 17007 3655 01       		.byte	0x1
 17008 3656 51       		.byte	0x51
 17009 3657 25000000 		.4byte	0x25
 17010 365b 05       		.uleb128 0x5
 17011 365c 03       		.byte	0x3
 17012 365d 00000000 		.4byte	Prom2
 17013 3661 28       		.uleb128 0x28
 17014 3662 563000   		.ascii	"V0\000"
 17015 3665 01       		.byte	0x1
 17016 3666 51       		.byte	0x51
 17017 3667 25000000 		.4byte	0x25
 17018 366b 05       		.uleb128 0x5
 17019 366c 03       		.byte	0x3
 17020 366d 00000000 		.4byte	V0
 17021 3671 28       		.uleb128 0x28
 17022 3672 563100   		.ascii	"V1\000"
 17023 3675 01       		.byte	0x1
 17024 3676 51       		.byte	0x51
 17025 3677 25000000 		.4byte	0x25
 17026 367b 05       		.uleb128 0x5
 17027 367c 03       		.byte	0x3
 17028 367d 00000000 		.4byte	V1
 17029 3681 25       		.uleb128 0x25
 17030 3682 68020000 		.4byte	.LASF304
 17031 3686 01       		.byte	0x1
 17032 3687 51       		.byte	0x51
 17033 3688 25000000 		.4byte	0x25
 17034 368c 05       		.uleb128 0x5
 17035 368d 03       		.byte	0x3
 17036 368e 00000000 		.4byte	Temperature
 17037 3692 25       		.uleb128 0x25
 17038 3693 520B0000 		.4byte	.LASF305
 17039 3697 01       		.byte	0x1
 17040 3698 52       		.byte	0x52
 17041 3699 B4000000 		.4byte	0xb4
 17042 369d 05       		.uleb128 0x5
 17043 369e 03       		.byte	0x3
 17044 369f 00000000 		.4byte	YearTx
 17045 36a3 25       		.uleb128 0x25
 17046 36a4 F20A0000 		.4byte	.LASF306
 17047 36a8 01       		.byte	0x1
 17048 36a9 52       		.byte	0x52
 17049 36aa B4000000 		.4byte	0xb4
 17050 36ae 05       		.uleb128 0x5
 17051 36af 03       		.byte	0x3
 17052 36b0 00000000 		.4byte	MesTx
 17053 36b4 25       		.uleb128 0x25
 17054 36b5 70070000 		.4byte	.LASF307
 17055 36b9 01       		.byte	0x1
 17056 36ba 52       		.byte	0x52
 17057 36bb B4000000 		.4byte	0xb4
 17058 36bf 05       		.uleb128 0x5
 17059 36c0 03       		.byte	0x3
 17060 36c1 00000000 		.4byte	DiaTx
ARM GAS  C:\Users\USUARIO\AppData\Local\Temp\ccWuTYF0.s 			page 330


 17061 36c5 25       		.uleb128 0x25
 17062 36c6 F1030000 		.4byte	.LASF308
 17063 36ca 01       		.byte	0x1
 17064 36cb 52       		.byte	0x52
 17065 36cc B4000000 		.4byte	0xb4
 17066 36d0 05       		.uleb128 0x5
 17067 36d1 03       		.byte	0x3
 17068 36d2 00000000 		.4byte	HoraTx
 17069 36d6 25       		.uleb128 0x25
 17070 36d7 76070000 		.4byte	.LASF309
 17071 36db 01       		.byte	0x1
 17072 36dc 52       		.byte	0x52
 17073 36dd B4000000 		.4byte	0xb4
 17074 36e1 05       		.uleb128 0x5
 17075 36e2 03       		.byte	0x3
 17076 36e3 00000000 		.4byte	MinutoTx
 17077 36e7 25       		.uleb128 0x25
 17078 36e8 DF0F0000 		.4byte	.LASF310
 17079 36ec 01       		.byte	0x1
 17080 36ed 52       		.byte	0x52
 17081 36ee B4000000 		.4byte	0xb4
 17082 36f2 05       		.uleb128 0x5
 17083 36f3 03       		.byte	0x3
 17084 36f4 00000000 		.4byte	dowTx
 17085 36f8 07       		.uleb128 0x7
 17086 36f9 F0000000 		.4byte	0xf0
 17087 36fd 08370000 		.4byte	0x3708
 17088 3701 08       		.uleb128 0x8
 17089 3702 11010000 		.4byte	0x111
 17090 3706 01       		.byte	0x1
 17091 3707 00       		.byte	0
 17092 3708 25       		.uleb128 0x25
 17093 3709 D80F0000 		.4byte	.LASF311
 17094 370d 01       		.byte	0x1
 17095 370e 54       		.byte	0x54
 17096 370f F8360000 		.4byte	0x36f8
 17097 3713 05       		.uleb128 0x5
 17098 3714 03       		.byte	0x3
 17099 3715 00000000 		.4byte	rtdRes
 17100 3719 25       		.uleb128 0x25
 17101 371a 47090000 		.4byte	.LASF312
 17102 371e 01       		.byte	0x1
 17103 371f 55       		.byte	0x55
 17104 3720 F8360000 		.4byte	0x36f8
 17105 3724 05       		.uleb128 0x5
 17106 3725 03       		.byte	0x3
 17107 3726 00000000 		.4byte	rtdTemp
 17108 372a 25       		.uleb128 0x25
 17109 372b 8A0E0000 		.4byte	.LASF313
 17110 372f 01       		.byte	0x1
 17111 3730 56       		.byte	0x56
 17112 3731 F0000000 		.4byte	0xf0
 17113 3735 05       		.uleb128 0x5
 17114 3736 03       		.byte	0x3
 17115 3737 00000000 		.4byte	vRef
 17116 373b 25       		.uleb128 0x25
 17117 373c 67060000 		.4byte	.LASF314
ARM GAS  C:\Users\USUARIO\AppData\Local\Temp\ccWuTYF0.s 			page 331


 17118 3740 01       		.byte	0x1
 17119 3741 56       		.byte	0x56
 17120 3742 F0000000 		.4byte	0xf0
 17121 3746 05       		.uleb128 0x5
 17122 3747 03       		.byte	0x3
 17123 3748 00000000 		.4byte	filt
 17124 374c 25       		.uleb128 0x25
 17125 374d 1B0F0000 		.4byte	.LASF43
 17126 3751 01       		.byte	0x1
 17127 3752 57       		.byte	0x57
 17128 3753 B4000000 		.4byte	0xb4
 17129 3757 05       		.uleb128 0x5
 17130 3758 03       		.byte	0x3
 17131 3759 00000000 		.4byte	entero
 17132 375d 28       		.uleb128 0x28
 17133 375e 6C6C00   		.ascii	"ll\000"
 17134 3761 01       		.byte	0x1
 17135 3762 58       		.byte	0x58
 17136 3763 B4000000 		.4byte	0xb4
 17137 3767 05       		.uleb128 0x5
 17138 3768 03       		.byte	0x3
 17139 3769 00000000 		.4byte	ll
 17140 376d 28       		.uleb128 0x28
 17141 376e 686800   		.ascii	"hh\000"
 17142 3771 01       		.byte	0x1
 17143 3772 58       		.byte	0x58
 17144 3773 B4000000 		.4byte	0xb4
 17145 3777 05       		.uleb128 0x5
 17146 3778 03       		.byte	0x3
 17147 3779 00000000 		.4byte	hh
 17148 377d 25       		.uleb128 0x25
 17149 377e DA050000 		.4byte	.LASF315
 17150 3782 01       		.byte	0x1
 17151 3783 59       		.byte	0x59
 17152 3784 F8360000 		.4byte	0x36f8
 17153 3788 05       		.uleb128 0x5
 17154 3789 03       		.byte	0x3
 17155 378a 00000000 		.4byte	decTemp
 17156 378e 25       		.uleb128 0x25
 17157 378f 49080000 		.4byte	.LASF316
 17158 3793 01       		.byte	0x1
 17159 3794 5A       		.byte	0x5a
 17160 3795 C0000000 		.4byte	0xc0
 17161 3799 05       		.uleb128 0x5
 17162 379a 03       		.byte	0x3
 17163 379b 00000000 		.4byte	decTemplf
 17164 379f 25       		.uleb128 0x25
 17165 37a0 B9060000 		.4byte	.LASF317
 17166 37a4 01       		.byte	0x1
 17167 37a5 5A       		.byte	0x5a
 17168 37a6 C0000000 		.4byte	0xc0
 17169 37aa 05       		.uleb128 0x5
 17170 37ab 03       		.byte	0x3
 17171 37ac 00000000 		.4byte	decTemphf
 17172 37b0 25       		.uleb128 0x25
 17173 37b1 FB0E0000 		.4byte	.LASF318
 17174 37b5 01       		.byte	0x1
ARM GAS  C:\Users\USUARIO\AppData\Local\Temp\ccWuTYF0.s 			page 332


 17175 37b6 5B       		.byte	0x5b
 17176 37b7 F8360000 		.4byte	0x36f8
 17177 37bb 05       		.uleb128 0x5
 17178 37bc 03       		.byte	0x3
 17179 37bd 00000000 		.4byte	fracTemp
 17180 37c1 25       		.uleb128 0x25
 17181 37c2 69010000 		.4byte	.LASF319
 17182 37c6 01       		.byte	0x1
 17183 37c7 5C       		.byte	0x5c
 17184 37c8 C0000000 		.4byte	0xc0
 17185 37cc 05       		.uleb128 0x5
 17186 37cd 03       		.byte	0x3
 17187 37ce 00000000 		.4byte	adcReading
 17188 37d2 25       		.uleb128 0x25
 17189 37d3 1D040000 		.4byte	.LASF320
 17190 37d7 01       		.byte	0x1
 17191 37d8 5C       		.byte	0x5c
 17192 37d9 C0000000 		.4byte	0xc0
 17193 37dd 05       		.uleb128 0x5
 17194 37de 03       		.byte	0x3
 17195 37df 00000000 		.4byte	presmV
 17196 37e3 25       		.uleb128 0x25
 17197 37e4 53050000 		.4byte	.LASF321
 17198 37e8 01       		.byte	0x1
 17199 37e9 5D       		.byte	0x5d
 17200 37ea CC000000 		.4byte	0xcc
 17201 37ee 05       		.uleb128 0x5
 17202 37ef 03       		.byte	0x3
 17203 37f0 00000000 		.4byte	lm35
 17204 37f4 28       		.uleb128 0x28
 17205 37f5 746D7000 		.ascii	"tmp\000"
 17206 37f9 01       		.byte	0x1
 17207 37fa 5D       		.byte	0x5d
 17208 37fb CC000000 		.4byte	0xcc
 17209 37ff 05       		.uleb128 0x5
 17210 3800 03       		.byte	0x3
 17211 3801 00000000 		.4byte	tmp
 17212 3805 25       		.uleb128 0x25
 17213 3806 D00C0000 		.4byte	.LASF322
 17214 380a 01       		.byte	0x1
 17215 380b 5E       		.byte	0x5e
 17216 380c 25000000 		.4byte	0x25
 17217 3810 05       		.uleb128 0x5
 17218 3811 03       		.byte	0x3
 17219 3812 00000000 		.4byte	presion
 17220 3816 25       		.uleb128 0x25
 17221 3817 8F060000 		.4byte	.LASF323
 17222 381b 01       		.byte	0x1
 17223 381c 5E       		.byte	0x5e
 17224 381d 25000000 		.4byte	0x25
 17225 3821 05       		.uleb128 0x5
 17226 3822 03       		.byte	0x3
 17227 3823 00000000 		.4byte	Temporal
 17228 3827 25       		.uleb128 0x25
 17229 3828 BA040000 		.4byte	.LASF324
 17230 382c 01       		.byte	0x1
 17231 382d 5E       		.byte	0x5e
ARM GAS  C:\Users\USUARIO\AppData\Local\Temp\ccWuTYF0.s 			page 333


 17232 382e 25000000 		.4byte	0x25
 17233 3832 05       		.uleb128 0x5
 17234 3833 03       		.byte	0x3
 17235 3834 00000000 		.4byte	presionHorno
 17236 3838 28       		.uleb128 0x28
 17237 3839 6C3200   		.ascii	"l2\000"
 17238 383c 01       		.byte	0x1
 17239 383d 60       		.byte	0x60
 17240 383e B4000000 		.4byte	0xb4
 17241 3842 05       		.uleb128 0x5
 17242 3843 03       		.byte	0x3
 17243 3844 00000000 		.4byte	l2
 17244 3848 28       		.uleb128 0x28
 17245 3849 683200   		.ascii	"h2\000"
 17246 384c 01       		.byte	0x1
 17247 384d 60       		.byte	0x60
 17248 384e B4000000 		.4byte	0xb4
 17249 3852 05       		.uleb128 0x5
 17250 3853 03       		.byte	0x3
 17251 3854 00000000 		.4byte	h2
 17252 3858 28       		.uleb128 0x28
 17253 3859 6B00     		.ascii	"k\000"
 17254 385b 01       		.byte	0x1
 17255 385c 60       		.byte	0x60
 17256 385d B4000000 		.4byte	0xb4
 17257 3861 05       		.uleb128 0x5
 17258 3862 03       		.byte	0x3
 17259 3863 00000000 		.4byte	k
 17260 3867 28       		.uleb128 0x28
 17261 3868 6B6B00   		.ascii	"kk\000"
 17262 386b 01       		.byte	0x1
 17263 386c 60       		.byte	0x60
 17264 386d B4000000 		.4byte	0xb4
 17265 3871 05       		.uleb128 0x5
 17266 3872 03       		.byte	0x3
 17267 3873 00000000 		.4byte	kk
 17268 3877 25       		.uleb128 0x25
 17269 3878 8F0E0000 		.4byte	.LASF325
 17270 387c 01       		.byte	0x1
 17271 387d 60       		.byte	0x60
 17272 387e B4000000 		.4byte	0xb4
 17273 3882 05       		.uleb128 0x5
 17274 3883 03       		.byte	0x3
 17275 3884 00000000 		.4byte	tEnvioUSB
 17276 3888 25       		.uleb128 0x25
 17277 3889 5C090000 		.4byte	.LASF326
 17278 388d 01       		.byte	0x1
 17279 388e 60       		.byte	0x60
 17280 388f B4000000 		.4byte	0xb4
 17281 3893 05       		.uleb128 0x5
 17282 3894 03       		.byte	0x3
 17283 3895 00000000 		.4byte	tmuestreoUSB
 17284 3899 25       		.uleb128 0x25
 17285 389a 110D0000 		.4byte	.LASF327
 17286 389e 01       		.byte	0x1
 17287 389f 60       		.byte	0x60
 17288 38a0 B4000000 		.4byte	0xb4
ARM GAS  C:\Users\USUARIO\AppData\Local\Temp\ccWuTYF0.s 			page 334


 17289 38a4 05       		.uleb128 0x5
 17290 38a5 03       		.byte	0x3
 17291 38a6 00000000 		.4byte	tmuestreoUSB_ant
 17292 38aa 25       		.uleb128 0x25
 17293 38ab 470A0000 		.4byte	.LASF328
 17294 38af 01       		.byte	0x1
 17295 38b0 60       		.byte	0x60
 17296 38b1 B4000000 		.4byte	0xb4
 17297 38b5 05       		.uleb128 0x5
 17298 38b6 03       		.byte	0x3
 17299 38b7 00000000 		.4byte	controlH
 17300 38bb 25       		.uleb128 0x25
 17301 38bc 590A0000 		.4byte	.LASF329
 17302 38c0 01       		.byte	0x1
 17303 38c1 60       		.byte	0x60
 17304 38c2 B4000000 		.4byte	0xb4
 17305 38c6 05       		.uleb128 0x5
 17306 38c7 03       		.byte	0x3
 17307 38c8 00000000 		.4byte	controlT
 17308 38cc 25       		.uleb128 0x25
 17309 38cd 500A0000 		.4byte	.LASF330
 17310 38d1 01       		.byte	0x1
 17311 38d2 60       		.byte	0x60
 17312 38d3 B4000000 		.4byte	0xb4
 17313 38d7 05       		.uleb128 0x5
 17314 38d8 03       		.byte	0x3
 17315 38d9 00000000 		.4byte	controlR
 17316 38dd 07       		.uleb128 0x7
 17317 38de 25000000 		.4byte	0x25
 17318 38e2 ED380000 		.4byte	0x38ed
 17319 38e6 08       		.uleb128 0x8
 17320 38e7 11010000 		.4byte	0x111
 17321 38eb 13       		.byte	0x13
 17322 38ec 00       		.byte	0
 17323 38ed 25       		.uleb128 0x25
 17324 38ee 360D0000 		.4byte	.LASF331
 17325 38f2 01       		.byte	0x1
 17326 38f3 61       		.byte	0x61
 17327 38f4 DD380000 		.4byte	0x38dd
 17328 38f8 05       		.uleb128 0x5
 17329 38f9 03       		.byte	0x3
 17330 38fa 00000000 		.4byte	promedio2
 17331 38fe 07       		.uleb128 0x7
 17332 38ff 25000000 		.4byte	0x25
 17333 3903 0E390000 		.4byte	0x390e
 17334 3907 08       		.uleb128 0x8
 17335 3908 11010000 		.4byte	0x111
 17336 390c 59       		.byte	0x59
 17337 390d 00       		.byte	0
 17338 390e 25       		.uleb128 0x25
 17339 390f 2C080000 		.4byte	.LASF332
 17340 3913 01       		.byte	0x1
 17341 3914 63       		.byte	0x63
 17342 3915 FE380000 		.4byte	0x38fe
 17343 3919 05       		.uleb128 0x5
 17344 391a 03       		.byte	0x3
 17345 391b 00000000 		.4byte	promedioT1
ARM GAS  C:\Users\USUARIO\AppData\Local\Temp\ccWuTYF0.s 			page 335


 17346 391f 25       		.uleb128 0x25
 17347 3920 37080000 		.4byte	.LASF333
 17348 3924 01       		.byte	0x1
 17349 3925 64       		.byte	0x64
 17350 3926 FE380000 		.4byte	0x38fe
 17351 392a 05       		.uleb128 0x5
 17352 392b 03       		.byte	0x3
 17353 392c 00000000 		.4byte	promedioT2
 17354 3930 25       		.uleb128 0x25
 17355 3931 A6010000 		.4byte	.LASF334
 17356 3935 01       		.byte	0x1
 17357 3936 65       		.byte	0x65
 17358 3937 DD380000 		.4byte	0x38dd
 17359 393b 05       		.uleb128 0x5
 17360 393c 03       		.byte	0x3
 17361 393d 00000000 		.4byte	promediolm35
 17362 3941 25       		.uleb128 0x25
 17363 3942 9B0D0000 		.4byte	.LASF335
 17364 3946 01       		.byte	0x1
 17365 3947 32       		.byte	0x32
 17366 3948 F0000000 		.4byte	0xf0
 17367 394c 05       		.uleb128 0x5
 17368 394d 03       		.byte	0x3
 17369 394e 00000000 		.4byte	Temperature2
 17370 3952 2A       		.uleb128 0x2a
 17371 3953 41020000 		.4byte	.LASF336
 17372 3957 41020000 		.4byte	.LASF336
 17373 395b 07       		.byte	0x7
 17374 395c 23       		.byte	0x23
 17375 395d 2A       		.uleb128 0x2a
 17376 395e 2B0F0000 		.4byte	.LASF337
 17377 3962 2B0F0000 		.4byte	.LASF337
 17378 3966 08       		.byte	0x8
 17379 3967 76       		.byte	0x76
 17380 3968 2A       		.uleb128 0x2a
 17381 3969 0E090000 		.4byte	.LASF338
 17382 396d 0E090000 		.4byte	.LASF338
 17383 3971 07       		.byte	0x7
 17384 3972 21       		.byte	0x21
 17385 3973 2A       		.uleb128 0x2a
 17386 3974 F7080000 		.4byte	.LASF339
 17387 3978 F7080000 		.4byte	.LASF339
 17388 397c 09       		.byte	0x9
 17389 397d 26       		.byte	0x26
 17390 397e 2A       		.uleb128 0x2a
 17391 397f 570D0000 		.4byte	.LASF340
 17392 3983 570D0000 		.4byte	.LASF340
 17393 3987 0A       		.byte	0xa
 17394 3988 C7       		.byte	0xc7
 17395 3989 2A       		.uleb128 0x2a
 17396 398a 690D0000 		.4byte	.LASF341
 17397 398e 690D0000 		.4byte	.LASF341
 17398 3992 0A       		.byte	0xa
 17399 3993 CA       		.byte	0xca
 17400 3994 2A       		.uleb128 0x2a
 17401 3995 0C0B0000 		.4byte	.LASF342
 17402 3999 0C0B0000 		.4byte	.LASF342
ARM GAS  C:\Users\USUARIO\AppData\Local\Temp\ccWuTYF0.s 			page 336


 17403 399d 0B       		.byte	0xb
 17404 399e 8B       		.byte	0x8b
 17405 399f 2A       		.uleb128 0x2a
 17406 39a0 520C0000 		.4byte	.LASF343
 17407 39a4 520C0000 		.4byte	.LASF343
 17408 39a8 08       		.byte	0x8
 17409 39a9 77       		.byte	0x77
 17410 39aa 2A       		.uleb128 0x2a
 17411 39ab B70C0000 		.4byte	.LASF344
 17412 39af B70C0000 		.4byte	.LASF344
 17413 39b3 0B       		.byte	0xb
 17414 39b4 8A       		.byte	0x8a
 17415 39b5 2A       		.uleb128 0x2a
 17416 39b6 780A0000 		.4byte	.LASF345
 17417 39ba 780A0000 		.4byte	.LASF345
 17418 39be 0C       		.byte	0xc
 17419 39bf 8B       		.byte	0x8b
 17420 39c0 2A       		.uleb128 0x2a
 17421 39c1 54100000 		.4byte	.LASF346
 17422 39c5 54100000 		.4byte	.LASF346
 17423 39c9 0C       		.byte	0xc
 17424 39ca 8A       		.byte	0x8a
 17425 39cb 2A       		.uleb128 0x2a
 17426 39cc A5040000 		.4byte	.LASF347
 17427 39d0 A5040000 		.4byte	.LASF347
 17428 39d4 0D       		.byte	0xd
 17429 39d5 3D       		.byte	0x3d
 17430 39d6 2A       		.uleb128 0x2a
 17431 39d7 AF060000 		.4byte	.LASF348
 17432 39db AF060000 		.4byte	.LASF348
 17433 39df 0D       		.byte	0xd
 17434 39e0 40       		.byte	0x40
 17435 39e1 2A       		.uleb128 0x2a
 17436 39e2 E80E0000 		.4byte	.LASF349
 17437 39e6 E80E0000 		.4byte	.LASF349
 17438 39ea 0E       		.byte	0xe
 17439 39eb 30       		.byte	0x30
 17440 39ec 2A       		.uleb128 0x2a
 17441 39ed 63100000 		.4byte	.LASF350
 17442 39f1 63100000 		.4byte	.LASF350
 17443 39f5 0F       		.byte	0xf
 17444 39f6 34       		.byte	0x34
 17445 39f7 2A       		.uleb128 0x2a
 17446 39f8 F80A0000 		.4byte	.LASF351
 17447 39fc F80A0000 		.4byte	.LASF351
 17448 3a00 0F       		.byte	0xf
 17449 3a01 35       		.byte	0x35
 17450 3a02 2A       		.uleb128 0x2a
 17451 3a03 650E0000 		.4byte	.LASF352
 17452 3a07 650E0000 		.4byte	.LASF352
 17453 3a0b 0F       		.byte	0xf
 17454 3a0c 3A       		.byte	0x3a
 17455 3a0d 2A       		.uleb128 0x2a
 17456 3a0e 51020000 		.4byte	.LASF353
 17457 3a12 51020000 		.4byte	.LASF353
 17458 3a16 0F       		.byte	0xf
 17459 3a17 3C       		.byte	0x3c
ARM GAS  C:\Users\USUARIO\AppData\Local\Temp\ccWuTYF0.s 			page 337


 17460 3a18 2B       		.uleb128 0x2b
 17461 3a19 706F7700 		.ascii	"pow\000"
 17462 3a1d 706F7700 		.ascii	"pow\000"
 17463 3a21 1F       		.byte	0x1f
 17464 3a22 86       		.byte	0x86
 17465 3a23 2A       		.uleb128 0x2a
 17466 3a24 17020000 		.4byte	.LASF354
 17467 3a28 17020000 		.4byte	.LASF354
 17468 3a2c 10       		.byte	0x10
 17469 3a2d 26       		.byte	0x26
 17470 3a2e 2A       		.uleb128 0x2a
 17471 3a2f C8050000 		.4byte	.LASF355
 17472 3a33 C8050000 		.4byte	.LASF355
 17473 3a37 11       		.byte	0x11
 17474 3a38 26       		.byte	0x26
 17475 3a39 2A       		.uleb128 0x2a
 17476 3a3a 85060000 		.4byte	.LASF356
 17477 3a3e 85060000 		.4byte	.LASF356
 17478 3a42 12       		.byte	0x12
 17479 3a43 26       		.byte	0x26
 17480 3a44 2A       		.uleb128 0x2a
 17481 3a45 1C070000 		.4byte	.LASF357
 17482 3a49 1C070000 		.4byte	.LASF357
 17483 3a4d 13       		.byte	0x13
 17484 3a4e 26       		.byte	0x26
 17485 3a4f 2A       		.uleb128 0x2a
 17486 3a50 90070000 		.4byte	.LASF358
 17487 3a54 90070000 		.4byte	.LASF358
 17488 3a58 14       		.byte	0x14
 17489 3a59 26       		.byte	0x26
 17490 3a5a 2A       		.uleb128 0x2a
 17491 3a5b 5B0E0000 		.4byte	.LASF359
 17492 3a5f 5B0E0000 		.4byte	.LASF359
 17493 3a63 15       		.byte	0x15
 17494 3a64 26       		.byte	0x26
 17495 3a65 2A       		.uleb128 0x2a
 17496 3a66 BF0F0000 		.4byte	.LASF360
 17497 3a6a BF0F0000 		.4byte	.LASF360
 17498 3a6e 16       		.byte	0x16
 17499 3a6f 26       		.byte	0x26
 17500 3a70 2A       		.uleb128 0x2a
 17501 3a71 EA010000 		.4byte	.LASF361
 17502 3a75 EA010000 		.4byte	.LASF361
 17503 3a79 17       		.byte	0x17
 17504 3a7a 26       		.byte	0x26
 17505 3a7b 2A       		.uleb128 0x2a
 17506 3a7c 9B010000 		.4byte	.LASF362
 17507 3a80 9B010000 		.4byte	.LASF362
 17508 3a84 18       		.byte	0x18
 17509 3a85 29       		.byte	0x29
 17510 3a86 2A       		.uleb128 0x2a
 17511 3a87 040F0000 		.4byte	.LASF363
 17512 3a8b 040F0000 		.4byte	.LASF363
 17513 3a8f 19       		.byte	0x19
 17514 3a90 29       		.byte	0x29
 17515 3a91 2A       		.uleb128 0x2a
 17516 3a92 88070000 		.4byte	.LASF364
ARM GAS  C:\Users\USUARIO\AppData\Local\Temp\ccWuTYF0.s 			page 338


 17517 3a96 88070000 		.4byte	.LASF364
 17518 3a9a 1A       		.byte	0x1a
 17519 3a9b E7       		.byte	0xe7
 17520 3a9c 2C       		.uleb128 0x2c
 17521 3a9d 710C0000 		.4byte	.LASF365
 17522 3aa1 710C0000 		.4byte	.LASF365
 17523 3aa5 1B       		.byte	0x1b
 17524 3aa6 2D01     		.2byte	0x12d
 17525 3aa8 2A       		.uleb128 0x2a
 17526 3aa9 42060000 		.4byte	.LASF366
 17527 3aad 42060000 		.4byte	.LASF366
 17528 3ab1 1C       		.byte	0x1c
 17529 3ab2 22       		.byte	0x22
 17530 3ab3 2A       		.uleb128 0x2a
 17531 3ab4 32050000 		.4byte	.LASF367
 17532 3ab8 32050000 		.4byte	.LASF367
 17533 3abc 1C       		.byte	0x1c
 17534 3abd 24       		.byte	0x24
 17535 3abe 2C       		.uleb128 0x2c
 17536 3abf C80D0000 		.4byte	.LASF368
 17537 3ac3 C80D0000 		.4byte	.LASF368
 17538 3ac7 1D       		.byte	0x1d
 17539 3ac8 6401     		.2byte	0x164
 17540 3aca 2C       		.uleb128 0x2c
 17541 3acb B3080000 		.4byte	.LASF369
 17542 3acf B3080000 		.4byte	.LASF369
 17543 3ad3 1D       		.byte	0x1d
 17544 3ad4 7101     		.2byte	0x171
 17545 3ad6 2C       		.uleb128 0x2c
 17546 3ad7 9D000000 		.4byte	.LASF370
 17547 3adb 9D000000 		.4byte	.LASF370
 17548 3adf 1D       		.byte	0x1d
 17549 3ae0 A401     		.2byte	0x1a4
 17550 3ae2 2C       		.uleb128 0x2c
 17551 3ae3 65000000 		.4byte	.LASF371
 17552 3ae7 65000000 		.4byte	.LASF371
 17553 3aeb 1D       		.byte	0x1d
 17554 3aec 5401     		.2byte	0x154
 17555 3aee 2D       		.uleb128 0x2d
 17556 3aef 970C0000 		.4byte	.LASF380
 17557 3af3 970C0000 		.4byte	.LASF380
 17558 3af7 2C       		.uleb128 0x2c
 17559 3af8 53080000 		.4byte	.LASF372
 17560 3afc 53080000 		.4byte	.LASF372
 17561 3b00 1D       		.byte	0x1d
 17562 3b01 E401     		.2byte	0x1e4
 17563 3b03 2A       		.uleb128 0x2a
 17564 3b04 A4060000 		.4byte	.LASF373
 17565 3b08 A4060000 		.4byte	.LASF373
 17566 3b0c 1E       		.byte	0x1e
 17567 3b0d 18       		.byte	0x18
 17568 3b0e 2C       		.uleb128 0x2c
 17569 3b0f 8A0F0000 		.4byte	.LASF374
 17570 3b13 8A0F0000 		.4byte	.LASF374
 17571 3b17 1D       		.byte	0x1d
 17572 3b18 B001     		.2byte	0x1b0
 17573 3b1a 2C       		.uleb128 0x2c
ARM GAS  C:\Users\USUARIO\AppData\Local\Temp\ccWuTYF0.s 			page 339


 17574 3b1b F70C0000 		.4byte	.LASF375
 17575 3b1f F70C0000 		.4byte	.LASF375
 17576 3b23 1D       		.byte	0x1d
 17577 3b24 3201     		.2byte	0x132
 17578 3b26 00       		.byte	0
 17579              		.section	.debug_abbrev,"",%progbits
 17580              	.Ldebug_abbrev0:
 17581 0000 01       		.uleb128 0x1
 17582 0001 11       		.uleb128 0x11
 17583 0002 01       		.byte	0x1
 17584 0003 25       		.uleb128 0x25
 17585 0004 0E       		.uleb128 0xe
 17586 0005 13       		.uleb128 0x13
 17587 0006 0B       		.uleb128 0xb
 17588 0007 03       		.uleb128 0x3
 17589 0008 0E       		.uleb128 0xe
 17590 0009 1B       		.uleb128 0x1b
 17591 000a 0E       		.uleb128 0xe
 17592 000b 55       		.uleb128 0x55
 17593 000c 17       		.uleb128 0x17
 17594 000d 11       		.uleb128 0x11
 17595 000e 01       		.uleb128 0x1
 17596 000f 10       		.uleb128 0x10
 17597 0010 17       		.uleb128 0x17
 17598 0011 00       		.byte	0
 17599 0012 00       		.byte	0
 17600 0013 02       		.uleb128 0x2
 17601 0014 24       		.uleb128 0x24
 17602 0015 00       		.byte	0
 17603 0016 0B       		.uleb128 0xb
 17604 0017 0B       		.uleb128 0xb
 17605 0018 3E       		.uleb128 0x3e
 17606 0019 0B       		.uleb128 0xb
 17607 001a 03       		.uleb128 0x3
 17608 001b 0E       		.uleb128 0xe
 17609 001c 00       		.byte	0
 17610 001d 00       		.byte	0
 17611 001e 03       		.uleb128 0x3
 17612 001f 16       		.uleb128 0x16
 17613 0020 00       		.byte	0
 17614 0021 03       		.uleb128 0x3
 17615 0022 0E       		.uleb128 0xe
 17616 0023 3A       		.uleb128 0x3a
 17617 0024 0B       		.uleb128 0xb
 17618 0025 3B       		.uleb128 0x3b
 17619 0026 0B       		.uleb128 0xb
 17620 0027 49       		.uleb128 0x49
 17621 0028 13       		.uleb128 0x13
 17622 0029 00       		.byte	0
 17623 002a 00       		.byte	0
 17624 002b 04       		.uleb128 0x4
 17625 002c 24       		.uleb128 0x24
 17626 002d 00       		.byte	0
 17627 002e 0B       		.uleb128 0xb
 17628 002f 0B       		.uleb128 0xb
 17629 0030 3E       		.uleb128 0x3e
 17630 0031 0B       		.uleb128 0xb
ARM GAS  C:\Users\USUARIO\AppData\Local\Temp\ccWuTYF0.s 			page 340


 17631 0032 03       		.uleb128 0x3
 17632 0033 08       		.uleb128 0x8
 17633 0034 00       		.byte	0
 17634 0035 00       		.byte	0
 17635 0036 05       		.uleb128 0x5
 17636 0037 16       		.uleb128 0x16
 17637 0038 00       		.byte	0
 17638 0039 03       		.uleb128 0x3
 17639 003a 0E       		.uleb128 0xe
 17640 003b 3A       		.uleb128 0x3a
 17641 003c 0B       		.uleb128 0xb
 17642 003d 3B       		.uleb128 0x3b
 17643 003e 05       		.uleb128 0x5
 17644 003f 49       		.uleb128 0x49
 17645 0040 13       		.uleb128 0x13
 17646 0041 00       		.byte	0
 17647 0042 00       		.byte	0
 17648 0043 06       		.uleb128 0x6
 17649 0044 0F       		.uleb128 0xf
 17650 0045 00       		.byte	0
 17651 0046 0B       		.uleb128 0xb
 17652 0047 0B       		.uleb128 0xb
 17653 0048 49       		.uleb128 0x49
 17654 0049 13       		.uleb128 0x13
 17655 004a 00       		.byte	0
 17656 004b 00       		.byte	0
 17657 004c 07       		.uleb128 0x7
 17658 004d 01       		.uleb128 0x1
 17659 004e 01       		.byte	0x1
 17660 004f 49       		.uleb128 0x49
 17661 0050 13       		.uleb128 0x13
 17662 0051 01       		.uleb128 0x1
 17663 0052 13       		.uleb128 0x13
 17664 0053 00       		.byte	0
 17665 0054 00       		.byte	0
 17666 0055 08       		.uleb128 0x8
 17667 0056 21       		.uleb128 0x21
 17668 0057 00       		.byte	0
 17669 0058 49       		.uleb128 0x49
 17670 0059 13       		.uleb128 0x13
 17671 005a 2F       		.uleb128 0x2f
 17672 005b 0B       		.uleb128 0xb
 17673 005c 00       		.byte	0
 17674 005d 00       		.byte	0
 17675 005e 09       		.uleb128 0x9
 17676 005f 13       		.uleb128 0x13
 17677 0060 01       		.byte	0x1
 17678 0061 0B       		.uleb128 0xb
 17679 0062 0B       		.uleb128 0xb
 17680 0063 3A       		.uleb128 0x3a
 17681 0064 0B       		.uleb128 0xb
 17682 0065 3B       		.uleb128 0x3b
 17683 0066 0B       		.uleb128 0xb
 17684 0067 01       		.uleb128 0x1
 17685 0068 13       		.uleb128 0x13
 17686 0069 00       		.byte	0
 17687 006a 00       		.byte	0
ARM GAS  C:\Users\USUARIO\AppData\Local\Temp\ccWuTYF0.s 			page 341


 17688 006b 0A       		.uleb128 0xa
 17689 006c 0D       		.uleb128 0xd
 17690 006d 00       		.byte	0
 17691 006e 03       		.uleb128 0x3
 17692 006f 0E       		.uleb128 0xe
 17693 0070 3A       		.uleb128 0x3a
 17694 0071 0B       		.uleb128 0xb
 17695 0072 3B       		.uleb128 0x3b
 17696 0073 0B       		.uleb128 0xb
 17697 0074 49       		.uleb128 0x49
 17698 0075 13       		.uleb128 0x13
 17699 0076 38       		.uleb128 0x38
 17700 0077 0B       		.uleb128 0xb
 17701 0078 00       		.byte	0
 17702 0079 00       		.byte	0
 17703 007a 0B       		.uleb128 0xb
 17704 007b 0D       		.uleb128 0xd
 17705 007c 00       		.byte	0
 17706 007d 03       		.uleb128 0x3
 17707 007e 08       		.uleb128 0x8
 17708 007f 3A       		.uleb128 0x3a
 17709 0080 0B       		.uleb128 0xb
 17710 0081 3B       		.uleb128 0x3b
 17711 0082 0B       		.uleb128 0xb
 17712 0083 49       		.uleb128 0x49
 17713 0084 13       		.uleb128 0x13
 17714 0085 38       		.uleb128 0x38
 17715 0086 0B       		.uleb128 0xb
 17716 0087 00       		.byte	0
 17717 0088 00       		.byte	0
 17718 0089 0C       		.uleb128 0xc
 17719 008a 2E       		.uleb128 0x2e
 17720 008b 01       		.byte	0x1
 17721 008c 3F       		.uleb128 0x3f
 17722 008d 19       		.uleb128 0x19
 17723 008e 03       		.uleb128 0x3
 17724 008f 0E       		.uleb128 0xe
 17725 0090 3A       		.uleb128 0x3a
 17726 0091 0B       		.uleb128 0xb
 17727 0092 3B       		.uleb128 0x3b
 17728 0093 0B       		.uleb128 0xb
 17729 0094 27       		.uleb128 0x27
 17730 0095 19       		.uleb128 0x19
 17731 0096 49       		.uleb128 0x49
 17732 0097 13       		.uleb128 0x13
 17733 0098 11       		.uleb128 0x11
 17734 0099 01       		.uleb128 0x1
 17735 009a 12       		.uleb128 0x12
 17736 009b 06       		.uleb128 0x6
 17737 009c 40       		.uleb128 0x40
 17738 009d 18       		.uleb128 0x18
 17739 009e 9642     		.uleb128 0x2116
 17740 00a0 19       		.uleb128 0x19
 17741 00a1 01       		.uleb128 0x1
 17742 00a2 13       		.uleb128 0x13
 17743 00a3 00       		.byte	0
 17744 00a4 00       		.byte	0
ARM GAS  C:\Users\USUARIO\AppData\Local\Temp\ccWuTYF0.s 			page 342


 17745 00a5 0D       		.uleb128 0xd
 17746 00a6 05       		.uleb128 0x5
 17747 00a7 00       		.byte	0
 17748 00a8 03       		.uleb128 0x3
 17749 00a9 0E       		.uleb128 0xe
 17750 00aa 3A       		.uleb128 0x3a
 17751 00ab 0B       		.uleb128 0xb
 17752 00ac 3B       		.uleb128 0x3b
 17753 00ad 0B       		.uleb128 0xb
 17754 00ae 49       		.uleb128 0x49
 17755 00af 13       		.uleb128 0x13
 17756 00b0 02       		.uleb128 0x2
 17757 00b1 17       		.uleb128 0x17
 17758 00b2 00       		.byte	0
 17759 00b3 00       		.byte	0
 17760 00b4 0E       		.uleb128 0xe
 17761 00b5 34       		.uleb128 0x34
 17762 00b6 00       		.byte	0
 17763 00b7 03       		.uleb128 0x3
 17764 00b8 0E       		.uleb128 0xe
 17765 00b9 3A       		.uleb128 0x3a
 17766 00ba 0B       		.uleb128 0xb
 17767 00bb 3B       		.uleb128 0x3b
 17768 00bc 0B       		.uleb128 0xb
 17769 00bd 49       		.uleb128 0x49
 17770 00be 13       		.uleb128 0x13
 17771 00bf 02       		.uleb128 0x2
 17772 00c0 17       		.uleb128 0x17
 17773 00c1 00       		.byte	0
 17774 00c2 00       		.byte	0
 17775 00c3 0F       		.uleb128 0xf
 17776 00c4 34       		.uleb128 0x34
 17777 00c5 00       		.byte	0
 17778 00c6 03       		.uleb128 0x3
 17779 00c7 08       		.uleb128 0x8
 17780 00c8 3A       		.uleb128 0x3a
 17781 00c9 0B       		.uleb128 0xb
 17782 00ca 3B       		.uleb128 0x3b
 17783 00cb 0B       		.uleb128 0xb
 17784 00cc 49       		.uleb128 0x49
 17785 00cd 13       		.uleb128 0x13
 17786 00ce 02       		.uleb128 0x2
 17787 00cf 17       		.uleb128 0x17
 17788 00d0 00       		.byte	0
 17789 00d1 00       		.byte	0
 17790 00d2 10       		.uleb128 0x10
 17791 00d3 2E       		.uleb128 0x2e
 17792 00d4 01       		.byte	0x1
 17793 00d5 3F       		.uleb128 0x3f
 17794 00d6 19       		.uleb128 0x19
 17795 00d7 03       		.uleb128 0x3
 17796 00d8 0E       		.uleb128 0xe
 17797 00d9 3A       		.uleb128 0x3a
 17798 00da 0B       		.uleb128 0xb
 17799 00db 3B       		.uleb128 0x3b
 17800 00dc 0B       		.uleb128 0xb
 17801 00dd 27       		.uleb128 0x27
ARM GAS  C:\Users\USUARIO\AppData\Local\Temp\ccWuTYF0.s 			page 343


 17802 00de 19       		.uleb128 0x19
 17803 00df 49       		.uleb128 0x49
 17804 00e0 13       		.uleb128 0x13
 17805 00e1 11       		.uleb128 0x11
 17806 00e2 01       		.uleb128 0x1
 17807 00e3 12       		.uleb128 0x12
 17808 00e4 06       		.uleb128 0x6
 17809 00e5 40       		.uleb128 0x40
 17810 00e6 18       		.uleb128 0x18
 17811 00e7 9742     		.uleb128 0x2117
 17812 00e9 19       		.uleb128 0x19
 17813 00ea 01       		.uleb128 0x1
 17814 00eb 13       		.uleb128 0x13
 17815 00ec 00       		.byte	0
 17816 00ed 00       		.byte	0
 17817 00ee 11       		.uleb128 0x11
 17818 00ef 05       		.uleb128 0x5
 17819 00f0 00       		.byte	0
 17820 00f1 03       		.uleb128 0x3
 17821 00f2 0E       		.uleb128 0xe
 17822 00f3 3A       		.uleb128 0x3a
 17823 00f4 0B       		.uleb128 0xb
 17824 00f5 3B       		.uleb128 0x3b
 17825 00f6 0B       		.uleb128 0xb
 17826 00f7 49       		.uleb128 0x49
 17827 00f8 13       		.uleb128 0x13
 17828 00f9 02       		.uleb128 0x2
 17829 00fa 18       		.uleb128 0x18
 17830 00fb 00       		.byte	0
 17831 00fc 00       		.byte	0
 17832 00fd 12       		.uleb128 0x12
 17833 00fe 2E       		.uleb128 0x2e
 17834 00ff 01       		.byte	0x1
 17835 0100 3F       		.uleb128 0x3f
 17836 0101 19       		.uleb128 0x19
 17837 0102 03       		.uleb128 0x3
 17838 0103 0E       		.uleb128 0xe
 17839 0104 3A       		.uleb128 0x3a
 17840 0105 0B       		.uleb128 0xb
 17841 0106 3B       		.uleb128 0x3b
 17842 0107 0B       		.uleb128 0xb
 17843 0108 11       		.uleb128 0x11
 17844 0109 01       		.uleb128 0x1
 17845 010a 12       		.uleb128 0x12
 17846 010b 06       		.uleb128 0x6
 17847 010c 40       		.uleb128 0x40
 17848 010d 18       		.uleb128 0x18
 17849 010e 9642     		.uleb128 0x2116
 17850 0110 19       		.uleb128 0x19
 17851 0111 01       		.uleb128 0x1
 17852 0112 13       		.uleb128 0x13
 17853 0113 00       		.byte	0
 17854 0114 00       		.byte	0
 17855 0115 13       		.uleb128 0x13
 17856 0116 898201   		.uleb128 0x4109
 17857 0119 01       		.byte	0x1
 17858 011a 11       		.uleb128 0x11
ARM GAS  C:\Users\USUARIO\AppData\Local\Temp\ccWuTYF0.s 			page 344


 17859 011b 01       		.uleb128 0x1
 17860 011c 31       		.uleb128 0x31
 17861 011d 13       		.uleb128 0x13
 17862 011e 01       		.uleb128 0x1
 17863 011f 13       		.uleb128 0x13
 17864 0120 00       		.byte	0
 17865 0121 00       		.byte	0
 17866 0122 14       		.uleb128 0x14
 17867 0123 8A8201   		.uleb128 0x410a
 17868 0126 00       		.byte	0
 17869 0127 02       		.uleb128 0x2
 17870 0128 18       		.uleb128 0x18
 17871 0129 9142     		.uleb128 0x2111
 17872 012b 18       		.uleb128 0x18
 17873 012c 00       		.byte	0
 17874 012d 00       		.byte	0
 17875 012e 15       		.uleb128 0x15
 17876 012f 898201   		.uleb128 0x4109
 17877 0132 00       		.byte	0
 17878 0133 11       		.uleb128 0x11
 17879 0134 01       		.uleb128 0x1
 17880 0135 31       		.uleb128 0x31
 17881 0136 13       		.uleb128 0x13
 17882 0137 00       		.byte	0
 17883 0138 00       		.byte	0
 17884 0139 16       		.uleb128 0x16
 17885 013a 898201   		.uleb128 0x4109
 17886 013d 01       		.byte	0x1
 17887 013e 11       		.uleb128 0x11
 17888 013f 01       		.uleb128 0x1
 17889 0140 31       		.uleb128 0x31
 17890 0141 13       		.uleb128 0x13
 17891 0142 00       		.byte	0
 17892 0143 00       		.byte	0
 17893 0144 17       		.uleb128 0x17
 17894 0145 2E       		.uleb128 0x2e
 17895 0146 00       		.byte	0
 17896 0147 3F       		.uleb128 0x3f
 17897 0148 19       		.uleb128 0x19
 17898 0149 03       		.uleb128 0x3
 17899 014a 0E       		.uleb128 0xe
 17900 014b 3A       		.uleb128 0x3a
 17901 014c 0B       		.uleb128 0xb
 17902 014d 3B       		.uleb128 0x3b
 17903 014e 05       		.uleb128 0x5
 17904 014f 11       		.uleb128 0x11
 17905 0150 01       		.uleb128 0x1
 17906 0151 12       		.uleb128 0x12
 17907 0152 06       		.uleb128 0x6
 17908 0153 40       		.uleb128 0x40
 17909 0154 18       		.uleb128 0x18
 17910 0155 9642     		.uleb128 0x2116
 17911 0157 19       		.uleb128 0x19
 17912 0158 00       		.byte	0
 17913 0159 00       		.byte	0
 17914 015a 18       		.uleb128 0x18
 17915 015b 2E       		.uleb128 0x2e
ARM GAS  C:\Users\USUARIO\AppData\Local\Temp\ccWuTYF0.s 			page 345


 17916 015c 01       		.byte	0x1
 17917 015d 3F       		.uleb128 0x3f
 17918 015e 19       		.uleb128 0x19
 17919 015f 03       		.uleb128 0x3
 17920 0160 0E       		.uleb128 0xe
 17921 0161 3A       		.uleb128 0x3a
 17922 0162 0B       		.uleb128 0xb
 17923 0163 3B       		.uleb128 0x3b
 17924 0164 05       		.uleb128 0x5
 17925 0165 11       		.uleb128 0x11
 17926 0166 01       		.uleb128 0x1
 17927 0167 12       		.uleb128 0x12
 17928 0168 06       		.uleb128 0x6
 17929 0169 40       		.uleb128 0x40
 17930 016a 18       		.uleb128 0x18
 17931 016b 9642     		.uleb128 0x2116
 17932 016d 19       		.uleb128 0x19
 17933 016e 01       		.uleb128 0x1
 17934 016f 13       		.uleb128 0x13
 17935 0170 00       		.byte	0
 17936 0171 00       		.byte	0
 17937 0172 19       		.uleb128 0x19
 17938 0173 34       		.uleb128 0x34
 17939 0174 00       		.byte	0
 17940 0175 03       		.uleb128 0x3
 17941 0176 08       		.uleb128 0x8
 17942 0177 3A       		.uleb128 0x3a
 17943 0178 0B       		.uleb128 0xb
 17944 0179 3B       		.uleb128 0x3b
 17945 017a 05       		.uleb128 0x5
 17946 017b 49       		.uleb128 0x49
 17947 017c 13       		.uleb128 0x13
 17948 017d 02       		.uleb128 0x2
 17949 017e 17       		.uleb128 0x17
 17950 017f 00       		.byte	0
 17951 0180 00       		.byte	0
 17952 0181 1A       		.uleb128 0x1a
 17953 0182 2E       		.uleb128 0x2e
 17954 0183 01       		.byte	0x1
 17955 0184 3F       		.uleb128 0x3f
 17956 0185 19       		.uleb128 0x19
 17957 0186 03       		.uleb128 0x3
 17958 0187 0E       		.uleb128 0xe
 17959 0188 3A       		.uleb128 0x3a
 17960 0189 0B       		.uleb128 0xb
 17961 018a 3B       		.uleb128 0x3b
 17962 018b 05       		.uleb128 0x5
 17963 018c 27       		.uleb128 0x27
 17964 018d 19       		.uleb128 0x19
 17965 018e 11       		.uleb128 0x11
 17966 018f 01       		.uleb128 0x1
 17967 0190 12       		.uleb128 0x12
 17968 0191 06       		.uleb128 0x6
 17969 0192 40       		.uleb128 0x40
 17970 0193 18       		.uleb128 0x18
 17971 0194 9742     		.uleb128 0x2117
 17972 0196 19       		.uleb128 0x19
ARM GAS  C:\Users\USUARIO\AppData\Local\Temp\ccWuTYF0.s 			page 346


 17973 0197 01       		.uleb128 0x1
 17974 0198 13       		.uleb128 0x13
 17975 0199 00       		.byte	0
 17976 019a 00       		.byte	0
 17977 019b 1B       		.uleb128 0x1b
 17978 019c 05       		.uleb128 0x5
 17979 019d 00       		.byte	0
 17980 019e 03       		.uleb128 0x3
 17981 019f 0E       		.uleb128 0xe
 17982 01a0 3A       		.uleb128 0x3a
 17983 01a1 0B       		.uleb128 0xb
 17984 01a2 3B       		.uleb128 0x3b
 17985 01a3 05       		.uleb128 0x5
 17986 01a4 49       		.uleb128 0x49
 17987 01a5 13       		.uleb128 0x13
 17988 01a6 02       		.uleb128 0x2
 17989 01a7 17       		.uleb128 0x17
 17990 01a8 00       		.byte	0
 17991 01a9 00       		.byte	0
 17992 01aa 1C       		.uleb128 0x1c
 17993 01ab 2E       		.uleb128 0x2e
 17994 01ac 00       		.byte	0
 17995 01ad 3F       		.uleb128 0x3f
 17996 01ae 19       		.uleb128 0x19
 17997 01af 03       		.uleb128 0x3
 17998 01b0 0E       		.uleb128 0xe
 17999 01b1 3A       		.uleb128 0x3a
 18000 01b2 0B       		.uleb128 0xb
 18001 01b3 3B       		.uleb128 0x3b
 18002 01b4 05       		.uleb128 0x5
 18003 01b5 27       		.uleb128 0x27
 18004 01b6 19       		.uleb128 0x19
 18005 01b7 11       		.uleb128 0x11
 18006 01b8 01       		.uleb128 0x1
 18007 01b9 12       		.uleb128 0x12
 18008 01ba 06       		.uleb128 0x6
 18009 01bb 40       		.uleb128 0x40
 18010 01bc 18       		.uleb128 0x18
 18011 01bd 9742     		.uleb128 0x2117
 18012 01bf 19       		.uleb128 0x19
 18013 01c0 00       		.byte	0
 18014 01c1 00       		.byte	0
 18015 01c2 1D       		.uleb128 0x1d
 18016 01c3 2E       		.uleb128 0x2e
 18017 01c4 01       		.byte	0x1
 18018 01c5 3F       		.uleb128 0x3f
 18019 01c6 19       		.uleb128 0x19
 18020 01c7 03       		.uleb128 0x3
 18021 01c8 0E       		.uleb128 0xe
 18022 01c9 3A       		.uleb128 0x3a
 18023 01ca 0B       		.uleb128 0xb
 18024 01cb 3B       		.uleb128 0x3b
 18025 01cc 05       		.uleb128 0x5
 18026 01cd 27       		.uleb128 0x27
 18027 01ce 19       		.uleb128 0x19
 18028 01cf 49       		.uleb128 0x49
 18029 01d0 13       		.uleb128 0x13
ARM GAS  C:\Users\USUARIO\AppData\Local\Temp\ccWuTYF0.s 			page 347


 18030 01d1 11       		.uleb128 0x11
 18031 01d2 01       		.uleb128 0x1
 18032 01d3 12       		.uleb128 0x12
 18033 01d4 06       		.uleb128 0x6
 18034 01d5 40       		.uleb128 0x40
 18035 01d6 18       		.uleb128 0x18
 18036 01d7 9642     		.uleb128 0x2116
 18037 01d9 19       		.uleb128 0x19
 18038 01da 01       		.uleb128 0x1
 18039 01db 13       		.uleb128 0x13
 18040 01dc 00       		.byte	0
 18041 01dd 00       		.byte	0
 18042 01de 1E       		.uleb128 0x1e
 18043 01df 34       		.uleb128 0x34
 18044 01e0 00       		.byte	0
 18045 01e1 03       		.uleb128 0x3
 18046 01e2 0E       		.uleb128 0xe
 18047 01e3 3A       		.uleb128 0x3a
 18048 01e4 0B       		.uleb128 0xb
 18049 01e5 3B       		.uleb128 0x3b
 18050 01e6 05       		.uleb128 0x5
 18051 01e7 49       		.uleb128 0x49
 18052 01e8 13       		.uleb128 0x13
 18053 01e9 02       		.uleb128 0x2
 18054 01ea 17       		.uleb128 0x17
 18055 01eb 00       		.byte	0
 18056 01ec 00       		.byte	0
 18057 01ed 1F       		.uleb128 0x1f
 18058 01ee 2E       		.uleb128 0x2e
 18059 01ef 01       		.byte	0x1
 18060 01f0 3F       		.uleb128 0x3f
 18061 01f1 19       		.uleb128 0x19
 18062 01f2 03       		.uleb128 0x3
 18063 01f3 0E       		.uleb128 0xe
 18064 01f4 3A       		.uleb128 0x3a
 18065 01f5 0B       		.uleb128 0xb
 18066 01f6 3B       		.uleb128 0x3b
 18067 01f7 05       		.uleb128 0x5
 18068 01f8 27       		.uleb128 0x27
 18069 01f9 19       		.uleb128 0x19
 18070 01fa 49       		.uleb128 0x49
 18071 01fb 13       		.uleb128 0x13
 18072 01fc 11       		.uleb128 0x11
 18073 01fd 01       		.uleb128 0x1
 18074 01fe 12       		.uleb128 0x12
 18075 01ff 06       		.uleb128 0x6
 18076 0200 40       		.uleb128 0x40
 18077 0201 18       		.uleb128 0x18
 18078 0202 9742     		.uleb128 0x2117
 18079 0204 19       		.uleb128 0x19
 18080 0205 01       		.uleb128 0x1
 18081 0206 13       		.uleb128 0x13
 18082 0207 00       		.byte	0
 18083 0208 00       		.byte	0
 18084 0209 20       		.uleb128 0x20
 18085 020a 2E       		.uleb128 0x2e
 18086 020b 01       		.byte	0x1
ARM GAS  C:\Users\USUARIO\AppData\Local\Temp\ccWuTYF0.s 			page 348


 18087 020c 3F       		.uleb128 0x3f
 18088 020d 19       		.uleb128 0x19
 18089 020e 03       		.uleb128 0x3
 18090 020f 0E       		.uleb128 0xe
 18091 0210 3A       		.uleb128 0x3a
 18092 0211 0B       		.uleb128 0xb
 18093 0212 3B       		.uleb128 0x3b
 18094 0213 05       		.uleb128 0x5
 18095 0214 49       		.uleb128 0x49
 18096 0215 13       		.uleb128 0x13
 18097 0216 11       		.uleb128 0x11
 18098 0217 01       		.uleb128 0x1
 18099 0218 12       		.uleb128 0x12
 18100 0219 06       		.uleb128 0x6
 18101 021a 40       		.uleb128 0x40
 18102 021b 18       		.uleb128 0x18
 18103 021c 9642     		.uleb128 0x2116
 18104 021e 19       		.uleb128 0x19
 18105 021f 01       		.uleb128 0x1
 18106 0220 13       		.uleb128 0x13
 18107 0221 00       		.byte	0
 18108 0222 00       		.byte	0
 18109 0223 21       		.uleb128 0x21
 18110 0224 2E       		.uleb128 0x2e
 18111 0225 01       		.byte	0x1
 18112 0226 3F       		.uleb128 0x3f
 18113 0227 19       		.uleb128 0x19
 18114 0228 03       		.uleb128 0x3
 18115 0229 0E       		.uleb128 0xe
 18116 022a 3A       		.uleb128 0x3a
 18117 022b 0B       		.uleb128 0xb
 18118 022c 3B       		.uleb128 0x3b
 18119 022d 05       		.uleb128 0x5
 18120 022e 11       		.uleb128 0x11
 18121 022f 01       		.uleb128 0x1
 18122 0230 12       		.uleb128 0x12
 18123 0231 06       		.uleb128 0x6
 18124 0232 40       		.uleb128 0x40
 18125 0233 18       		.uleb128 0x18
 18126 0234 9742     		.uleb128 0x2117
 18127 0236 19       		.uleb128 0x19
 18128 0237 01       		.uleb128 0x1
 18129 0238 13       		.uleb128 0x13
 18130 0239 00       		.byte	0
 18131 023a 00       		.byte	0
 18132 023b 22       		.uleb128 0x22
 18133 023c 2E       		.uleb128 0x2e
 18134 023d 00       		.byte	0
 18135 023e 3F       		.uleb128 0x3f
 18136 023f 19       		.uleb128 0x19
 18137 0240 03       		.uleb128 0x3
 18138 0241 0E       		.uleb128 0xe
 18139 0242 3A       		.uleb128 0x3a
 18140 0243 0B       		.uleb128 0xb
 18141 0244 3B       		.uleb128 0x3b
 18142 0245 05       		.uleb128 0x5
 18143 0246 11       		.uleb128 0x11
ARM GAS  C:\Users\USUARIO\AppData\Local\Temp\ccWuTYF0.s 			page 349


 18144 0247 01       		.uleb128 0x1
 18145 0248 12       		.uleb128 0x12
 18146 0249 06       		.uleb128 0x6
 18147 024a 40       		.uleb128 0x40
 18148 024b 18       		.uleb128 0x18
 18149 024c 9742     		.uleb128 0x2117
 18150 024e 19       		.uleb128 0x19
 18151 024f 00       		.byte	0
 18152 0250 00       		.byte	0
 18153 0251 23       		.uleb128 0x23
 18154 0252 34       		.uleb128 0x34
 18155 0253 00       		.byte	0
 18156 0254 03       		.uleb128 0x3
 18157 0255 0E       		.uleb128 0xe
 18158 0256 3A       		.uleb128 0x3a
 18159 0257 0B       		.uleb128 0xb
 18160 0258 3B       		.uleb128 0x3b
 18161 0259 05       		.uleb128 0x5
 18162 025a 49       		.uleb128 0x49
 18163 025b 13       		.uleb128 0x13
 18164 025c 3F       		.uleb128 0x3f
 18165 025d 19       		.uleb128 0x19
 18166 025e 3C       		.uleb128 0x3c
 18167 025f 19       		.uleb128 0x19
 18168 0260 00       		.byte	0
 18169 0261 00       		.byte	0
 18170 0262 24       		.uleb128 0x24
 18171 0263 35       		.uleb128 0x35
 18172 0264 00       		.byte	0
 18173 0265 49       		.uleb128 0x49
 18174 0266 13       		.uleb128 0x13
 18175 0267 00       		.byte	0
 18176 0268 00       		.byte	0
 18177 0269 25       		.uleb128 0x25
 18178 026a 34       		.uleb128 0x34
 18179 026b 00       		.byte	0
 18180 026c 03       		.uleb128 0x3
 18181 026d 0E       		.uleb128 0xe
 18182 026e 3A       		.uleb128 0x3a
 18183 026f 0B       		.uleb128 0xb
 18184 0270 3B       		.uleb128 0x3b
 18185 0271 0B       		.uleb128 0xb
 18186 0272 49       		.uleb128 0x49
 18187 0273 13       		.uleb128 0x13
 18188 0274 3F       		.uleb128 0x3f
 18189 0275 19       		.uleb128 0x19
 18190 0276 02       		.uleb128 0x2
 18191 0277 18       		.uleb128 0x18
 18192 0278 00       		.byte	0
 18193 0279 00       		.byte	0
 18194 027a 26       		.uleb128 0x26
 18195 027b 21       		.uleb128 0x21
 18196 027c 00       		.byte	0
 18197 027d 49       		.uleb128 0x49
 18198 027e 13       		.uleb128 0x13
 18199 027f 2F       		.uleb128 0x2f
 18200 0280 05       		.uleb128 0x5
ARM GAS  C:\Users\USUARIO\AppData\Local\Temp\ccWuTYF0.s 			page 350


 18201 0281 00       		.byte	0
 18202 0282 00       		.byte	0
 18203 0283 27       		.uleb128 0x27
 18204 0284 34       		.uleb128 0x34
 18205 0285 00       		.byte	0
 18206 0286 03       		.uleb128 0x3
 18207 0287 0E       		.uleb128 0xe
 18208 0288 3A       		.uleb128 0x3a
 18209 0289 0B       		.uleb128 0xb
 18210 028a 3B       		.uleb128 0x3b
 18211 028b 0B       		.uleb128 0xb
 18212 028c 49       		.uleb128 0x49
 18213 028d 13       		.uleb128 0x13
 18214 028e 3F       		.uleb128 0x3f
 18215 028f 19       		.uleb128 0x19
 18216 0290 3C       		.uleb128 0x3c
 18217 0291 19       		.uleb128 0x19
 18218 0292 00       		.byte	0
 18219 0293 00       		.byte	0
 18220 0294 28       		.uleb128 0x28
 18221 0295 34       		.uleb128 0x34
 18222 0296 00       		.byte	0
 18223 0297 03       		.uleb128 0x3
 18224 0298 08       		.uleb128 0x8
 18225 0299 3A       		.uleb128 0x3a
 18226 029a 0B       		.uleb128 0xb
 18227 029b 3B       		.uleb128 0x3b
 18228 029c 0B       		.uleb128 0xb
 18229 029d 49       		.uleb128 0x49
 18230 029e 13       		.uleb128 0x13
 18231 029f 3F       		.uleb128 0x3f
 18232 02a0 19       		.uleb128 0x19
 18233 02a1 02       		.uleb128 0x2
 18234 02a2 18       		.uleb128 0x18
 18235 02a3 00       		.byte	0
 18236 02a4 00       		.byte	0
 18237 02a5 29       		.uleb128 0x29
 18238 02a6 34       		.uleb128 0x34
 18239 02a7 00       		.byte	0
 18240 02a8 03       		.uleb128 0x3
 18241 02a9 08       		.uleb128 0x8
 18242 02aa 3A       		.uleb128 0x3a
 18243 02ab 0B       		.uleb128 0xb
 18244 02ac 3B       		.uleb128 0x3b
 18245 02ad 0B       		.uleb128 0xb
 18246 02ae 49       		.uleb128 0x49
 18247 02af 13       		.uleb128 0x13
 18248 02b0 3F       		.uleb128 0x3f
 18249 02b1 19       		.uleb128 0x19
 18250 02b2 3C       		.uleb128 0x3c
 18251 02b3 19       		.uleb128 0x19
 18252 02b4 00       		.byte	0
 18253 02b5 00       		.byte	0
 18254 02b6 2A       		.uleb128 0x2a
 18255 02b7 2E       		.uleb128 0x2e
 18256 02b8 00       		.byte	0
 18257 02b9 3F       		.uleb128 0x3f
ARM GAS  C:\Users\USUARIO\AppData\Local\Temp\ccWuTYF0.s 			page 351


 18258 02ba 19       		.uleb128 0x19
 18259 02bb 3C       		.uleb128 0x3c
 18260 02bc 19       		.uleb128 0x19
 18261 02bd 6E       		.uleb128 0x6e
 18262 02be 0E       		.uleb128 0xe
 18263 02bf 03       		.uleb128 0x3
 18264 02c0 0E       		.uleb128 0xe
 18265 02c1 3A       		.uleb128 0x3a
 18266 02c2 0B       		.uleb128 0xb
 18267 02c3 3B       		.uleb128 0x3b
 18268 02c4 0B       		.uleb128 0xb
 18269 02c5 00       		.byte	0
 18270 02c6 00       		.byte	0
 18271 02c7 2B       		.uleb128 0x2b
 18272 02c8 2E       		.uleb128 0x2e
 18273 02c9 00       		.byte	0
 18274 02ca 3F       		.uleb128 0x3f
 18275 02cb 19       		.uleb128 0x19
 18276 02cc 3C       		.uleb128 0x3c
 18277 02cd 19       		.uleb128 0x19
 18278 02ce 6E       		.uleb128 0x6e
 18279 02cf 08       		.uleb128 0x8
 18280 02d0 03       		.uleb128 0x3
 18281 02d1 08       		.uleb128 0x8
 18282 02d2 3A       		.uleb128 0x3a
 18283 02d3 0B       		.uleb128 0xb
 18284 02d4 3B       		.uleb128 0x3b
 18285 02d5 0B       		.uleb128 0xb
 18286 02d6 00       		.byte	0
 18287 02d7 00       		.byte	0
 18288 02d8 2C       		.uleb128 0x2c
 18289 02d9 2E       		.uleb128 0x2e
 18290 02da 00       		.byte	0
 18291 02db 3F       		.uleb128 0x3f
 18292 02dc 19       		.uleb128 0x19
 18293 02dd 3C       		.uleb128 0x3c
 18294 02de 19       		.uleb128 0x19
 18295 02df 6E       		.uleb128 0x6e
 18296 02e0 0E       		.uleb128 0xe
 18297 02e1 03       		.uleb128 0x3
 18298 02e2 0E       		.uleb128 0xe
 18299 02e3 3A       		.uleb128 0x3a
 18300 02e4 0B       		.uleb128 0xb
 18301 02e5 3B       		.uleb128 0x3b
 18302 02e6 05       		.uleb128 0x5
 18303 02e7 00       		.byte	0
 18304 02e8 00       		.byte	0
 18305 02e9 2D       		.uleb128 0x2d
 18306 02ea 2E       		.uleb128 0x2e
 18307 02eb 00       		.byte	0
 18308 02ec 3F       		.uleb128 0x3f
 18309 02ed 19       		.uleb128 0x19
 18310 02ee 3C       		.uleb128 0x3c
 18311 02ef 19       		.uleb128 0x19
 18312 02f0 6E       		.uleb128 0x6e
 18313 02f1 0E       		.uleb128 0xe
 18314 02f2 03       		.uleb128 0x3
ARM GAS  C:\Users\USUARIO\AppData\Local\Temp\ccWuTYF0.s 			page 352


 18315 02f3 0E       		.uleb128 0xe
 18316 02f4 00       		.byte	0
 18317 02f5 00       		.byte	0
 18318 02f6 00       		.byte	0
 18319              		.section	.debug_loc,"",%progbits
 18320              	.Ldebug_loc0:
 18321              	.LLST0:
 18322 0000 00000000 		.4byte	.LVL0
 18323 0004 07000000 		.4byte	.LVL2-1
 18324 0008 0100     		.2byte	0x1
 18325 000a 50       		.byte	0x50
 18326 000b 07000000 		.4byte	.LVL2-1
 18327 000f 24000000 		.4byte	.LVL8
 18328 0013 0100     		.2byte	0x1
 18329 0015 54       		.byte	0x54
 18330 0016 24000000 		.4byte	.LVL8
 18331 001a 28000000 		.4byte	.LFE64
 18332 001e 0600     		.2byte	0x6
 18333 0020 F3       		.byte	0xf3
 18334 0021 03       		.uleb128 0x3
 18335 0022 F5       		.byte	0xf5
 18336 0023 00       		.uleb128 0
 18337 0024 25       		.uleb128 0x25
 18338 0025 9F       		.byte	0x9f
 18339 0026 00000000 		.4byte	0
 18340 002a 00000000 		.4byte	0
 18341              	.LLST1:
 18342 002e 04000000 		.4byte	.LVL1
 18343 0032 0E000000 		.4byte	.LVL3
 18344 0036 0600     		.2byte	0x6
 18345 0038 9E       		.byte	0x9e
 18346 0039 04       		.uleb128 0x4
 18347 003a 00000000 		.4byte	0
 18348 003e 0E000000 		.4byte	.LVL3
 18349 0042 12000000 		.4byte	.LVL4
 18350 0046 0100     		.2byte	0x1
 18351 0048 50       		.byte	0x50
 18352 0049 12000000 		.4byte	.LVL4
 18353 004d 15000000 		.4byte	.LVL5-1
 18354 0051 0100     		.2byte	0x1
 18355 0053 51       		.byte	0x51
 18356 0054 00000000 		.4byte	0
 18357 0058 00000000 		.4byte	0
 18358              	.LLST2:
 18359 005c 04000000 		.4byte	.LVL1
 18360 0060 1C000000 		.4byte	.LVL6
 18361 0064 0600     		.2byte	0x6
 18362 0066 9E       		.byte	0x9e
 18363 0067 04       		.uleb128 0x4
 18364 0068 00000000 		.4byte	0
 18365 006c 1C000000 		.4byte	.LVL6
 18366 0070 1F000000 		.4byte	.LVL7-1
 18367 0074 0100     		.2byte	0x1
 18368 0076 50       		.byte	0x50
 18369 0077 00000000 		.4byte	0
 18370 007b 00000000 		.4byte	0
 18371              	.LLST3:
ARM GAS  C:\Users\USUARIO\AppData\Local\Temp\ccWuTYF0.s 			page 353


 18372 007f 00000000 		.4byte	.LVL9
 18373 0083 07000000 		.4byte	.LVL11-1
 18374 0087 0100     		.2byte	0x1
 18375 0089 50       		.byte	0x50
 18376 008a 07000000 		.4byte	.LVL11-1
 18377 008e 18000000 		.4byte	.LFE65
 18378 0092 0100     		.2byte	0x1
 18379 0094 54       		.byte	0x54
 18380 0095 00000000 		.4byte	0
 18381 0099 00000000 		.4byte	0
 18382              	.LLST4:
 18383 009d 04000000 		.4byte	.LVL10
 18384 00a1 0E000000 		.4byte	.LVL12
 18385 00a5 0600     		.2byte	0x6
 18386 00a7 9E       		.byte	0x9e
 18387 00a8 04       		.uleb128 0x4
 18388 00a9 00000000 		.4byte	0
 18389 00ad 0E000000 		.4byte	.LVL12
 18390 00b1 12000000 		.4byte	.LVL13
 18391 00b5 0100     		.2byte	0x1
 18392 00b7 50       		.byte	0x50
 18393 00b8 12000000 		.4byte	.LVL13
 18394 00bc 15000000 		.4byte	.LVL14-1
 18395 00c0 0100     		.2byte	0x1
 18396 00c2 51       		.byte	0x51
 18397 00c3 00000000 		.4byte	0
 18398 00c7 00000000 		.4byte	0
 18399              	.LLST5:
 18400 00cb 04000000 		.4byte	.LVL10
 18401 00cf 16000000 		.4byte	.LVL14
 18402 00d3 0600     		.2byte	0x6
 18403 00d5 9E       		.byte	0x9e
 18404 00d6 04       		.uleb128 0x4
 18405 00d7 00000000 		.4byte	0
 18406 00db 16000000 		.4byte	.LVL14
 18407 00df 18000000 		.4byte	.LFE65
 18408 00e3 0100     		.2byte	0x1
 18409 00e5 50       		.byte	0x50
 18410 00e6 00000000 		.4byte	0
 18411 00ea 00000000 		.4byte	0
 18412              	.LLST6:
 18413 00ee 00000000 		.4byte	.LVL15
 18414 00f2 05000000 		.4byte	.LVL16-1
 18415 00f6 0100     		.2byte	0x1
 18416 00f8 50       		.byte	0x50
 18417 00f9 05000000 		.4byte	.LVL16-1
 18418 00fd 14000000 		.4byte	.LFE66
 18419 0101 0400     		.2byte	0x4
 18420 0103 F3       		.byte	0xf3
 18421 0104 01       		.uleb128 0x1
 18422 0105 50       		.byte	0x50
 18423 0106 9F       		.byte	0x9f
 18424 0107 00000000 		.4byte	0
 18425 010b 00000000 		.4byte	0
 18426              	.LLST7:
 18427 010f 06000000 		.4byte	.LVL16
 18428 0113 0B000000 		.4byte	.LVL17-1
ARM GAS  C:\Users\USUARIO\AppData\Local\Temp\ccWuTYF0.s 			page 354


 18429 0117 0100     		.2byte	0x1
 18430 0119 50       		.byte	0x50
 18431 011a 00000000 		.4byte	0
 18432 011e 00000000 		.4byte	0
 18433              	.LLST8:
 18434 0122 00000000 		.4byte	.LVL18
 18435 0126 04000000 		.4byte	.LVL19
 18436 012a 0100     		.2byte	0x1
 18437 012c 50       		.byte	0x50
 18438 012d 04000000 		.4byte	.LVL19
 18439 0131 06000000 		.4byte	.LVL20
 18440 0135 0400     		.2byte	0x4
 18441 0137 F3       		.byte	0xf3
 18442 0138 01       		.uleb128 0x1
 18443 0139 50       		.byte	0x50
 18444 013a 9F       		.byte	0x9f
 18445 013b 06000000 		.4byte	.LVL20
 18446 013f 0C000000 		.4byte	.LVL21
 18447 0143 0100     		.2byte	0x1
 18448 0145 50       		.byte	0x50
 18449 0146 0C000000 		.4byte	.LVL21
 18450 014a 0E000000 		.4byte	.LVL22
 18451 014e 0400     		.2byte	0x4
 18452 0150 F3       		.byte	0xf3
 18453 0151 01       		.uleb128 0x1
 18454 0152 50       		.byte	0x50
 18455 0153 9F       		.byte	0x9f
 18456 0154 0E000000 		.4byte	.LVL22
 18457 0158 10000000 		.4byte	.LVL23
 18458 015c 0100     		.2byte	0x1
 18459 015e 50       		.byte	0x50
 18460 015f 10000000 		.4byte	.LVL23
 18461 0163 12000000 		.4byte	.LFE67
 18462 0167 0400     		.2byte	0x4
 18463 0169 F3       		.byte	0xf3
 18464 016a 01       		.uleb128 0x1
 18465 016b 50       		.byte	0x50
 18466 016c 9F       		.byte	0x9f
 18467 016d 00000000 		.4byte	0
 18468 0171 00000000 		.4byte	0
 18469              	.LLST9:
 18470 0175 00000000 		.4byte	.LVL18
 18471 0179 04000000 		.4byte	.LVL19
 18472 017d 0200     		.2byte	0x2
 18473 017f 30       		.byte	0x30
 18474 0180 9F       		.byte	0x9f
 18475 0181 04000000 		.4byte	.LVL19
 18476 0185 06000000 		.4byte	.LVL20
 18477 0189 0100     		.2byte	0x1
 18478 018b 50       		.byte	0x50
 18479 018c 06000000 		.4byte	.LVL20
 18480 0190 0C000000 		.4byte	.LVL21
 18481 0194 0200     		.2byte	0x2
 18482 0196 30       		.byte	0x30
 18483 0197 9F       		.byte	0x9f
 18484 0198 0C000000 		.4byte	.LVL21
 18485 019c 0E000000 		.4byte	.LVL22
ARM GAS  C:\Users\USUARIO\AppData\Local\Temp\ccWuTYF0.s 			page 355


 18486 01a0 0100     		.2byte	0x1
 18487 01a2 50       		.byte	0x50
 18488 01a3 0E000000 		.4byte	.LVL22
 18489 01a7 10000000 		.4byte	.LVL23
 18490 01ab 0200     		.2byte	0x2
 18491 01ad 30       		.byte	0x30
 18492 01ae 9F       		.byte	0x9f
 18493 01af 10000000 		.4byte	.LVL23
 18494 01b3 12000000 		.4byte	.LFE67
 18495 01b7 0100     		.2byte	0x1
 18496 01b9 50       		.byte	0x50
 18497 01ba 00000000 		.4byte	0
 18498 01be 00000000 		.4byte	0
 18499              	.LLST10:
 18500 01c2 00000000 		.4byte	.LVL24
 18501 01c6 04000000 		.4byte	.LVL25
 18502 01ca 0100     		.2byte	0x1
 18503 01cc 50       		.byte	0x50
 18504 01cd 04000000 		.4byte	.LVL25
 18505 01d1 06000000 		.4byte	.LFE68
 18506 01d5 0400     		.2byte	0x4
 18507 01d7 F3       		.byte	0xf3
 18508 01d8 01       		.uleb128 0x1
 18509 01d9 50       		.byte	0x50
 18510 01da 9F       		.byte	0x9f
 18511 01db 00000000 		.4byte	0
 18512 01df 00000000 		.4byte	0
 18513              	.LLST11:
 18514 01e3 00000000 		.4byte	.LVL24
 18515 01e7 04000000 		.4byte	.LVL25
 18516 01eb 0600     		.2byte	0x6
 18517 01ed 70       		.byte	0x70
 18518 01ee 00       		.sleb128 0
 18519 01ef 08       		.byte	0x8
 18520 01f0 FF       		.byte	0xff
 18521 01f1 1A       		.byte	0x1a
 18522 01f2 9F       		.byte	0x9f
 18523 01f3 04000000 		.4byte	.LVL25
 18524 01f7 06000000 		.4byte	.LFE68
 18525 01fb 0700     		.2byte	0x7
 18526 01fd F3       		.byte	0xf3
 18527 01fe 01       		.uleb128 0x1
 18528 01ff 50       		.byte	0x50
 18529 0200 08       		.byte	0x8
 18530 0201 FF       		.byte	0xff
 18531 0202 1A       		.byte	0x1a
 18532 0203 9F       		.byte	0x9f
 18533 0204 00000000 		.4byte	0
 18534 0208 00000000 		.4byte	0
 18535              	.LLST12:
 18536 020c 00000000 		.4byte	.LVL24
 18537 0210 04000000 		.4byte	.LVL25
 18538 0214 0800     		.2byte	0x8
 18539 0216 70       		.byte	0x70
 18540 0217 00       		.sleb128 0
 18541 0218 38       		.byte	0x38
 18542 0219 24       		.byte	0x24
ARM GAS  C:\Users\USUARIO\AppData\Local\Temp\ccWuTYF0.s 			page 356


 18543 021a 71       		.byte	0x71
 18544 021b 00       		.sleb128 0
 18545 021c 21       		.byte	0x21
 18546 021d 9F       		.byte	0x9f
 18547 021e 00000000 		.4byte	0
 18548 0222 00000000 		.4byte	0
 18549              	.LLST13:
 18550 0226 04000000 		.4byte	.LVL330
 18551 022a D6040000 		.4byte	.LVL409
 18552 022e 0600     		.2byte	0x6
 18553 0230 9E       		.byte	0x9e
 18554 0231 04       		.uleb128 0x4
 18555 0232 00000000 		.4byte	0
 18556 0236 D6040000 		.4byte	.LVL409
 18557 023a DA040000 		.4byte	.LVL410
 18558 023e 0100     		.2byte	0x1
 18559 0240 50       		.byte	0x50
 18560 0241 DA040000 		.4byte	.LVL410
 18561 0245 DD040000 		.4byte	.LVL411-1
 18562 0249 0100     		.2byte	0x1
 18563 024b 51       		.byte	0x51
 18564 024c DD040000 		.4byte	.LVL411-1
 18565 0250 F8040000 		.4byte	.LVL416
 18566 0254 0100     		.2byte	0x1
 18567 0256 54       		.byte	0x54
 18568 0257 C0050000 		.4byte	.LVL426
 18569 025b EC090000 		.4byte	.LVL496
 18570 025f 0600     		.2byte	0x6
 18571 0261 9E       		.byte	0x9e
 18572 0262 04       		.uleb128 0x4
 18573 0263 00000000 		.4byte	0
 18574 0267 EC090000 		.4byte	.LVL496
 18575 026b F0090000 		.4byte	.LVL497
 18576 026f 0100     		.2byte	0x1
 18577 0271 50       		.byte	0x50
 18578 0272 F0090000 		.4byte	.LVL497
 18579 0276 F3090000 		.4byte	.LVL498-1
 18580 027a 0100     		.2byte	0x1
 18581 027c 51       		.byte	0x51
 18582 027d F3090000 		.4byte	.LVL498-1
 18583 0281 120A0000 		.4byte	.LVL503
 18584 0285 0100     		.2byte	0x1
 18585 0287 54       		.byte	0x54
 18586 0288 00000000 		.4byte	0
 18587 028c 00000000 		.4byte	0
 18588              	.LLST14:
 18589 0290 00000000 		.4byte	.LVL530
 18590 0294 05000000 		.4byte	.LVL531-1
 18591 0298 0100     		.2byte	0x1
 18592 029a 50       		.byte	0x50
 18593 029b 05000000 		.4byte	.LVL531-1
 18594 029f 32000000 		.4byte	.LFE75
 18595 02a3 0400     		.2byte	0x4
 18596 02a5 F3       		.byte	0xf3
 18597 02a6 01       		.uleb128 0x1
 18598 02a7 50       		.byte	0x50
 18599 02a8 9F       		.byte	0x9f
ARM GAS  C:\Users\USUARIO\AppData\Local\Temp\ccWuTYF0.s 			page 357


 18600 02a9 00000000 		.4byte	0
 18601 02ad 00000000 		.4byte	0
 18602              	.LLST15:
 18603 02b1 00000000 		.4byte	.LVL539
 18604 02b5 05000000 		.4byte	.LVL540-1
 18605 02b9 0100     		.2byte	0x1
 18606 02bb 50       		.byte	0x50
 18607 02bc 05000000 		.4byte	.LVL540-1
 18608 02c0 32000000 		.4byte	.LFE76
 18609 02c4 0400     		.2byte	0x4
 18610 02c6 F3       		.byte	0xf3
 18611 02c7 01       		.uleb128 0x1
 18612 02c8 50       		.byte	0x50
 18613 02c9 9F       		.byte	0x9f
 18614 02ca 00000000 		.4byte	0
 18615 02ce 00000000 		.4byte	0
 18616              	.LLST16:
 18617 02d2 00000000 		.4byte	.LVL598
 18618 02d6 0D000000 		.4byte	.LVL600-1
 18619 02da 0100     		.2byte	0x1
 18620 02dc 50       		.byte	0x50
 18621 02dd 0D000000 		.4byte	.LVL600-1
 18622 02e1 78010000 		.4byte	.LFE79
 18623 02e5 0400     		.2byte	0x4
 18624 02e7 F3       		.byte	0xf3
 18625 02e8 01       		.uleb128 0x1
 18626 02e9 50       		.byte	0x50
 18627 02ea 9F       		.byte	0x9f
 18628 02eb 00000000 		.4byte	0
 18629 02ef 00000000 		.4byte	0
 18630              	.LLST17:
 18631 02f3 0A000000 		.4byte	.LVL599
 18632 02f7 52000000 		.4byte	.LVL604
 18633 02fb 0600     		.2byte	0x6
 18634 02fd 9E       		.byte	0x9e
 18635 02fe 04       		.uleb128 0x4
 18636 02ff 00000000 		.4byte	0
 18637 0303 52000000 		.4byte	.LVL604
 18638 0307 54000000 		.4byte	.LVL605
 18639 030b 0100     		.2byte	0x1
 18640 030d 50       		.byte	0x50
 18641 030e 54000000 		.4byte	.LVL605
 18642 0312 6C000000 		.4byte	.LVL609
 18643 0316 0100     		.2byte	0x1
 18644 0318 55       		.byte	0x55
 18645 0319 00000000 		.4byte	0
 18646 031d 00000000 		.4byte	0
 18647              	.LLST18:
 18648 0321 CE000000 		.4byte	.LVL614
 18649 0325 D3000000 		.4byte	.LVL615-1
 18650 0329 0100     		.2byte	0x1
 18651 032b 50       		.byte	0x50
 18652 032c D6000000 		.4byte	.LVL616
 18653 0330 DA000000 		.4byte	.LVL617
 18654 0334 0100     		.2byte	0x1
 18655 0336 50       		.byte	0x50
 18656 0337 DA000000 		.4byte	.LVL617
ARM GAS  C:\Users\USUARIO\AppData\Local\Temp\ccWuTYF0.s 			page 358


 18657 033b 36010000 		.4byte	.LVL633
 18658 033f 0100     		.2byte	0x1
 18659 0341 57       		.byte	0x57
 18660 0342 00000000 		.4byte	0
 18661 0346 00000000 		.4byte	0
 18662              	.LLST19:
 18663 034a DE000000 		.4byte	.LVL618
 18664 034e E3000000 		.4byte	.LVL619-1
 18665 0352 0100     		.2byte	0x1
 18666 0354 50       		.byte	0x50
 18667 0355 E6000000 		.4byte	.LVL620
 18668 0359 EA000000 		.4byte	.LVL621
 18669 035d 0100     		.2byte	0x1
 18670 035f 50       		.byte	0x50
 18671 0360 EA000000 		.4byte	.LVL621
 18672 0364 06010000 		.4byte	.LVL626
 18673 0368 0100     		.2byte	0x1
 18674 036a 55       		.byte	0x55
 18675 036b 00000000 		.4byte	0
 18676 036f 00000000 		.4byte	0
 18677              	.LLST20:
 18678 0373 22010000 		.4byte	.LVL629
 18679 0377 24010000 		.4byte	.LVL630
 18680 037b 0100     		.2byte	0x1
 18681 037d 50       		.byte	0x50
 18682 037e 34010000 		.4byte	.LVL632
 18683 0382 78010000 		.4byte	.LFE79
 18684 0386 0100     		.2byte	0x1
 18685 0388 50       		.byte	0x50
 18686 0389 00000000 		.4byte	0
 18687 038d 00000000 		.4byte	0
 18688              	.LLST21:
 18689 0391 00000000 		.4byte	.LVL634
 18690 0395 0D000000 		.4byte	.LVL636-1
 18691 0399 0100     		.2byte	0x1
 18692 039b 50       		.byte	0x50
 18693 039c 0D000000 		.4byte	.LVL636-1
 18694 03a0 78010000 		.4byte	.LFE80
 18695 03a4 0400     		.2byte	0x4
 18696 03a6 F3       		.byte	0xf3
 18697 03a7 01       		.uleb128 0x1
 18698 03a8 50       		.byte	0x50
 18699 03a9 9F       		.byte	0x9f
 18700 03aa 00000000 		.4byte	0
 18701 03ae 00000000 		.4byte	0
 18702              	.LLST22:
 18703 03b2 0A000000 		.4byte	.LVL635
 18704 03b6 52000000 		.4byte	.LVL640
 18705 03ba 0600     		.2byte	0x6
 18706 03bc 9E       		.byte	0x9e
 18707 03bd 04       		.uleb128 0x4
 18708 03be 00000000 		.4byte	0
 18709 03c2 52000000 		.4byte	.LVL640
 18710 03c6 54000000 		.4byte	.LVL641
 18711 03ca 0100     		.2byte	0x1
 18712 03cc 50       		.byte	0x50
 18713 03cd 54000000 		.4byte	.LVL641
ARM GAS  C:\Users\USUARIO\AppData\Local\Temp\ccWuTYF0.s 			page 359


 18714 03d1 6C000000 		.4byte	.LVL645
 18715 03d5 0100     		.2byte	0x1
 18716 03d7 55       		.byte	0x55
 18717 03d8 00000000 		.4byte	0
 18718 03dc 00000000 		.4byte	0
 18719              	.LLST23:
 18720 03e0 CE000000 		.4byte	.LVL650
 18721 03e4 D3000000 		.4byte	.LVL651-1
 18722 03e8 0100     		.2byte	0x1
 18723 03ea 50       		.byte	0x50
 18724 03eb D6000000 		.4byte	.LVL652
 18725 03ef DA000000 		.4byte	.LVL653
 18726 03f3 0100     		.2byte	0x1
 18727 03f5 50       		.byte	0x50
 18728 03f6 DA000000 		.4byte	.LVL653
 18729 03fa 36010000 		.4byte	.LVL669
 18730 03fe 0100     		.2byte	0x1
 18731 0400 57       		.byte	0x57
 18732 0401 00000000 		.4byte	0
 18733 0405 00000000 		.4byte	0
 18734              	.LLST24:
 18735 0409 DE000000 		.4byte	.LVL654
 18736 040d E3000000 		.4byte	.LVL655-1
 18737 0411 0100     		.2byte	0x1
 18738 0413 50       		.byte	0x50
 18739 0414 E6000000 		.4byte	.LVL656
 18740 0418 EA000000 		.4byte	.LVL657
 18741 041c 0100     		.2byte	0x1
 18742 041e 50       		.byte	0x50
 18743 041f EA000000 		.4byte	.LVL657
 18744 0423 06010000 		.4byte	.LVL662
 18745 0427 0100     		.2byte	0x1
 18746 0429 55       		.byte	0x55
 18747 042a 00000000 		.4byte	0
 18748 042e 00000000 		.4byte	0
 18749              	.LLST25:
 18750 0432 22010000 		.4byte	.LVL665
 18751 0436 24010000 		.4byte	.LVL666
 18752 043a 0100     		.2byte	0x1
 18753 043c 50       		.byte	0x50
 18754 043d 34010000 		.4byte	.LVL668
 18755 0441 78010000 		.4byte	.LFE80
 18756 0445 0100     		.2byte	0x1
 18757 0447 50       		.byte	0x50
 18758 0448 00000000 		.4byte	0
 18759 044c 00000000 		.4byte	0
 18760              	.LLST26:
 18761 0450 00000000 		.4byte	.LVL670
 18762 0454 00000000 		.4byte	.LVL670
 18763 0458 0100     		.2byte	0x1
 18764 045a 50       		.byte	0x50
 18765 045b 00000000 		.4byte	.LVL670
 18766 045f 08000000 		.4byte	.LVL671
 18767 0463 0500     		.2byte	0x5
 18768 0465 70       		.byte	0x70
 18769 0466 00       		.sleb128 0
 18770 0467 38       		.byte	0x38
ARM GAS  C:\Users\USUARIO\AppData\Local\Temp\ccWuTYF0.s 			page 360


 18771 0468 24       		.byte	0x24
 18772 0469 9F       		.byte	0x9f
 18773 046a 08000000 		.4byte	.LVL671
 18774 046e 24000000 		.4byte	.LFE81
 18775 0472 0600     		.2byte	0x6
 18776 0474 F3       		.byte	0xf3
 18777 0475 01       		.uleb128 0x1
 18778 0476 50       		.byte	0x50
 18779 0477 38       		.byte	0x38
 18780 0478 24       		.byte	0x24
 18781 0479 9F       		.byte	0x9f
 18782 047a 00000000 		.4byte	0
 18783 047e 00000000 		.4byte	0
 18784              	.LLST27:
 18785 0482 18000000 		.4byte	.LVL672
 18786 0486 1C000000 		.4byte	.LVL673
 18787 048a 0800     		.2byte	0x8
 18788 048c 73       		.byte	0x73
 18789 048d 00       		.sleb128 0
 18790 048e 38       		.byte	0x38
 18791 048f 26       		.byte	0x26
 18792 0490 70       		.byte	0x70
 18793 0491 00       		.sleb128 0
 18794 0492 22       		.byte	0x22
 18795 0493 9F       		.byte	0x9f
 18796 0494 1C000000 		.4byte	.LVL673
 18797 0498 24000000 		.4byte	.LFE81
 18798 049c 0100     		.2byte	0x1
 18799 049e 50       		.byte	0x50
 18800 049f 00000000 		.4byte	0
 18801 04a3 00000000 		.4byte	0
 18802              	.LLST28:
 18803 04a7 02000000 		.4byte	.LVL674
 18804 04ab 48000000 		.4byte	.LVL680
 18805 04af 0600     		.2byte	0x6
 18806 04b1 9E       		.byte	0x9e
 18807 04b2 04       		.uleb128 0x4
 18808 04b3 00000000 		.4byte	0
 18809 04b7 48000000 		.4byte	.LVL680
 18810 04bb 51000000 		.4byte	.LVL681-1
 18811 04bf 0100     		.2byte	0x1
 18812 04c1 50       		.byte	0x50
 18813 04c2 52000000 		.4byte	.LVL681
 18814 04c6 65000000 		.4byte	.LVL683-1
 18815 04ca 0100     		.2byte	0x1
 18816 04cc 50       		.byte	0x50
 18817 04cd 66000000 		.4byte	.LVL683
 18818 04d1 6B000000 		.4byte	.LVL684-1
 18819 04d5 0100     		.2byte	0x1
 18820 04d7 50       		.byte	0x50
 18821 04d8 00000000 		.4byte	0
 18822 04dc 00000000 		.4byte	0
 18823              	.LLST29:
 18824 04e0 00000000 		.4byte	.LVL686
 18825 04e4 08000000 		.4byte	.LVL688
 18826 04e8 0100     		.2byte	0x1
 18827 04ea 50       		.byte	0x50
ARM GAS  C:\Users\USUARIO\AppData\Local\Temp\ccWuTYF0.s 			page 361


 18828 04eb 08000000 		.4byte	.LVL688
 18829 04ef D8020000 		.4byte	.LFE83
 18830 04f3 0400     		.2byte	0x4
 18831 04f5 F3       		.byte	0xf3
 18832 04f6 01       		.uleb128 0x1
 18833 04f7 50       		.byte	0x50
 18834 04f8 9F       		.byte	0x9f
 18835 04f9 00000000 		.4byte	0
 18836 04fd 00000000 		.4byte	0
 18837              	.LLST30:
 18838 0501 06000000 		.4byte	.LVL687
 18839 0505 18000000 		.4byte	.LVL692
 18840 0509 0600     		.2byte	0x6
 18841 050b 9E       		.byte	0x9e
 18842 050c 04       		.uleb128 0x4
 18843 050d 00000000 		.4byte	0
 18844 0511 18000000 		.4byte	.LVL692
 18845 0515 1A000000 		.4byte	.LVL693
 18846 0519 0100     		.2byte	0x1
 18847 051b 50       		.byte	0x50
 18848 051c 1A000000 		.4byte	.LVL693
 18849 0520 2E000000 		.4byte	.LVL699
 18850 0524 0100     		.2byte	0x1
 18851 0526 55       		.byte	0x55
 18852 0527 2E000000 		.4byte	.LVL699
 18853 052b 30000000 		.4byte	.LVL700
 18854 052f 0100     		.2byte	0x1
 18855 0531 50       		.byte	0x50
 18856 0532 30000000 		.4byte	.LVL700
 18857 0536 0C010000 		.4byte	.LVL721
 18858 053a 0100     		.2byte	0x1
 18859 053c 55       		.byte	0x55
 18860 053d 00000000 		.4byte	0
 18861 0541 00000000 		.4byte	0
 18862              	.LLST31:
 18863 0545 06000000 		.4byte	.LVL687
 18864 0549 A2010000 		.4byte	.LVL736
 18865 054d 0600     		.2byte	0x6
 18866 054f 9E       		.byte	0x9e
 18867 0550 04       		.uleb128 0x4
 18868 0551 00000000 		.4byte	0
 18869 0555 A2010000 		.4byte	.LVL736
 18870 0559 A7010000 		.4byte	.LVL737-1
 18871 055d 0100     		.2byte	0x1
 18872 055f 50       		.byte	0x50
 18873 0560 A7010000 		.4byte	.LVL737-1
 18874 0564 4A020000 		.4byte	.LVL753
 18875 0568 0100     		.2byte	0x1
 18876 056a 58       		.byte	0x58
 18877 056b 00000000 		.4byte	0
 18878 056f 00000000 		.4byte	0
 18879              	.LLST32:
 18880 0573 06000000 		.4byte	.LVL687
 18881 0577 9E000000 		.4byte	.LVL711
 18882 057b 0600     		.2byte	0x6
 18883 057d 9E       		.byte	0x9e
 18884 057e 04       		.uleb128 0x4
ARM GAS  C:\Users\USUARIO\AppData\Local\Temp\ccWuTYF0.s 			page 362


 18885 057f 00000000 		.4byte	0
 18886 0583 9E000000 		.4byte	.LVL711
 18887 0587 CA000000 		.4byte	.LVL712
 18888 058b 0100     		.2byte	0x1
 18889 058d 50       		.byte	0x50
 18890 058e 00000000 		.4byte	0
 18891 0592 00000000 		.4byte	0
 18892              	.LLST33:
 18893 0596 06000000 		.4byte	.LVL687
 18894 059a 24000000 		.4byte	.LVL696
 18895 059e 0600     		.2byte	0x6
 18896 05a0 9E       		.byte	0x9e
 18897 05a1 04       		.uleb128 0x4
 18898 05a2 00000000 		.4byte	0
 18899 05a6 24000000 		.4byte	.LVL696
 18900 05aa 28000000 		.4byte	.LVL697
 18901 05ae 0100     		.2byte	0x1
 18902 05b0 50       		.byte	0x50
 18903 05b1 28000000 		.4byte	.LVL697
 18904 05b5 36000000 		.4byte	.LVL702
 18905 05b9 0100     		.2byte	0x1
 18906 05bb 56       		.byte	0x56
 18907 05bc 00000000 		.4byte	0
 18908 05c0 00000000 		.4byte	0
 18909              	.LLST34:
 18910 05c4 06000000 		.4byte	.LVL687
 18911 05c8 F4010000 		.4byte	.LVL742
 18912 05cc 0600     		.2byte	0x6
 18913 05ce 9E       		.byte	0x9e
 18914 05cf 04       		.uleb128 0x4
 18915 05d0 00000000 		.4byte	0
 18916 05d4 F4010000 		.4byte	.LVL742
 18917 05d8 FD010000 		.4byte	.LVL743-1
 18918 05dc 0100     		.2byte	0x1
 18919 05de 50       		.byte	0x50
 18920 05df FE010000 		.4byte	.LVL743
 18921 05e3 11020000 		.4byte	.LVL745-1
 18922 05e7 0100     		.2byte	0x1
 18923 05e9 50       		.byte	0x50
 18924 05ea 14020000 		.4byte	.LVL746
 18925 05ee 1B020000 		.4byte	.LVL747-1
 18926 05f2 0100     		.2byte	0x1
 18927 05f4 50       		.byte	0x50
 18928 05f5 1B020000 		.4byte	.LVL747-1
 18929 05f9 4A020000 		.4byte	.LVL753
 18930 05fd 0100     		.2byte	0x1
 18931 05ff 54       		.byte	0x54
 18932 0600 00000000 		.4byte	0
 18933 0604 00000000 		.4byte	0
 18934              	.LLST35:
 18935 0608 06000000 		.4byte	.LVL687
 18936 060c CA000000 		.4byte	.LVL712
 18937 0610 0600     		.2byte	0x6
 18938 0612 9E       		.byte	0x9e
 18939 0613 04       		.uleb128 0x4
 18940 0614 00000000 		.4byte	0
 18941 0618 CA000000 		.4byte	.LVL712
ARM GAS  C:\Users\USUARIO\AppData\Local\Temp\ccWuTYF0.s 			page 363


 18942 061c D8000000 		.4byte	.LVL714
 18943 0620 0100     		.2byte	0x1
 18944 0622 59       		.byte	0x59
 18945 0623 D8000000 		.4byte	.LVL714
 18946 0627 E2000000 		.4byte	.LVL715
 18947 062b 0100     		.2byte	0x1
 18948 062d 50       		.byte	0x50
 18949 062e E2000000 		.4byte	.LVL715
 18950 0632 FE000000 		.4byte	.LVL718
 18951 0636 0100     		.2byte	0x1
 18952 0638 59       		.byte	0x59
 18953 0639 FE000000 		.4byte	.LVL718
 18954 063d 04010000 		.4byte	.LVL719
 18955 0641 0100     		.2byte	0x1
 18956 0643 50       		.byte	0x50
 18957 0644 04010000 		.4byte	.LVL719
 18958 0648 4A020000 		.4byte	.LVL753
 18959 064c 0100     		.2byte	0x1
 18960 064e 5A       		.byte	0x5a
 18961 064f 00000000 		.4byte	0
 18962 0653 00000000 		.4byte	0
 18963              	.LLST36:
 18964 0657 30020000 		.4byte	.LVL749
 18965 065b 34020000 		.4byte	.LVL750
 18966 065f 0100     		.2byte	0x1
 18967 0661 50       		.byte	0x50
 18968 0662 46020000 		.4byte	.LVL752
 18969 0666 D8020000 		.4byte	.LFE83
 18970 066a 0100     		.2byte	0x1
 18971 066c 50       		.byte	0x50
 18972 066d 00000000 		.4byte	0
 18973 0671 00000000 		.4byte	0
 18974              	.LLST37:
 18975 0675 00000000 		.4byte	.LVL754
 18976 0679 1E000000 		.4byte	.LVL755
 18977 067d 0100     		.2byte	0x1
 18978 067f 50       		.byte	0x50
 18979 0680 1E000000 		.4byte	.LVL755
 18980 0684 20000000 		.4byte	.LVL756
 18981 0688 0400     		.2byte	0x4
 18982 068a F3       		.byte	0xf3
 18983 068b 01       		.uleb128 0x1
 18984 068c 50       		.byte	0x50
 18985 068d 9F       		.byte	0x9f
 18986 068e 20000000 		.4byte	.LVL756
 18987 0692 22000000 		.4byte	.LVL757
 18988 0696 0100     		.2byte	0x1
 18989 0698 50       		.byte	0x50
 18990 0699 22000000 		.4byte	.LVL757
 18991 069d 24000000 		.4byte	.LVL758
 18992 06a1 0400     		.2byte	0x4
 18993 06a3 F3       		.byte	0xf3
 18994 06a4 01       		.uleb128 0x1
 18995 06a5 50       		.byte	0x50
 18996 06a6 9F       		.byte	0x9f
 18997 06a7 24000000 		.4byte	.LVL758
 18998 06ab 26000000 		.4byte	.LVL759
ARM GAS  C:\Users\USUARIO\AppData\Local\Temp\ccWuTYF0.s 			page 364


 18999 06af 0100     		.2byte	0x1
 19000 06b1 50       		.byte	0x50
 19001 06b2 26000000 		.4byte	.LVL759
 19002 06b6 2C000000 		.4byte	.LFE84
 19003 06ba 0400     		.2byte	0x4
 19004 06bc F3       		.byte	0xf3
 19005 06bd 01       		.uleb128 0x1
 19006 06be 50       		.byte	0x50
 19007 06bf 9F       		.byte	0x9f
 19008 06c0 00000000 		.4byte	0
 19009 06c4 00000000 		.4byte	0
 19010              		.section	.debug_aranges,"",%progbits
 19011 0000 04010000 		.4byte	0x104
 19012 0004 0200     		.2byte	0x2
 19013 0006 00000000 		.4byte	.Ldebug_info0
 19014 000a 04       		.byte	0x4
 19015 000b 00       		.byte	0
 19016 000c 0000     		.2byte	0
 19017 000e 0000     		.2byte	0
 19018 0010 00000000 		.4byte	.LFB64
 19019 0014 28000000 		.4byte	.LFE64-.LFB64
 19020 0018 00000000 		.4byte	.LFB65
 19021 001c 18000000 		.4byte	.LFE65-.LFB65
 19022 0020 00000000 		.4byte	.LFB66
 19023 0024 14000000 		.4byte	.LFE66-.LFB66
 19024 0028 00000000 		.4byte	.LFB67
 19025 002c 12000000 		.4byte	.LFE67-.LFB67
 19026 0030 00000000 		.4byte	.LFB68
 19027 0034 06000000 		.4byte	.LFE68-.LFB68
 19028 0038 00000000 		.4byte	.LFB69
 19029 003c AC060000 		.4byte	.LFE69-.LFB69
 19030 0040 00000000 		.4byte	.LFB70
 19031 0044 3E090000 		.4byte	.LFE70-.LFB70
 19032 0048 00000000 		.4byte	.LFB71
 19033 004c DC000000 		.4byte	.LFE71-.LFB71
 19034 0050 00000000 		.4byte	.LFB72
 19035 0054 680B0000 		.4byte	.LFE72-.LFB72
 19036 0058 00000000 		.4byte	.LFB73
 19037 005c 5C000000 		.4byte	.LFE73-.LFB73
 19038 0060 00000000 		.4byte	.LFB74
 19039 0064 E4000000 		.4byte	.LFE74-.LFB74
 19040 0068 00000000 		.4byte	.LFB75
 19041 006c 32000000 		.4byte	.LFE75-.LFB75
 19042 0070 00000000 		.4byte	.LFB76
 19043 0074 32000000 		.4byte	.LFE76-.LFB76
 19044 0078 00000000 		.4byte	.LFB77
 19045 007c 20040000 		.4byte	.LFE77-.LFB77
 19046 0080 00000000 		.4byte	.LFB78
 19047 0084 C4020000 		.4byte	.LFE78-.LFB78
 19048 0088 00000000 		.4byte	.LFB79
 19049 008c 78010000 		.4byte	.LFE79-.LFB79
 19050 0090 00000000 		.4byte	.LFB80
 19051 0094 78010000 		.4byte	.LFE80-.LFB80
 19052 0098 00000000 		.4byte	.LFB81
 19053 009c 24000000 		.4byte	.LFE81-.LFB81
 19054 00a0 00000000 		.4byte	.LFB82
 19055 00a4 90000000 		.4byte	.LFE82-.LFB82
ARM GAS  C:\Users\USUARIO\AppData\Local\Temp\ccWuTYF0.s 			page 365


 19056 00a8 00000000 		.4byte	.LFB83
 19057 00ac D8020000 		.4byte	.LFE83-.LFB83
 19058 00b0 00000000 		.4byte	.LFB84
 19059 00b4 2C000000 		.4byte	.LFE84-.LFB84
 19060 00b8 00000000 		.4byte	.LFB85
 19061 00bc B0000000 		.4byte	.LFE85-.LFB85
 19062 00c0 00000000 		.4byte	.LFB86
 19063 00c4 46000000 		.4byte	.LFE86-.LFB86
 19064 00c8 00000000 		.4byte	.LFB87
 19065 00cc 1C050000 		.4byte	.LFE87-.LFB87
 19066 00d0 00000000 		.4byte	.LFB88
 19067 00d4 0C050000 		.4byte	.LFE88-.LFB88
 19068 00d8 00000000 		.4byte	.LFB89
 19069 00dc E0020000 		.4byte	.LFE89-.LFB89
 19070 00e0 00000000 		.4byte	.LFB90
 19071 00e4 08010000 		.4byte	.LFE90-.LFB90
 19072 00e8 00000000 		.4byte	.LFB91
 19073 00ec 5C000000 		.4byte	.LFE91-.LFB91
 19074 00f0 00000000 		.4byte	.LFB92
 19075 00f4 38030000 		.4byte	.LFE92-.LFB92
 19076 00f8 00000000 		.4byte	.LFB93
 19077 00fc 90000000 		.4byte	.LFE93-.LFB93
 19078 0100 00000000 		.4byte	0
 19079 0104 00000000 		.4byte	0
 19080              		.section	.debug_ranges,"",%progbits
 19081              	.Ldebug_ranges0:
 19082 0000 00000000 		.4byte	.LFB64
 19083 0004 28000000 		.4byte	.LFE64
 19084 0008 00000000 		.4byte	.LFB65
 19085 000c 18000000 		.4byte	.LFE65
 19086 0010 00000000 		.4byte	.LFB66
 19087 0014 14000000 		.4byte	.LFE66
 19088 0018 00000000 		.4byte	.LFB67
 19089 001c 12000000 		.4byte	.LFE67
 19090 0020 00000000 		.4byte	.LFB68
 19091 0024 06000000 		.4byte	.LFE68
 19092 0028 00000000 		.4byte	.LFB69
 19093 002c AC060000 		.4byte	.LFE69
 19094 0030 00000000 		.4byte	.LFB70
 19095 0034 3E090000 		.4byte	.LFE70
 19096 0038 00000000 		.4byte	.LFB71
 19097 003c DC000000 		.4byte	.LFE71
 19098 0040 00000000 		.4byte	.LFB72
 19099 0044 680B0000 		.4byte	.LFE72
 19100 0048 00000000 		.4byte	.LFB73
 19101 004c 5C000000 		.4byte	.LFE73
 19102 0050 00000000 		.4byte	.LFB74
 19103 0054 E4000000 		.4byte	.LFE74
 19104 0058 00000000 		.4byte	.LFB75
 19105 005c 32000000 		.4byte	.LFE75
 19106 0060 00000000 		.4byte	.LFB76
 19107 0064 32000000 		.4byte	.LFE76
 19108 0068 00000000 		.4byte	.LFB77
 19109 006c 20040000 		.4byte	.LFE77
 19110 0070 00000000 		.4byte	.LFB78
 19111 0074 C4020000 		.4byte	.LFE78
 19112 0078 00000000 		.4byte	.LFB79
ARM GAS  C:\Users\USUARIO\AppData\Local\Temp\ccWuTYF0.s 			page 366


 19113 007c 78010000 		.4byte	.LFE79
 19114 0080 00000000 		.4byte	.LFB80
 19115 0084 78010000 		.4byte	.LFE80
 19116 0088 00000000 		.4byte	.LFB81
 19117 008c 24000000 		.4byte	.LFE81
 19118 0090 00000000 		.4byte	.LFB82
 19119 0094 90000000 		.4byte	.LFE82
 19120 0098 00000000 		.4byte	.LFB83
 19121 009c D8020000 		.4byte	.LFE83
 19122 00a0 00000000 		.4byte	.LFB84
 19123 00a4 2C000000 		.4byte	.LFE84
 19124 00a8 00000000 		.4byte	.LFB85
 19125 00ac B0000000 		.4byte	.LFE85
 19126 00b0 00000000 		.4byte	.LFB86
 19127 00b4 46000000 		.4byte	.LFE86
 19128 00b8 00000000 		.4byte	.LFB87
 19129 00bc 1C050000 		.4byte	.LFE87
 19130 00c0 00000000 		.4byte	.LFB88
 19131 00c4 0C050000 		.4byte	.LFE88
 19132 00c8 00000000 		.4byte	.LFB89
 19133 00cc E0020000 		.4byte	.LFE89
 19134 00d0 00000000 		.4byte	.LFB90
 19135 00d4 08010000 		.4byte	.LFE90
 19136 00d8 00000000 		.4byte	.LFB91
 19137 00dc 5C000000 		.4byte	.LFE91
 19138 00e0 00000000 		.4byte	.LFB92
 19139 00e4 38030000 		.4byte	.LFE92
 19140 00e8 00000000 		.4byte	.LFB93
 19141 00ec 90000000 		.4byte	.LFE93
 19142 00f0 00000000 		.4byte	0
 19143 00f4 00000000 		.4byte	0
 19144              		.section	.debug_line,"",%progbits
 19145              	.Ldebug_line0:
 19146 0000 110C0000 		.section	.debug_str,"MS",%progbits,1
 19146      0200DD02 
 19146      00000201 
 19146      FB0E0D00 
 19146      01010101 
 19147              	.LASF106:
 19148 0000 70727565 		.ascii	"prueba\000"
 19148      626100
 19149              	.LASF154:
 19150 0007 4D656469 		.ascii	"MediaMovil\000"
 19150      614D6F76 
 19150      696C00
 19151              	.LASF25:
 19152 0012 73697A65 		.ascii	"sizetype\000"
 19152      74797065 
 19152      00
 19153              	.LASF71:
 19154 001b 6D656469 		.ascii	"media2\000"
 19154      613200
 19155              	.LASF90:
 19156 0022 61637475 		.ascii	"actualizaEjeX\000"
 19156      616C697A 
 19156      61456A65 
 19156      5800
ARM GAS  C:\Users\USUARIO\AppData\Local\Temp\ccWuTYF0.s 			page 367


 19157              	.LASF255:
 19158 0030 4C656374 		.ascii	"Lectura\000"
 19158      75726100 
 19159              	.LASF231:
 19160 0038 666C6167 		.ascii	"flagVelocidad\000"
 19160      56656C6F 
 19160      63696461 
 19160      6400
 19161              	.LASF293:
 19162 0046 5469656D 		.ascii	"TiempoActual\000"
 19162      706F4163 
 19162      7475616C 
 19162      00
 19163              	.LASF112:
 19164 0053 64657363 		.ascii	"desconectoHumedad\000"
 19164      6F6E6563 
 19164      746F4875 
 19164      6D656461 
 19164      6400
 19165              	.LASF371:
 19166 0065 45544830 		.ascii	"ETH0_SocketRxDataWaiting\000"
 19166      5F536F63 
 19166      6B657452 
 19166      78446174 
 19166      61576169 
 19167              	.LASF216:
 19168 007e 4369636C 		.ascii	"CicloLibre\000"
 19168      6F4C6962 
 19168      726500
 19169              	.LASF14:
 19170 0089 696E7433 		.ascii	"int32_t\000"
 19170      325F7400 
 19171              	.LASF295:
 19172 0091 486F7261 		.ascii	"HorasActual\000"
 19172      73416374 
 19172      75616C00 
 19173              	.LASF370:
 19174 009d 45544830 		.ascii	"ETH0_TcpConnected\000"
 19174      5F546370 
 19174      436F6E6E 
 19174      65637465 
 19174      6400
 19175              	.LASF121:
 19176 00af 54334875 		.ascii	"T3Humedad\000"
 19176      6D656461 
 19176      6400
 19177              	.LASF18:
 19178 00b9 75696E74 		.ascii	"uint32\000"
 19178      333200
 19179              	.LASF93:
 19180 00c0 64617461 		.ascii	"dataEthernet\000"
 19180      45746865 
 19180      726E6574 
 19180      00
 19181              	.LASF156:
 19182 00cd 54636963 		.ascii	"Tciclo\000"
 19182      6C6F00
ARM GAS  C:\Users\USUARIO\AppData\Local\Temp\ccWuTYF0.s 			page 368


 19183              	.LASF292:
 19184 00d4 5470756C 		.ascii	"Tpulsomin2\000"
 19184      736F6D69 
 19184      6E3200
 19185              	.LASF164:
 19186 00df 53657470 		.ascii	"SetpointHAnt\000"
 19186      6F696E74 
 19186      48416E74 
 19186      00
 19187              	.LASF74:
 19188 00ec 616A6E32 		.ascii	"ajn2\000"
 19188      00
 19189              	.LASF115:
 19190 00f1 48756D69 		.ascii	"Humidificar\000"
 19190      64696669 
 19190      63617200 
 19191              	.LASF228:
 19192 00fd 53756363 		.ascii	"Succion\000"
 19192      696F6E00 
 19193              	.LASF188:
 19194 0105 76616C6F 		.ascii	"valor\000"
 19194      7200
 19195              	.LASF146:
 19196 010b 64697370 		.ascii	"displayStr\000"
 19196      6C617953 
 19196      747200
 19197              	.LASF70:
 19198 0116 6C656550 		.ascii	"leePt1002\000"
 19198      74313030 
 19198      3200
 19199              	.LASF205:
 19200 0120 4461746F 		.ascii	"Dato2\000"
 19200      3200
 19201              	.LASF206:
 19202 0126 4461746F 		.ascii	"Dato3\000"
 19202      3300
 19203              	.LASF253:
 19204 012c 666C6167 		.ascii	"flag_setpoint\000"
 19204      5F736574 
 19204      706F696E 
 19204      7400
 19205              	.LASF53:
 19206 013a 6E69626C 		.ascii	"nibleh\000"
 19206      656800
 19207              	.LASF54:
 19208 0141 6E69626C 		.ascii	"niblel\000"
 19208      656C00
 19209              	.LASF144:
 19210 0148 74637556 		.ascii	"tcuVolt\000"
 19210      6F6C7400 
 19211              	.LASF259:
 19212 0150 666C6167 		.ascii	"flag_calcula\000"
 19212      5F63616C 
 19212      63756C61 
 19212      00
 19213              	.LASF84:
 19214 015d 79656172 		.ascii	"year\000"
ARM GAS  C:\Users\USUARIO\AppData\Local\Temp\ccWuTYF0.s 			page 369


 19214      00
 19215              	.LASF137:
 19216 0162 5375626E 		.ascii	"Subnet\000"
 19216      657400
 19217              	.LASF319:
 19218 0169 61646352 		.ascii	"adcReading\000"
 19218      65616469 
 19218      6E6700
 19219              	.LASF168:
 19220 0174 53657470 		.ascii	"SetpointAnt\000"
 19220      6F696E74 
 19220      416E7400 
 19221              	.LASF19:
 19222 0180 696E7438 		.ascii	"int8\000"
 19222      00
 19223              	.LASF214:
 19224 0185 5469706F 		.ascii	"TipoClave\000"
 19224      436C6176 
 19224      6500
 19225              	.LASF116:
 19226 018f 666C6167 		.ascii	"flagHumedad\000"
 19226      48756D65 
 19226      64616400 
 19227              	.LASF362:
 19228 019b 4C455645 		.ascii	"LEVEL_Read\000"
 19228      4C5F5265 
 19228      616400
 19229              	.LASF334:
 19230 01a6 70726F6D 		.ascii	"promediolm35\000"
 19230      6564696F 
 19230      6C6D3335 
 19230      00
 19231              	.LASF250:
 19232 01b3 7469656D 		.ascii	"tiempodn\000"
 19232      706F646E 
 19232      00
 19233              	.LASF153:
 19234 01bc 496E7465 		.ascii	"Integral\000"
 19234      6772616C 
 19234      00
 19235              	.LASF194:
 19236 01c5 52785F42 		.ascii	"Rx_Buffer\000"
 19236      75666665 
 19236      7200
 19237              	.LASF73:
 19238 01cf 616A7032 		.ascii	"ajp2\000"
 19238      00
 19239              	.LASF5:
 19240 01d4 5F5F7569 		.ascii	"__uint8_t\000"
 19240      6E74385F 
 19240      7400
 19241              	.LASF301:
 19242 01de 72657375 		.ascii	"result\000"
 19242      6C7400
 19243              	.LASF147:
 19244 01e5 53747232 		.ascii	"Str2\000"
 19244      00
ARM GAS  C:\Users\USUARIO\AppData\Local\Temp\ccWuTYF0.s 			page 370


 19245              	.LASF361:
 19246 01ea 4352385F 		.ascii	"CR8_Write\000"
 19246      57726974 
 19246      6500
 19247              	.LASF48:
 19248 01f4 64656369 		.ascii	"decimal\000"
 19248      6D616C00 
 19249              	.LASF284:
 19250 01fc 5470756C 		.ascii	"Tpulso\000"
 19250      736F00
 19251              	.LASF302:
 19252 0203 50726F6D 		.ascii	"Prom\000"
 19252      00
 19253              	.LASF237:
 19254 0208 68457374 		.ascii	"hEstp\000"
 19254      7000
 19255              	.LASF7:
 19256 020e 6C6F6E67 		.ascii	"long int\000"
 19256      20696E74 
 19256      00
 19257              	.LASF354:
 19258 0217 42555A5A 		.ascii	"BUZZER_Write\000"
 19258      45525F57 
 19258      72697465 
 19258      00
 19259              	.LASF113:
 19260 0224 52656775 		.ascii	"Regular\000"
 19260      6C617200 
 19261              	.LASF233:
 19262 022c 50617373 		.ascii	"Password\000"
 19262      776F7264 
 19262      00
 19263              	.LASF31:
 19264 0235 54656D70 		.ascii	"Temperatura\000"
 19264      65726174 
 19264      75726100 
 19265              	.LASF336:
 19266 0241 45455052 		.ascii	"EEPROM_ReadByte\000"
 19266      4F4D5F52 
 19266      65616442 
 19266      79746500 
 19267              	.LASF353:
 19268 0251 4144435F 		.ascii	"ADC_SAR_CountsTo_Volts\000"
 19268      5341525F 
 19268      436F756E 
 19268      7473546F 
 19268      5F566F6C 
 19269              	.LASF304:
 19270 0268 54656D70 		.ascii	"Temperature\000"
 19270      65726174 
 19270      75726500 
 19271              	.LASF271:
 19272 0274 436F6E74 		.ascii	"Controlando\000"
 19272      726F6C61 
 19272      6E646F00 
 19273              	.LASF4:
 19274 0280 73686F72 		.ascii	"short unsigned int\000"
ARM GAS  C:\Users\USUARIO\AppData\Local\Temp\ccWuTYF0.s 			page 371


 19274      7420756E 
 19274      7369676E 
 19274      65642069 
 19274      6E7400
 19275              	.LASF215:
 19276 0293 5365676D 		.ascii	"Segmentos\000"
 19276      656E746F 
 19276      7300
 19277              	.LASF126:
 19278 029d 746C6576 		.ascii	"tlevel\000"
 19278      656C00
 19279              	.LASF30:
 19280 02a4 48756D65 		.ascii	"Humedad\000"
 19280      64616400 
 19281              	.LASF376:
 19282 02ac 474E5520 		.ascii	"GNU C11 5.4.1 20160609 (release) [ARM/embedded-5-br"
 19282      43313120 
 19282      352E342E 
 19282      31203230 
 19282      31363036 
 19283 02df 616E6368 		.ascii	"anch revision 237715] -mcpu=cortex-m3 -mthumb -g -O"
 19283      20726576 
 19283      6973696F 
 19283      6E203233 
 19283      37373135 
 19284 0312 67202D66 		.ascii	"g -ffunction-sections -ffat-lto-objects\000"
 19284      66756E63 
 19284      74696F6E 
 19284      2D736563 
 19284      74696F6E 
 19285              	.LASF287:
 19286 033a 6572726F 		.ascii	"error\000"
 19286      7200
 19287              	.LASF257:
 19288 0340 666C6167 		.ascii	"flagdn\000"
 19288      646E00
 19289              	.LASF109:
 19290 0347 666C6167 		.ascii	"flagRed\000"
 19290      52656400 
 19291              	.LASF198:
 19292 034f 52585F43 		.ascii	"RX_Counter\000"
 19292      6F756E74 
 19292      657200
 19293              	.LASF378:
 19294 035a 443A5C4C 		.ascii	"D:\\Laboratorio\\Camara Climatica\\2021\\Camara Cli"
 19294      61626F72 
 19294      61746F72 
 19294      696F5C43 
 19294      616D6172 
 19295 0389 6D617469 		.ascii	"matica Peltier Touch Asemp Zomac SAS 256L #0045886X"
 19295      63612050 
 19295      656C7469 
 19295      65722054 
 19295      6F756368 
 19296 03bc 58204F50 		.ascii	"X OP2021161\\Firmware Psoc\\LCD2\\CamaraClimatica.c"
 19296      32303231 
 19296      3136315C 
ARM GAS  C:\Users\USUARIO\AppData\Local\Temp\ccWuTYF0.s 			page 372


 19296      4669726D 
 19296      77617265 
 19297 03ec 7964736E 		.ascii	"ydsn\000"
 19297      00
 19298              	.LASF308:
 19299 03f1 486F7261 		.ascii	"HoraTx\000"
 19299      547800
 19300              	.LASF81:
 19301 03f8 50726F6D 		.ascii	"PromTa\000"
 19301      546100
 19302              	.LASF297:
 19303 03ff 5469656D 		.ascii	"TiempoRampa\000"
 19303      706F5261 
 19303      6D706100 
 19304              	.LASF51:
 19305 040b 6461746F 		.ascii	"dato\000"
 19305      00
 19306              	.LASF181:
 19307 0410 65737461 		.ascii	"estadoBuzzer\000"
 19307      646F4275 
 19307      7A7A6572 
 19307      00
 19308              	.LASF320:
 19309 041d 70726573 		.ascii	"presmV\000"
 19309      6D5600
 19310              	.LASF252:
 19311 0424 4C656374 		.ascii	"Lectura2\000"
 19311      75726132 
 19311      00
 19312              	.LASF1:
 19313 042d 7369676E 		.ascii	"signed char\000"
 19313      65642063 
 19313      68617200 
 19314              	.LASF143:
 19315 0439 7463486F 		.ascii	"tcHotJnuVolt\000"
 19315      744A6E75 
 19315      566F6C74 
 19315      00
 19316              	.LASF13:
 19317 0446 75696E74 		.ascii	"uint8_t\000"
 19317      385F7400 
 19318              	.LASF202:
 19319 044e 52585F52 		.ascii	"RX_Rd_Index2\000"
 19319      645F496E 
 19319      64657832 
 19319      00
 19320              	.LASF127:
 19321 045b 746C6576 		.ascii	"tlevelH\000"
 19321      656C4800 
 19322              	.LASF230:
 19323 0463 456E6672 		.ascii	"Enfria\000"
 19323      696100
 19324              	.LASF98:
 19325 046a 70776D31 		.ascii	"pwm1\000"
 19325      00
 19326              	.LASF99:
 19327 046f 70776D32 		.ascii	"pwm2\000"
ARM GAS  C:\Users\USUARIO\AppData\Local\Temp\ccWuTYF0.s 			page 373


 19327      00
 19328              	.LASF2:
 19329 0474 756E7369 		.ascii	"unsigned char\000"
 19329      676E6564 
 19329      20636861 
 19329      7200
 19330              	.LASF155:
 19331 0482 4D656469 		.ascii	"MediaMovil2\000"
 19331      614D6F76 
 19331      696C3200 
 19332              	.LASF262:
 19333 048e 666C6167 		.ascii	"flag_ajuste\000"
 19333      5F616A75 
 19333      73746500 
 19334              	.LASF141:
 19335 049a 686F744A 		.ascii	"hotJnCount\000"
 19335      6E436F75 
 19335      6E7400
 19336              	.LASF347:
 19337 04a5 4D656173 		.ascii	"MeasureRefResVoltage\000"
 19337      75726552 
 19337      65665265 
 19337      73566F6C 
 19337      74616765 
 19338              	.LASF324:
 19339 04ba 70726573 		.ascii	"presionHorno\000"
 19339      696F6E48 
 19339      6F726E6F 
 19339      00
 19340              	.LASF89:
 19341 04c7 636F6E74 		.ascii	"controlaTemperatura\000"
 19341      726F6C61 
 19341      54656D70 
 19341      65726174 
 19341      75726100 
 19342              	.LASF177:
 19343 04db 70756C73 		.ascii	"pulsoDisminuir\000"
 19343      6F446973 
 19343      6D696E75 
 19343      697200
 19344              	.LASF296:
 19345 04ea 5469656D 		.ascii	"Tiempo\000"
 19345      706F00
 19346              	.LASF180:
 19347 04f1 65737461 		.ascii	"estadoSSR\000"
 19347      646F5353 
 19347      5200
 19348              	.LASF103:
 19349 04fb 62797465 		.ascii	"bytes\000"
 19349      7300
 19350              	.LASF203:
 19351 0501 52585F43 		.ascii	"RX_Counter2\000"
 19351      6F756E74 
 19351      65723200 
 19352              	.LASF278:
 19353 050d 50656E64 		.ascii	"PendienteActual\000"
 19353      69656E74 
ARM GAS  C:\Users\USUARIO\AppData\Local\Temp\ccWuTYF0.s 			page 374


 19353      65416374 
 19353      75616C00 
 19354              	.LASF23:
 19355 051d 63686172 		.ascii	"char\000"
 19355      00
 19356              	.LASF169:
 19357 0522 6F757470 		.ascii	"output\000"
 19357      757400
 19358              	.LASF239:
 19359 0529 68457374 		.ascii	"hEstpAnt\000"
 19359      70416E74 
 19359      00
 19360              	.LASF367:
 19361 0532 55534255 		.ascii	"USBUART_PutString\000"
 19361      4152545F 
 19361      50757453 
 19361      7472696E 
 19361      6700
 19362              	.LASF265:
 19363 0544 636F6E74 		.ascii	"conteoPregunta\000"
 19363      656F5072 
 19363      6567756E 
 19363      746100
 19364              	.LASF321:
 19365 0553 6C6D3335 		.ascii	"lm35\000"
 19365      00
 19366              	.LASF192:
 19367 0558 76616369 		.ascii	"vacio\000"
 19367      6F00
 19368              	.LASF283:
 19369 055e 506F7465 		.ascii	"PotenciaEntregada\000"
 19369      6E636961 
 19369      456E7472 
 19369      65676164 
 19369      6100
 19370              	.LASF149:
 19371 0570 50616E74 		.ascii	"PantallaPrincipal\000"
 19371      616C6C61 
 19371      5072696E 
 19371      63697061 
 19371      6C00
 19372              	.LASF165:
 19373 0582 64657269 		.ascii	"derivativo_ant\000"
 19373      76617469 
 19373      766F5F61 
 19373      6E7400
 19374              	.LASF179:
 19375 0591 436F6E74 		.ascii	"Control\000"
 19375      726F6C00 
 19376              	.LASF139:
 19377 0599 636F6C64 		.ascii	"coldJnTemp\000"
 19377      4A6E5465 
 19377      6D7000
 19378              	.LASF167:
 19379 05a4 53657470 		.ascii	"Setpoint\000"
 19379      6F696E74 
 19379      00
ARM GAS  C:\Users\USUARIO\AppData\Local\Temp\ccWuTYF0.s 			page 375


 19380              	.LASF207:
 19381 05ad 4461746F 		.ascii	"Dato_Exitoso\000"
 19381      5F457869 
 19381      746F736F 
 19381      00
 19382              	.LASF244:
 19383 05ba 5469656D 		.ascii	"TiempoControl\000"
 19383      706F436F 
 19383      6E74726F 
 19383      6C00
 19384              	.LASF355:
 19385 05c8 4352315F 		.ascii	"CR1_Write\000"
 19385      57726974 
 19385      6500
 19386              	.LASF151:
 19387 05d2 4F706369 		.ascii	"Opcion2\000"
 19387      6F6E3200 
 19388              	.LASF315:
 19389 05da 64656354 		.ascii	"decTemp\000"
 19389      656D7000 
 19390              	.LASF131:
 19391 05e2 68756D65 		.ascii	"humedadDisplay\000"
 19391      64616444 
 19391      6973706C 
 19391      617900
 19392              	.LASF234:
 19393 05f1 7469656D 		.ascii	"tiempo_esterilizacion\000"
 19393      706F5F65 
 19393      73746572 
 19393      696C697A 
 19393      6163696F 
 19394              	.LASF221:
 19395 0607 496E6963 		.ascii	"Inicio2\000"
 19395      696F3200 
 19396              	.LASF289:
 19397 060f 5470756C 		.ascii	"TpulsoMax\000"
 19397      736F4D61 
 19397      7800
 19398              	.LASF235:
 19399 0619 68457374 		.ascii	"hEst\000"
 19399      00
 19400              	.LASF140:
 19401 061e 7463436F 		.ascii	"tcColdJnuVolt\000"
 19401      6C644A6E 
 19401      75566F6C 
 19401      7400
 19402              	.LASF210:
 19403 062c 4D656E75 		.ascii	"MenuAntt\000"
 19403      416E7474 
 19403      00
 19404              	.LASF76:
 19405 0635 696E7075 		.ascii	"input\000"
 19405      7400
 19406              	.LASF161:
 19407 063b 4D6F6475 		.ascii	"Modulo\000"
 19407      6C6F00
 19408              	.LASF366:
ARM GAS  C:\Users\USUARIO\AppData\Local\Temp\ccWuTYF0.s 			page 376


 19409 0642 55534255 		.ascii	"USBUART_CDC_Init\000"
 19409      4152545F 
 19409      4344435F 
 19409      496E6974 
 19409      00
 19410              	.LASF32:
 19411 0653 50657273 		.ascii	"Personalizado\000"
 19411      6F6E616C 
 19411      697A6164 
 19411      6F00
 19412              	.LASF67:
 19413 0661 6D656469 		.ascii	"media\000"
 19413      6100
 19414              	.LASF314:
 19415 0667 66696C74 		.ascii	"filt\000"
 19415      00
 19416              	.LASF95:
 19417 066c 72616D70 		.ascii	"rampas\000"
 19417      617300
 19418              	.LASF92:
 19419 0673 64617461 		.ascii	"dataUSB\000"
 19419      55534200 
 19420              	.LASF163:
 19421 067b 53657470 		.ascii	"SetpointH\000"
 19421      6F696E74 
 19421      4800
 19422              	.LASF356:
 19423 0685 4352325F 		.ascii	"CR2_Write\000"
 19423      57726974 
 19423      6500
 19424              	.LASF323:
 19425 068f 54656D70 		.ascii	"Temporal\000"
 19425      6F72616C 
 19425      00
 19426              	.LASF42:
 19427 0698 43616C69 		.ascii	"Calibracion\000"
 19427      62726163 
 19427      696F6E00 
 19428              	.LASF373:
 19429 06a4 77656269 		.ascii	"webif_data\000"
 19429      665F6461 
 19429      746100
 19430              	.LASF348:
 19431 06af 47657452 		.ascii	"GetRTDRes\000"
 19431      54445265 
 19431      7300
 19432              	.LASF317:
 19433 06b9 64656354 		.ascii	"decTemphf\000"
 19433      656D7068 
 19433      6600
 19434              	.LASF191:
 19435 06c3 47616E61 		.ascii	"GananciaIn\000"
 19435      6E636961 
 19435      496E00
 19436              	.LASF35:
 19437 06ce 47726166 		.ascii	"Grafica\000"
 19437      69636100 
ARM GAS  C:\Users\USUARIO\AppData\Local\Temp\ccWuTYF0.s 			page 377


 19438              	.LASF63:
 19439 06d6 65736372 		.ascii	"escribeDisplay1\000"
 19439      69626544 
 19439      6973706C 
 19439      61793100 
 19440              	.LASF64:
 19441 06e6 65736372 		.ascii	"escribeDisplay2\000"
 19441      69626544 
 19441      6973706C 
 19441      61793200 
 19442              	.LASF267:
 19443 06f6 696D7072 		.ascii	"imprime\000"
 19443      696D6500 
 19444              	.LASF248:
 19445 06fe 7469656D 		.ascii	"tiempocalentamiento\000"
 19445      706F6361 
 19445      6C656E74 
 19445      616D6965 
 19445      6E746F00 
 19446              	.LASF120:
 19447 0712 54324875 		.ascii	"T2Humedad\000"
 19447      6D656461 
 19447      6400
 19448              	.LASF357:
 19449 071c 4352335F 		.ascii	"CR3_Write\000"
 19449      57726974 
 19449      6500
 19450              	.LASF9:
 19451 0726 6C6F6E67 		.ascii	"long unsigned int\000"
 19451      20756E73 
 19451      69676E65 
 19451      6420696E 
 19451      7400
 19452              	.LASF85:
 19453 0738 4C696D69 		.ascii	"LimitaDia\000"
 19453      74614469 
 19453      6100
 19454              	.LASF62:
 19455 0742 42756666 		.ascii	"Buffer\000"
 19455      657200
 19456              	.LASF78:
 19457 0749 50726F6D 		.ascii	"Promlm35\000"
 19457      6C6D3335 
 19457      00
 19458              	.LASF183:
 19459 0752 666C6167 		.ascii	"flagFinalizo\000"
 19459      46696E61 
 19459      6C697A6F 
 19459      00
 19460              	.LASF123:
 19461 075f 74646568 		.ascii	"tdehumidificador\000"
 19461      756D6964 
 19461      69666963 
 19461      61646F72 
 19461      00
 19462              	.LASF307:
 19463 0770 44696154 		.ascii	"DiaTx\000"
ARM GAS  C:\Users\USUARIO\AppData\Local\Temp\ccWuTYF0.s 			page 378


 19463      7800
 19464              	.LASF309:
 19465 0776 4D696E75 		.ascii	"MinutoTx\000"
 19465      746F5478 
 19465      00
 19466              	.LASF66:
 19467 077f 6C656550 		.ascii	"leePt100\000"
 19467      74313030 
 19467      00
 19468              	.LASF364:
 19469 0788 73707269 		.ascii	"sprintf\000"
 19469      6E746600 
 19470              	.LASF358:
 19471 0790 4352345F 		.ascii	"CR4_Write\000"
 19471      57726974 
 19471      6500
 19472              	.LASF60:
 19473 079a 4375656E 		.ascii	"CuentaTiempo\000"
 19473      74615469 
 19473      656D706F 
 19473      00
 19474              	.LASF79:
 19475 07a7 6C656548 		.ascii	"leeHumedad\000"
 19475      756D6564 
 19475      616400
 19476              	.LASF227:
 19477 07b2 78313030 		.ascii	"x100\000"
 19477      00
 19478              	.LASF96:
 19479 07b7 67726170 		.ascii	"graph\000"
 19479      6800
 19480              	.LASF277:
 19481 07bd 41756D65 		.ascii	"Aumento\000"
 19481      6E746F00 
 19482              	.LASF286:
 19483 07c5 70656E4D 		.ascii	"penMufla\000"
 19483      75666C61 
 19483      00
 19484              	.LASF273:
 19485 07ce 666C6167 		.ascii	"flag_ganancia\000"
 19485      5F67616E 
 19485      616E6369 
 19485      6100
 19486              	.LASF97:
 19487 07dc 63616C69 		.ascii	"calib\000"
 19487      6200
 19488              	.LASF87:
 19489 07e2 636F6E74 		.ascii	"controlaHumedad\000"
 19489      726F6C61 
 19489      48756D65 
 19489      64616400 
 19490              	.LASF8:
 19491 07f2 5F5F7569 		.ascii	"__uint32_t\000"
 19491      6E743332 
 19491      5F7400
 19492              	.LASF10:
 19493 07fd 6C6F6E67 		.ascii	"long long int\000"
ARM GAS  C:\Users\USUARIO\AppData\Local\Temp\ccWuTYF0.s 			page 379


 19493      206C6F6E 
 19493      6720696E 
 19493      7400
 19494              	.LASF45:
 19495 080b 65787472 		.ascii	"extraeDecimal2\000"
 19495      61654465 
 19495      63696D61 
 19495      6C3200
 19496              	.LASF220:
 19497 081a 496E6963 		.ascii	"Inicio\000"
 19497      696F00
 19498              	.LASF285:
 19499 0821 70656E49 		.ascii	"penInicial\000"
 19499      6E696369 
 19499      616C00
 19500              	.LASF332:
 19501 082c 70726F6D 		.ascii	"promedioT1\000"
 19501      6564696F 
 19501      543100
 19502              	.LASF333:
 19503 0837 70726F6D 		.ascii	"promedioT2\000"
 19503      6564696F 
 19503      543200
 19504              	.LASF22:
 19505 0842 646F7562 		.ascii	"double\000"
 19505      6C6500
 19506              	.LASF316:
 19507 0849 64656354 		.ascii	"decTemplf\000"
 19507      656D706C 
 19507      6600
 19508              	.LASF372:
 19509 0853 45544830 		.ascii	"ETH0_TcpReceive\000"
 19509      5F546370 
 19509      52656365 
 19509      69766500 
 19510              	.LASF124:
 19511 0863 7468756D 		.ascii	"thumidificador\000"
 19511      69646966 
 19511      69636164 
 19511      6F7200
 19512              	.LASF135:
 19513 0872 70726F6D 		.ascii	"promedioTa\000"
 19513      6564696F 
 19513      546100
 19514              	.LASF294:
 19515 087d 4D696E75 		.ascii	"MinutosActual\000"
 19515      746F7341 
 19515      63747561 
 19515      6C00
 19516              	.LASF94:
 19517 088b 49544D5F 		.ascii	"ITM_RxBuffer\000"
 19517      52784275 
 19517      66666572 
 19517      00
 19518              	.LASF117:
 19519 0898 68756D69 		.ascii	"humidificador\000"
 19519      64696669 
ARM GAS  C:\Users\USUARIO\AppData\Local\Temp\ccWuTYF0.s 			page 380


 19519      6361646F 
 19519      7200
 19520              	.LASF224:
 19521 08a6 47756172 		.ascii	"GuardaEEPROM\000"
 19521      64614545 
 19521      50524F4D 
 19521      00
 19522              	.LASF369:
 19523 08b3 45544830 		.ascii	"ETH0_TcpStartServer\000"
 19523      5F546370 
 19523      53746172 
 19523      74536572 
 19523      76657200 
 19524              	.LASF44:
 19525 08c7 65787472 		.ascii	"extraeDecimal\000"
 19525      61654465 
 19525      63696D61 
 19525      6C00
 19526              	.LASF197:
 19527 08d5 52585F52 		.ascii	"RX_Rd_Index\000"
 19527      645F496E 
 19527      64657800 
 19528              	.LASF232:
 19529 08e1 656E7669 		.ascii	"envioUSB\000"
 19529      6F555342 
 19529      00
 19530              	.LASF12:
 19531 08ea 756E7369 		.ascii	"unsigned int\000"
 19531      676E6564 
 19531      20696E74 
 19531      00
 19532              	.LASF339:
 19533 08f7 4352365F 		.ascii	"CR6_Write\000"
 19533      57726974 
 19533      6500
 19534              	.LASF61:
 19535 0901 696E6963 		.ascii	"iniciaConteo\000"
 19535      6961436F 
 19535      6E74656F 
 19535      00
 19536              	.LASF338:
 19537 090e 45455052 		.ascii	"EEPROM_WriteByte\000"
 19537      4F4D5F57 
 19537      72697465 
 19537      42797465 
 19537      00
 19538              	.LASF379:
 19539 091f 4C656544 		.ascii	"LeeDisplay\000"
 19539      6973706C 
 19539      617900
 19540              	.LASF238:
 19541 092a 6D457374 		.ascii	"mEstp\000"
 19541      7000
 19542              	.LASF275:
 19543 0930 50617573 		.ascii	"Pausa\000"
 19543      6100
 19544              	.LASF300:
ARM GAS  C:\Users\USUARIO\AppData\Local\Temp\ccWuTYF0.s 			page 381


 19545 0936 47616E61 		.ascii	"GananciaR\000"
 19545      6E636961 
 19545      5200
 19546              	.LASF34:
 19547 0940 4D696E75 		.ascii	"Minuto\000"
 19547      746F00
 19548              	.LASF312:
 19549 0947 72746454 		.ascii	"rtdTemp\000"
 19549      656D7000 
 19550              	.LASF211:
 19551 094f 4D656E75 		.ascii	"MenuAnt\000"
 19551      416E7400 
 19552              	.LASF33:
 19553 0957 486F7261 		.ascii	"Hora\000"
 19553      00
 19554              	.LASF326:
 19555 095c 746D7565 		.ascii	"tmuestreoUSB\000"
 19555      73747265 
 19555      6F555342 
 19555      00
 19556              	.LASF102:
 19557 0969 74446973 		.ascii	"tDisplayHumedad\000"
 19557      706C6179 
 19557      48756D65 
 19557      64616400 
 19558              	.LASF77:
 19559 0979 6C65654C 		.ascii	"leeLM35\000"
 19559      4D333500 
 19560              	.LASF247:
 19561 0981 74696E69 		.ascii	"tinicio\000"
 19561      63696F00 
 19562              	.LASF83:
 19563 0989 65734269 		.ascii	"esBisiesto\000"
 19563      73696573 
 19563      746F00
 19564              	.LASF178:
 19565 0994 666C6167 		.ascii	"flagBorrado\000"
 19565      426F7272 
 19565      61646F00 
 19566              	.LASF138:
 19567 09a0 6F666673 		.ascii	"offset\000"
 19567      657400
 19568              	.LASF279:
 19569 09a7 44696650 		.ascii	"DifPendiente\000"
 19569      656E6469 
 19569      656E7465 
 19569      00
 19570              	.LASF49:
 19571 09b4 636F6E76 		.ascii	"convert8\000"
 19571      65727438 
 19571      00
 19572              	.LASF160:
 19573 09bd 416A7573 		.ascii	"Ajusten2\000"
 19573      74656E32 
 19573      00
 19574              	.LASF148:
 19575 09c6 66697273 		.ascii	"first\000"
ARM GAS  C:\Users\USUARIO\AppData\Local\Temp\ccWuTYF0.s 			page 382


 19575      7400
 19576              	.LASF36:
 19577 09cc 636F6E74 		.ascii	"control1\000"
 19577      726F6C31 
 19577      00
 19578              	.LASF37:
 19579 09d5 636F6E74 		.ascii	"control2\000"
 19579      726F6C32 
 19579      00
 19580              	.LASF38:
 19581 09de 636F6E74 		.ascii	"control3\000"
 19581      726F6C33 
 19581      00
 19582              	.LASF175:
 19583 09e7 64696275 		.ascii	"dibujo\000"
 19583      6A6F00
 19584              	.LASF241:
 19585 09ee 5365676D 		.ascii	"Segmento\000"
 19585      656E746F 
 19585      00
 19586              	.LASF282:
 19587 09f7 54656D70 		.ascii	"TemperaturaIdeal\000"
 19587      65726174 
 19587      75726149 
 19587      6465616C 
 19587      00
 19588              	.LASF243:
 19589 0a08 7469656D 		.ascii	"tiemporeset\000"
 19589      706F7265 
 19589      73657400 
 19590              	.LASF254:
 19591 0a14 666C6167 		.ascii	"flag_tiempocalentamiento\000"
 19591      5F746965 
 19591      6D706F63 
 19591      616C656E 
 19591      74616D69 
 19592              	.LASF170:
 19593 0a2d 74477261 		.ascii	"tGrafica\000"
 19593      66696361 
 19593      00
 19594              	.LASF125:
 19595 0a36 746C6C65 		.ascii	"tllenado\000"
 19595      6E61646F 
 19595      00
 19596              	.LASF136:
 19597 0a3f 47617465 		.ascii	"Gateway\000"
 19597      77617900 
 19598              	.LASF328:
 19599 0a47 636F6E74 		.ascii	"controlH\000"
 19599      726F6C48 
 19599      00
 19600              	.LASF330:
 19601 0a50 636F6E74 		.ascii	"controlR\000"
 19601      726F6C52 
 19601      00
 19602              	.LASF329:
 19603 0a59 636F6E74 		.ascii	"controlT\000"
ARM GAS  C:\Users\USUARIO\AppData\Local\Temp\ccWuTYF0.s 			page 383


 19603      726F6C54 
 19603      00
 19604              	.LASF377:
 19605 0a62 66756E63 		.ascii	"funciones.c\000"
 19605      696F6E65 
 19605      732E6300 
 19606              	.LASF281:
 19607 0a6e 50656E64 		.ascii	"Pendiente\000"
 19607      69656E74 
 19607      6500
 19608              	.LASF345:
 19609 0a78 55415254 		.ascii	"UART_2_PutString\000"
 19609      5F325F50 
 19609      75745374 
 19609      72696E67 
 19609      00
 19610              	.LASF222:
 19611 0a89 45737461 		.ascii	"EstadoPaso\000"
 19611      646F5061 
 19611      736F00
 19612              	.LASF266:
 19613 0a94 67726166 		.ascii	"grafica\000"
 19613      69636100 
 19614              	.LASF270:
 19615 0a9c 666C6167 		.ascii	"flagControlH\000"
 19615      436F6E74 
 19615      726F6C48 
 19615      00
 19616              	.LASF133:
 19617 0aa9 6D617848 		.ascii	"maxH\000"
 19617      00
 19618              	.LASF65:
 19619 0aae 636F6E74 		.ascii	"controlaRampa\000"
 19619      726F6C61 
 19619      52616D70 
 19619      6100
 19620              	.LASF24:
 19621 0abc 6C6F6E67 		.ascii	"long double\000"
 19621      20646F75 
 19621      626C6500 
 19622              	.LASF26:
 19623 0ac8 54656D70 		.ascii	"TemperaturaDec\000"
 19623      65726174 
 19623      75726144 
 19623      656300
 19624              	.LASF269:
 19625 0ad7 666C6167 		.ascii	"flagControlT\000"
 19625      436F6E74 
 19625      726F6C54 
 19625      00
 19626              	.LASF142:
 19627 0ae4 66696C48 		.ascii	"filHotJnCount\000"
 19627      6F744A6E 
 19627      436F756E 
 19627      7400
 19628              	.LASF306:
 19629 0af2 4D657354 		.ascii	"MesTx\000"
ARM GAS  C:\Users\USUARIO\AppData\Local\Temp\ccWuTYF0.s 			page 384


 19629      7800
 19630              	.LASF351:
 19631 0af8 4144435F 		.ascii	"ADC_SAR_GetResult16\000"
 19631      5341525F 
 19631      47657452 
 19631      6573756C 
 19631      74313600 
 19632              	.LASF342:
 19633 0b0c 55415254 		.ascii	"UART_1_PutString\000"
 19633      5F315F50 
 19633      75745374 
 19633      72696E67 
 19633      00
 19634              	.LASF100:
 19635 0b1d 64617461 		.ascii	"data2\000"
 19635      3200
 19636              	.LASF223:
 19637 0b23 656E7472 		.ascii	"entro\000"
 19637      6F00
 19638              	.LASF86:
 19639 0b29 41706167 		.ascii	"ApagaSalidas\000"
 19639      6153616C 
 19639      69646173 
 19639      00
 19640              	.LASF75:
 19641 0b36 4C6F7750 		.ascii	"LowPassFilter\000"
 19641      61737346 
 19641      696C7465 
 19641      7200
 19642              	.LASF57:
 19643 0b44 4C696D69 		.ascii	"LimitaValores\000"
 19643      74615661 
 19643      6C6F7265 
 19643      7300
 19644              	.LASF305:
 19645 0b52 59656172 		.ascii	"YearTx\000"
 19645      547800
 19646              	.LASF114:
 19647 0b59 42697369 		.ascii	"Bisiesto\000"
 19647      6573746F 
 19647      00
 19648              	.LASF39:
 19649 0b62 70617472 		.ascii	"patron1\000"
 19649      6F6E3100 
 19650              	.LASF40:
 19651 0b6a 70617472 		.ascii	"patron2\000"
 19651      6F6E3200 
 19652              	.LASF41:
 19653 0b72 70617472 		.ascii	"patron3\000"
 19653      6F6E3300 
 19654              	.LASF249:
 19655 0b7a 7469656D 		.ascii	"tiempoup\000"
 19655      706F7570 
 19655      00
 19656              	.LASF108:
 19657 0b83 6D696E75 		.ascii	"minutoGrafica\000"
 19657      746F4772 
ARM GAS  C:\Users\USUARIO\AppData\Local\Temp\ccWuTYF0.s 			page 385


 19657      61666963 
 19657      6100
 19658              	.LASF107:
 19659 0b91 686F7261 		.ascii	"horaGrafica\000"
 19659      47726166 
 19659      69636100 
 19660              	.LASF276:
 19661 0b9d 54656D70 		.ascii	"Temperatura2\000"
 19661      65726174 
 19661      75726132 
 19661      00
 19662              	.LASF29:
 19663 0baa 4D696E75 		.ascii	"Minutos\000"
 19663      746F7300 
 19664              	.LASF258:
 19665 0bb2 666C6167 		.ascii	"flagRampa\000"
 19665      52616D70 
 19665      6100
 19666              	.LASF11:
 19667 0bbc 6C6F6E67 		.ascii	"long long unsigned int\000"
 19667      206C6F6E 
 19667      6720756E 
 19667      7369676E 
 19667      65642069 
 19668              	.LASF212:
 19669 0bd3 4D656E75 		.ascii	"Menu2\000"
 19669      3200
 19670              	.LASF260:
 19671 0bd9 666C6167 		.ascii	"flagusb\000"
 19671      75736200 
 19672              	.LASF28:
 19673 0be1 486F7261 		.ascii	"Horas\000"
 19673      7300
 19674              	.LASF152:
 19675 0be7 44657269 		.ascii	"Derivativo\000"
 19675      76617469 
 19675      766F00
 19676              	.LASF208:
 19677 0bf2 4461746F 		.ascii	"Dato_Exitoso2\000"
 19677      5F457869 
 19677      746F736F 
 19677      3200
 19678              	.LASF288:
 19679 0c00 506F7465 		.ascii	"Potencia\000"
 19679      6E636961 
 19679      00
 19680              	.LASF219:
 19681 0c09 53656775 		.ascii	"Segundo\000"
 19681      6E646F00 
 19682              	.LASF299:
 19683 0c11 64617461 		.ascii	"dataReady\000"
 19683      52656164 
 19683      7900
 19684              	.LASF189:
 19685 0c1b 70656E64 		.ascii	"pendiente\000"
 19685      69656E74 
 19685      6500
ARM GAS  C:\Users\USUARIO\AppData\Local\Temp\ccWuTYF0.s 			page 386


 19686              	.LASF291:
 19687 0c25 5470756C 		.ascii	"Tpulsomin\000"
 19687      736F6D69 
 19687      6E00
 19688              	.LASF68:
 19689 0c2f 746D7032 		.ascii	"tmp2\000"
 19689      00
 19690              	.LASF72:
 19691 0c34 746D7033 		.ascii	"tmp3\000"
 19691      00
 19692              	.LASF52:
 19693 0c39 636F6E76 		.ascii	"convert16\000"
 19693      65727431 
 19693      3600
 19694              	.LASF187:
 19695 0c43 696E6963 		.ascii	"inicioControlH\000"
 19695      696F436F 
 19695      6E74726F 
 19695      6C4800
 19696              	.LASF343:
 19697 0c52 43794465 		.ascii	"CyDelayUs\000"
 19697      6C617955 
 19697      7300
 19698              	.LASF186:
 19699 0c5c 696E6963 		.ascii	"inicioControlT\000"
 19699      696F436F 
 19699      6E74726F 
 19699      6C5400
 19700              	.LASF303:
 19701 0c6b 50726F6D 		.ascii	"Prom2\000"
 19701      3200
 19702              	.LASF365:
 19703 0c71 55534255 		.ascii	"USBUART_GetConfiguration\000"
 19703      4152545F 
 19703      47657443 
 19703      6F6E6669 
 19703      67757261 
 19704              	.LASF263:
 19705 0c8a 666C6167 		.ascii	"flag_ajuste2\000"
 19705      5F616A75 
 19705      73746532 
 19705      00
 19706              	.LASF380:
 19707 0c97 6D656D73 		.ascii	"memset\000"
 19707      657400
 19708              	.LASF256:
 19709 0c9e 666C6167 		.ascii	"flagup\000"
 19709      757000
 19710              	.LASF80:
 19711 0ca5 50726F6D 		.ascii	"PromH\000"
 19711      4800
 19712              	.LASF196:
 19713 0cab 52585F57 		.ascii	"RX_Wr_Index\000"
 19713      725F496E 
 19713      64657800 
 19714              	.LASF344:
 19715 0cb7 55415254 		.ascii	"UART_1_PutChar\000"
ARM GAS  C:\Users\USUARIO\AppData\Local\Temp\ccWuTYF0.s 			page 387


 19715      5F315F50 
 19715      75744368 
 19715      617200
 19716              	.LASF56:
 19717 0cc6 4C656545 		.ascii	"LeeEEPROM\000"
 19717      4550524F 
 19717      4D00
 19718              	.LASF322:
 19719 0cd0 70726573 		.ascii	"presion\000"
 19719      696F6E00 
 19720              	.LASF264:
 19721 0cd8 46696E61 		.ascii	"Finalizo\000"
 19721      6C697A6F 
 19721      00
 19722              	.LASF242:
 19723 0ce1 636F6E74 		.ascii	"conteo\000"
 19723      656F00
 19724              	.LASF82:
 19725 0ce8 48726566 		.ascii	"Href\000"
 19725      00
 19726              	.LASF119:
 19727 0ced 54314875 		.ascii	"T1Humedad\000"
 19727      6D656461 
 19727      6400
 19728              	.LASF375:
 19729 0cf7 45544830 		.ascii	"ETH0_SocketClose\000"
 19729      5F536F63 
 19729      6B657443 
 19729      6C6F7365 
 19729      00
 19730              	.LASF122:
 19731 0d08 74446973 		.ascii	"tDisplay\000"
 19731      706C6179 
 19731      00
 19732              	.LASF327:
 19733 0d11 746D7565 		.ascii	"tmuestreoUSB_ant\000"
 19733      73747265 
 19733      6F555342 
 19733      5F616E74 
 19733      00
 19734              	.LASF240:
 19735 0d22 6D457374 		.ascii	"mEstpAnt\000"
 19735      70416E74 
 19735      00
 19736              	.LASF274:
 19737 0d2b 666C6167 		.ascii	"flag_clear\000"
 19737      5F636C65 
 19737      617200
 19738              	.LASF331:
 19739 0d36 70726F6D 		.ascii	"promedio2\000"
 19739      6564696F 
 19739      3200
 19740              	.LASF280:
 19741 0d40 54656D70 		.ascii	"TempeInicial\000"
 19741      65496E69 
 19741      6369616C 
 19741      00
ARM GAS  C:\Users\USUARIO\AppData\Local\Temp\ccWuTYF0.s 			page 388


 19742              	.LASF298:
 19743 0d4d 74507265 		.ascii	"tPregunta\000"
 19743      67756E74 
 19743      6100
 19744              	.LASF340:
 19745 0d57 50574D5F 		.ascii	"PWM_WriteCompare1\000"
 19745      57726974 
 19745      65436F6D 
 19745      70617265 
 19745      3100
 19746              	.LASF341:
 19747 0d69 50574D5F 		.ascii	"PWM_WriteCompare2\000"
 19747      57726974 
 19747      65436F6D 
 19747      70617265 
 19747      3200
 19748              	.LASF134:
 19749 0d7b 70726F6D 		.ascii	"promedioH\000"
 19749      6564696F 
 19749      4800
 19750              	.LASF104:
 19751 0d85 77656262 		.ascii	"webbuff\000"
 19751      75666600 
 19752              	.LASF16:
 19753 0d8d 75696E74 		.ascii	"uint8\000"
 19753      3800
 19754              	.LASF251:
 19755 0d93 6D656E73 		.ascii	"mensaje\000"
 19755      616A6500 
 19756              	.LASF335:
 19757 0d9b 54656D70 		.ascii	"Temperature2\000"
 19757      65726174 
 19757      75726532 
 19757      00
 19758              	.LASF3:
 19759 0da8 73686F72 		.ascii	"short int\000"
 19759      7420696E 
 19759      7400
 19760              	.LASF145:
 19761 0db2 74635465 		.ascii	"tcTemp\000"
 19761      6D7000
 19762              	.LASF229:
 19763 0db9 666C6167 		.ascii	"flagVacio\000"
 19763      56616369 
 19763      6F00
 19764              	.LASF69:
 19765 0dc3 54726566 		.ascii	"Tref\000"
 19765      00
 19766              	.LASF368:
 19767 0dc8 45544830 		.ascii	"ETH0_TcpOpen\000"
 19767      5F546370 
 19767      4F70656E 
 19767      00
 19768              	.LASF261:
 19769 0dd5 64656875 		.ascii	"dehumidificador\000"
 19769      6D696469 
 19769      66696361 
ARM GAS  C:\Users\USUARIO\AppData\Local\Temp\ccWuTYF0.s 			page 389


 19769      646F7200 
 19770              	.LASF101:
 19771 0de5 64617461 		.ascii	"datacount\000"
 19771      636F756E 
 19771      7400
 19772              	.LASF111:
 19773 0def 64657363 		.ascii	"desconectoTemperatura\000"
 19773      6F6E6563 
 19773      746F5465 
 19773      6D706572 
 19773      61747572 
 19774              	.LASF236:
 19775 0e05 6D457374 		.ascii	"mEst\000"
 19775      00
 19776              	.LASF47:
 19777 0e0a 696E7474 		.ascii	"inttofloat\000"
 19777      6F666C6F 
 19777      617400
 19778              	.LASF88:
 19779 0e15 636F6E74 		.ascii	"controlaHumedad2\000"
 19779      726F6C61 
 19779      48756D65 
 19779      64616432 
 19779      00
 19780              	.LASF201:
 19781 0e26 52585F57 		.ascii	"RX_Wr_Index2\000"
 19781      725F496E 
 19781      64657832 
 19781      00
 19782              	.LASF218:
 19783 0e33 59656172 		.ascii	"Year\000"
 19783      00
 19784              	.LASF105:
 19785 0e38 736F636B 		.ascii	"socket\000"
 19785      657400
 19786              	.LASF157:
 19787 0e3f 416A7573 		.ascii	"Ajuste\000"
 19787      746500
 19788              	.LASF118:
 19789 0e46 666C6167 		.ascii	"flagSobrepasoHumedad\000"
 19789      536F6272 
 19789      65706173 
 19789      6F48756D 
 19789      65646164 
 19790              	.LASF359:
 19791 0e5b 4352355F 		.ascii	"CR5_Write\000"
 19791      57726974 
 19791      6500
 19792              	.LASF352:
 19793 0e65 4144435F 		.ascii	"ADC_SAR_CountsTo_mVolts\000"
 19793      5341525F 
 19793      436F756E 
 19793      7473546F 
 19793      5F6D566F 
 19794              	.LASF162:
 19795 0e7d 416A7573 		.ascii	"Ajusto\000"
 19795      746F00
ARM GAS  C:\Users\USUARIO\AppData\Local\Temp\ccWuTYF0.s 			page 390


 19796              	.LASF20:
 19797 0e84 696E7431 		.ascii	"int16\000"
 19797      3600
 19798              	.LASF313:
 19799 0e8a 76526566 		.ascii	"vRef\000"
 19799      00
 19800              	.LASF325:
 19801 0e8f 74456E76 		.ascii	"tEnvioUSB\000"
 19801      696F5553 
 19801      4200
 19802              	.LASF128:
 19803 0e99 74446566 		.ascii	"tDefrost\000"
 19803      726F7374 
 19803      00
 19804              	.LASF195:
 19805 0ea2 52785F42 		.ascii	"Rx_Buffer2\000"
 19805      75666665 
 19805      723200
 19806              	.LASF199:
 19807 0ead 52785F42 		.ascii	"Rx_Buffer3\000"
 19807      75666665 
 19807      723300
 19808              	.LASF200:
 19809 0eb8 52785F42 		.ascii	"Rx_Buffer4\000"
 19809      75666665 
 19809      723400
 19810              	.LASF150:
 19811 0ec3 50726F67 		.ascii	"Programa\000"
 19811      72616D61 
 19811      00
 19812              	.LASF91:
 19813 0ecc 626F7272 		.ascii	"borraVector\000"
 19813      61566563 
 19813      746F7200 
 19814              	.LASF204:
 19815 0ed8 69326362 		.ascii	"i2cbuf\000"
 19815      756600
 19816              	.LASF15:
 19817 0edf 75696E74 		.ascii	"uint32_t\000"
 19817      33325F74 
 19817      00
 19818              	.LASF349:
 19819 0ee8 5254445F 		.ascii	"RTD_GetTemperature\000"
 19819      47657454 
 19819      656D7065 
 19819      72617475 
 19819      726500
 19820              	.LASF318:
 19821 0efb 66726163 		.ascii	"fracTemp\000"
 19821      54656D70 
 19821      00
 19822              	.LASF363:
 19823 0f04 5445524D 		.ascii	"TERM_Read\000"
 19823      5F526561 
 19823      6400
 19824              	.LASF50:
 19825 0f0e 6E69626C 		.ascii	"nible\000"
ARM GAS  C:\Users\USUARIO\AppData\Local\Temp\ccWuTYF0.s 			page 391


 19825      6500
 19826              	.LASF217:
 19827 0f14 4F706369 		.ascii	"Opcion\000"
 19827      6F6E00
 19828              	.LASF43:
 19829 0f1b 656E7465 		.ascii	"entero\000"
 19829      726F00
 19830              	.LASF129:
 19831 0f22 74436F6E 		.ascii	"tCongela\000"
 19831      67656C61 
 19831      00
 19832              	.LASF337:
 19833 0f2b 43794465 		.ascii	"CyDelay\000"
 19833      6C617900 
 19834              	.LASF190:
 19835 0f33 47616E61 		.ascii	"Ganancia\000"
 19835      6E636961 
 19835      00
 19836              	.LASF225:
 19837 0f3c 72616D70 		.ascii	"rampa\000"
 19837      6100
 19838              	.LASF246:
 19839 0f42 7469656D 		.ascii	"tiemposetpoint\000"
 19839      706F7365 
 19839      74706F69 
 19839      6E7400
 19840              	.LASF171:
 19841 0f51 666C6167 		.ascii	"flagButton0\000"
 19841      42757474 
 19841      6F6E3000 
 19842              	.LASF172:
 19843 0f5d 666C6167 		.ascii	"flagButton1\000"
 19843      42757474 
 19843      6F6E3100 
 19844              	.LASF173:
 19845 0f69 666C6167 		.ascii	"flagButton2\000"
 19845      42757474 
 19845      6F6E3200 
 19846              	.LASF174:
 19847 0f75 666C6167 		.ascii	"flagButton3\000"
 19847      42757474 
 19847      6F6E3300 
 19848              	.LASF268:
 19849 0f81 496E6669 		.ascii	"Infinito\000"
 19849      6E69746F 
 19849      00
 19850              	.LASF374:
 19851 0f8a 45544830 		.ascii	"ETH0_TcpDisconnect\000"
 19851      5F546370 
 19851      44697363 
 19851      6F6E6E65 
 19851      637400
 19852              	.LASF159:
 19853 0f9d 416A7573 		.ascii	"Ajuste2\000"
 19853      74653200 
 19854              	.LASF132:
 19855 0fa5 6D696E48 		.ascii	"minH\000"
ARM GAS  C:\Users\USUARIO\AppData\Local\Temp\ccWuTYF0.s 			page 392


 19855      00
 19856              	.LASF0:
 19857 0faa 666C6F61 		.ascii	"float\000"
 19857      7400
 19858              	.LASF59:
 19859 0fb0 41637475 		.ascii	"ActualizaRecta\000"
 19859      616C697A 
 19859      61526563 
 19859      746100
 19860              	.LASF360:
 19861 0fbf 4352375F 		.ascii	"CR7_Write\000"
 19861      57726974 
 19861      6500
 19862              	.LASF21:
 19863 0fc9 696E7433 		.ascii	"int32\000"
 19863      3200
 19864              	.LASF166:
 19865 0fcf 636F6E74 		.ascii	"contador\000"
 19865      61646F72 
 19865      00
 19866              	.LASF311:
 19867 0fd8 72746452 		.ascii	"rtdRes\000"
 19867      657300
 19868              	.LASF310:
 19869 0fdf 646F7754 		.ascii	"dowTx\000"
 19869      7800
 19870              	.LASF193:
 19871 0fe5 70776D50 		.ascii	"pwmPeltier\000"
 19871      656C7469 
 19871      657200
 19872              	.LASF226:
 19873 0ff0 666C6167 		.ascii	"flagTemperatura\000"
 19873      54656D70 
 19873      65726174 
 19873      75726100 
 19874              	.LASF6:
 19875 1000 5F5F696E 		.ascii	"__int32_t\000"
 19875      7433325F 
 19875      7400
 19876              	.LASF245:
 19877 100a 7469656D 		.ascii	"tiemporecta\000"
 19877      706F7265 
 19877      63746100 
 19878              	.LASF158:
 19879 1016 416A7573 		.ascii	"Ajusten\000"
 19879      74656E00 
 19880              	.LASF27:
 19881 101e 54656D70 		.ascii	"TemperaturaInt\000"
 19881      65726174 
 19881      75726149 
 19881      6E7400
 19882              	.LASF272:
 19883 102d 666C6167 		.ascii	"flag_clear2\000"
 19883      5F636C65 
 19883      61723200 
 19884              	.LASF55:
 19885 1039 74656D70 		.ascii	"temp\000"
ARM GAS  C:\Users\USUARIO\AppData\Local\Temp\ccWuTYF0.s 			page 393


 19885      00
 19886              	.LASF290:
 19887 103e 5470756C 		.ascii	"TpulsoMax2\000"
 19887      736F4D61 
 19887      783200
 19888              	.LASF130:
 19889 1049 74536F62 		.ascii	"tSobrepaso\000"
 19889      72657061 
 19889      736F00
 19890              	.LASF346:
 19891 1054 55415254 		.ascii	"UART_2_PutChar\000"
 19891      5F325F50 
 19891      75744368 
 19891      617200
 19892              	.LASF350:
 19893 1063 4144435F 		.ascii	"ADC_SAR_IsEndConversion\000"
 19893      5341525F 
 19893      4973456E 
 19893      64436F6E 
 19893      76657273 
 19894              	.LASF46:
 19895 107b 64617461 		.ascii	"data\000"
 19895      00
 19896              	.LASF209:
 19897 1080 4D656E75 		.ascii	"Menu\000"
 19897      00
 19898              	.LASF110:
 19899 1085 61637475 		.ascii	"actualizaNumeracion\000"
 19899      616C697A 
 19899      614E756D 
 19899      65726163 
 19899      696F6E00 
 19900              	.LASF182:
 19901 1099 65737461 		.ascii	"estadoCR1\000"
 19901      646F4352 
 19901      3100
 19902              	.LASF184:
 19903 10a3 65737461 		.ascii	"estadoCR2\000"
 19903      646F4352 
 19903      3200
 19904              	.LASF185:
 19905 10ad 65737461 		.ascii	"estadoCR3\000"
 19905      646F4352 
 19905      3300
 19906              	.LASF58:
 19907 10b7 436F6E74 		.ascii	"Controla\000"
 19907      726F6C61 
 19907      00
 19908              	.LASF17:
 19909 10c0 75696E74 		.ascii	"uint16\000"
 19909      313600
 19910              	.LASF213:
 19911 10c7 4D656E75 		.ascii	"MenuAntt2\000"
 19911      416E7474 
 19911      3200
 19912              	.LASF176:
 19913 10d1 70756C73 		.ascii	"pulsoAumentar\000"
ARM GAS  C:\Users\USUARIO\AppData\Local\Temp\ccWuTYF0.s 			page 394


 19913      6F41756D 
 19913      656E7461 
 19913      7200
 19914              		.ident	"GCC: (GNU Tools for ARM Embedded Processors) 5.4.1 20160609 (release) [ARM/embedded-5-bran
