ARM GAS  C:\Users\USUARIO\AppData\Local\Temp\ccgNza9Z.s 			page 1


   1              		.syntax unified
   2              		.cpu cortex-m3
   3              		.fpu softvfp
   4              		.eabi_attribute 20, 1
   5              		.eabi_attribute 21, 1
   6              		.eabi_attribute 23, 3
   7              		.eabi_attribute 24, 1
   8              		.eabi_attribute 25, 1
   9              		.eabi_attribute 26, 1
  10              		.eabi_attribute 30, 1
  11              		.eabi_attribute 34, 1
  12              		.eabi_attribute 18, 4
  13              		.thumb
  14              		.syntax unified
  15              		.file	"getResistance.c"
  16              		.text
  17              	.Ltext0:
  18              		.cfi_sections	.debug_frame
  19              		.section	.text.MeasureRefResVoltage,"ax",%progbits
  20              		.align	2
  21              		.global	MeasureRefResVoltage
  22              		.thumb
  23              		.thumb_func
  24              		.type	MeasureRefResVoltage, %function
  25              	MeasureRefResVoltage:
  26              	.LFB64:
  27              		.file 1 "getResistance.c"
   1:getResistance.c **** /******************************************************************************
   2:getResistance.c **** * File Name: getResistance.c
   3:getResistance.c **** *  Version 2.0
   4:getResistance.c **** *
   5:getResistance.c **** * Description:
   6:getResistance.c **** *  This file contains two functions that are used to find the RTD resistance.
   7:getResistance.c **** * 
   8:getResistance.c **** * Note:
   9:getResistance.c **** *
  10:getResistance.c **** ********************************************************************************
  11:getResistance.c **** * Copyright (2015), Cypress Semiconductor Corporation. All Rights Reserved.
  12:getResistance.c **** ********************************************************************************
  13:getResistance.c **** * This software is owned by Cypress Semiconductor Corporation (Cypress)
  14:getResistance.c **** * and is protected by and subject to worldwide patent protection (United
  15:getResistance.c **** * States and foreign), United States copyright laws and international treaty
  16:getResistance.c **** * provisions. Cypress hereby grants to licensee a personal, non-exclusive,
  17:getResistance.c **** * non-transferable license to copy, use, modify, create derivative works of,
  18:getResistance.c **** * and compile the Cypress Source Code and derivative works for the sole
  19:getResistance.c **** * purpose of creating custom software in support of licensee product to be
  20:getResistance.c **** * used only in conjunction with a Cypress integrated circuit as specified in
  21:getResistance.c **** * the applicable agreement. Any reproduction, modification, translation,
  22:getResistance.c **** * compilation, or representation of this software except as specified above 
  23:getResistance.c **** * is prohibited without the express written permission of Cypress.
  24:getResistance.c **** *
  25:getResistance.c **** * Disclaimer: CYPRESS MAKES NO WARRANTY OF ANY KIND, EXPRESS OR IMPLIED, WITH 
  26:getResistance.c **** * REGARD TO THIS MATERIAL, INCLUDING, BUT NOT LIMITED TO, THE IMPLIED 
  27:getResistance.c **** * WARRANTIES OF MERCHANTABILITY AND FITNESS FOR A PARTICULAR PURPOSE.
  28:getResistance.c **** * Cypress reserves the right to make changes without further notice to the 
  29:getResistance.c **** * materials described herein. Cypress does not assume any liability arising out 
  30:getResistance.c **** * of the application or use of any product or circuit described herein. Cypress 
ARM GAS  C:\Users\USUARIO\AppData\Local\Temp\ccgNza9Z.s 			page 2


  31:getResistance.c **** * does not authorize its products for use as critical components in life-support 
  32:getResistance.c **** * systems where a malfunction or failure may reasonably be expected to result in 
  33:getResistance.c **** * significant injury to the user. The inclusion of Cypress' product in a life-
  34:getResistance.c **** * support systems application implies that the manufacturer assumes all risk of 
  35:getResistance.c **** * such use and in doing so indemnifies Cypress against all charges. 
  36:getResistance.c **** *
  37:getResistance.c **** * Use of this Software may be limited by and subject to the applicable Cypress
  38:getResistance.c **** * software license agreement. 
  39:getResistance.c **** *******************************************************************************/
  40:getResistance.c **** #include "getResistance.h"
  41:getResistance.c **** #include "removeOffsetNoise.h"
  42:getResistance.c **** #include "main.h"
  43:getResistance.c **** 
  44:getResistance.c **** uint8 i;
  45:getResistance.c **** uint8 l2,h2;
  46:getResistance.c **** 
  47:getResistance.c **** /*******************************************************************************
  48:getResistance.c **** *  Function Name: MeasureRefResVoltage
  49:getResistance.c **** ********************************************************************************
  50:getResistance.c **** * Summary:
  51:getResistance.c **** * This functions returns the voltage across the reference resistor. 
  52:getResistance.c **** *
  53:getResistance.c **** * Parameters:
  54:getResistance.c **** * none
  55:getResistance.c **** *
  56:getResistance.c **** * Return: 
  57:getResistance.c **** * reference voltage in ADC counts
  58:getResistance.c **** 
  59:getResistance.c **** * Theory:
  60:getResistance.c **** * A current is passed through the reference resistor and the voltage across it 
  61:getResistance.c **** * is measured. Offset is measured and subtracted from this voltage. An IIR filter 
  62:getResistance.c **** * is also applied on this voltage.
  63:getResistance.c **** *
  64:getResistance.c **** * Side Effects:
  65:getResistance.c **** * None
  66:getResistance.c **** *******************************************************************************/
  67:getResistance.c **** int32 MeasureRefResVoltage()
  68:getResistance.c **** {
  28              		.loc 1 68 0
  29              		.cfi_startproc
  30              		@ args = 0, pretend = 0, frame = 0
  31              		@ frame_needed = 0, uses_anonymous_args = 0
  32 0000 10B5     		push	{r4, lr}
  33              		.cfi_def_cfa_offset 8
  34              		.cfi_offset 4, -8
  35              		.cfi_offset 14, -4
  36              	.LVL0:
  69:getResistance.c **** 	/* Voltage read across reference resistor in ADC counts */
  70:getResistance.c **** 	int32 rtdRefResult = 0;
  71:getResistance.c **** 	
  72:getResistance.c **** 	
  73:getResistance.c **** 	/* Filtered value for reference voltage measurement */
  74:getResistance.c **** 	int32 filRtdRefResult = 0;
  75:getResistance.c **** 	
  76:getResistance.c **** 	/* Offset counts */
  77:getResistance.c **** 	int32 zeroCurrentOffset = 0;
  78:getResistance.c **** 	
ARM GAS  C:\Users\USUARIO\AppData\Local\Temp\ccgNza9Z.s 			page 3


  79:getResistance.c **** 	/* Select the right current Mux and ADC Mux Channels */
  80:getResistance.c **** 	CurrentMux_FastSelect(REF_IDAC_CHANNEL);
  37              		.loc 1 80 0
  38 0002 0120     		movs	r0, #1
  39 0004 FFF7FEFF 		bl	CurrentMux_FastSelect
  40              	.LVL1:
  81:getResistance.c **** 	ADCMux_FastSelect(REF_CHANNEL);
  41              		.loc 1 81 0
  42 0008 0120     		movs	r0, #1
  43 000a FFF7FEFF 		bl	ADCMux_FastSelect
  44              	.LVL2:
  82:getResistance.c **** 	
  83:getResistance.c **** 	/* Configure the IDAC to source 1 mA */
  84:getResistance.c **** 	IDAC_SetValue(125);
  45              		.loc 1 84 0
  46 000e 7D20     		movs	r0, #125
  47 0010 FFF7FEFF 		bl	IDAC_SetValue
  48              	.LVL3:
  85:getResistance.c **** 		
  86:getResistance.c **** 	/* Read voltage across reference resistor */
  87:getResistance.c **** 	ADC_StartConvert();
  49              		.loc 1 87 0
  50 0014 FFF7FEFF 		bl	ADC_StartConvert
  51              	.LVL4:
  88:getResistance.c **** 
  89:getResistance.c **** 	ADC_IsEndConversion(ADC_WAIT_FOR_RESULT);
  52              		.loc 1 89 0
  53 0018 0020     		movs	r0, #0
  54 001a FFF7FEFF 		bl	ADC_IsEndConversion
  55              	.LVL5:
  90:getResistance.c **** 	rtdRefResult = ADC_GetResult32();
  56              		.loc 1 90 0
  57 001e FFF7FEFF 		bl	ADC_GetResult32
  58              	.LVL6:
  59 0022 0446     		mov	r4, r0
  60              	.LVL7:
  91:getResistance.c **** 		
  92:getResistance.c **** 
  93:getResistance.c **** 	
  94:getResistance.c **** 	/* Get the offset voltage */
  95:getResistance.c **** 	zeroCurrentOffset = GetOffset();
  61              		.loc 1 95 0
  62 0024 FFF7FEFF 		bl	GetOffset
  63              	.LVL8:
  96:getResistance.c **** 		
  97:getResistance.c **** 	/* Get CDS difference */
  98:getResistance.c **** 	rtdRefResult = rtdRefResult - zeroCurrentOffset; 
  99:getResistance.c **** 
 100:getResistance.c **** 	/* Filter signal */
 101:getResistance.c **** 	filRtdRefResult = FilterSignal(rtdRefResult, REF_RES);
  64              		.loc 1 101 0
  65 0028 0021     		movs	r1, #0
  66 002a 201A     		subs	r0, r4, r0
  67              	.LVL9:
  68 002c FFF7FEFF 		bl	FilterSignal
  69              	.LVL10:
 102:getResistance.c **** 	
ARM GAS  C:\Users\USUARIO\AppData\Local\Temp\ccgNza9Z.s 			page 4


 103:getResistance.c **** 	return filRtdRefResult;
 104:getResistance.c **** }
  70              		.loc 1 104 0
  71 0030 10BD     		pop	{r4, pc}
  72              		.cfi_endproc
  73              	.LFE64:
  74              		.size	MeasureRefResVoltage, .-MeasureRefResVoltage
  75              		.global	__aeabi_i2f
  76              		.global	__aeabi_fdiv
  77              		.global	__aeabi_fmul
  78              		.global	__aeabi_f2iz
  79 0032 00BF     		.section	.text.GetRTDRes,"ax",%progbits
  80              		.align	2
  81              		.global	GetRTDRes
  82              		.thumb
  83              		.thumb_func
  84              		.type	GetRTDRes, %function
  85              	GetRTDRes:
  86              	.LFB65:
 105:getResistance.c **** /*******************************************************************************
 106:getResistance.c **** *  Function Name: GetRTDRes
 107:getResistance.c **** ********************************************************************************
 108:getResistance.c **** * Summary:
 109:getResistance.c **** * This function measures the voltage across the RTD resistance.   
 110:getResistance.c **** *
 111:getResistance.c **** * Parameters:
 112:getResistance.c **** * int32 vRef - reference voltage in ADC counts
 113:getResistance.c **** *
 114:getResistance.c **** * Return: 
 115:getResistance.c **** * int32 rtdRes - RTD resistance in milliohms
 116:getResistance.c **** 
 117:getResistance.c **** * Theory:
 118:getResistance.c **** * A current is passed through the reference resistor and the voltage across it 
 119:getResistance.c **** * is measured. Offset is measured and subtracted from this voltage. An IIR filter 
 120:getResistance.c **** * is also applied on this voltage.
 121:getResistance.c **** *
 122:getResistance.c **** * Side Effects:
 123:getResistance.c **** * None
 124:getResistance.c **** *******************************************************************************/
 125:getResistance.c **** int32 GetRTDRes(int32 vRef,uint8 channel)
 126:getResistance.c **** {
  87              		.loc 1 126 0
  88              		.cfi_startproc
  89              		@ args = 0, pretend = 0, frame = 0
  90              		@ frame_needed = 0, uses_anonymous_args = 0
  91              	.LVL11:
  92 0000 38B5     		push	{r3, r4, r5, lr}
  93              		.cfi_def_cfa_offset 16
  94              		.cfi_offset 3, -16
  95              		.cfi_offset 4, -12
  96              		.cfi_offset 5, -8
  97              		.cfi_offset 14, -4
  98 0002 0546     		mov	r5, r0
  99 0004 0C46     		mov	r4, r1
 100              	.LVL12:
 127:getResistance.c **** 	/* Voltage read across RTD sensor in ADC counts */
 128:getResistance.c **** 	int32 rtdResult = 0;
ARM GAS  C:\Users\USUARIO\AppData\Local\Temp\ccgNza9Z.s 			page 5


 129:getResistance.c **** 	
 130:getResistance.c **** 	/* Filtered value for RTD sensor voltage measurement */
 131:getResistance.c **** 	int32 filRtdResult;
 132:getResistance.c **** 	
 133:getResistance.c **** 	/* RTD resistance */
 134:getResistance.c **** 	int32 rtdRes = 0;
 135:getResistance.c **** 	
 136:getResistance.c **** 	/* Offset counts */
 137:getResistance.c **** 	int32 zeroCurrentOffset = 0;
 138:getResistance.c ****     
 139:getResistance.c **** 	
 140:getResistance.c **** 	/* Set the IDAC to pass 1 mA */
 141:getResistance.c **** 	IDAC_SetValue(125);
 101              		.loc 1 141 0
 102 0006 7D20     		movs	r0, #125
 103              	.LVL13:
 104 0008 FFF7FEFF 		bl	IDAC_SetValue
 105              	.LVL14:
 142:getResistance.c **** 	
 143:getResistance.c ****     if(channel==0){
 106              		.loc 1 143 0
 107 000c 74B9     		cbnz	r4, .L4
 144:getResistance.c **** 	/* Select the right current Mux and ADC Mux Channels */
 145:getResistance.c **** 	CurrentMux_FastSelect(RTD_IDAC_CHANNEL);
 108              		.loc 1 145 0
 109 000e 0020     		movs	r0, #0
 110 0010 FFF7FEFF 		bl	CurrentMux_FastSelect
 111              	.LVL15:
 146:getResistance.c **** 	ADCMux_FastSelect(RTD_CHANNEL);
 112              		.loc 1 146 0
 113 0014 0020     		movs	r0, #0
 114 0016 FFF7FEFF 		bl	ADCMux_FastSelect
 115              	.LVL16:
 147:getResistance.c **** 		
 148:getResistance.c **** 	/* Read voltage across RTD */
 149:getResistance.c **** 	ADC_StartConvert();
 116              		.loc 1 149 0
 117 001a FFF7FEFF 		bl	ADC_StartConvert
 118              	.LVL17:
 150:getResistance.c **** 	ADC_IsEndConversion(ADC_WAIT_FOR_RESULT);
 119              		.loc 1 150 0
 120 001e 0020     		movs	r0, #0
 121 0020 FFF7FEFF 		bl	ADC_IsEndConversion
 122              	.LVL18:
 151:getResistance.c **** 	rtdResult = ADC_GetResult32();
 123              		.loc 1 151 0
 124 0024 FFF7FEFF 		bl	ADC_GetResult32
 125              	.LVL19:
 126 0028 0446     		mov	r4, r0
 127              	.LVL20:
 128 002a 11E0     		b	.L5
 129              	.LVL21:
 130              	.L4:
 152:getResistance.c ****     }else if(channel==1){
 131              		.loc 1 152 0
 132 002c 012C     		cmp	r4, #1
 133 002e 0ED1     		bne	.L6
ARM GAS  C:\Users\USUARIO\AppData\Local\Temp\ccgNza9Z.s 			page 6


 153:getResistance.c ****     /* Select the right current Mux and ADC Mux Channels */
 154:getResistance.c **** 	CurrentMux_FastSelect(RTD2_IDAC_CHANNEL);
 134              		.loc 1 154 0
 135 0030 0220     		movs	r0, #2
 136 0032 FFF7FEFF 		bl	CurrentMux_FastSelect
 137              	.LVL22:
 155:getResistance.c **** 	ADCMux_FastSelect(RTD2_CHANNEL);
 138              		.loc 1 155 0
 139 0036 0220     		movs	r0, #2
 140 0038 FFF7FEFF 		bl	ADCMux_FastSelect
 141              	.LVL23:
 156:getResistance.c **** 		
 157:getResistance.c **** 	/* Read voltage across RTD */
 158:getResistance.c **** 	ADC_StartConvert();
 142              		.loc 1 158 0
 143 003c FFF7FEFF 		bl	ADC_StartConvert
 144              	.LVL24:
 159:getResistance.c **** 	ADC_IsEndConversion(ADC_WAIT_FOR_RESULT);
 145              		.loc 1 159 0
 146 0040 0020     		movs	r0, #0
 147 0042 FFF7FEFF 		bl	ADC_IsEndConversion
 148              	.LVL25:
 160:getResistance.c **** 	rtdResult = ADC_GetResult32();    
 149              		.loc 1 160 0
 150 0046 FFF7FEFF 		bl	ADC_GetResult32
 151              	.LVL26:
 152 004a 0446     		mov	r4, r0
 153              	.LVL27:
 154 004c 00E0     		b	.L5
 155              	.LVL28:
 156              	.L6:
 128:getResistance.c **** 	
 157              		.loc 1 128 0
 158 004e 0024     		movs	r4, #0
 159              	.LVL29:
 160              	.L5:
 161:getResistance.c ****     }
 162:getResistance.c **** 
 163:getResistance.c **** 		
 164:getResistance.c **** 	/* Read zero current voltage across RTD sensor resistor */
 165:getResistance.c **** 	zeroCurrentOffset = GetOffset();
 161              		.loc 1 165 0
 162 0050 FFF7FEFF 		bl	GetOffset
 163              	.LVL30:
 166:getResistance.c **** 	
 167:getResistance.c **** 	/* Get CDS difference */
 168:getResistance.c **** 	rtdResult = rtdResult - zeroCurrentOffset; 
 169:getResistance.c **** 	
 170:getResistance.c **** 	/* Filter signal */
 171:getResistance.c **** 	filRtdResult = FilterSignal(rtdResult, RTD);
 164              		.loc 1 171 0
 165 0054 0121     		movs	r1, #1
 166 0056 201A     		subs	r0, r4, r0
 167              	.LVL31:
 168 0058 FFF7FEFF 		bl	FilterSignal
 169              	.LVL32:
 172:getResistance.c **** 	
ARM GAS  C:\Users\USUARIO\AppData\Local\Temp\ccgNza9Z.s 			page 7


 173:getResistance.c **** 	/* Find RTD resistance in milliohms */
 174:getResistance.c ****     /* To save precision we need to cast the numerator to a float*/
 175:getResistance.c **** 	rtdRes =  (int32)(((float)filRtdResult / vRef) * REF_RESISTOR);
 170              		.loc 1 175 0
 171 005c FFF7FEFF 		bl	__aeabi_i2f
 172              	.LVL33:
 173 0060 0446     		mov	r4, r0
 174 0062 2846     		mov	r0, r5
 175 0064 FFF7FEFF 		bl	__aeabi_i2f
 176              	.LVL34:
 177 0068 0146     		mov	r1, r0
 178 006a 2046     		mov	r0, r4
 179 006c FFF7FEFF 		bl	__aeabi_fdiv
 180              	.LVL35:
 181 0070 0249     		ldr	r1, .L8
 182 0072 FFF7FEFF 		bl	__aeabi_fmul
 183              	.LVL36:
 184 0076 FFF7FEFF 		bl	__aeabi_f2iz
 185              	.LVL37:
 176:getResistance.c **** 	
 177:getResistance.c **** 	return rtdRes;
 178:getResistance.c **** }
 186              		.loc 1 178 0
 187 007a 38BD     		pop	{r3, r4, r5, pc}
 188              	.LVL38:
 189              	.L9:
 190              		.align	2
 191              	.L8:
 192 007c 0050C347 		.word	1203982336
 193              		.cfi_endproc
 194              	.LFE65:
 195              		.size	GetRTDRes, .-GetRTDRes
 196              		.comm	h2,1,1
 197              		.comm	l2,1,1
 198              		.comm	i,1,1
 199              		.text
 200              	.Letext0:
 201              		.file 2 "c:\\program files (x86)\\cypress\\psoc creator\\4.4\\psoc creator\\import\\gnu\\arm\\5.4.
 202              		.file 3 "c:\\program files (x86)\\cypress\\psoc creator\\4.4\\psoc creator\\import\\gnu\\arm\\5.4.
 203              		.file 4 "Generated_Source\\PSoC5/cytypes.h"
 204              		.file 5 "Generated_Source\\PSoC5/CurrentMux.h"
 205              		.file 6 "Generated_Source\\PSoC5/ADCMux.h"
 206              		.file 7 "Generated_Source\\PSoC5/IDAC.h"
 207              		.file 8 "Generated_Source\\PSoC5/ADC.h"
 208              		.file 9 "removeOffsetNoise.h"
 209              		.file 10 "Generated_Source\\PSoC5/core_cm3.h"