ARM GAS  C:\Users\USUARIO\AppData\Local\Temp\ccgNza9Z.s 			page 1


   1              		.syntax unified
   2              		.cpu cortex-m3
   3              		.fpu softvfp
   4              		.eabi_attribute 20, 1
   5              		.eabi_attribute 21, 1
   6              		.eabi_attribute 23, 3
   7              		.eabi_attribute 24, 1
   8              		.eabi_attribute 25, 1
   9              		.eabi_attribute 26, 1
  10              		.eabi_attribute 30, 1
  11              		.eabi_attribute 34, 1
  12              		.eabi_attribute 18, 4
  13              		.thumb
  14              		.syntax unified
  15              		.file	"getResistance.c"
  16              		.text
  17              	.Ltext0:
  18              		.cfi_sections	.debug_frame
  19              		.section	.text.MeasureRefResVoltage,"ax",%progbits
  20              		.align	2
  21              		.global	MeasureRefResVoltage
  22              		.thumb
  23              		.thumb_func
  24              		.type	MeasureRefResVoltage, %function
  25              	MeasureRefResVoltage:
  26              	.LFB64:
  27              		.file 1 "getResistance.c"
   1:getResistance.c **** /******************************************************************************
   2:getResistance.c **** * File Name: getResistance.c
   3:getResistance.c **** *  Version 2.0
   4:getResistance.c **** *
   5:getResistance.c **** * Description:
   6:getResistance.c **** *  This file contains two functions that are used to find the RTD resistance.
   7:getResistance.c **** * 
   8:getResistance.c **** * Note:
   9:getResistance.c **** *
  10:getResistance.c **** ********************************************************************************
  11:getResistance.c **** * Copyright (2015), Cypress Semiconductor Corporation. All Rights Reserved.
  12:getResistance.c **** ********************************************************************************
  13:getResistance.c **** * This software is owned by Cypress Semiconductor Corporation (Cypress)
  14:getResistance.c **** * and is protected by and subject to worldwide patent protection (United
  15:getResistance.c **** * States and foreign), United States copyright laws and international treaty
  16:getResistance.c **** * provisions. Cypress hereby grants to licensee a personal, non-exclusive,
  17:getResistance.c **** * non-transferable license to copy, use, modify, create derivative works of,
  18:getResistance.c **** * and compile the Cypress Source Code and derivative works for the sole
  19:getResistance.c **** * purpose of creating custom software in support of licensee product to be
  20:getResistance.c **** * used only in conjunction with a Cypress integrated circuit as specified in
  21:getResistance.c **** * the applicable agreement. Any reproduction, modification, translation,
  22:getResistance.c **** * compilation, or representation of this software except as specified above 
  23:getResistance.c **** * is prohibited without the express written permission of Cypress.
  24:getResistance.c **** *
  25:getResistance.c **** * Disclaimer: CYPRESS MAKES NO WARRANTY OF ANY KIND, EXPRESS OR IMPLIED, WITH 
  26:getResistance.c **** * REGARD TO THIS MATERIAL, INCLUDING, BUT NOT LIMITED TO, THE IMPLIED 
  27:getResistance.c **** * WARRANTIES OF MERCHANTABILITY AND FITNESS FOR A PARTICULAR PURPOSE.
  28:getResistance.c **** * Cypress reserves the right to make changes without further notice to the 
  29:getResistance.c **** * materials described herein. Cypress does not assume any liability arising out 
  30:getResistance.c **** * of the application or use of any product or circuit described herein. Cypress 
ARM GAS  C:\Users\USUARIO\AppData\Local\Temp\ccgNza9Z.s 			page 2


  31:getResistance.c **** * does not authorize its products for use as critical components in life-support 
  32:getResistance.c **** * systems where a malfunction or failure may reasonably be expected to result in 
  33:getResistance.c **** * significant injury to the user. The inclusion of Cypress' product in a life-
  34:getResistance.c **** * support systems application implies that the manufacturer assumes all risk of 
  35:getResistance.c **** * such use and in doing so indemnifies Cypress against all charges. 
  36:getResistance.c **** *
  37:getResistance.c **** * Use of this Software may be limited by and subject to the applicable Cypress
  38:getResistance.c **** * software license agreement. 
  39:getResistance.c **** *******************************************************************************/
  40:getResistance.c **** #include "getResistance.h"
  41:getResistance.c **** #include "removeOffsetNoise.h"
  42:getResistance.c **** #include "main.h"
  43:getResistance.c **** 
  44:getResistance.c **** uint8 i;
  45:getResistance.c **** uint8 l2,h2;
  46:getResistance.c **** 
  47:getResistance.c **** /*******************************************************************************
  48:getResistance.c **** *  Function Name: MeasureRefResVoltage
  49:getResistance.c **** ********************************************************************************
  50:getResistance.c **** * Summary:
  51:getResistance.c **** * This functions returns the voltage across the reference resistor. 
  52:getResistance.c **** *
  53:getResistance.c **** * Parameters:
  54:getResistance.c **** * none
  55:getResistance.c **** *
  56:getResistance.c **** * Return: 
  57:getResistance.c **** * reference voltage in ADC counts
  58:getResistance.c **** 
  59:getResistance.c **** * Theory:
  60:getResistance.c **** * A current is passed through the reference resistor and the voltage across it 
  61:getResistance.c **** * is measured. Offset is measured and subtracted from this voltage. An IIR filter 
  62:getResistance.c **** * is also applied on this voltage.
  63:getResistance.c **** *
  64:getResistance.c **** * Side Effects:
  65:getResistance.c **** * None
  66:getResistance.c **** *******************************************************************************/
  67:getResistance.c **** int32 MeasureRefResVoltage()
  68:getResistance.c **** {
  28              		.loc 1 68 0
  29              		.cfi_startproc
  30              		@ args = 0, pretend = 0, frame = 0
  31              		@ frame_needed = 0, uses_anonymous_args = 0
  32 0000 10B5     		push	{r4, lr}
  33              		.cfi_def_cfa_offset 8
  34              		.cfi_offset 4, -8
  35              		.cfi_offset 14, -4
  36              	.LVL0:
  69:getResistance.c **** 	/* Voltage read across reference resistor in ADC counts */
  70:getResistance.c **** 	int32 rtdRefResult = 0;
  71:getResistance.c **** 	
  72:getResistance.c **** 	
  73:getResistance.c **** 	/* Filtered value for reference voltage measurement */
  74:getResistance.c **** 	int32 filRtdRefResult = 0;
  75:getResistance.c **** 	
  76:getResistance.c **** 	/* Offset counts */
  77:getResistance.c **** 	int32 zeroCurrentOffset = 0;
  78:getResistance.c **** 	
ARM GAS  C:\Users\USUARIO\AppData\Local\Temp\ccgNza9Z.s 			page 3


  79:getResistance.c **** 	/* Select the right current Mux and ADC Mux Channels */
  80:getResistance.c **** 	CurrentMux_FastSelect(REF_IDAC_CHANNEL);
  37              		.loc 1 80 0
  38 0002 0120     		movs	r0, #1
  39 0004 FFF7FEFF 		bl	CurrentMux_FastSelect
  40              	.LVL1:
  81:getResistance.c **** 	ADCMux_FastSelect(REF_CHANNEL);
  41              		.loc 1 81 0
  42 0008 0120     		movs	r0, #1
  43 000a FFF7FEFF 		bl	ADCMux_FastSelect
  44              	.LVL2:
  82:getResistance.c **** 	
  83:getResistance.c **** 	/* Configure the IDAC to source 1 mA */
  84:getResistance.c **** 	IDAC_SetValue(125);
  45              		.loc 1 84 0
  46 000e 7D20     		movs	r0, #125
  47 0010 FFF7FEFF 		bl	IDAC_SetValue
  48              	.LVL3:
  85:getResistance.c **** 		
  86:getResistance.c **** 	/* Read voltage across reference resistor */
  87:getResistance.c **** 	ADC_StartConvert();
  49              		.loc 1 87 0
  50 0014 FFF7FEFF 		bl	ADC_StartConvert
  51              	.LVL4:
  88:getResistance.c **** 
  89:getResistance.c **** 	ADC_IsEndConversion(ADC_WAIT_FOR_RESULT);
  52              		.loc 1 89 0
  53 0018 0020     		movs	r0, #0
  54 001a FFF7FEFF 		bl	ADC_IsEndConversion
  55              	.LVL5:
  90:getResistance.c **** 	rtdRefResult = ADC_GetResult32();
  56              		.loc 1 90 0
  57 001e FFF7FEFF 		bl	ADC_GetResult32
  58              	.LVL6:
  59 0022 0446     		mov	r4, r0
  60              	.LVL7:
  91:getResistance.c **** 		
  92:getResistance.c **** 
  93:getResistance.c **** 	
  94:getResistance.c **** 	/* Get the offset voltage */
  95:getResistance.c **** 	zeroCurrentOffset = GetOffset();
  61              		.loc 1 95 0
  62 0024 FFF7FEFF 		bl	GetOffset
  63              	.LVL8:
  96:getResistance.c **** 		
  97:getResistance.c **** 	/* Get CDS difference */
  98:getResistance.c **** 	rtdRefResult = rtdRefResult - zeroCurrentOffset; 
  99:getResistance.c **** 
 100:getResistance.c **** 	/* Filter signal */
 101:getResistance.c **** 	filRtdRefResult = FilterSignal(rtdRefResult, REF_RES);
  64              		.loc 1 101 0
  65 0028 0021     		movs	r1, #0
  66 002a 201A     		subs	r0, r4, r0
  67              	.LVL9:
  68 002c FFF7FEFF 		bl	FilterSignal
  69              	.LVL10:
 102:getResistance.c **** 	
ARM GAS  C:\Users\USUARIO\AppData\Local\Temp\ccgNza9Z.s 			page 4


 103:getResistance.c **** 	return filRtdRefResult;
 104:getResistance.c **** }
  70              		.loc 1 104 0
  71 0030 10BD     		pop	{r4, pc}
  72              		.cfi_endproc
  73              	.LFE64:
  74              		.size	MeasureRefResVoltage, .-MeasureRefResVoltage
  75              		.global	__aeabi_i2f
  76              		.global	__aeabi_fdiv
  77              		.global	__aeabi_fmul
  78              		.global	__aeabi_f2iz
  79 0032 00BF     		.section	.text.GetRTDRes,"ax",%progbits
  80              		.align	2
  81              		.global	GetRTDRes
  82              		.thumb
  83              		.thumb_func
  84              		.type	GetRTDRes, %function
  85              	GetRTDRes:
  86              	.LFB65:
 105:getResistance.c **** /*******************************************************************************
 106:getResistance.c **** *  Function Name: GetRTDRes
 107:getResistance.c **** ********************************************************************************
 108:getResistance.c **** * Summary:
 109:getResistance.c **** * This function measures the voltage across the RTD resistance.   
 110:getResistance.c **** *
 111:getResistance.c **** * Parameters:
 112:getResistance.c **** * int32 vRef - reference voltage in ADC counts
 113:getResistance.c **** *
 114:getResistance.c **** * Return: 
 115:getResistance.c **** * int32 rtdRes - RTD resistance in milliohms
 116:getResistance.c **** 
 117:getResistance.c **** * Theory:
 118:getResistance.c **** * A current is passed through the reference resistor and the voltage across it 
 119:getResistance.c **** * is measured. Offset is measured and subtracted from this voltage. An IIR filter 
 120:getResistance.c **** * is also applied on this voltage.
 121:getResistance.c **** *
 122:getResistance.c **** * Side Effects:
 123:getResistance.c **** * None
 124:getResistance.c **** *******************************************************************************/
 125:getResistance.c **** int32 GetRTDRes(int32 vRef,uint8 channel)
 126:getResistance.c **** {
  87              		.loc 1 126 0
  88              		.cfi_startproc
  89              		@ args = 0, pretend = 0, frame = 0
  90              		@ frame_needed = 0, uses_anonymous_args = 0
  91              	.LVL11:
  92 0000 38B5     		push	{r3, r4, r5, lr}
  93              		.cfi_def_cfa_offset 16
  94              		.cfi_offset 3, -16
  95              		.cfi_offset 4, -12
  96              		.cfi_offset 5, -8
  97              		.cfi_offset 14, -4
  98 0002 0546     		mov	r5, r0
  99 0004 0C46     		mov	r4, r1
 100              	.LVL12:
 127:getResistance.c **** 	/* Voltage read across RTD sensor in ADC counts */
 128:getResistance.c **** 	int32 rtdResult = 0;
ARM GAS  C:\Users\USUARIO\AppData\Local\Temp\ccgNza9Z.s 			page 5


 129:getResistance.c **** 	
 130:getResistance.c **** 	/* Filtered value for RTD sensor voltage measurement */
 131:getResistance.c **** 	int32 filRtdResult;
 132:getResistance.c **** 	
 133:getResistance.c **** 	/* RTD resistance */
 134:getResistance.c **** 	int32 rtdRes = 0;
 135:getResistance.c **** 	
 136:getResistance.c **** 	/* Offset counts */
 137:getResistance.c **** 	int32 zeroCurrentOffset = 0;
 138:getResistance.c ****     
 139:getResistance.c **** 	
 140:getResistance.c **** 	/* Set the IDAC to pass 1 mA */
 141:getResistance.c **** 	IDAC_SetValue(125);
 101              		.loc 1 141 0
 102 0006 7D20     		movs	r0, #125
 103              	.LVL13:
 104 0008 FFF7FEFF 		bl	IDAC_SetValue
 105              	.LVL14:
 142:getResistance.c **** 	
 143:getResistance.c ****     if(channel==0){
 106              		.loc 1 143 0
 107 000c 74B9     		cbnz	r4, .L4
 144:getResistance.c **** 	/* Select the right current Mux and ADC Mux Channels */
 145:getResistance.c **** 	CurrentMux_FastSelect(RTD_IDAC_CHANNEL);
 108              		.loc 1 145 0
 109 000e 0020     		movs	r0, #0
 110 0010 FFF7FEFF 		bl	CurrentMux_FastSelect
 111              	.LVL15:
 146:getResistance.c **** 	ADCMux_FastSelect(RTD_CHANNEL);
 112              		.loc 1 146 0
 113 0014 0020     		movs	r0, #0
 114 0016 FFF7FEFF 		bl	ADCMux_FastSelect
 115              	.LVL16:
 147:getResistance.c **** 		
 148:getResistance.c **** 	/* Read voltage across RTD */
 149:getResistance.c **** 	ADC_StartConvert();
 116              		.loc 1 149 0
 117 001a FFF7FEFF 		bl	ADC_StartConvert
 118              	.LVL17:
 150:getResistance.c **** 	ADC_IsEndConversion(ADC_WAIT_FOR_RESULT);
 119              		.loc 1 150 0
 120 001e 0020     		movs	r0, #0
 121 0020 FFF7FEFF 		bl	ADC_IsEndConversion
 122              	.LVL18:
 151:getResistance.c **** 	rtdResult = ADC_GetResult32();
 123              		.loc 1 151 0
 124 0024 FFF7FEFF 		bl	ADC_GetResult32
 125              	.LVL19:
 126 0028 0446     		mov	r4, r0
 127              	.LVL20:
 128 002a 11E0     		b	.L5
 129              	.LVL21:
 130              	.L4:
 152:getResistance.c ****     }else if(channel==1){
 131              		.loc 1 152 0
 132 002c 012C     		cmp	r4, #1
 133 002e 0ED1     		bne	.L6
ARM GAS  C:\Users\USUARIO\AppData\Local\Temp\ccgNza9Z.s 			page 6


 153:getResistance.c ****     /* Select the right current Mux and ADC Mux Channels */
 154:getResistance.c **** 	CurrentMux_FastSelect(RTD2_IDAC_CHANNEL);
 134              		.loc 1 154 0
 135 0030 0220     		movs	r0, #2
 136 0032 FFF7FEFF 		bl	CurrentMux_FastSelect
 137              	.LVL22:
 155:getResistance.c **** 	ADCMux_FastSelect(RTD2_CHANNEL);
 138              		.loc 1 155 0
 139 0036 0220     		movs	r0, #2
 140 0038 FFF7FEFF 		bl	ADCMux_FastSelect
 141              	.LVL23:
 156:getResistance.c **** 		
 157:getResistance.c **** 	/* Read voltage across RTD */
 158:getResistance.c **** 	ADC_StartConvert();
 142              		.loc 1 158 0
 143 003c FFF7FEFF 		bl	ADC_StartConvert
 144              	.LVL24:
 159:getResistance.c **** 	ADC_IsEndConversion(ADC_WAIT_FOR_RESULT);
 145              		.loc 1 159 0
 146 0040 0020     		movs	r0, #0
 147 0042 FFF7FEFF 		bl	ADC_IsEndConversion
 148              	.LVL25:
 160:getResistance.c **** 	rtdResult = ADC_GetResult32();    
 149              		.loc 1 160 0
 150 0046 FFF7FEFF 		bl	ADC_GetResult32
 151              	.LVL26:
 152 004a 0446     		mov	r4, r0
 153              	.LVL27:
 154 004c 00E0     		b	.L5
 155              	.LVL28:
 156              	.L6:
 128:getResistance.c **** 	
 157              		.loc 1 128 0
 158 004e 0024     		movs	r4, #0
 159              	.LVL29:
 160              	.L5:
 161:getResistance.c ****     }
 162:getResistance.c **** 
 163:getResistance.c **** 		
 164:getResistance.c **** 	/* Read zero current voltage across RTD sensor resistor */
 165:getResistance.c **** 	zeroCurrentOffset = GetOffset();
 161              		.loc 1 165 0
 162 0050 FFF7FEFF 		bl	GetOffset
 163              	.LVL30:
 166:getResistance.c **** 	
 167:getResistance.c **** 	/* Get CDS difference */
 168:getResistance.c **** 	rtdResult = rtdResult - zeroCurrentOffset; 
 169:getResistance.c **** 	
 170:getResistance.c **** 	/* Filter signal */
 171:getResistance.c **** 	filRtdResult = FilterSignal(rtdResult, RTD);
 164              		.loc 1 171 0
 165 0054 0121     		movs	r1, #1
 166 0056 201A     		subs	r0, r4, r0
 167              	.LVL31:
 168 0058 FFF7FEFF 		bl	FilterSignal
 169              	.LVL32:
 172:getResistance.c **** 	
ARM GAS  C:\Users\USUARIO\AppData\Local\Temp\ccgNza9Z.s 			page 7


 173:getResistance.c **** 	/* Find RTD resistance in milliohms */
 174:getResistance.c ****     /* To save precision we need to cast the numerator to a float*/
 175:getResistance.c **** 	rtdRes =  (int32)(((float)filRtdResult / vRef) * REF_RESISTOR);
 170              		.loc 1 175 0
 171 005c FFF7FEFF 		bl	__aeabi_i2f
 172              	.LVL33:
 173 0060 0446     		mov	r4, r0
 174 0062 2846     		mov	r0, r5
 175 0064 FFF7FEFF 		bl	__aeabi_i2f
 176              	.LVL34:
 177 0068 0146     		mov	r1, r0
 178 006a 2046     		mov	r0, r4
 179 006c FFF7FEFF 		bl	__aeabi_fdiv
 180              	.LVL35:
 181 0070 0249     		ldr	r1, .L8
 182 0072 FFF7FEFF 		bl	__aeabi_fmul
 183              	.LVL36:
 184 0076 FFF7FEFF 		bl	__aeabi_f2iz
 185              	.LVL37:
 176:getResistance.c **** 	
 177:getResistance.c **** 	return rtdRes;
 178:getResistance.c **** }
 186              		.loc 1 178 0
 187 007a 38BD     		pop	{r3, r4, r5, pc}
 188              	.LVL38:
 189              	.L9:
 190              		.align	2
 191              	.L8:
 192 007c 0050C347 		.word	1203982336
 193              		.cfi_endproc
 194              	.LFE65:
 195              		.size	GetRTDRes, .-GetRTDRes
 196              		.comm	h2,1,1
 197              		.comm	l2,1,1
 198              		.comm	i,1,1
 199              		.text
 200              	.Letext0:
 201              		.file 2 "c:\\program files (x86)\\cypress\\psoc creator\\4.4\\psoc creator\\import\\gnu\\arm\\5.4.
 202              		.file 3 "c:\\program files (x86)\\cypress\\psoc creator\\4.4\\psoc creator\\import\\gnu\\arm\\5.4.
 203              		.file 4 "Generated_Source\\PSoC5/cytypes.h"
 204              		.file 5 "Generated_Source\\PSoC5/CurrentMux.h"
 205              		.file 6 "Generated_Source\\PSoC5/ADCMux.h"
 206              		.file 7 "Generated_Source\\PSoC5/IDAC.h"
 207              		.file 8 "Generated_Source\\PSoC5/ADC.h"
 208              		.file 9 "removeOffsetNoise.h"
 209              		.file 10 "Generated_Source\\PSoC5/core_cm3.h"
 210              		.section	.debug_info,"",%progbits
 211              	.Ldebug_info0:
 212 0000 45030000 		.4byte	0x345
 213 0004 0400     		.2byte	0x4
 214 0006 00000000 		.4byte	.Ldebug_abbrev0
 215 000a 04       		.byte	0x4
 216 000b 01       		.uleb128 0x1
 217 000c 8A000000 		.4byte	.LASF37
 218 0010 0C       		.byte	0xc
 219 0011 F5010000 		.4byte	.LASF38
 220 0015 1C020000 		.4byte	.LASF39
ARM GAS  C:\Users\USUARIO\AppData\Local\Temp\ccgNza9Z.s 			page 8


 221 0019 00000000 		.4byte	.Ldebug_ranges0+0
 222 001d 00000000 		.4byte	0
 223 0021 00000000 		.4byte	.Ldebug_line0
 224 0025 02       		.uleb128 0x2
 225 0026 01       		.byte	0x1
 226 0027 06       		.byte	0x6
 227 0028 E2020000 		.4byte	.LASF0
 228 002c 02       		.uleb128 0x2
 229 002d 01       		.byte	0x1
 230 002e 08       		.byte	0x8
 231 002f 6D010000 		.4byte	.LASF1
 232 0033 02       		.uleb128 0x2
 233 0034 02       		.byte	0x2
 234 0035 05       		.byte	0x5
 235 0036 B8020000 		.4byte	.LASF2
 236 003a 02       		.uleb128 0x2
 237 003b 02       		.byte	0x2
 238 003c 07       		.byte	0x7
 239 003d 40000000 		.4byte	.LASF3
 240 0041 03       		.uleb128 0x3
 241 0042 36000000 		.4byte	.LASF9
 242 0046 02       		.byte	0x2
 243 0047 3F       		.byte	0x3f
 244 0048 4C000000 		.4byte	0x4c
 245 004c 02       		.uleb128 0x2
 246 004d 04       		.byte	0x4
 247 004e 05       		.byte	0x5
 248 004f C8020000 		.4byte	.LASF4
 249 0053 02       		.uleb128 0x2
 250 0054 04       		.byte	0x4
 251 0055 07       		.byte	0x7
 252 0056 7B010000 		.4byte	.LASF5
 253 005a 02       		.uleb128 0x2
 254 005b 08       		.byte	0x8
 255 005c 05       		.byte	0x5
 256 005d 0E020000 		.4byte	.LASF6
 257 0061 02       		.uleb128 0x2
 258 0062 08       		.byte	0x8
 259 0063 07       		.byte	0x7
 260 0064 BC010000 		.4byte	.LASF7
 261 0068 04       		.uleb128 0x4
 262 0069 04       		.byte	0x4
 263 006a 05       		.byte	0x5
 264 006b 696E7400 		.ascii	"int\000"
 265 006f 02       		.uleb128 0x2
 266 0070 04       		.byte	0x4
 267 0071 07       		.byte	0x7
 268 0072 AF010000 		.4byte	.LASF8
 269 0076 03       		.uleb128 0x3
 270 0077 ED010000 		.4byte	.LASF10
 271 007b 03       		.byte	0x3
 272 007c 2C       		.byte	0x2c
 273 007d 41000000 		.4byte	0x41
 274 0081 05       		.uleb128 0x5
 275 0082 C2020000 		.4byte	.LASF11
 276 0086 04       		.byte	0x4
 277 0087 9201     		.2byte	0x192
ARM GAS  C:\Users\USUARIO\AppData\Local\Temp\ccgNza9Z.s 			page 9


 278 0089 2C000000 		.4byte	0x2c
 279 008d 05       		.uleb128 0x5
 280 008e 3D010000 		.4byte	.LASF12
 281 0092 04       		.byte	0x4
 282 0093 9701     		.2byte	0x197
 283 0095 4C000000 		.4byte	0x4c
 284 0099 02       		.uleb128 0x2
 285 009a 04       		.byte	0x4
 286 009b 04       		.byte	0x4
 287 009c 30000000 		.4byte	.LASF13
 288 00a0 02       		.uleb128 0x2
 289 00a1 08       		.byte	0x8
 290 00a2 04       		.byte	0x4
 291 00a3 53000000 		.4byte	.LASF14
 292 00a7 02       		.uleb128 0x2
 293 00a8 01       		.byte	0x1
 294 00a9 08       		.byte	0x8
 295 00aa B3020000 		.4byte	.LASF15
 296 00ae 02       		.uleb128 0x2
 297 00af 08       		.byte	0x8
 298 00b0 04       		.byte	0x4
 299 00b1 D1020000 		.4byte	.LASF16
 300 00b5 02       		.uleb128 0x2
 301 00b6 04       		.byte	0x4
 302 00b7 07       		.byte	0x7
 303 00b8 05020000 		.4byte	.LASF17
 304 00bc 06       		.uleb128 0x6
 305 00bd 8D010000 		.4byte	.LASF21
 306 00c1 01       		.byte	0x1
 307 00c2 43       		.byte	0x43
 308 00c3 8D000000 		.4byte	0x8d
 309 00c7 00000000 		.4byte	.LFB64
 310 00cb 32000000 		.4byte	.LFE64-.LFB64
 311 00cf 01       		.uleb128 0x1
 312 00d0 9C       		.byte	0x9c
 313 00d1 7A010000 		.4byte	0x17a
 314 00d5 07       		.uleb128 0x7
 315 00d6 D3010000 		.4byte	.LASF18
 316 00da 01       		.byte	0x1
 317 00db 46       		.byte	0x46
 318 00dc 8D000000 		.4byte	0x8d
 319 00e0 00000000 		.4byte	.LLST0
 320 00e4 07       		.uleb128 0x7
 321 00e5 43010000 		.4byte	.LASF19
 322 00e9 01       		.byte	0x1
 323 00ea 4A       		.byte	0x4a
 324 00eb 8D000000 		.4byte	0x8d
 325 00ef 45000000 		.4byte	.LLST1
 326 00f3 07       		.uleb128 0x7
 327 00f4 00000000 		.4byte	.LASF20
 328 00f8 01       		.byte	0x1
 329 00f9 4D       		.byte	0x4d
 330 00fa 8D000000 		.4byte	0x8d
 331 00fe 64000000 		.4byte	.LLST2
 332 0102 08       		.uleb128 0x8
 333 0103 08000000 		.4byte	.LVL1
 334 0107 F0020000 		.4byte	0x2f0
ARM GAS  C:\Users\USUARIO\AppData\Local\Temp\ccgNza9Z.s 			page 10


 335 010b 15010000 		.4byte	0x115
 336 010f 09       		.uleb128 0x9
 337 0110 01       		.uleb128 0x1
 338 0111 50       		.byte	0x50
 339 0112 01       		.uleb128 0x1
 340 0113 31       		.byte	0x31
 341 0114 00       		.byte	0
 342 0115 08       		.uleb128 0x8
 343 0116 0E000000 		.4byte	.LVL2
 344 011a FB020000 		.4byte	0x2fb
 345 011e 28010000 		.4byte	0x128
 346 0122 09       		.uleb128 0x9
 347 0123 01       		.uleb128 0x1
 348 0124 50       		.byte	0x50
 349 0125 01       		.uleb128 0x1
 350 0126 31       		.byte	0x31
 351 0127 00       		.byte	0
 352 0128 08       		.uleb128 0x8
 353 0129 14000000 		.4byte	.LVL3
 354 012d 06030000 		.4byte	0x306
 355 0131 3C010000 		.4byte	0x13c
 356 0135 09       		.uleb128 0x9
 357 0136 01       		.uleb128 0x1
 358 0137 50       		.byte	0x50
 359 0138 02       		.uleb128 0x2
 360 0139 08       		.byte	0x8
 361 013a 7D       		.byte	0x7d
 362 013b 00       		.byte	0
 363 013c 0A       		.uleb128 0xa
 364 013d 18000000 		.4byte	.LVL4
 365 0141 11030000 		.4byte	0x311
 366 0145 08       		.uleb128 0x8
 367 0146 1E000000 		.4byte	.LVL5
 368 014a 1C030000 		.4byte	0x31c
 369 014e 58010000 		.4byte	0x158
 370 0152 09       		.uleb128 0x9
 371 0153 01       		.uleb128 0x1
 372 0154 50       		.byte	0x50
 373 0155 01       		.uleb128 0x1
 374 0156 30       		.byte	0x30
 375 0157 00       		.byte	0
 376 0158 0A       		.uleb128 0xa
 377 0159 22000000 		.4byte	.LVL6
 378 015d 27030000 		.4byte	0x327
 379 0161 0A       		.uleb128 0xa
 380 0162 28000000 		.4byte	.LVL8
 381 0166 32030000 		.4byte	0x332
 382 016a 0B       		.uleb128 0xb
 383 016b 30000000 		.4byte	.LVL10
 384 016f 3D030000 		.4byte	0x33d
 385 0173 09       		.uleb128 0x9
 386 0174 01       		.uleb128 0x1
 387 0175 51       		.byte	0x51
 388 0176 01       		.uleb128 0x1
 389 0177 30       		.byte	0x30
 390 0178 00       		.byte	0
 391 0179 00       		.byte	0
ARM GAS  C:\Users\USUARIO\AppData\Local\Temp\ccgNza9Z.s 			page 11


 392 017a 0C       		.uleb128 0xc
 393 017b 53010000 		.4byte	.LASF22
 394 017f 01       		.byte	0x1
 395 0180 7D       		.byte	0x7d
 396 0181 8D000000 		.4byte	0x8d
 397 0185 00000000 		.4byte	.LFB65
 398 0189 80000000 		.4byte	.LFE65-.LFB65
 399 018d 01       		.uleb128 0x1
 400 018e 9C       		.byte	0x9c
 401 018f B0020000 		.4byte	0x2b0
 402 0193 0D       		.uleb128 0xd
 403 0194 DD020000 		.4byte	.LASF23
 404 0198 01       		.byte	0x1
 405 0199 7D       		.byte	0x7d
 406 019a 8D000000 		.4byte	0x8d
 407 019e 83000000 		.4byte	.LLST3
 408 01a2 0D       		.uleb128 0xd
 409 01a3 28000000 		.4byte	.LASF24
 410 01a7 01       		.byte	0x1
 411 01a8 7D       		.byte	0x7d
 412 01a9 81000000 		.4byte	0x81
 413 01ad AF000000 		.4byte	.LLST4
 414 01b1 07       		.uleb128 0x7
 415 01b2 80000000 		.4byte	.LASF25
 416 01b6 01       		.byte	0x1
 417 01b7 80       		.byte	0x80
 418 01b8 8D000000 		.4byte	0x8d
 419 01bc D0000000 		.4byte	.LLST5
 420 01c0 07       		.uleb128 0x7
 421 01c1 5A000000 		.4byte	.LASF26
 422 01c5 01       		.byte	0x1
 423 01c6 83       		.byte	0x83
 424 01c7 8D000000 		.4byte	0x8d
 425 01cb 38010000 		.4byte	.LLST6
 426 01cf 07       		.uleb128 0x7
 427 01d0 67000000 		.4byte	.LASF27
 428 01d4 01       		.byte	0x1
 429 01d5 86       		.byte	0x86
 430 01d6 8D000000 		.4byte	0x8d
 431 01da 4B010000 		.4byte	.LLST7
 432 01de 07       		.uleb128 0x7
 433 01df 00000000 		.4byte	.LASF20
 434 01e3 01       		.byte	0x1
 435 01e4 89       		.byte	0x89
 436 01e5 8D000000 		.4byte	0x8d
 437 01e9 6A010000 		.4byte	.LLST8
 438 01ed 08       		.uleb128 0x8
 439 01ee 0C000000 		.4byte	.LVL14
 440 01f2 06030000 		.4byte	0x306
 441 01f6 01020000 		.4byte	0x201
 442 01fa 09       		.uleb128 0x9
 443 01fb 01       		.uleb128 0x1
 444 01fc 50       		.byte	0x50
 445 01fd 02       		.uleb128 0x2
 446 01fe 08       		.byte	0x8
 447 01ff 7D       		.byte	0x7d
 448 0200 00       		.byte	0
ARM GAS  C:\Users\USUARIO\AppData\Local\Temp\ccgNza9Z.s 			page 12


 449 0201 08       		.uleb128 0x8
 450 0202 14000000 		.4byte	.LVL15
 451 0206 F0020000 		.4byte	0x2f0
 452 020a 14020000 		.4byte	0x214
 453 020e 09       		.uleb128 0x9
 454 020f 01       		.uleb128 0x1
 455 0210 50       		.byte	0x50
 456 0211 01       		.uleb128 0x1
 457 0212 30       		.byte	0x30
 458 0213 00       		.byte	0
 459 0214 08       		.uleb128 0x8
 460 0215 1A000000 		.4byte	.LVL16
 461 0219 FB020000 		.4byte	0x2fb
 462 021d 27020000 		.4byte	0x227
 463 0221 09       		.uleb128 0x9
 464 0222 01       		.uleb128 0x1
 465 0223 50       		.byte	0x50
 466 0224 01       		.uleb128 0x1
 467 0225 30       		.byte	0x30
 468 0226 00       		.byte	0
 469 0227 0A       		.uleb128 0xa
 470 0228 1E000000 		.4byte	.LVL17
 471 022c 11030000 		.4byte	0x311
 472 0230 08       		.uleb128 0x8
 473 0231 24000000 		.4byte	.LVL18
 474 0235 1C030000 		.4byte	0x31c
 475 0239 43020000 		.4byte	0x243
 476 023d 09       		.uleb128 0x9
 477 023e 01       		.uleb128 0x1
 478 023f 50       		.byte	0x50
 479 0240 01       		.uleb128 0x1
 480 0241 30       		.byte	0x30
 481 0242 00       		.byte	0
 482 0243 0A       		.uleb128 0xa
 483 0244 28000000 		.4byte	.LVL19
 484 0248 27030000 		.4byte	0x327
 485 024c 08       		.uleb128 0x8
 486 024d 36000000 		.4byte	.LVL22
 487 0251 F0020000 		.4byte	0x2f0
 488 0255 5F020000 		.4byte	0x25f
 489 0259 09       		.uleb128 0x9
 490 025a 01       		.uleb128 0x1
 491 025b 50       		.byte	0x50
 492 025c 01       		.uleb128 0x1
 493 025d 32       		.byte	0x32
 494 025e 00       		.byte	0
 495 025f 08       		.uleb128 0x8
 496 0260 3C000000 		.4byte	.LVL23
 497 0264 FB020000 		.4byte	0x2fb
 498 0268 72020000 		.4byte	0x272
 499 026c 09       		.uleb128 0x9
 500 026d 01       		.uleb128 0x1
 501 026e 50       		.byte	0x50
 502 026f 01       		.uleb128 0x1
 503 0270 32       		.byte	0x32
 504 0271 00       		.byte	0
 505 0272 0A       		.uleb128 0xa
ARM GAS  C:\Users\USUARIO\AppData\Local\Temp\ccgNza9Z.s 			page 13


 506 0273 40000000 		.4byte	.LVL24
 507 0277 11030000 		.4byte	0x311
 508 027b 08       		.uleb128 0x8
 509 027c 46000000 		.4byte	.LVL25
 510 0280 1C030000 		.4byte	0x31c
 511 0284 8E020000 		.4byte	0x28e
 512 0288 09       		.uleb128 0x9
 513 0289 01       		.uleb128 0x1
 514 028a 50       		.byte	0x50
 515 028b 01       		.uleb128 0x1
 516 028c 30       		.byte	0x30
 517 028d 00       		.byte	0
 518 028e 0A       		.uleb128 0xa
 519 028f 4A000000 		.4byte	.LVL26
 520 0293 27030000 		.4byte	0x327
 521 0297 0A       		.uleb128 0xa
 522 0298 54000000 		.4byte	.LVL30
 523 029c 32030000 		.4byte	0x332
 524 02a0 0B       		.uleb128 0xb
 525 02a1 5C000000 		.4byte	.LVL32
 526 02a5 3D030000 		.4byte	0x33d
 527 02a9 09       		.uleb128 0x9
 528 02aa 01       		.uleb128 0x1
 529 02ab 51       		.byte	0x51
 530 02ac 01       		.uleb128 0x1
 531 02ad 31       		.byte	0x31
 532 02ae 00       		.byte	0
 533 02af 00       		.byte	0
 534 02b0 0E       		.uleb128 0xe
 535 02b1 A2010000 		.4byte	.LASF28
 536 02b5 0A       		.byte	0xa
 537 02b6 1207     		.2byte	0x712
 538 02b8 BC020000 		.4byte	0x2bc
 539 02bc 0F       		.uleb128 0xf
 540 02bd 76000000 		.4byte	0x76
 541 02c1 10       		.uleb128 0x10
 542 02c2 6900     		.ascii	"i\000"
 543 02c4 01       		.byte	0x1
 544 02c5 2C       		.byte	0x2c
 545 02c6 81000000 		.4byte	0x81
 546 02ca 05       		.uleb128 0x5
 547 02cb 03       		.byte	0x3
 548 02cc 00000000 		.4byte	i
 549 02d0 10       		.uleb128 0x10
 550 02d1 6C3200   		.ascii	"l2\000"
 551 02d4 01       		.byte	0x1
 552 02d5 2D       		.byte	0x2d
 553 02d6 81000000 		.4byte	0x81
 554 02da 05       		.uleb128 0x5
 555 02db 03       		.byte	0x3
 556 02dc 00000000 		.4byte	l2
 557 02e0 10       		.uleb128 0x10
 558 02e1 683200   		.ascii	"h2\000"
 559 02e4 01       		.byte	0x1
 560 02e5 2D       		.byte	0x2d
 561 02e6 81000000 		.4byte	0x81
 562 02ea 05       		.uleb128 0x5
ARM GAS  C:\Users\USUARIO\AppData\Local\Temp\ccgNza9Z.s 			page 14


 563 02eb 03       		.byte	0x3
 564 02ec 00000000 		.4byte	h2
 565 02f0 11       		.uleb128 0x11
 566 02f1 12000000 		.4byte	.LASF29
 567 02f5 12000000 		.4byte	.LASF29
 568 02f9 05       		.byte	0x5
 569 02fa 27       		.byte	0x27
 570 02fb 11       		.uleb128 0x11
 571 02fc 6E000000 		.4byte	.LASF30
 572 0300 6E000000 		.4byte	.LASF30
 573 0304 06       		.byte	0x6
 574 0305 27       		.byte	0x27
 575 0306 11       		.uleb128 0x11
 576 0307 EE020000 		.4byte	.LASF31
 577 030b EE020000 		.4byte	.LASF31
 578 030f 07       		.byte	0x7
 579 0310 41       		.byte	0x41
 580 0311 11       		.uleb128 0x11
 581 0312 18010000 		.4byte	.LASF32
 582 0316 18010000 		.4byte	.LASF32
 583 031a 08       		.byte	0x8
 584 031b 3D       		.byte	0x3d
 585 031c 11       		.uleb128 0x11
 586 031d 29010000 		.4byte	.LASF33
 587 0321 29010000 		.4byte	.LASF33
 588 0325 08       		.byte	0x8
 589 0326 3F       		.byte	0x3f
 590 0327 11       		.uleb128 0x11
 591 0328 5D010000 		.4byte	.LASF34
 592 032c 5D010000 		.4byte	.LASF34
 593 0330 08       		.byte	0x8
 594 0331 42       		.byte	0x42
 595 0332 11       		.uleb128 0x11
 596 0333 FC020000 		.4byte	.LASF35
 597 0337 FC020000 		.4byte	.LASF35
 598 033b 09       		.byte	0x9
 599 033c 3F       		.byte	0x3f
 600 033d 11       		.uleb128 0x11
 601 033e E0010000 		.4byte	.LASF36
 602 0342 E0010000 		.4byte	.LASF36
 603 0346 09       		.byte	0x9
 604 0347 3C       		.byte	0x3c
 605 0348 00       		.byte	0
 606              		.section	.debug_abbrev,"",%progbits
 607              	.Ldebug_abbrev0:
 608 0000 01       		.uleb128 0x1
 609 0001 11       		.uleb128 0x11
 610 0002 01       		.byte	0x1
 611 0003 25       		.uleb128 0x25
 612 0004 0E       		.uleb128 0xe
 613 0005 13       		.uleb128 0x13
 614 0006 0B       		.uleb128 0xb
 615 0007 03       		.uleb128 0x3
 616 0008 0E       		.uleb128 0xe
 617 0009 1B       		.uleb128 0x1b
 618 000a 0E       		.uleb128 0xe
 619 000b 55       		.uleb128 0x55
ARM GAS  C:\Users\USUARIO\AppData\Local\Temp\ccgNza9Z.s 			page 15


 620 000c 17       		.uleb128 0x17
 621 000d 11       		.uleb128 0x11
 622 000e 01       		.uleb128 0x1
 623 000f 10       		.uleb128 0x10
 624 0010 17       		.uleb128 0x17
 625 0011 00       		.byte	0
 626 0012 00       		.byte	0
 627 0013 02       		.uleb128 0x2
 628 0014 24       		.uleb128 0x24
 629 0015 00       		.byte	0
 630 0016 0B       		.uleb128 0xb
 631 0017 0B       		.uleb128 0xb
 632 0018 3E       		.uleb128 0x3e
 633 0019 0B       		.uleb128 0xb
 634 001a 03       		.uleb128 0x3
 635 001b 0E       		.uleb128 0xe
 636 001c 00       		.byte	0
 637 001d 00       		.byte	0
 638 001e 03       		.uleb128 0x3
 639 001f 16       		.uleb128 0x16
 640 0020 00       		.byte	0
 641 0021 03       		.uleb128 0x3
 642 0022 0E       		.uleb128 0xe
 643 0023 3A       		.uleb128 0x3a
 644 0024 0B       		.uleb128 0xb
 645 0025 3B       		.uleb128 0x3b
 646 0026 0B       		.uleb128 0xb
 647 0027 49       		.uleb128 0x49
 648 0028 13       		.uleb128 0x13
 649 0029 00       		.byte	0
 650 002a 00       		.byte	0
 651 002b 04       		.uleb128 0x4
 652 002c 24       		.uleb128 0x24
 653 002d 00       		.byte	0
 654 002e 0B       		.uleb128 0xb
 655 002f 0B       		.uleb128 0xb
 656 0030 3E       		.uleb128 0x3e
 657 0031 0B       		.uleb128 0xb
 658 0032 03       		.uleb128 0x3
 659 0033 08       		.uleb128 0x8
 660 0034 00       		.byte	0
 661 0035 00       		.byte	0
 662 0036 05       		.uleb128 0x5
 663 0037 16       		.uleb128 0x16
 664 0038 00       		.byte	0
 665 0039 03       		.uleb128 0x3
 666 003a 0E       		.uleb128 0xe
 667 003b 3A       		.uleb128 0x3a
 668 003c 0B       		.uleb128 0xb
 669 003d 3B       		.uleb128 0x3b
 670 003e 05       		.uleb128 0x5
 671 003f 49       		.uleb128 0x49
 672 0040 13       		.uleb128 0x13
 673 0041 00       		.byte	0
 674 0042 00       		.byte	0
 675 0043 06       		.uleb128 0x6
 676 0044 2E       		.uleb128 0x2e
ARM GAS  C:\Users\USUARIO\AppData\Local\Temp\ccgNza9Z.s 			page 16


 677 0045 01       		.byte	0x1
 678 0046 3F       		.uleb128 0x3f
 679 0047 19       		.uleb128 0x19
 680 0048 03       		.uleb128 0x3
 681 0049 0E       		.uleb128 0xe
 682 004a 3A       		.uleb128 0x3a
 683 004b 0B       		.uleb128 0xb
 684 004c 3B       		.uleb128 0x3b
 685 004d 0B       		.uleb128 0xb
 686 004e 27       		.uleb128 0x27
 687 004f 19       		.uleb128 0x19
 688 0050 49       		.uleb128 0x49
 689 0051 13       		.uleb128 0x13
 690 0052 11       		.uleb128 0x11
 691 0053 01       		.uleb128 0x1
 692 0054 12       		.uleb128 0x12
 693 0055 06       		.uleb128 0x6
 694 0056 40       		.uleb128 0x40
 695 0057 18       		.uleb128 0x18
 696 0058 9742     		.uleb128 0x2117
 697 005a 19       		.uleb128 0x19
 698 005b 01       		.uleb128 0x1
 699 005c 13       		.uleb128 0x13
 700 005d 00       		.byte	0
 701 005e 00       		.byte	0
 702 005f 07       		.uleb128 0x7
 703 0060 34       		.uleb128 0x34
 704 0061 00       		.byte	0
 705 0062 03       		.uleb128 0x3
 706 0063 0E       		.uleb128 0xe
 707 0064 3A       		.uleb128 0x3a
 708 0065 0B       		.uleb128 0xb
 709 0066 3B       		.uleb128 0x3b
 710 0067 0B       		.uleb128 0xb
 711 0068 49       		.uleb128 0x49
 712 0069 13       		.uleb128 0x13
 713 006a 02       		.uleb128 0x2
 714 006b 17       		.uleb128 0x17
 715 006c 00       		.byte	0
 716 006d 00       		.byte	0
 717 006e 08       		.uleb128 0x8
 718 006f 898201   		.uleb128 0x4109
 719 0072 01       		.byte	0x1
 720 0073 11       		.uleb128 0x11
 721 0074 01       		.uleb128 0x1
 722 0075 31       		.uleb128 0x31
 723 0076 13       		.uleb128 0x13
 724 0077 01       		.uleb128 0x1
 725 0078 13       		.uleb128 0x13
 726 0079 00       		.byte	0
 727 007a 00       		.byte	0
 728 007b 09       		.uleb128 0x9
 729 007c 8A8201   		.uleb128 0x410a
 730 007f 00       		.byte	0
 731 0080 02       		.uleb128 0x2
 732 0081 18       		.uleb128 0x18
 733 0082 9142     		.uleb128 0x2111
ARM GAS  C:\Users\USUARIO\AppData\Local\Temp\ccgNza9Z.s 			page 17


 734 0084 18       		.uleb128 0x18
 735 0085 00       		.byte	0
 736 0086 00       		.byte	0
 737 0087 0A       		.uleb128 0xa
 738 0088 898201   		.uleb128 0x4109
 739 008b 00       		.byte	0
 740 008c 11       		.uleb128 0x11
 741 008d 01       		.uleb128 0x1
 742 008e 31       		.uleb128 0x31
 743 008f 13       		.uleb128 0x13
 744 0090 00       		.byte	0
 745 0091 00       		.byte	0
 746 0092 0B       		.uleb128 0xb
 747 0093 898201   		.uleb128 0x4109
 748 0096 01       		.byte	0x1
 749 0097 11       		.uleb128 0x11
 750 0098 01       		.uleb128 0x1
 751 0099 31       		.uleb128 0x31
 752 009a 13       		.uleb128 0x13
 753 009b 00       		.byte	0
 754 009c 00       		.byte	0
 755 009d 0C       		.uleb128 0xc
 756 009e 2E       		.uleb128 0x2e
 757 009f 01       		.byte	0x1
 758 00a0 3F       		.uleb128 0x3f
 759 00a1 19       		.uleb128 0x19
 760 00a2 03       		.uleb128 0x3
 761 00a3 0E       		.uleb128 0xe
 762 00a4 3A       		.uleb128 0x3a
 763 00a5 0B       		.uleb128 0xb
 764 00a6 3B       		.uleb128 0x3b
 765 00a7 0B       		.uleb128 0xb
 766 00a8 27       		.uleb128 0x27
 767 00a9 19       		.uleb128 0x19
 768 00aa 49       		.uleb128 0x49
 769 00ab 13       		.uleb128 0x13
 770 00ac 11       		.uleb128 0x11
 771 00ad 01       		.uleb128 0x1
 772 00ae 12       		.uleb128 0x12
 773 00af 06       		.uleb128 0x6
 774 00b0 40       		.uleb128 0x40
 775 00b1 18       		.uleb128 0x18
 776 00b2 9642     		.uleb128 0x2116
 777 00b4 19       		.uleb128 0x19
 778 00b5 01       		.uleb128 0x1
 779 00b6 13       		.uleb128 0x13
 780 00b7 00       		.byte	0
 781 00b8 00       		.byte	0
 782 00b9 0D       		.uleb128 0xd
 783 00ba 05       		.uleb128 0x5
 784 00bb 00       		.byte	0
 785 00bc 03       		.uleb128 0x3
 786 00bd 0E       		.uleb128 0xe
 787 00be 3A       		.uleb128 0x3a
 788 00bf 0B       		.uleb128 0xb
 789 00c0 3B       		.uleb128 0x3b
 790 00c1 0B       		.uleb128 0xb
ARM GAS  C:\Users\USUARIO\AppData\Local\Temp\ccgNza9Z.s 			page 18


 791 00c2 49       		.uleb128 0x49
 792 00c3 13       		.uleb128 0x13
 793 00c4 02       		.uleb128 0x2
 794 00c5 17       		.uleb128 0x17
 795 00c6 00       		.byte	0
 796 00c7 00       		.byte	0
 797 00c8 0E       		.uleb128 0xe
 798 00c9 34       		.uleb128 0x34
 799 00ca 00       		.byte	0
 800 00cb 03       		.uleb128 0x3
 801 00cc 0E       		.uleb128 0xe
 802 00cd 3A       		.uleb128 0x3a
 803 00ce 0B       		.uleb128 0xb
 804 00cf 3B       		.uleb128 0x3b
 805 00d0 05       		.uleb128 0x5
 806 00d1 49       		.uleb128 0x49
 807 00d2 13       		.uleb128 0x13
 808 00d3 3F       		.uleb128 0x3f
 809 00d4 19       		.uleb128 0x19
 810 00d5 3C       		.uleb128 0x3c
 811 00d6 19       		.uleb128 0x19
 812 00d7 00       		.byte	0
 813 00d8 00       		.byte	0
 814 00d9 0F       		.uleb128 0xf
 815 00da 35       		.uleb128 0x35
 816 00db 00       		.byte	0
 817 00dc 49       		.uleb128 0x49
 818 00dd 13       		.uleb128 0x13
 819 00de 00       		.byte	0
 820 00df 00       		.byte	0
 821 00e0 10       		.uleb128 0x10
 822 00e1 34       		.uleb128 0x34
 823 00e2 00       		.byte	0
 824 00e3 03       		.uleb128 0x3
 825 00e4 08       		.uleb128 0x8
 826 00e5 3A       		.uleb128 0x3a
 827 00e6 0B       		.uleb128 0xb
 828 00e7 3B       		.uleb128 0x3b
 829 00e8 0B       		.uleb128 0xb
 830 00e9 49       		.uleb128 0x49
 831 00ea 13       		.uleb128 0x13
 832 00eb 3F       		.uleb128 0x3f
 833 00ec 19       		.uleb128 0x19
 834 00ed 02       		.uleb128 0x2
 835 00ee 18       		.uleb128 0x18
 836 00ef 00       		.byte	0
 837 00f0 00       		.byte	0
 838 00f1 11       		.uleb128 0x11
 839 00f2 2E       		.uleb128 0x2e
 840 00f3 00       		.byte	0
 841 00f4 3F       		.uleb128 0x3f
 842 00f5 19       		.uleb128 0x19
 843 00f6 3C       		.uleb128 0x3c
 844 00f7 19       		.uleb128 0x19
 845 00f8 6E       		.uleb128 0x6e
 846 00f9 0E       		.uleb128 0xe
 847 00fa 03       		.uleb128 0x3
ARM GAS  C:\Users\USUARIO\AppData\Local\Temp\ccgNza9Z.s 			page 19


 848 00fb 0E       		.uleb128 0xe
 849 00fc 3A       		.uleb128 0x3a
 850 00fd 0B       		.uleb128 0xb
 851 00fe 3B       		.uleb128 0x3b
 852 00ff 0B       		.uleb128 0xb
 853 0100 00       		.byte	0
 854 0101 00       		.byte	0
 855 0102 00       		.byte	0
 856              		.section	.debug_loc,"",%progbits
 857              	.Ldebug_loc0:
 858              	.LLST0:
 859 0000 02000000 		.4byte	.LVL0
 860 0004 24000000 		.4byte	.LVL7
 861 0008 0200     		.2byte	0x2
 862 000a 30       		.byte	0x30
 863 000b 9F       		.byte	0x9f
 864 000c 24000000 		.4byte	.LVL7
 865 0010 27000000 		.4byte	.LVL8-1
 866 0014 0100     		.2byte	0x1
 867 0016 50       		.byte	0x50
 868 0017 27000000 		.4byte	.LVL8-1
 869 001b 28000000 		.4byte	.LVL8
 870 001f 0100     		.2byte	0x1
 871 0021 54       		.byte	0x54
 872 0022 28000000 		.4byte	.LVL8
 873 0026 2C000000 		.4byte	.LVL9
 874 002a 0600     		.2byte	0x6
 875 002c 74       		.byte	0x74
 876 002d 00       		.sleb128 0
 877 002e 70       		.byte	0x70
 878 002f 00       		.sleb128 0
 879 0030 1C       		.byte	0x1c
 880 0031 9F       		.byte	0x9f
 881 0032 2C000000 		.4byte	.LVL9
 882 0036 2F000000 		.4byte	.LVL10-1
 883 003a 0100     		.2byte	0x1
 884 003c 50       		.byte	0x50
 885 003d 00000000 		.4byte	0
 886 0041 00000000 		.4byte	0
 887              	.LLST1:
 888 0045 02000000 		.4byte	.LVL0
 889 0049 30000000 		.4byte	.LVL10
 890 004d 0200     		.2byte	0x2
 891 004f 30       		.byte	0x30
 892 0050 9F       		.byte	0x9f
 893 0051 30000000 		.4byte	.LVL10
 894 0055 32000000 		.4byte	.LFE64
 895 0059 0100     		.2byte	0x1
 896 005b 50       		.byte	0x50
 897 005c 00000000 		.4byte	0
 898 0060 00000000 		.4byte	0
 899              	.LLST2:
 900 0064 02000000 		.4byte	.LVL0
 901 0068 28000000 		.4byte	.LVL8
 902 006c 0200     		.2byte	0x2
 903 006e 30       		.byte	0x30
 904 006f 9F       		.byte	0x9f
ARM GAS  C:\Users\USUARIO\AppData\Local\Temp\ccgNza9Z.s 			page 20


 905 0070 28000000 		.4byte	.LVL8
 906 0074 2C000000 		.4byte	.LVL9
 907 0078 0100     		.2byte	0x1
 908 007a 50       		.byte	0x50
 909 007b 00000000 		.4byte	0
 910 007f 00000000 		.4byte	0
 911              	.LLST3:
 912 0083 00000000 		.4byte	.LVL11
 913 0087 08000000 		.4byte	.LVL13
 914 008b 0100     		.2byte	0x1
 915 008d 50       		.byte	0x50
 916 008e 08000000 		.4byte	.LVL13
 917 0092 7C000000 		.4byte	.LVL38
 918 0096 0100     		.2byte	0x1
 919 0098 55       		.byte	0x55
 920 0099 7C000000 		.4byte	.LVL38
 921 009d 80000000 		.4byte	.LFE65
 922 00a1 0400     		.2byte	0x4
 923 00a3 F3       		.byte	0xf3
 924 00a4 01       		.uleb128 0x1
 925 00a5 50       		.byte	0x50
 926 00a6 9F       		.byte	0x9f
 927 00a7 00000000 		.4byte	0
 928 00ab 00000000 		.4byte	0
 929              	.LLST4:
 930 00af 00000000 		.4byte	.LVL11
 931 00b3 0B000000 		.4byte	.LVL14-1
 932 00b7 0100     		.2byte	0x1
 933 00b9 51       		.byte	0x51
 934 00ba 0B000000 		.4byte	.LVL14-1
 935 00be 80000000 		.4byte	.LFE65
 936 00c2 0400     		.2byte	0x4
 937 00c4 F3       		.byte	0xf3
 938 00c5 01       		.uleb128 0x1
 939 00c6 51       		.byte	0x51
 940 00c7 9F       		.byte	0x9f
 941 00c8 00000000 		.4byte	0
 942 00cc 00000000 		.4byte	0
 943              	.LLST5:
 944 00d0 06000000 		.4byte	.LVL12
 945 00d4 2A000000 		.4byte	.LVL20
 946 00d8 0200     		.2byte	0x2
 947 00da 30       		.byte	0x30
 948 00db 9F       		.byte	0x9f
 949 00dc 2A000000 		.4byte	.LVL20
 950 00e0 2C000000 		.4byte	.LVL21
 951 00e4 0100     		.2byte	0x1
 952 00e6 50       		.byte	0x50
 953 00e7 2C000000 		.4byte	.LVL21
 954 00eb 4C000000 		.4byte	.LVL27
 955 00ef 0200     		.2byte	0x2
 956 00f1 30       		.byte	0x30
 957 00f2 9F       		.byte	0x9f
 958 00f3 4C000000 		.4byte	.LVL27
 959 00f7 4E000000 		.4byte	.LVL28
 960 00fb 0100     		.2byte	0x1
 961 00fd 50       		.byte	0x50
ARM GAS  C:\Users\USUARIO\AppData\Local\Temp\ccgNza9Z.s 			page 21


 962 00fe 4E000000 		.4byte	.LVL28
 963 0102 50000000 		.4byte	.LVL29
 964 0106 0200     		.2byte	0x2
 965 0108 30       		.byte	0x30
 966 0109 9F       		.byte	0x9f
 967 010a 50000000 		.4byte	.LVL29
 968 010e 54000000 		.4byte	.LVL30
 969 0112 0100     		.2byte	0x1
 970 0114 54       		.byte	0x54
 971 0115 54000000 		.4byte	.LVL30
 972 0119 58000000 		.4byte	.LVL31
 973 011d 0600     		.2byte	0x6
 974 011f 74       		.byte	0x74
 975 0120 00       		.sleb128 0
 976 0121 70       		.byte	0x70
 977 0122 00       		.sleb128 0
 978 0123 1C       		.byte	0x1c
 979 0124 9F       		.byte	0x9f
 980 0125 58000000 		.4byte	.LVL31
 981 0129 5B000000 		.4byte	.LVL32-1
 982 012d 0100     		.2byte	0x1
 983 012f 50       		.byte	0x50
 984 0130 00000000 		.4byte	0
 985 0134 00000000 		.4byte	0
 986              	.LLST6:
 987 0138 5C000000 		.4byte	.LVL32
 988 013c 5F000000 		.4byte	.LVL33-1
 989 0140 0100     		.2byte	0x1
 990 0142 50       		.byte	0x50
 991 0143 00000000 		.4byte	0
 992 0147 00000000 		.4byte	0
 993              	.LLST7:
 994 014b 06000000 		.4byte	.LVL12
 995 014f 7A000000 		.4byte	.LVL37
 996 0153 0200     		.2byte	0x2
 997 0155 30       		.byte	0x30
 998 0156 9F       		.byte	0x9f
 999 0157 7A000000 		.4byte	.LVL37
 1000 015b 80000000 		.4byte	.LFE65
 1001 015f 0100     		.2byte	0x1
 1002 0161 50       		.byte	0x50
 1003 0162 00000000 		.4byte	0
 1004 0166 00000000 		.4byte	0
 1005              	.LLST8:
 1006 016a 06000000 		.4byte	.LVL12
 1007 016e 54000000 		.4byte	.LVL30
 1008 0172 0200     		.2byte	0x2
 1009 0174 30       		.byte	0x30
 1010 0175 9F       		.byte	0x9f
 1011 0176 54000000 		.4byte	.LVL30
 1012 017a 58000000 		.4byte	.LVL31
 1013 017e 0100     		.2byte	0x1
 1014 0180 50       		.byte	0x50
 1015 0181 00000000 		.4byte	0
 1016 0185 00000000 		.4byte	0
 1017              		.section	.debug_aranges,"",%progbits
 1018 0000 24000000 		.4byte	0x24
ARM GAS  C:\Users\USUARIO\AppData\Local\Temp\ccgNza9Z.s 			page 22


 1019 0004 0200     		.2byte	0x2
 1020 0006 00000000 		.4byte	.Ldebug_info0
 1021 000a 04       		.byte	0x4
 1022 000b 00       		.byte	0
 1023 000c 0000     		.2byte	0
 1024 000e 0000     		.2byte	0
 1025 0010 00000000 		.4byte	.LFB64
 1026 0014 32000000 		.4byte	.LFE64-.LFB64
 1027 0018 00000000 		.4byte	.LFB65
 1028 001c 80000000 		.4byte	.LFE65-.LFB65
 1029 0020 00000000 		.4byte	0
 1030 0024 00000000 		.4byte	0
 1031              		.section	.debug_ranges,"",%progbits
 1032              	.Ldebug_ranges0:
 1033 0000 00000000 		.4byte	.LFB64
 1034 0004 32000000 		.4byte	.LFE64
 1035 0008 00000000 		.4byte	.LFB65
 1036 000c 80000000 		.4byte	.LFE65
 1037 0010 00000000 		.4byte	0
 1038 0014 00000000 		.4byte	0
 1039              		.section	.debug_line,"",%progbits
 1040              	.Ldebug_line0:
 1041 0000 E4010000 		.section	.debug_str,"MS",%progbits,1
 1041      02009B01 
 1041      00000201 
 1041      FB0E0D00 
 1041      01010101 
 1042              	.LASF20:
 1043 0000 7A65726F 		.ascii	"zeroCurrentOffset\000"
 1043      43757272 
 1043      656E744F 
 1043      66667365 
 1043      7400
 1044              	.LASF29:
 1045 0012 43757272 		.ascii	"CurrentMux_FastSelect\000"
 1045      656E744D 
 1045      75785F46 
 1045      61737453 
 1045      656C6563 
 1046              	.LASF24:
 1047 0028 6368616E 		.ascii	"channel\000"
 1047      6E656C00 
 1048              	.LASF13:
 1049 0030 666C6F61 		.ascii	"float\000"
 1049      7400
 1050              	.LASF9:
 1051 0036 5F5F696E 		.ascii	"__int32_t\000"
 1051      7433325F 
 1051      7400
 1052              	.LASF3:
 1053 0040 73686F72 		.ascii	"short unsigned int\000"
 1053      7420756E 
 1053      7369676E 
 1053      65642069 
 1053      6E7400
 1054              	.LASF14:
 1055 0053 646F7562 		.ascii	"double\000"
ARM GAS  C:\Users\USUARIO\AppData\Local\Temp\ccgNza9Z.s 			page 23


 1055      6C6500
 1056              	.LASF26:
 1057 005a 66696C52 		.ascii	"filRtdResult\000"
 1057      74645265 
 1057      73756C74 
 1057      00
 1058              	.LASF27:
 1059 0067 72746452 		.ascii	"rtdRes\000"
 1059      657300
 1060              	.LASF30:
 1061 006e 4144434D 		.ascii	"ADCMux_FastSelect\000"
 1061      75785F46 
 1061      61737453 
 1061      656C6563 
 1061      7400
 1062              	.LASF25:
 1063 0080 72746452 		.ascii	"rtdResult\000"
 1063      6573756C 
 1063      7400
 1064              	.LASF37:
 1065 008a 474E5520 		.ascii	"GNU C11 5.4.1 20160609 (release) [ARM/embedded-5-br"
 1065      43313120 
 1065      352E342E 
 1065      31203230 
 1065      31363036 
 1066 00bd 616E6368 		.ascii	"anch revision 237715] -mcpu=cortex-m3 -mthumb -g -O"
 1066      20726576 
 1066      6973696F 
 1066      6E203233 
 1066      37373135 
 1067 00f0 67202D66 		.ascii	"g -ffunction-sections -ffat-lto-objects\000"
 1067      66756E63 
 1067      74696F6E 
 1067      2D736563 
 1067      74696F6E 
 1068              	.LASF32:
 1069 0118 4144435F 		.ascii	"ADC_StartConvert\000"
 1069      53746172 
 1069      74436F6E 
 1069      76657274 
 1069      00
 1070              	.LASF33:
 1071 0129 4144435F 		.ascii	"ADC_IsEndConversion\000"
 1071      4973456E 
 1071      64436F6E 
 1071      76657273 
 1071      696F6E00 
 1072              	.LASF12:
 1073 013d 696E7433 		.ascii	"int32\000"
 1073      3200
 1074              	.LASF19:
 1075 0143 66696C52 		.ascii	"filRtdRefResult\000"
 1075      74645265 
 1075      66526573 
 1075      756C7400 
 1076              	.LASF22:
 1077 0153 47657452 		.ascii	"GetRTDRes\000"
ARM GAS  C:\Users\USUARIO\AppData\Local\Temp\ccgNza9Z.s 			page 24


 1077      54445265 
 1077      7300
 1078              	.LASF34:
 1079 015d 4144435F 		.ascii	"ADC_GetResult32\000"
 1079      47657452 
 1079      6573756C 
 1079      74333200 
 1080              	.LASF1:
 1081 016d 756E7369 		.ascii	"unsigned char\000"
 1081      676E6564 
 1081      20636861 
 1081      7200
 1082              	.LASF5:
 1083 017b 6C6F6E67 		.ascii	"long unsigned int\000"
 1083      20756E73 
 1083      69676E65 
 1083      6420696E 
 1083      7400
 1084              	.LASF21:
 1085 018d 4D656173 		.ascii	"MeasureRefResVoltage\000"
 1085      75726552 
 1085      65665265 
 1085      73566F6C 
 1085      74616765 
 1086              	.LASF28:
 1087 01a2 49544D5F 		.ascii	"ITM_RxBuffer\000"
 1087      52784275 
 1087      66666572 
 1087      00
 1088              	.LASF8:
 1089 01af 756E7369 		.ascii	"unsigned int\000"
 1089      676E6564 
 1089      20696E74 
 1089      00
 1090              	.LASF7:
 1091 01bc 6C6F6E67 		.ascii	"long long unsigned int\000"
 1091      206C6F6E 
 1091      6720756E 
 1091      7369676E 
 1091      65642069 
 1092              	.LASF18:
 1093 01d3 72746452 		.ascii	"rtdRefResult\000"
 1093      65665265 
 1093      73756C74 
 1093      00
 1094              	.LASF36:
 1095 01e0 46696C74 		.ascii	"FilterSignal\000"
 1095      65725369 
 1095      676E616C 
 1095      00
 1096              	.LASF10:
 1097 01ed 696E7433 		.ascii	"int32_t\000"
 1097      325F7400 
 1098              	.LASF38:
 1099 01f5 67657452 		.ascii	"getResistance.c\000"
 1099      65736973 
 1099      74616E63 
ARM GAS  C:\Users\USUARIO\AppData\Local\Temp\ccgNza9Z.s 			page 25


 1099      652E6300 
 1100              	.LASF17:
 1101 0205 73697A65 		.ascii	"sizetype\000"
 1101      74797065 
 1101      00
 1102              	.LASF6:
 1103 020e 6C6F6E67 		.ascii	"long long int\000"
 1103      206C6F6E 
 1103      6720696E 
 1103      7400
 1104              	.LASF39:
 1105 021c 443A5C4C 		.ascii	"D:\\Laboratorio\\Camara Climatica\\2021\\Camara Cli"
 1105      61626F72 
 1105      61746F72 
 1105      696F5C43 
 1105      616D6172 
 1106 024b 6D617469 		.ascii	"matica Peltier Touch Asemp Zomac SAS 256L #0045886X"
 1106      63612050 
 1106      656C7469 
 1106      65722054 
 1106      6F756368 
 1107 027e 58204F50 		.ascii	"X OP2021161\\Firmware Psoc\\LCD2\\CamaraClimatica.c"
 1107      32303231 
 1107      3136315C 
 1107      4669726D 
 1107      77617265 
 1108 02ae 7964736E 		.ascii	"ydsn\000"
 1108      00
 1109              	.LASF15:
 1110 02b3 63686172 		.ascii	"char\000"
 1110      00
 1111              	.LASF2:
 1112 02b8 73686F72 		.ascii	"short int\000"
 1112      7420696E 
 1112      7400
 1113              	.LASF11:
 1114 02c2 75696E74 		.ascii	"uint8\000"
 1114      3800
 1115              	.LASF4:
 1116 02c8 6C6F6E67 		.ascii	"long int\000"
 1116      20696E74 
 1116      00
 1117              	.LASF16:
 1118 02d1 6C6F6E67 		.ascii	"long double\000"
 1118      20646F75 
 1118      626C6500 
 1119              	.LASF23:
 1120 02dd 76526566 		.ascii	"vRef\000"
 1120      00
 1121              	.LASF0:
 1122 02e2 7369676E 		.ascii	"signed char\000"
 1122      65642063 
 1122      68617200 
 1123              	.LASF31:
 1124 02ee 49444143 		.ascii	"IDAC_SetValue\000"
 1124      5F536574 
 1124      56616C75 
ARM GAS  C:\Users\USUARIO\AppData\Local\Temp\ccgNza9Z.s 			page 26


 1124      6500
 1125              	.LASF35:
 1126 02fc 4765744F 		.ascii	"GetOffset\000"
 1126      66667365 
 1126      7400
 1127              		.ident	"GCC: (GNU Tools for ARM Embedded Processors) 5.4.1 20160609 (release) [ARM/embedded-5-bran
