ARM GAS  C:\Users\USUARIO\AppData\Local\Temp\ccbY610b.s 			page 1


   1              		.syntax unified
   2              		.cpu cortex-m3
   3              		.fpu softvfp
   4              		.eabi_attribute 20, 1
   5              		.eabi_attribute 21, 1
   6              		.eabi_attribute 23, 3
   7              		.eabi_attribute 24, 1
   8              		.eabi_attribute 25, 1
   9              		.eabi_attribute 26, 1
  10              		.eabi_attribute 30, 1
  11              		.eabi_attribute 34, 1
  12              		.eabi_attribute 18, 4
  13              		.thumb
  14              		.syntax unified
  15              		.file	"iprintf.c"
  16              		.text
  17              	.Ltext0:
  18              		.cfi_sections	.debug_frame
  19              		.section	.text.change,"ax",%progbits
  20              		.align	2
  21              		.thumb
  22              		.thumb_func
  23              		.type	change, %function
  24              	change:
  25              	.LFB63:
  26              		.file 1 "iprintf.c"
   1:iprintf.c     **** /******************************************************************************
   2:iprintf.c     **** *This file is for iprintf()
   3:iprintf.c     **** *The iprintf() is a simple printf() and only can print string with %s,%d,%c,%x.
   4:iprintf.c     **** *******************************************************************************/
   5:iprintf.c     **** #include <iprintf.h>
   6:iprintf.c     **** 
   7:iprintf.c     **** 
   8:iprintf.c     **** static uint8* change(uint32 Index)
   9:iprintf.c     **** {
  27              		.loc 1 9 0
  28              		.cfi_startproc
  29              		@ args = 0, pretend = 0, frame = 0
  30              		@ frame_needed = 0, uses_anonymous_args = 0
  31              		@ link register save eliminated.
  32              	.LVL0:
  10:iprintf.c     ****     return (uint8*)("0123456789abcdef"+Index);
  11:iprintf.c     **** }
  33              		.loc 1 11 0
  34 0000 014B     		ldr	r3, .L2
  35 0002 1844     		add	r0, r0, r3
  36              	.LVL1:
  37 0004 7047     		bx	lr
  38              	.L3:
  39 0006 00BF     		.align	2
  40              	.L2:
  41 0008 00000000 		.word	.LC0
  42              		.cfi_endproc
  43              	.LFE63:
  44              		.size	change, .-change
  45              		.section	.text.iprintf,"ax",%progbits
  46              		.align	2
ARM GAS  C:\Users\USUARIO\AppData\Local\Temp\ccbY610b.s 			page 2


  47              		.global	iprintf
  48              		.thumb
  49              		.thumb_func
  50              		.type	iprintf, %function
  51              	iprintf:
  52              	.LFB64:
  12:iprintf.c     **** 
  13:iprintf.c     **** 
  14:iprintf.c     **** int iprintf(const char*pszFmt,...)
  15:iprintf.c     **** {
  53              		.loc 1 15 0
  54              		.cfi_startproc
  55              		@ args = 4, pretend = 16, frame = 48
  56              		@ frame_needed = 0, uses_anonymous_args = 1
  57              	.LVL2:
  58 0000 0FB4     		push	{r0, r1, r2, r3}
  59              		.cfi_def_cfa_offset 16
  60              		.cfi_offset 0, -16
  61              		.cfi_offset 1, -12
  62              		.cfi_offset 2, -8
  63              		.cfi_offset 3, -4
  64 0002 70B5     		push	{r4, r5, r6, lr}
  65              		.cfi_def_cfa_offset 32
  66              		.cfi_offset 4, -32
  67              		.cfi_offset 5, -28
  68              		.cfi_offset 6, -24
  69              		.cfi_offset 14, -20
  70 0004 8CB0     		sub	sp, sp, #48
  71              		.cfi_def_cfa_offset 80
  72              	.LVL3:
  16:iprintf.c     ****     uint8 *pszVal;
  17:iprintf.c     ****     uint32 iVal, xVal, i = 0, buffer[12], index = 1;
  73              		.loc 1 17 0
  74 0006 0124     		movs	r4, #1
  18:iprintf.c     ****     uint8 cVal;
  19:iprintf.c     ****     uint32 *pArg;
  20:iprintf.c     ****     pArg =(uint32 *)&pszFmt;
  21:iprintf.c     **** 
  22:iprintf.c     ****     while(*pszFmt)
  75              		.loc 1 22 0
  76 0008 90E0     		b	.L5
  77              	.LVL4:
  78              	.L23:
  23:iprintf.c     ****     {
  24:iprintf.c     ****         if('%' != *pszFmt)
  79              		.loc 1 24 0
  80 000a 2528     		cmp	r0, #37
  81 000c 05D0     		beq	.L6
  82              	.LBB2:
  25:iprintf.c     ****         {
  26:iprintf.c     ****             iputc(*pszFmt);
  83              		.loc 1 26 0
  84 000e FFF7FEFF 		bl	iputc
  85              	.LVL5:
  27:iprintf.c     ****             pszFmt++;
  86              		.loc 1 27 0
  87 0012 109B     		ldr	r3, [sp, #64]
ARM GAS  C:\Users\USUARIO\AppData\Local\Temp\ccbY610b.s 			page 3


  88 0014 0133     		adds	r3, r3, #1
  89 0016 1093     		str	r3, [sp, #64]
  28:iprintf.c     ****             continue;
  90              		.loc 1 28 0
  91 0018 88E0     		b	.L5
  92              	.L6:
  93              	.LBE2:
  29:iprintf.c     ****         }
  30:iprintf.c     ****         pszFmt++;
  94              		.loc 1 30 0
  95 001a 5A1C     		adds	r2, r3, #1
  96 001c 1092     		str	r2, [sp, #64]
  31:iprintf.c     **** 
  32:iprintf.c     ****         if(*pszFmt == 's')
  97              		.loc 1 32 0
  98 001e 5B78     		ldrb	r3, [r3, #1]	@ zero_extendqisi2
  99 0020 732B     		cmp	r3, #115
 100 0022 0FD1     		bne	.L8
  33:iprintf.c     ****         {
  34:iprintf.c     ****             pszVal = (uint8*)pArg[index++];
 101              		.loc 1 34 0
 102 0024 651C     		adds	r5, r4, #1
 103              	.LVL6:
 104 0026 10AB     		add	r3, sp, #64
 105              	.LVL7:
 106 0028 53F82440 		ldr	r4, [r3, r4, lsl #2]
 107              	.LVL8:
  35:iprintf.c     ****             for(; *pszVal != '\0'; pszVal++)
 108              		.loc 1 35 0
 109 002c 02E0     		b	.L9
 110              	.LVL9:
 111              	.L10:
 112              	.LBB3:
  36:iprintf.c     ****                 iputc(*pszVal);
 113              		.loc 1 36 0 discriminator 2
 114 002e FFF7FEFF 		bl	iputc
 115              	.LVL10:
 116              	.LBE3:
  35:iprintf.c     ****             for(; *pszVal != '\0'; pszVal++)
 117              		.loc 1 35 0 discriminator 2
 118 0032 0134     		adds	r4, r4, #1
 119              	.LVL11:
 120              	.L9:
  35:iprintf.c     ****             for(; *pszVal != '\0'; pszVal++)
 121              		.loc 1 35 0 is_stmt 0 discriminator 1
 122 0034 2078     		ldrb	r0, [r4]	@ zero_extendqisi2
 123 0036 0028     		cmp	r0, #0
 124 0038 F9D1     		bne	.L10
  37:iprintf.c     ****             pszFmt++;
 125              		.loc 1 37 0 is_stmt 1
 126 003a 109B     		ldr	r3, [sp, #64]
 127 003c 0133     		adds	r3, r3, #1
 128 003e 1093     		str	r3, [sp, #64]
  34:iprintf.c     ****             for(; *pszVal != '\0'; pszVal++)
 129              		.loc 1 34 0
 130 0040 2C46     		mov	r4, r5
 131              	.LVL12:
ARM GAS  C:\Users\USUARIO\AppData\Local\Temp\ccbY610b.s 			page 4


  38:iprintf.c     ****             continue;
 132              		.loc 1 38 0
 133 0042 73E0     		b	.L5
 134              	.LVL13:
 135              	.L8:
  39:iprintf.c     ****         }
  40:iprintf.c     ****         if(*pszFmt == 'd')
 136              		.loc 1 40 0
 137 0044 642B     		cmp	r3, #100
 138 0046 2AD1     		bne	.L11
  41:iprintf.c     ****         {
  42:iprintf.c     ****             iVal = pArg[index++];
 139              		.loc 1 42 0
 140 0048 651C     		adds	r5, r4, #1
 141              	.LVL14:
 142 004a 10AB     		add	r3, sp, #64
 143              	.LVL15:
 144 004c 53F82410 		ldr	r1, [r3, r4, lsl #2]
 145              	.LVL16:
  43:iprintf.c     ****             i = 0;
 146              		.loc 1 43 0
 147 0050 0022     		movs	r2, #0
 148              	.LVL17:
 149              	.L12:
  44:iprintf.c     ****             do{
  45:iprintf.c     ****                 buffer[i++] = iVal % 10;
 150              		.loc 1 45 0 discriminator 1
 151 0052 541C     		adds	r4, r2, #1
 152              	.LVL18:
 153 0054 3A4B     		ldr	r3, .L26
 154 0056 A3FB0103 		umull	r0, r3, r3, r1
 155 005a DB08     		lsrs	r3, r3, #3
 156 005c 1846     		mov	r0, r3
 157 005e 03EB8303 		add	r3, r3, r3, lsl #2
 158 0062 5E00     		lsls	r6, r3, #1
 159 0064 8B1B     		subs	r3, r1, r6
 160 0066 0CA9     		add	r1, sp, #48
 161              	.LVL19:
 162 0068 01EB8202 		add	r2, r1, r2, lsl #2
 163 006c 42F8303C 		str	r3, [r2, #-48]
  46:iprintf.c     ****                 iVal /= 10;
 164              		.loc 1 46 0 discriminator 1
 165 0070 0146     		mov	r1, r0
 166              	.LVL20:
  45:iprintf.c     ****                 iVal /= 10;
 167              		.loc 1 45 0 discriminator 1
 168 0072 2246     		mov	r2, r4
  47:iprintf.c     ****             }while(iVal);
 169              		.loc 1 47 0 discriminator 1
 170 0074 0028     		cmp	r0, #0
 171 0076 ECD1     		bne	.L12
 172 0078 0AE0     		b	.L13
 173              	.LVL21:
 174              	.L14:
 175              	.LBB4:
  48:iprintf.c     ****             while(i > 0)
  49:iprintf.c     ****             {
ARM GAS  C:\Users\USUARIO\AppData\Local\Temp\ccbY610b.s 			page 5


  50:iprintf.c     ****                 i--;
 176              		.loc 1 50 0
 177 007a 013C     		subs	r4, r4, #1
 178              	.LVL22:
  51:iprintf.c     ****                 iputc(*change(buffer[i]));
 179              		.loc 1 51 0
 180 007c 0CAB     		add	r3, sp, #48
 181 007e 03EB8403 		add	r3, r3, r4, lsl #2
 182 0082 53F8300C 		ldr	r0, [r3, #-48]
 183 0086 FFF7FEFF 		bl	change
 184              	.LVL23:
 185 008a 0078     		ldrb	r0, [r0]	@ zero_extendqisi2
 186 008c FFF7FEFF 		bl	iputc
 187              	.LVL24:
 188              	.L13:
 189              	.LBE4:
  48:iprintf.c     ****             while(i > 0)
 190              		.loc 1 48 0
 191 0090 002C     		cmp	r4, #0
 192 0092 F2D1     		bne	.L14
  52:iprintf.c     ****             }
  53:iprintf.c     ****             pszFmt++;
 193              		.loc 1 53 0
 194 0094 109B     		ldr	r3, [sp, #64]
 195 0096 0133     		adds	r3, r3, #1
 196 0098 1093     		str	r3, [sp, #64]
  42:iprintf.c     ****             i = 0;
 197              		.loc 1 42 0
 198 009a 2C46     		mov	r4, r5
 199              	.LVL25:
  54:iprintf.c     ****             continue;
 200              		.loc 1 54 0
 201 009c 46E0     		b	.L5
 202              	.LVL26:
 203              	.L11:
  55:iprintf.c     ****         }
  56:iprintf.c     ****         if(*pszFmt == 'c')
 204              		.loc 1 56 0
 205 009e 632B     		cmp	r3, #99
 206 00a0 0AD1     		bne	.L15
 207              	.LBB5:
  57:iprintf.c     ****         {
  58:iprintf.c     ****             cVal = (uint8)pArg[index++];
 208              		.loc 1 58 0
 209 00a2 651C     		adds	r5, r4, #1
 210              	.LVL27:
  59:iprintf.c     ****             iputc(cVal);
 211              		.loc 1 59 0
 212 00a4 10AB     		add	r3, sp, #64
 213              	.LVL28:
 214 00a6 13F82400 		ldrb	r0, [r3, r4, lsl #2]	@ zero_extendqisi2
 215 00aa FFF7FEFF 		bl	iputc
 216              	.LVL29:
  60:iprintf.c     ****             pszFmt++;
 217              		.loc 1 60 0
 218 00ae 109B     		ldr	r3, [sp, #64]
 219 00b0 0133     		adds	r3, r3, #1
ARM GAS  C:\Users\USUARIO\AppData\Local\Temp\ccbY610b.s 			page 6


 220 00b2 1093     		str	r3, [sp, #64]
  58:iprintf.c     ****             iputc(cVal);
 221              		.loc 1 58 0
 222 00b4 2C46     		mov	r4, r5
  61:iprintf.c     ****             continue;
 223              		.loc 1 61 0
 224 00b6 39E0     		b	.L5
 225              	.LVL30:
 226              	.L15:
 227              	.LBE5:
  62:iprintf.c     ****         }
  63:iprintf.c     ****         if(*pszFmt == 'x')
 228              		.loc 1 63 0
 229 00b8 782B     		cmp	r3, #120
 230 00ba 36D1     		bne	.L16
  64:iprintf.c     ****         {
  65:iprintf.c     ****             xVal = pArg[index++];
 231              		.loc 1 65 0
 232 00bc 651C     		adds	r5, r4, #1
 233              	.LVL31:
 234 00be 10AB     		add	r3, sp, #64
 235              	.LVL32:
 236 00c0 53F82430 		ldr	r3, [r3, r4, lsl #2]
 237              	.LVL33:
  66:iprintf.c     ****             i = 0;
 238              		.loc 1 66 0
 239 00c4 0022     		movs	r2, #0
 240 00c6 00E0     		b	.L17
 241              	.LVL34:
 242              	.L24:
  67:iprintf.c     ****             do{
  68:iprintf.c     ****                 buffer[i++] = xVal % 16;
 243              		.loc 1 68 0
 244 00c8 2246     		mov	r2, r4
 245              	.LVL35:
 246              	.L17:
 247              		.loc 1 68 0 is_stmt 0 discriminator 1
 248 00ca 541C     		adds	r4, r2, #1
 249              	.LVL36:
 250 00cc 03F00F00 		and	r0, r3, #15
 251 00d0 0CA9     		add	r1, sp, #48
 252 00d2 01EB8201 		add	r1, r1, r2, lsl #2
 253 00d6 41F8300C 		str	r0, [r1, #-48]
 254              	.LVL37:
  69:iprintf.c     ****                 xVal /= 16;
  70:iprintf.c     ****             }while(xVal);
 255              		.loc 1 70 0 is_stmt 1 discriminator 1
 256 00da 1B09     		lsrs	r3, r3, #4
 257              	.LVL38:
 258 00dc F4D1     		bne	.L24
  71:iprintf.c     ****             if(i%2!=0)
 259              		.loc 1 71 0
 260 00de 14F0010F 		tst	r4, #1
 261 00e2 06D0     		beq	.L18
 262              	.LVL39:
  72:iprintf.c     ****                 buffer[i++]=0;
 263              		.loc 1 72 0
ARM GAS  C:\Users\USUARIO\AppData\Local\Temp\ccbY610b.s 			page 7


 264 00e4 0CAB     		add	r3, sp, #48
 265              	.LVL40:
 266 00e6 03EB8404 		add	r4, r3, r4, lsl #2
 267 00ea 0023     		movs	r3, #0
 268 00ec 44F8303C 		str	r3, [r4, #-48]
 269 00f0 941C     		adds	r4, r2, #2
 270              	.LVL41:
 271              	.L18:
  73:iprintf.c     ****             if(i<2)
 272              		.loc 1 73 0
 273 00f2 012C     		cmp	r4, #1
 274 00f4 12D8     		bhi	.L20
 275              	.LVL42:
  74:iprintf.c     ****                 buffer[i++]=0;
 276              		.loc 1 74 0
 277 00f6 0CAB     		add	r3, sp, #48
 278 00f8 03EB8403 		add	r3, r3, r4, lsl #2
 279 00fc 0022     		movs	r2, #0
 280 00fe 43F8302C 		str	r2, [r3, #-48]
 281 0102 0134     		adds	r4, r4, #1
 282              	.LVL43:
 283 0104 0AE0     		b	.L20
 284              	.L21:
 285              	.LBB6:
  75:iprintf.c     **** 
  76:iprintf.c     ****             while(i > 0)
  77:iprintf.c     ****             {
  78:iprintf.c     ****                 i--;
 286              		.loc 1 78 0
 287 0106 013C     		subs	r4, r4, #1
 288              	.LVL44:
  79:iprintf.c     ****                 iputc(*change(buffer[i]));
 289              		.loc 1 79 0
 290 0108 0CAB     		add	r3, sp, #48
 291 010a 03EB8403 		add	r3, r3, r4, lsl #2
 292 010e 53F8300C 		ldr	r0, [r3, #-48]
 293 0112 FFF7FEFF 		bl	change
 294              	.LVL45:
 295 0116 0078     		ldrb	r0, [r0]	@ zero_extendqisi2
 296 0118 FFF7FEFF 		bl	iputc
 297              	.LVL46:
 298              	.L20:
 299              	.LBE6:
  76:iprintf.c     ****             {
 300              		.loc 1 76 0
 301 011c 002C     		cmp	r4, #0
 302 011e F2D1     		bne	.L21
  80:iprintf.c     ****             }
  81:iprintf.c     ****             pszFmt++;
 303              		.loc 1 81 0
 304 0120 109B     		ldr	r3, [sp, #64]
 305 0122 0133     		adds	r3, r3, #1
 306 0124 1093     		str	r3, [sp, #64]
  65:iprintf.c     ****             i = 0;
 307              		.loc 1 65 0
 308 0126 2C46     		mov	r4, r5
 309              	.LVL47:
ARM GAS  C:\Users\USUARIO\AppData\Local\Temp\ccbY610b.s 			page 8


  82:iprintf.c     ****             continue;
 310              		.loc 1 82 0
 311 0128 00E0     		b	.L5
 312              	.LVL48:
 313              	.L16:
  83:iprintf.c     ****         }
  84:iprintf.c     ****         if(pszFmt == '\0')
 314              		.loc 1 84 0
 315 012a 22B1     		cbz	r2, .L22
 316              	.LVL49:
 317              	.L5:
  22:iprintf.c     ****     {
 318              		.loc 1 22 0
 319 012c 109B     		ldr	r3, [sp, #64]
 320 012e 1878     		ldrb	r0, [r3]	@ zero_extendqisi2
 321 0130 0028     		cmp	r0, #0
 322 0132 7FF46AAF 		bne	.L23
 323              	.L22:
  85:iprintf.c     ****         {
  86:iprintf.c     ****             break;
  87:iprintf.c     ****         }
  88:iprintf.c     **** 
  89:iprintf.c     ****     }
  90:iprintf.c     **** }...
 324              		.loc 1 90 0
 325 0136 0CB0     		add	sp, sp, #48
 326              		.cfi_def_cfa_offset 32
 327              		@ sp needed
 328 0138 BDE87040 		pop	{r4, r5, r6, lr}
 329              		.cfi_restore 14
 330              		.cfi_restore 6
 331              		.cfi_restore 5
 332              		.cfi_restore 4
 333              		.cfi_def_cfa_offset 16
 334              	.LVL50:
 335 013c 04B0     		add	sp, sp, #16
 336              		.cfi_restore 3
 337              		.cfi_restore 2
 338              		.cfi_restore 1
 339              		.cfi_restore 0
 340              		.cfi_def_cfa_offset 0
 341              	.LVL51:
 342 013e 7047     		bx	lr
 343              	.L27:
 344              		.align	2
 345              	.L26:
 346 0140 CDCCCCCC 		.word	-858993459
 347              		.cfi_endproc
 348              	.LFE64:
 349              		.size	iprintf, .-iprintf
 350              		.section	.rodata.str1.4,"aMS",%progbits,1
 351              		.align	2
 352              	.LC0:
 353 0000 30313233 		.ascii	"0123456789abcdef\000"
 353      34353637 
 353      38396162 
 353      63646566 
ARM GAS  C:\Users\USUARIO\AppData\Local\Temp\ccbY610b.s 			page 9


 353      00
 354              		.text
 355              	.Letext0:
 356              		.file 2 "c:\\program files (x86)\\cypress\\psoc creator\\4.4\\psoc creator\\import\\gnu\\arm\\5.4.
 357              		.file 3 "c:\\program files (x86)\\cypress\\psoc creator\\4.4\\psoc creator\\import\\gnu\\arm\\5.4.
 358              		.file 4 "Generated_Source\\PSoC5/cytypes.h"
 359              		.file 5 "Generated_Source\\PSoC5/core_cm3.h"