ARM GAS  C:\Users\USUARIO\AppData\Local\Temp\cc9Uggst.s 			page 1


   1              		.syntax unified
   2              		.cpu cortex-m3
   3              		.fpu softvfp
   4              		.eabi_attribute 20, 1
   5              		.eabi_attribute 21, 1
   6              		.eabi_attribute 23, 3
   7              		.eabi_attribute 24, 1
   8              		.eabi_attribute 25, 1
   9              		.eabi_attribute 26, 1
  10              		.eabi_attribute 30, 1
  11              		.eabi_attribute 34, 1
  12              		.eabi_attribute 18, 4
  13              		.thumb
  14              		.syntax unified
  15              		.file	"main.c"
  16              		.text
  17              	.Ltext0:
  18              		.cfi_sections	.debug_frame
  19              		.syntax unified
  20              		.global _printf_float
  21              		.thumb
  22              		.syntax unified
  23              		.section	.text.Reloj2,"ax",%progbits
  24              		.align	2
  25              		.global	Reloj2
  26              		.thumb
  27              		.thumb_func
  28              		.type	Reloj2, %function
  29              	Reloj2:
  30              	.LFB64:
  31              		.file 1 "main.c"
   1:main.c        **** 
   2:main.c        **** /* ========================================
   3:main.c        ****  *
   4:main.c        ****  * Copyright JP Bioingenieria SAS, 2021
   5:main.c        ****  * All Rights Reserved
   6:main.c        ****  * UNPUBLISHED, LICENSED SOFTWARE.
   7:main.c        ****  *
   8:main.c        ****  * Para calibrar la temperatura de la mufla de acuerdo a un patron de temperatura se debe realizar 
   9:main.c        ****  * Se mide con el patron la temperatura en dos puntos y se registran las diferencias con respecto a
  10:main.c        ****  * Se dibuja una grafica XY, donde en el eje Y este la temperatura del control y en el eje X la tem
  11:main.c        ****  * Se traza la recta con los valores obtenidos y se calcula la pendiente m y el punto de corte b, e
  12:main.c        ****  * a  la lectura de la termocupla de acuerdo a la siguiente ecuacion: T=(Tcontrol-b)/m;
  13:main.c        ****  *
  14:main.c        ****  * Este programa activa el extractor de una campana externa. El extractor estara activado durante t
  15:main.c        ****  * funcionamiento (Menu==20), una vez termine todas las rampas, comenzara a correr el tiempo config
  16:main.c        ****  * vez acabe el tiempo apagara automaticamente el extractor.
  17:main.c        ****  * ========================================
  18:main.c        **** */
  19:main.c        **** #include <BMP180.h>
  20:main.c        **** #include "removeOffsetNoise.h"
  21:main.c        **** #include "getResistance.h"
  22:main.c        **** #include <stdio.h>
  23:main.c        **** #include <main.h>
  24:main.c        **** #include <math.h>
  25:main.c        **** #include <stdlib.h>
  26:main.c        **** #include <DS1302.h>
ARM GAS  C:\Users\USUARIO\AppData\Local\Temp\cc9Uggst.s 			page 2


  27:main.c        **** #include <24512.h>
  28:main.c        **** #include "MyServer.h"
  29:main.c        **** #include "funciones.h"
  30:main.c        **** 
  31:main.c        **** #if defined (__GNUC__)
  32:main.c        ****     /* Add an explicit reference to the floating point printf library */
  33:main.c        ****     /* to allow the usage of floating point conversion specifiers. */
  34:main.c        ****     /* This is not linked in by default with the newlib-nano library. */
  35:main.c        ****     asm (".global _printf_float");
  36:main.c        **** #endif
  37:main.c        **** 
  38:main.c        **** int bytes = 0;
  39:main.c        **** char webbuff[2000];	// After processing the received data is cleared and used to send data to the c
  40:main.c        **** uint8 socket =0;
  41:main.c        **** uint8 IP[4]={192,168,0,101};
  42:main.c        **** uint8 Gateway[4]={192,168,0,1};
  43:main.c        **** uint8 Subnet[4]={255,255,255,0};
  44:main.c        **** uint8 MAC[6]={0,222,173,190,239,0};
  45:main.c        **** uint16 tiempos=0,tiempos3=0,tiempoctrl=0,Tc=0,Tp=0,tiempoup=0,tiempodn=0;
  46:main.c        **** short Control=0,Test=0,Lectura2=OFF,flagup=OFF,flagdn=OFF;
  47:main.c        **** short ip1=0,ip2=0,ip3=0,ip4=0,s1=0,s2=0,s3=0,s4=0,g1=0,g2=0,g3=0,g4=0,m1=0,m2=0,m3=0,m4=0,m5=0,m6=0
  48:main.c        **** uint8 horaGrafica[20],minutoGrafica[20];
  49:main.c        **** 
  50:main.c        **** CY_ISR(Reloj2){ 
  32              		.loc 1 50 0
  33              		.cfi_startproc
  34              		@ args = 0, pretend = 0, frame = 0
  35              		@ frame_needed = 0, uses_anonymous_args = 0
  36 0000 08B5     		push	{r3, lr}
  37              		.cfi_def_cfa_offset 8
  38              		.cfi_offset 3, -8
  39              		.cfi_offset 14, -4
  51:main.c        ****     //CapSense_DisplayState();
  52:main.c        ****     tiempos++;
  40              		.loc 1 52 0
  41 0002 5249     		ldr	r1, .L17
  42 0004 0B88     		ldrh	r3, [r1]
  43 0006 0133     		adds	r3, r3, #1
  44 0008 9BB2     		uxth	r3, r3
  45 000a 0B80     		strh	r3, [r1]	@ movhi
  53:main.c        ****     tiempos3++;
  46              		.loc 1 53 0
  47 000c 4A88     		ldrh	r2, [r1, #2]
  48 000e 0132     		adds	r2, r2, #1
  49 0010 92B2     		uxth	r2, r2
  50 0012 4A80     		strh	r2, [r1, #2]	@ movhi
  54:main.c        ****     tiempoctrl++;
  51              		.loc 1 54 0
  52 0014 8888     		ldrh	r0, [r1, #4]
  53 0016 0130     		adds	r0, r0, #1
  54 0018 8880     		strh	r0, [r1, #4]	@ movhi
  55:main.c        ****    /*
  56:main.c        ****     if(Control==1){// && tcHotJnuVolt > BROKEN_TC_THRESHOLD){
  57:main.c        ****         if(tiempoctrl>=Tc) // Si el tiempo de control es mayor al tiempo de ciclo se reinicia tiemp
  58:main.c        ****             tiempoctrl=0;
  59:main.c        ****         // tiempoctrl incrementa una unidad cada 5ms, por eso se dividen los tiempos por 0.005.
  60:main.c        ****       
ARM GAS  C:\Users\USUARIO\AppData\Local\Temp\cc9Uggst.s 			page 3


  61:main.c        ****         if(tiempoctrl<=Tp) // Si el tiempo es menor o igual al tiempo de control se enciende la res
  62:main.c        ****             SSR_Write(1);
  63:main.c        ****         else         
  64:main.c        ****             SSR_Write(0);
  65:main.c        ****             //PWM_WriteCompare(0);
  66:main.c        ****     }else{
  67:main.c        ****         if(!Test)
  68:main.c        ****             SSR_Write(0);
  69:main.c        ****             //PWM_WriteCompare(0);
  70:main.c        ****     }*/
  71:main.c        ****     
  72:main.c        ****     if(tiempos3>=400){
  55              		.loc 1 72 0
  56 001a B2F5C87F 		cmp	r2, #400
  57 001e 14D3     		bcc	.L2
  73:main.c        ****         Lectura2=1;
  58              		.loc 1 73 0
  59 0020 0A46     		mov	r2, r1
  60 0022 0121     		movs	r1, #1
  61 0024 D180     		strh	r1, [r2, #6]	@ movhi
  74:main.c        ****         if(flagup)
  62              		.loc 1 74 0
  63 0026 B2F90820 		ldrsh	r2, [r2, #8]
  64 002a 1AB1     		cbz	r2, .L3
  75:main.c        ****             tiempoup++;
  65              		.loc 1 75 0
  66 002c 4749     		ldr	r1, .L17
  67 002e 4A89     		ldrh	r2, [r1, #10]
  68 0030 0132     		adds	r2, r2, #1
  69 0032 4A81     		strh	r2, [r1, #10]	@ movhi
  70              	.L3:
  76:main.c        ****         if(flagdn)
  71              		.loc 1 76 0
  72 0034 454A     		ldr	r2, .L17
  73 0036 B2F90C20 		ldrsh	r2, [r2, #12]
  74 003a 1AB1     		cbz	r2, .L4
  77:main.c        ****             tiempodn++;   
  75              		.loc 1 77 0
  76 003c 4349     		ldr	r1, .L17
  77 003e CA89     		ldrh	r2, [r1, #14]
  78 0040 0132     		adds	r2, r2, #1
  79 0042 CA81     		strh	r2, [r1, #14]	@ movhi
  80              	.L4:
  78:main.c        ****         tiempos3=0;
  81              		.loc 1 78 0
  82 0044 0021     		movs	r1, #0
  83 0046 414A     		ldr	r2, .L17
  84 0048 5180     		strh	r1, [r2, #2]	@ movhi
  85              	.L2:
  79:main.c        ****     }
  80:main.c        ****     
  81:main.c        ****     if(tiempos>=1000){  // Cuenta cada 1ms   
  86              		.loc 1 81 0
  87 004a B3F57A7F 		cmp	r3, #1000
  88 004e 7BD3     		bcc	.L1
  82:main.c        ****         tiempos=0;Lectura=1;tiemporeset++;TiempoControl++;tiemporecta++;mensaje=!mensaje;envioUSB=1
  89              		.loc 1 82 0
ARM GAS  C:\Users\USUARIO\AppData\Local\Temp\cc9Uggst.s 			page 4


  90 0050 0022     		movs	r2, #0
  91 0052 3E4B     		ldr	r3, .L17
  92 0054 1A80     		strh	r2, [r3]	@ movhi
  93 0056 0122     		movs	r2, #1
  94 0058 3D4B     		ldr	r3, .L17+4
  95 005a 1A80     		strh	r2, [r3]	@ movhi
  96 005c 3D49     		ldr	r1, .L17+8
  97 005e 0B88     		ldrh	r3, [r1]
  98 0060 1344     		add	r3, r3, r2
  99 0062 0B80     		strh	r3, [r1]	@ movhi
 100 0064 3C49     		ldr	r1, .L17+12
 101 0066 0B88     		ldrh	r3, [r1]
 102 0068 1344     		add	r3, r3, r2
 103 006a 0B80     		strh	r3, [r1]	@ movhi
 104 006c 3B49     		ldr	r1, .L17+16
 105 006e 0B88     		ldrh	r3, [r1]
 106 0070 1344     		add	r3, r3, r2
 107 0072 0B80     		strh	r3, [r1]	@ movhi
 108 0074 3A49     		ldr	r1, .L17+20
 109 0076 B1F90030 		ldrsh	r3, [r1]
 110 007a B3FA83F3 		clz	r3, r3
 111 007e 5B09     		lsrs	r3, r3, #5
 112 0080 0B80     		strh	r3, [r1]	@ movhi
 113 0082 384B     		ldr	r3, .L17+24
 114 0084 1A80     		strh	r2, [r3]	@ movhi
  83:main.c        ****         
  84:main.c        ****         if(LEVEL_Read()==1){//Si no detecta el nivel de agua en el humidificador
 115              		.loc 1 84 0
 116 0086 FFF7FEFF 		bl	LEVEL_Read
 117              	.LVL0:
 118 008a 0128     		cmp	r0, #1
 119 008c 12D1     		bne	.L6
  85:main.c        ****             tlevelH=0;  
 120              		.loc 1 85 0
 121 008e 0022     		movs	r2, #0
 122 0090 354B     		ldr	r3, .L17+28
 123 0092 1A80     		strh	r2, [r3]	@ movhi
  86:main.c        ****             if(tlevel<20)
 124              		.loc 1 86 0
 125 0094 354B     		ldr	r3, .L17+32
 126 0096 1B88     		ldrh	r3, [r3]
 127 0098 132B     		cmp	r3, #19
 128 009a 02D8     		bhi	.L7
  87:main.c        ****                 tlevel++;   
 129              		.loc 1 87 0
 130 009c 0133     		adds	r3, r3, #1
 131 009e 334A     		ldr	r2, .L17+32
 132 00a0 1380     		strh	r3, [r2]	@ movhi
 133              	.L7:
  88:main.c        ****             
  89:main.c        ****             if(tllenado<600)
 134              		.loc 1 89 0
 135 00a2 334B     		ldr	r3, .L17+36
 136 00a4 1B88     		ldrh	r3, [r3]
 137 00a6 B3F5167F 		cmp	r3, #600
 138 00aa 0DD2     		bcs	.L8
  90:main.c        ****                 tllenado++;
ARM GAS  C:\Users\USUARIO\AppData\Local\Temp\cc9Uggst.s 			page 5


 139              		.loc 1 90 0
 140 00ac 0133     		adds	r3, r3, #1
 141 00ae 304A     		ldr	r2, .L17+36
 142 00b0 1380     		strh	r3, [r2]	@ movhi
 143 00b2 09E0     		b	.L8
 144              	.L6:
  91:main.c        ****         }else{
  92:main.c        ****             if(tlevelH<20)
 145              		.loc 1 92 0
 146 00b4 2C4B     		ldr	r3, .L17+28
 147 00b6 1B88     		ldrh	r3, [r3]
 148 00b8 132B     		cmp	r3, #19
 149 00ba 02D8     		bhi	.L9
  93:main.c        ****                 tlevelH++;
 150              		.loc 1 93 0
 151 00bc 0133     		adds	r3, r3, #1
 152 00be 2A4A     		ldr	r2, .L17+28
 153 00c0 1380     		strh	r3, [r2]	@ movhi
 154              	.L9:
  94:main.c        ****             tlevel=0;       
 155              		.loc 1 94 0
 156 00c2 0022     		movs	r2, #0
 157 00c4 294B     		ldr	r3, .L17+32
 158 00c6 1A80     		strh	r2, [r3]	@ movhi
 159              	.L8:
  95:main.c        ****         }
  96:main.c        ****         
  97:main.c        ****         if(flagSobrepasoHumedad)
 160              		.loc 1 97 0
 161 00c8 2A4B     		ldr	r3, .L17+40
 162 00ca B3F90030 		ldrsh	r3, [r3]
 163 00ce 1BB1     		cbz	r3, .L10
  98:main.c        ****             tSobrepaso++;
 164              		.loc 1 98 0
 165 00d0 294A     		ldr	r2, .L17+44
 166 00d2 1388     		ldrh	r3, [r2]
 167 00d4 0133     		adds	r3, r3, #1
 168 00d6 1380     		strh	r3, [r2]	@ movhi
 169              	.L10:
  99:main.c        ****         
 100:main.c        ****         if(dehumidificador){
 170              		.loc 1 100 0
 171 00d8 284B     		ldr	r3, .L17+48
 172 00da B3F90030 		ldrsh	r3, [r3]
 173 00de 1BB1     		cbz	r3, .L11
 101:main.c        ****             tdehumidificador++;   
 174              		.loc 1 101 0
 175 00e0 274A     		ldr	r2, .L17+52
 176 00e2 1388     		ldrh	r3, [r2]
 177 00e4 0133     		adds	r3, r3, #1
 178 00e6 1380     		strh	r3, [r2]	@ movhi
 179              	.L11:
 102:main.c        ****         }
 103:main.c        ****         
 104:main.c        ****         if(humidificador){
 180              		.loc 1 104 0
 181 00e8 264B     		ldr	r3, .L17+56
ARM GAS  C:\Users\USUARIO\AppData\Local\Temp\cc9Uggst.s 			page 6


 182 00ea B3F90030 		ldrsh	r3, [r3]
 183 00ee 1BB1     		cbz	r3, .L12
 105:main.c        ****             thumidificador++;   
 184              		.loc 1 105 0
 185 00f0 254A     		ldr	r2, .L17+60
 186 00f2 1388     		ldrh	r3, [r2]
 187 00f4 0133     		adds	r3, r3, #1
 188 00f6 1380     		strh	r3, [r2]	@ movhi
 189              	.L12:
 106:main.c        ****         }
 107:main.c        ****         
 108:main.c        ****         if(conteoPregunta)tPregunta++;
 190              		.loc 1 108 0
 191 00f8 244B     		ldr	r3, .L17+64
 192 00fa B3F90030 		ldrsh	r3, [r3]
 193 00fe 1BB1     		cbz	r3, .L13
 194              		.loc 1 108 0 is_stmt 0 discriminator 1
 195 0100 234A     		ldr	r2, .L17+68
 196 0102 1388     		ldrh	r3, [r2]
 197 0104 0133     		adds	r3, r3, #1
 198 0106 1380     		strh	r3, [r2]	@ movhi
 199              	.L13:
 109:main.c        ****         
 110:main.c        ****         if(flag_setpoint==1)
 200              		.loc 1 110 0 is_stmt 1
 201 0108 224B     		ldr	r3, .L17+72
 202 010a B3F90030 		ldrsh	r3, [r3]
 203 010e 012B     		cmp	r3, #1
 204 0110 03D1     		bne	.L14
 111:main.c        ****             tiemposetpoint++;
 205              		.loc 1 111 0
 206 0112 214A     		ldr	r2, .L17+76
 207 0114 1388     		ldrh	r3, [r2]
 208 0116 0133     		adds	r3, r3, #1
 209 0118 1380     		strh	r3, [r2]	@ movhi
 210              	.L14:
 112:main.c        ****       
 113:main.c        ****         if(tiempo_esterilizacion==1 || tiempo_esterilizacion==2){               
 211              		.loc 1 113 0
 212 011a 204B     		ldr	r3, .L17+80
 213 011c 1B78     		ldrb	r3, [r3]	@ zero_extendqisi2
 214 011e 013B     		subs	r3, r3, #1
 215 0120 DBB2     		uxtb	r3, r3
 216 0122 012B     		cmp	r3, #1
 217 0124 07D8     		bhi	.L15
 114:main.c        ****             tinicio++;
 218              		.loc 1 114 0
 219 0126 1E4A     		ldr	r2, .L17+84
 220 0128 1388     		ldrh	r3, [r2]
 221 012a 0133     		adds	r3, r3, #1
 222 012c 1380     		strh	r3, [r2]	@ movhi
 115:main.c        ****             tGrafica++;
 223              		.loc 1 115 0
 224 012e 1D4A     		ldr	r2, .L17+88
 225 0130 1368     		ldr	r3, [r2]
 226 0132 0133     		adds	r3, r3, #1
 227 0134 1360     		str	r3, [r2]
ARM GAS  C:\Users\USUARIO\AppData\Local\Temp\cc9Uggst.s 			page 7


 228              	.L15:
 116:main.c        ****         }
 117:main.c        ****              
 118:main.c        ****         if(flag_tiempocalentamiento==1)
 229              		.loc 1 118 0
 230 0136 1C4B     		ldr	r3, .L17+92
 231 0138 B3F90030 		ldrsh	r3, [r3]
 232 013c 012B     		cmp	r3, #1
 233 013e 03D1     		bne	.L1
 119:main.c        ****             tiempocalentamiento++;
 234              		.loc 1 119 0
 235 0140 1A4A     		ldr	r2, .L17+96
 236 0142 1388     		ldrh	r3, [r2]
 237 0144 0133     		adds	r3, r3, #1
 238 0146 1380     		strh	r3, [r2]	@ movhi
 239              	.L1:
 240 0148 08BD     		pop	{r3, pc}
 241              	.L18:
 242 014a 00BF     		.align	2
 243              	.L17:
 244 014c 00000000 		.word	.LANCHOR0
 245 0150 00000000 		.word	Lectura
 246 0154 00000000 		.word	tiemporeset
 247 0158 00000000 		.word	TiempoControl
 248 015c 00000000 		.word	tiemporecta
 249 0160 00000000 		.word	mensaje
 250 0164 00000000 		.word	envioUSB
 251 0168 00000000 		.word	tlevelH
 252 016c 00000000 		.word	tlevel
 253 0170 00000000 		.word	tllenado
 254 0174 00000000 		.word	flagSobrepasoHumedad
 255 0178 00000000 		.word	tSobrepaso
 256 017c 00000000 		.word	dehumidificador
 257 0180 00000000 		.word	tdehumidificador
 258 0184 00000000 		.word	humidificador
 259 0188 00000000 		.word	thumidificador
 260 018c 00000000 		.word	conteoPregunta
 261 0190 00000000 		.word	tPregunta
 262 0194 00000000 		.word	flag_setpoint
 263 0198 00000000 		.word	tiemposetpoint
 264 019c 00000000 		.word	tiempo_esterilizacion
 265 01a0 00000000 		.word	tinicio
 266 01a4 00000000 		.word	tGrafica
 267 01a8 00000000 		.word	flag_tiempocalentamiento
 268 01ac 00000000 		.word	tiempocalentamiento
 269              		.cfi_endproc
 270              	.LFE64:
 271              		.size	Reloj2, .-Reloj2
 272              		.section	.text.inteRX,"ax",%progbits
 273              		.align	2
 274              		.global	inteRX
 275              		.thumb
 276              		.thumb_func
 277              		.type	inteRX, %function
 278              	inteRX:
 279              	.LFB65:
 120:main.c        ****     }     
ARM GAS  C:\Users\USUARIO\AppData\Local\Temp\cc9Uggst.s 			page 8


 121:main.c        **** }
 122:main.c        **** 
 123:main.c        **** CY_ISR(inteRX){
 280              		.loc 1 123 0
 281              		.cfi_startproc
 282              		@ args = 0, pretend = 0, frame = 0
 283              		@ frame_needed = 0, uses_anonymous_args = 0
 284 0000 08B5     		push	{r3, lr}
 285              		.cfi_def_cfa_offset 8
 286              		.cfi_offset 3, -8
 287              		.cfi_offset 14, -4
 124:main.c        ****     Dato2=UART_1_GetByte();
 288              		.loc 1 124 0
 289 0002 FFF7FEFF 		bl	UART_1_GetByte
 290              	.LVL1:
 291 0006 C0B2     		uxtb	r0, r0
 292 0008 1D4B     		ldr	r3, .L26
 293 000a 1870     		strb	r0, [r3]
 125:main.c        ****    if(Dato2==0x65){//Inicio Comunicacion
 294              		.loc 1 125 0
 295 000c 6528     		cmp	r0, #101
 296 000e 05D1     		bne	.L20
 126:main.c        ****       Inicio=1;
 297              		.loc 1 126 0
 298 0010 0122     		movs	r2, #1
 299 0012 1C4B     		ldr	r3, .L26+4
 300 0014 1A80     		strh	r2, [r3]	@ movhi
 127:main.c        ****       RX_Wr_Index =0;
 301              		.loc 1 127 0
 302 0016 0022     		movs	r2, #0
 303 0018 1B4B     		ldr	r3, .L26+8
 304 001a 1A70     		strb	r2, [r3]
 305              	.L20:
 128:main.c        ****    }
 129:main.c        ****    if(Inicio==1){
 306              		.loc 1 129 0
 307 001c 194B     		ldr	r3, .L26+4
 308 001e B3F90030 		ldrsh	r3, [r3]
 309 0022 012B     		cmp	r3, #1
 310 0024 05D1     		bne	.L21
 130:main.c        ****       Rx_Buffer2[RX_Wr_Index] = Dato2;
 311              		.loc 1 130 0
 312 0026 184A     		ldr	r2, .L26+8
 313 0028 1378     		ldrb	r3, [r2]	@ zero_extendqisi2
 314 002a 1849     		ldr	r1, .L26+12
 315 002c C854     		strb	r0, [r1, r3]
 131:main.c        ****       RX_Wr_Index++;
 316              		.loc 1 131 0
 317 002e 0133     		adds	r3, r3, #1
 318 0030 1370     		strb	r3, [r2]
 319              	.L21:
 132:main.c        ****    }
 133:main.c        ****    if(RX_Wr_Index >= RX_BUFFER_SIZE){
 320              		.loc 1 133 0
 321 0032 154B     		ldr	r3, .L26+8
 322 0034 1B78     		ldrb	r3, [r3]	@ zero_extendqisi2
 323 0036 092B     		cmp	r3, #9
ARM GAS  C:\Users\USUARIO\AppData\Local\Temp\cc9Uggst.s 			page 9


 324 0038 04D9     		bls	.L22
 134:main.c        ****       RX_Wr_Index =0;
 325              		.loc 1 134 0
 326 003a 0023     		movs	r3, #0
 327 003c 124A     		ldr	r2, .L26+8
 328 003e 1370     		strb	r3, [r2]
 135:main.c        ****       Inicio=0;
 329              		.loc 1 135 0
 330 0040 104A     		ldr	r2, .L26+4
 331 0042 1380     		strh	r3, [r2]	@ movhi
 332              	.L22:
 136:main.c        ****    }
 137:main.c        ****    if(RX_Wr_Index==0){
 333              		.loc 1 137 0
 334 0044 104B     		ldr	r3, .L26+8
 335 0046 1B78     		ldrb	r3, [r3]	@ zero_extendqisi2
 336 0048 CBB9     		cbnz	r3, .L19
 138:main.c        ****       if(Rx_Buffer2[0]==0x65 && Rx_Buffer2[1]==0xff && Rx_Buffer2[2]==0xff && Rx_Buffer2[8]==0x00 &
 337              		.loc 1 138 0
 338 004a 104B     		ldr	r3, .L26+12
 339 004c 1B78     		ldrb	r3, [r3]	@ zero_extendqisi2
 340 004e 652B     		cmp	r3, #101
 341 0050 12D1     		bne	.L24
 342              		.loc 1 138 0 is_stmt 0 discriminator 1
 343 0052 0E4B     		ldr	r3, .L26+12
 344 0054 5B78     		ldrb	r3, [r3, #1]	@ zero_extendqisi2
 345 0056 FF2B     		cmp	r3, #255
 346 0058 0ED1     		bne	.L24
 347              		.loc 1 138 0 discriminator 2
 348 005a 0C4B     		ldr	r3, .L26+12
 349 005c 9B78     		ldrb	r3, [r3, #2]	@ zero_extendqisi2
 350 005e FF2B     		cmp	r3, #255
 351 0060 0AD1     		bne	.L24
 352              		.loc 1 138 0 discriminator 3
 353 0062 0A4B     		ldr	r3, .L26+12
 354 0064 1B7A     		ldrb	r3, [r3, #8]	@ zero_extendqisi2
 355 0066 3BB9     		cbnz	r3, .L24
 356              		.loc 1 138 0 discriminator 4
 357 0068 084B     		ldr	r3, .L26+12
 358 006a 5B7A     		ldrb	r3, [r3, #9]	@ zero_extendqisi2
 359 006c FF2B     		cmp	r3, #255
 360 006e 03D1     		bne	.L24
 139:main.c        ****          Dato_Exitoso=5;
 361              		.loc 1 139 0 is_stmt 1
 362 0070 0522     		movs	r2, #5
 363 0072 074B     		ldr	r3, .L26+16
 364 0074 1A70     		strb	r2, [r3]
 365 0076 08BD     		pop	{r3, pc}
 366              	.L24:
 140:main.c        ****       else
 141:main.c        ****          Dato_Exitoso=10;
 367              		.loc 1 141 0
 368 0078 0A22     		movs	r2, #10
 369 007a 054B     		ldr	r3, .L26+16
 370 007c 1A70     		strb	r2, [r3]
 371              	.L19:
 372 007e 08BD     		pop	{r3, pc}
ARM GAS  C:\Users\USUARIO\AppData\Local\Temp\cc9Uggst.s 			page 10


 373              	.L27:
 374              		.align	2
 375              	.L26:
 376 0080 00000000 		.word	Dato2
 377 0084 00000000 		.word	Inicio
 378 0088 00000000 		.word	RX_Wr_Index
 379 008c 00000000 		.word	Rx_Buffer2
 380 0090 00000000 		.word	Dato_Exitoso
 381              		.cfi_endproc
 382              	.LFE65:
 383              		.size	inteRX, .-inteRX
 384              		.section	.text.inteRX2,"ax",%progbits
 385              		.align	2
 386              		.global	inteRX2
 387              		.thumb
 388              		.thumb_func
 389              		.type	inteRX2, %function
 390              	inteRX2:
 391              	.LFB66:
 142:main.c        ****    }
 143:main.c        **** }
 144:main.c        **** 
 145:main.c        **** CY_ISR(inteRX2){
 392              		.loc 1 145 0
 393              		.cfi_startproc
 394              		@ args = 0, pretend = 0, frame = 0
 395              		@ frame_needed = 0, uses_anonymous_args = 0
 396 0000 08B5     		push	{r3, lr}
 397              		.cfi_def_cfa_offset 8
 398              		.cfi_offset 3, -8
 399              		.cfi_offset 14, -4
 146:main.c        ****     Dato3=UART_2_GetByte();
 400              		.loc 1 146 0
 401 0002 FFF7FEFF 		bl	UART_2_GetByte
 402              	.LVL2:
 403 0006 C0B2     		uxtb	r0, r0
 404 0008 1D4B     		ldr	r3, .L35
 405 000a 1870     		strb	r0, [r3]
 147:main.c        ****    if(Dato3==0x65){//Inicio Comunicacion
 406              		.loc 1 147 0
 407 000c 6528     		cmp	r0, #101
 408 000e 05D1     		bne	.L29
 148:main.c        ****       Inicio2=1;
 409              		.loc 1 148 0
 410 0010 0122     		movs	r2, #1
 411 0012 1C4B     		ldr	r3, .L35+4
 412 0014 1A80     		strh	r2, [r3]	@ movhi
 149:main.c        ****       RX_Wr_Index2 =0;
 413              		.loc 1 149 0
 414 0016 0022     		movs	r2, #0
 415 0018 1B4B     		ldr	r3, .L35+8
 416 001a 1A70     		strb	r2, [r3]
 417              	.L29:
 150:main.c        ****    }
 151:main.c        ****    if(Inicio2==1){
 418              		.loc 1 151 0
 419 001c 194B     		ldr	r3, .L35+4
ARM GAS  C:\Users\USUARIO\AppData\Local\Temp\cc9Uggst.s 			page 11


 420 001e B3F90030 		ldrsh	r3, [r3]
 421 0022 012B     		cmp	r3, #1
 422 0024 05D1     		bne	.L30
 152:main.c        ****       Rx_Buffer4[RX_Wr_Index2] = Dato3;
 423              		.loc 1 152 0
 424 0026 184A     		ldr	r2, .L35+8
 425 0028 1378     		ldrb	r3, [r2]	@ zero_extendqisi2
 426 002a 1849     		ldr	r1, .L35+12
 427 002c C854     		strb	r0, [r1, r3]
 153:main.c        ****       RX_Wr_Index2++;
 428              		.loc 1 153 0
 429 002e 0133     		adds	r3, r3, #1
 430 0030 1370     		strb	r3, [r2]
 431              	.L30:
 154:main.c        ****    }
 155:main.c        ****    if(RX_Wr_Index2 >= RX_BUFFER_SIZE){
 432              		.loc 1 155 0
 433 0032 154B     		ldr	r3, .L35+8
 434 0034 1B78     		ldrb	r3, [r3]	@ zero_extendqisi2
 435 0036 092B     		cmp	r3, #9
 436 0038 04D9     		bls	.L31
 156:main.c        ****       RX_Wr_Index2 =0;
 437              		.loc 1 156 0
 438 003a 0023     		movs	r3, #0
 439 003c 124A     		ldr	r2, .L35+8
 440 003e 1370     		strb	r3, [r2]
 157:main.c        ****       Inicio2=0;
 441              		.loc 1 157 0
 442 0040 104A     		ldr	r2, .L35+4
 443 0042 1380     		strh	r3, [r2]	@ movhi
 444              	.L31:
 158:main.c        ****    }
 159:main.c        ****    if(RX_Wr_Index2==0){
 445              		.loc 1 159 0
 446 0044 104B     		ldr	r3, .L35+8
 447 0046 1B78     		ldrb	r3, [r3]	@ zero_extendqisi2
 448 0048 CBB9     		cbnz	r3, .L28
 160:main.c        ****       if(Rx_Buffer4[0]==0x65 && Rx_Buffer4[1]==0xff && Rx_Buffer4[2]==0xff && Rx_Buffer4[8]==0x00 &
 449              		.loc 1 160 0
 450 004a 104B     		ldr	r3, .L35+12
 451 004c 1B78     		ldrb	r3, [r3]	@ zero_extendqisi2
 452 004e 652B     		cmp	r3, #101
 453 0050 12D1     		bne	.L33
 454              		.loc 1 160 0 is_stmt 0 discriminator 1
 455 0052 0E4B     		ldr	r3, .L35+12
 456 0054 5B78     		ldrb	r3, [r3, #1]	@ zero_extendqisi2
 457 0056 FF2B     		cmp	r3, #255
 458 0058 0ED1     		bne	.L33
 459              		.loc 1 160 0 discriminator 2
 460 005a 0C4B     		ldr	r3, .L35+12
 461 005c 9B78     		ldrb	r3, [r3, #2]	@ zero_extendqisi2
 462 005e FF2B     		cmp	r3, #255
 463 0060 0AD1     		bne	.L33
 464              		.loc 1 160 0 discriminator 3
 465 0062 0A4B     		ldr	r3, .L35+12
 466 0064 1B7A     		ldrb	r3, [r3, #8]	@ zero_extendqisi2
 467 0066 3BB9     		cbnz	r3, .L33
ARM GAS  C:\Users\USUARIO\AppData\Local\Temp\cc9Uggst.s 			page 12


 468              		.loc 1 160 0 discriminator 4
 469 0068 084B     		ldr	r3, .L35+12
 470 006a 5B7A     		ldrb	r3, [r3, #9]	@ zero_extendqisi2
 471 006c FF2B     		cmp	r3, #255
 472 006e 03D1     		bne	.L33
 161:main.c        ****          Dato_Exitoso2=5;
 473              		.loc 1 161 0 is_stmt 1
 474 0070 0522     		movs	r2, #5
 475 0072 074B     		ldr	r3, .L35+16
 476 0074 1A70     		strb	r2, [r3]
 477 0076 08BD     		pop	{r3, pc}
 478              	.L33:
 162:main.c        ****       else
 163:main.c        ****          Dato_Exitoso2=10;
 479              		.loc 1 163 0
 480 0078 0A22     		movs	r2, #10
 481 007a 054B     		ldr	r3, .L35+16
 482 007c 1A70     		strb	r2, [r3]
 483              	.L28:
 484 007e 08BD     		pop	{r3, pc}
 485              	.L36:
 486              		.align	2
 487              	.L35:
 488 0080 00000000 		.word	Dato3
 489 0084 00000000 		.word	Inicio2
 490 0088 00000000 		.word	RX_Wr_Index2
 491 008c 00000000 		.word	Rx_Buffer4
 492 0090 00000000 		.word	Dato_Exitoso2
 493              		.cfi_endproc
 494              	.LFE66:
 495              		.size	inteRX2, .-inteRX2
 496              		.global	__aeabi_ui2f
 497              		.global	__aeabi_f2d
 498              		.global	__aeabi_ddiv
 499              		.global	__aeabi_dmul
 500              		.global	__aeabi_d2uiz
 501              		.global	__aeabi_fdiv
 502              		.global	__aeabi_i2f
 503              		.global	__aeabi_fmul
 504              		.global	__aeabi_i2d
 505              		.global	__aeabi_dadd
 506              		.global	__aeabi_dsub
 507              		.global	__aeabi_f2iz
 508              		.global	__aeabi_fcmplt
 509              		.global	__aeabi_d2f
 510              		.global	__aeabi_fadd
 511              		.global	__aeabi_fsub
 512              		.global	__aeabi_dcmplt
 513              		.global	__aeabi_fcmpgt
 514              		.global	__aeabi_f2uiz
 515              		.global	__aeabi_fcmple
 516              		.global	__aeabi_fcmpge
 517              		.section	.text.main,"ax",%progbits
 518              		.align	2
 519              		.global	main
 520              		.thumb
 521              		.thumb_func
ARM GAS  C:\Users\USUARIO\AppData\Local\Temp\cc9Uggst.s 			page 13


 522              		.type	main, %function
 523              	main:
 524              	.LFB67:
 164:main.c        ****    }
 165:main.c        **** }
 166:main.c        **** 
 167:main.c        **** int main(void)
 168:main.c        **** { 
 525              		.loc 1 168 0
 526              		.cfi_startproc
 527              		@ Volatile: function does not return.
 528              		@ args = 0, pretend = 0, frame = 0
 529              		@ frame_needed = 0, uses_anonymous_args = 0
 530 0000 2DE98048 		push	{r7, fp, lr}
 531              		.cfi_def_cfa_offset 12
 532              		.cfi_offset 7, -12
 533              		.cfi_offset 11, -8
 534              		.cfi_offset 14, -4
 535 0004 89B0     		sub	sp, sp, #36
 536              		.cfi_def_cfa_offset 48
 169:main.c        ****     CyGlobalIntEnable; /* Enable global interrupts. */    
 537              		.loc 1 169 0
 538              		.syntax unified
 539              	@ 169 "main.c" 1
 540 0006 62B6     		CPSIE   i
 541              	@ 0 "" 2
 170:main.c        ****     SPI0_Start();  ETH0_Start();
 542              		.loc 1 170 0
 543              		.thumb
 544              		.syntax unified
 545 0008 FFF7FEFF 		bl	SPI0_Start
 546              	.LVL3:
 547 000c FFF7FEFF 		bl	ETH0_Start
 548              	.LVL4:
 171:main.c        ****     Reloj_StartEx(Reloj2);
 549              		.loc 1 171 0
 550 0010 8948     		ldr	r0, .L574
 551 0012 FFF7FEFF 		bl	Reloj_StartEx
 552              	.LVL5:
 172:main.c        ****     UART_1_Start();    
 553              		.loc 1 172 0
 554 0016 FFF7FEFF 		bl	UART_1_Start
 555              	.LVL6:
 173:main.c        ****     UART_2_Start();    
 556              		.loc 1 173 0
 557 001a FFF7FEFF 		bl	UART_2_Start
 558              	.LVL7:
 174:main.c        ****     RX1_StartEx(inteRX); 
 559              		.loc 1 174 0
 560 001e 8748     		ldr	r0, .L574+4
 561 0020 FFF7FEFF 		bl	RX1_StartEx
 562              	.LVL8:
 175:main.c        ****     RX2_StartEx(inteRX2);
 563              		.loc 1 175 0
 564 0024 8648     		ldr	r0, .L574+8
 565 0026 FFF7FEFF 		bl	RX2_StartEx
 566              	.LVL9:
ARM GAS  C:\Users\USUARIO\AppData\Local\Temp\cc9Uggst.s 			page 14


 176:main.c        ****     Timer_Start();  
 567              		.loc 1 176 0
 568 002a FFF7FEFF 		bl	Timer_Start
 569              	.LVL10:
 177:main.c        ****     EEPROM_Start(); 
 570              		.loc 1 177 0
 571 002e FFF7FEFF 		bl	EEPROM_Start
 572              	.LVL11:
 178:main.c        ****     ADC_Start();    
 573              		.loc 1 178 0
 574 0032 FFF7FEFF 		bl	ADC_Start
 575              	.LVL12:
 179:main.c        ****     ADC_SAR_Start();
 576              		.loc 1 179 0
 577 0036 FFF7FEFF 		bl	ADC_SAR_Start
 578              	.LVL13:
 180:main.c        ****     ADC_SAR_StartConvert();
 579              		.loc 1 180 0
 580 003a FFF7FEFF 		bl	ADC_SAR_StartConvert
 581              	.LVL14:
 181:main.c        ****     I2C_Start();
 582              		.loc 1 181 0
 583 003e FFF7FEFF 		bl	I2C_Start
 584              	.LVL15:
 182:main.c        ****     IDAC_Start();
 585              		.loc 1 182 0
 586 0042 FFF7FEFF 		bl	IDAC_Start
 587              	.LVL16:
 183:main.c        ****     CurrentMux_Start();
 588              		.loc 1 183 0
 589 0046 FFF7FEFF 		bl	CurrentMux_Start
 590              	.LVL17:
 184:main.c        ****     ADCMux_Start();
 591              		.loc 1 184 0
 592 004a FFF7FEFF 		bl	ADCMux_Start
 593              	.LVL18:
 185:main.c        ****     PWM_Start();
 594              		.loc 1 185 0
 595 004e FFF7FEFF 		bl	PWM_Start
 596              	.LVL19:
 186:main.c        ****     USBUART_Start(0, USBUART_5V_OPERATION);
 597              		.loc 1 186 0
 598 0052 0121     		movs	r1, #1
 599 0054 0020     		movs	r0, #0
 600 0056 FFF7FEFF 		bl	USBUART_Start
 601              	.LVL20:
 187:main.c        ****     
 188:main.c        ****     LCD2_Write(1);
 602              		.loc 1 188 0
 603 005a 0120     		movs	r0, #1
 604 005c FFF7FEFF 		bl	LCD2_Write
 605              	.LVL21:
 189:main.c        ****     LCD1_Write(1);
 606              		.loc 1 189 0
 607 0060 0120     		movs	r0, #1
 608 0062 FFF7FEFF 		bl	LCD1_Write
 609              	.LVL22:
ARM GAS  C:\Users\USUARIO\AppData\Local\Temp\cc9Uggst.s 			page 15


 190:main.c        ****     CyDelay(100);
 610              		.loc 1 190 0
 611 0066 6420     		movs	r0, #100
 612 0068 FFF7FEFF 		bl	CyDelay
 613              	.LVL23:
 191:main.c        ****     
 192:main.c        ****     penInicial=penMufla;
 614              		.loc 1 192 0
 615 006c 754B     		ldr	r3, .L574+12
 616 006e 1A68     		ldr	r2, [r3]	@ float
 617 0070 754B     		ldr	r3, .L574+16
 618 0072 1A60     		str	r2, [r3]	@ float
 193:main.c        ****     Opcion=1;Control=0;
 619              		.loc 1 193 0
 620 0074 0120     		movs	r0, #1
 621 0076 754B     		ldr	r3, .L574+20
 622 0078 1870     		strb	r0, [r3]
 623 007a 0024     		movs	r4, #0
 624 007c 744B     		ldr	r3, .L574+24
 625 007e 1C82     		strh	r4, [r3, #16]	@ movhi
 194:main.c        ****     
 195:main.c        ****     BUZZER_Write(1);
 626              		.loc 1 195 0
 627 0080 FFF7FEFF 		bl	BUZZER_Write
 628              	.LVL24:
 196:main.c        ****     LeeEEPROM();
 629              		.loc 1 196 0
 630 0084 FFF7FEFF 		bl	LeeEEPROM
 631              	.LVL25:
 197:main.c        ****     LimitaValores();
 632              		.loc 1 197 0
 633 0088 FFF7FEFF 		bl	LimitaValores
 634              	.LVL26:
 198:main.c        ****     BUZZER_Write(0);
 635              		.loc 1 198 0
 636 008c 2046     		mov	r0, r4
 637 008e FFF7FEFF 		bl	BUZZER_Write
 638              	.LVL27:
 199:main.c        ****     
 200:main.c        ****     for(i=0;i<80;i++){
 639              		.loc 1 200 0
 640 0092 704B     		ldr	r3, .L574+28
 641 0094 1C70     		strb	r4, [r3]
 642 0096 15E0     		b	.L38
 643              	.L39:
 201:main.c        ****         Temperatura=leePt100(MediaMovil);
 644              		.loc 1 201 0 discriminator 3
 645 0098 6F4C     		ldr	r4, .L574+32
 646 009a 2078     		ldrb	r0, [r4]	@ zero_extendqisi2
 647 009c FFF7FEFF 		bl	leePt100
 648              	.LVL28:
 649 00a0 6E4B     		ldr	r3, .L574+36
 650 00a2 1860     		str	r0, [r3]	@ float
 202:main.c        ****         Temperatura2=leePt1002(MediaMovil);
 651              		.loc 1 202 0 discriminator 3
 652 00a4 2078     		ldrb	r0, [r4]	@ zero_extendqisi2
 653 00a6 FFF7FEFF 		bl	leePt1002
ARM GAS  C:\Users\USUARIO\AppData\Local\Temp\cc9Uggst.s 			page 16


 654              	.LVL29:
 655 00aa 6D4B     		ldr	r3, .L574+40
 656 00ac 1860     		str	r0, [r3]	@ float
 203:main.c        ****         Humedad=leeHumedad(MediaMovil2);
 657              		.loc 1 203 0 discriminator 3
 658 00ae 6D4B     		ldr	r3, .L574+44
 659 00b0 93F90000 		ldrsb	r0, [r3]
 660 00b4 FFF7FEFF 		bl	leeHumedad
 661              	.LVL30:
 662 00b8 6B4B     		ldr	r3, .L574+48
 663 00ba 1860     		str	r0, [r3]	@ float
 200:main.c        ****         Temperatura=leePt100(MediaMovil);
 664              		.loc 1 200 0 discriminator 3
 665 00bc 654A     		ldr	r2, .L574+28
 666 00be 1378     		ldrb	r3, [r2]	@ zero_extendqisi2
 667 00c0 0133     		adds	r3, r3, #1
 668 00c2 1370     		strb	r3, [r2]
 669              	.L38:
 200:main.c        ****         Temperatura=leePt100(MediaMovil);
 670              		.loc 1 200 0 is_stmt 0 discriminator 1
 671 00c4 634B     		ldr	r3, .L574+28
 672 00c6 1B78     		ldrb	r3, [r3]	@ zero_extendqisi2
 673 00c8 4F2B     		cmp	r3, #79
 674 00ca E5D9     		bls	.L39
 204:main.c        ****     }
 205:main.c        ****     humedadDisplay=Humedad;
 675              		.loc 1 205 0 is_stmt 1
 676 00cc 664B     		ldr	r3, .L574+48
 677 00ce 1B68     		ldr	r3, [r3]	@ float
 678 00d0 664A     		ldr	r2, .L574+52
 679 00d2 1360     		str	r3, [r2]	@ float
 206:main.c        ****     minH=Humedad;
 680              		.loc 1 206 0
 681 00d4 664A     		ldr	r2, .L574+56
 682 00d6 1360     		str	r3, [r2]	@ float
 207:main.c        ****     maxH=Humedad;
 683              		.loc 1 207 0
 684 00d8 664A     		ldr	r2, .L574+60
 685 00da 1360     		str	r3, [r2]	@ float
 208:main.c        ****     CyDelay(1);
 686              		.loc 1 208 0
 687 00dc 0120     		movs	r0, #1
 688 00de FFF7FEFF 		bl	CyDelay
 689              	.LVL31:
 209:main.c        ****     for(i=0;i<20;i++){
 690              		.loc 1 209 0
 691 00e2 0022     		movs	r2, #0
 692 00e4 5B4B     		ldr	r3, .L574+28
 693 00e6 1A70     		strb	r2, [r3]
 694 00e8 16E0     		b	.L40
 695              	.L43:
 210:main.c        ****          if(rampas[i].Horas==0 && rampas[i].Minutos==0){
 696              		.loc 1 210 0
 697 00ea 03EB4301 		add	r1, r3, r3, lsl #1
 698 00ee 8A00     		lsls	r2, r1, #2
 699 00f0 6149     		ldr	r1, .L574+64
 700 00f2 0A44     		add	r2, r2, r1
ARM GAS  C:\Users\USUARIO\AppData\Local\Temp\cc9Uggst.s 			page 17


 701 00f4 9278     		ldrb	r2, [r2, #2]	@ zero_extendqisi2
 702 00f6 4AB9     		cbnz	r2, .L41
 703              		.loc 1 210 0 is_stmt 0 discriminator 1
 704 00f8 03EB4301 		add	r1, r3, r3, lsl #1
 705 00fc 8A00     		lsls	r2, r1, #2
 706 00fe 5E49     		ldr	r1, .L574+64
 707 0100 0A44     		add	r2, r2, r1
 708 0102 D278     		ldrb	r2, [r2, #3]	@ zero_extendqisi2
 709 0104 12B9     		cbnz	r2, .L41
 211:main.c        ****             Segmentos=i;  
 710              		.loc 1 211 0 is_stmt 1
 711 0106 5D4A     		ldr	r2, .L574+68
 712 0108 1370     		strb	r3, [r2]
 212:main.c        ****             break;
 713              		.loc 1 212 0
 714 010a 09E0     		b	.L42
 715              	.L41:
 213:main.c        ****          }else{
 214:main.c        ****             Segmentos=i+1;  
 716              		.loc 1 214 0 discriminator 2
 717 010c 0133     		adds	r3, r3, #1
 718 010e DBB2     		uxtb	r3, r3
 719 0110 5A4A     		ldr	r2, .L574+68
 720 0112 1370     		strb	r3, [r2]
 209:main.c        ****          if(rampas[i].Horas==0 && rampas[i].Minutos==0){
 721              		.loc 1 209 0 discriminator 2
 722 0114 4F4A     		ldr	r2, .L574+28
 723 0116 1370     		strb	r3, [r2]
 724              	.L40:
 209:main.c        ****          if(rampas[i].Horas==0 && rampas[i].Minutos==0){
 725              		.loc 1 209 0 is_stmt 0 discriminator 1
 726 0118 4E4B     		ldr	r3, .L574+28
 727 011a 1B78     		ldrb	r3, [r3]	@ zero_extendqisi2
 728 011c 132B     		cmp	r3, #19
 729 011e E4D9     		bls	.L43
 730              	.L42:
 215:main.c        ****          }
 216:main.c        ****     } 
 217:main.c        ****     
 218:main.c        ****     if(controlT==0 && controlH==0 && controlR==0){
 731              		.loc 1 218 0 is_stmt 1
 732 0120 574B     		ldr	r3, .L574+72
 733 0122 1B78     		ldrb	r3, [r3]	@ zero_extendqisi2
 734 0124 1BBB     		cbnz	r3, .L44
 735              		.loc 1 218 0 is_stmt 0 discriminator 1
 736 0126 574A     		ldr	r2, .L574+76
 737 0128 1278     		ldrb	r2, [r2]	@ zero_extendqisi2
 738 012a 02BB     		cbnz	r2, .L44
 739              		.loc 1 218 0 discriminator 2
 740 012c 564A     		ldr	r2, .L574+80
 741 012e 1278     		ldrb	r2, [r2]	@ zero_extendqisi2
 742 0130 EAB9     		cbnz	r2, .L44
 219:main.c        ****         Menu=120;Menu2=120;
 743              		.loc 1 219 0 is_stmt 1
 744 0132 7823     		movs	r3, #120
 745 0134 554A     		ldr	r2, .L574+84
 746 0136 1370     		strb	r3, [r2]
ARM GAS  C:\Users\USUARIO\AppData\Local\Temp\cc9Uggst.s 			page 18


 747 0138 554A     		ldr	r2, .L574+88
 748 013a 1370     		strb	r3, [r2]
 220:main.c        ****         flagControlT=OFF;
 749              		.loc 1 220 0
 750 013c 0023     		movs	r3, #0
 751 013e 554A     		ldr	r2, .L574+92
 752 0140 1380     		strh	r3, [r2]	@ movhi
 221:main.c        ****         flagControlH=OFF;      
 753              		.loc 1 221 0
 754 0142 554A     		ldr	r2, .L574+96
 755 0144 1380     		strh	r3, [r2]	@ movhi
 222:main.c        ****         flagRampa=OFF;
 756              		.loc 1 222 0
 757 0146 554A     		ldr	r2, .L574+100
 758 0148 1380     		strh	r3, [r2]	@ movhi
 223:main.c        ****         
 224:main.c        ****         escribeDisplay1("page Bienvenida");
 759              		.loc 1 224 0
 760 014a 554D     		ldr	r5, .L574+104
 761 014c 2846     		mov	r0, r5
 762 014e FFF7FEFF 		bl	escribeDisplay1
 763              	.LVL32:
 225:main.c        ****         escribeDisplay1("bkcmd=0");
 764              		.loc 1 225 0
 765 0152 544C     		ldr	r4, .L574+108
 766 0154 2046     		mov	r0, r4
 767 0156 FFF7FEFF 		bl	escribeDisplay1
 768              	.LVL33:
 226:main.c        ****         escribeDisplay2("page Bienvenida");
 769              		.loc 1 226 0
 770 015a 2846     		mov	r0, r5
 771 015c FFF7FEFF 		bl	escribeDisplay2
 772              	.LVL34:
 227:main.c        ****         escribeDisplay2("bkcmd=0");
 773              		.loc 1 227 0
 774 0160 2046     		mov	r0, r4
 775 0162 FFF7FEFF 		bl	escribeDisplay2
 776              	.LVL35:
 228:main.c        ****         CyDelay(10);
 777              		.loc 1 228 0
 778 0166 0A20     		movs	r0, #10
 779 0168 FFF7FEFF 		bl	CyDelay
 780              	.LVL36:
 781 016c CFE0     		b	.L45
 782              	.L44:
 229:main.c        ****     }else{
 230:main.c        ****         if(controlR==1)
 783              		.loc 1 230 0
 784 016e 464A     		ldr	r2, .L574+80
 785 0170 1278     		ldrb	r2, [r2]	@ zero_extendqisi2
 786 0172 012A     		cmp	r2, #1
 787 0174 03D1     		bne	.L46
 231:main.c        ****             flagRampa=ON;
 788              		.loc 1 231 0
 789 0176 0121     		movs	r1, #1
 790 0178 484A     		ldr	r2, .L574+100
 791 017a 1180     		strh	r1, [r2]	@ movhi
ARM GAS  C:\Users\USUARIO\AppData\Local\Temp\cc9Uggst.s 			page 19


 792 017c 02E0     		b	.L47
 793              	.L46:
 232:main.c        ****         else
 233:main.c        ****             flagRampa=OFF;
 794              		.loc 1 233 0
 795 017e 0021     		movs	r1, #0
 796 0180 464A     		ldr	r2, .L574+100
 797 0182 1180     		strh	r1, [r2]	@ movhi
 798              	.L47:
 234:main.c        ****         
 235:main.c        ****         if(controlT==1)
 799              		.loc 1 235 0
 800 0184 012B     		cmp	r3, #1
 801 0186 03D1     		bne	.L48
 236:main.c        ****             flagControlT=ON;
 802              		.loc 1 236 0
 803 0188 0122     		movs	r2, #1
 804 018a 424B     		ldr	r3, .L574+92
 805 018c 1A80     		strh	r2, [r3]	@ movhi
 806 018e 02E0     		b	.L49
 807              	.L48:
 237:main.c        ****         else
 238:main.c        ****             flagControlT=OFF;
 808              		.loc 1 238 0
 809 0190 0022     		movs	r2, #0
 810 0192 404B     		ldr	r3, .L574+92
 811 0194 1A80     		strh	r2, [r3]	@ movhi
 812              	.L49:
 239:main.c        ****         
 240:main.c        ****         if(controlH==1)
 813              		.loc 1 240 0
 814 0196 3B4B     		ldr	r3, .L574+76
 815 0198 1B78     		ldrb	r3, [r3]	@ zero_extendqisi2
 816 019a 012B     		cmp	r3, #1
 817 019c 03D1     		bne	.L50
 241:main.c        ****             flagControlH=ON;
 818              		.loc 1 241 0
 819 019e 0122     		movs	r2, #1
 820 01a0 3D4B     		ldr	r3, .L574+96
 821 01a2 1A80     		strh	r2, [r3]	@ movhi
 822 01a4 02E0     		b	.L51
 823              	.L50:
 242:main.c        ****         else
 243:main.c        ****             flagControlH=OFF;
 824              		.loc 1 243 0
 825 01a6 0022     		movs	r2, #0
 826 01a8 3B4B     		ldr	r3, .L574+96
 827 01aa 1A80     		strh	r2, [r3]	@ movhi
 828              	.L51:
 244:main.c        ****         
 245:main.c        ****         T1=(uint8)(((float)T1Humedad)*((float)SetpointH/80.0));
 829              		.loc 1 245 0
 830 01ac 3E4B     		ldr	r3, .L574+112
 831 01ae 1878     		ldrb	r0, [r3]	@ zero_extendqisi2
 832 01b0 FFF7FEFF 		bl	__aeabi_ui2f
 833              	.LVL37:
 834 01b4 0646     		mov	r6, r0
ARM GAS  C:\Users\USUARIO\AppData\Local\Temp\cc9Uggst.s 			page 20


 835 01b6 3D4B     		ldr	r3, .L574+116
 836 01b8 1888     		ldrh	r0, [r3]
 837 01ba FFF7FEFF 		bl	__aeabi_ui2f
 838              	.LVL38:
 839 01be FFF7FEFF 		bl	__aeabi_f2d
 840              	.LVL39:
 841 01c2 0022     		movs	r2, #0
 842 01c4 3A4B     		ldr	r3, .L574+120
 843 01c6 FFF7FEFF 		bl	__aeabi_ddiv
 844              	.LVL40:
 845 01ca 0446     		mov	r4, r0
 846 01cc 0D46     		mov	r5, r1
 847 01ce 3046     		mov	r0, r6
 848 01d0 FFF7FEFF 		bl	__aeabi_f2d
 849              	.LVL41:
 850 01d4 2246     		mov	r2, r4
 851 01d6 2B46     		mov	r3, r5
 852 01d8 FFF7FEFF 		bl	__aeabi_dmul
 853              	.LVL42:
 854 01dc FFF7FEFF 		bl	__aeabi_d2uiz
 855              	.LVL43:
 856 01e0 344B     		ldr	r3, .L574+124
 857 01e2 1870     		strb	r0, [r3]
 246:main.c        ****         T3=(uint8)(((float)T3Humedad)*((float)SetpointH/80.0));
 858              		.loc 1 246 0
 859 01e4 344B     		ldr	r3, .L574+128
 860 01e6 1878     		ldrb	r0, [r3]	@ zero_extendqisi2
 861 01e8 FFF7FEFF 		bl	__aeabi_ui2f
 862              	.LVL44:
 863 01ec FFF7FEFF 		bl	__aeabi_f2d
 864              	.LVL45:
 865 01f0 2246     		mov	r2, r4
 866 01f2 2B46     		mov	r3, r5
 867 01f4 FFF7FEFF 		bl	__aeabi_dmul
 868              	.LVL46:
 869 01f8 FFF7FEFF 		bl	__aeabi_d2uiz
 870              	.LVL47:
 871 01fc 2F4B     		ldr	r3, .L574+132
 872 01fe 1870     		strb	r0, [r3]
 247:main.c        ****         Ganancia=GananciaR*(Setpoint/200);
 873              		.loc 1 247 0
 874 0200 2F49     		ldr	r1, .L574+136
 875 0202 304B     		ldr	r3, .L574+140
 876 0204 1868     		ldr	r0, [r3]	@ float
 877 0206 FFF7FEFF 		bl	__aeabi_fdiv
 878              	.LVL48:
 879 020a 0446     		mov	r4, r0
 880 020c 2E4B     		ldr	r3, .L574+144
 881 020e 1878     		ldrb	r0, [r3]	@ zero_extendqisi2
 882 0210 FFF7FEFF 		bl	__aeabi_i2f
 883              	.LVL49:
 884 0214 2146     		mov	r1, r4
 885 0216 FFF7FEFF 		bl	__aeabi_fmul
 886              	.LVL50:
 887 021a 2C4B     		ldr	r3, .L574+148
 888 021c 1860     		str	r0, [r3]	@ float
 248:main.c        ****         
ARM GAS  C:\Users\USUARIO\AppData\Local\Temp\cc9Uggst.s 			page 21


 249:main.c        ****         if((mEstp==0)&&(hEstp==0))
 889              		.loc 1 249 0
 890 021e 2C4B     		ldr	r3, .L574+152
 891 0220 1B78     		ldrb	r3, [r3]	@ zero_extendqisi2
 892 0222 002B     		cmp	r3, #0
 893 0224 5AD1     		bne	.L52
 894              		.loc 1 249 0 is_stmt 0 discriminator 1
 895 0226 2B4B     		ldr	r3, .L574+156
 896 0228 1B78     		ldrb	r3, [r3]	@ zero_extendqisi2
 897 022a 002B     		cmp	r3, #0
 898 022c 56D1     		bne	.L52
 250:main.c        ****             Infinito=1;
 899              		.loc 1 250 0 is_stmt 1
 900 022e 0122     		movs	r2, #1
 901 0230 294B     		ldr	r3, .L574+160
 902 0232 1A80     		strh	r2, [r3]	@ movhi
 903 0234 55E0     		b	.L53
 904              	.L575:
 905 0236 00BF     		.align	2
 906              	.L574:
 907 0238 00000000 		.word	Reloj2
 908 023c 00000000 		.word	inteRX
 909 0240 00000000 		.word	inteRX2
 910 0244 00000000 		.word	penMufla
 911 0248 00000000 		.word	penInicial
 912 024c 00000000 		.word	Opcion
 913 0250 00000000 		.word	.LANCHOR0
 914 0254 00000000 		.word	i
 915 0258 00000000 		.word	MediaMovil
 916 025c 00000000 		.word	Temperatura
 917 0260 00000000 		.word	Temperatura2
 918 0264 00000000 		.word	MediaMovil2
 919 0268 00000000 		.word	Humedad
 920 026c 00000000 		.word	humedadDisplay
 921 0270 00000000 		.word	minH
 922 0274 00000000 		.word	maxH
 923 0278 00000000 		.word	rampas
 924 027c 00000000 		.word	Segmentos
 925 0280 00000000 		.word	controlT
 926 0284 00000000 		.word	controlH
 927 0288 00000000 		.word	controlR
 928 028c 00000000 		.word	Menu
 929 0290 00000000 		.word	Menu2
 930 0294 00000000 		.word	flagControlT
 931 0298 00000000 		.word	flagControlH
 932 029c 00000000 		.word	flagRampa
 933 02a0 00000000 		.word	.LC0
 934 02a4 10000000 		.word	.LC1
 935 02a8 00000000 		.word	T1Humedad
 936 02ac 00000000 		.word	SetpointH
 937 02b0 00005440 		.word	1079246848
 938 02b4 00000000 		.word	T1
 939 02b8 00000000 		.word	T3Humedad
 940 02bc 00000000 		.word	T3
 941 02c0 00004843 		.word	1128792064
 942 02c4 00000000 		.word	Setpoint
 943 02c8 00000000 		.word	GananciaR
ARM GAS  C:\Users\USUARIO\AppData\Local\Temp\cc9Uggst.s 			page 22


 944 02cc 00000000 		.word	Ganancia
 945 02d0 00000000 		.word	mEstp
 946 02d4 00000000 		.word	hEstp
 947 02d8 00000000 		.word	Infinito
 948              	.L52:
 251:main.c        ****         else
 252:main.c        ****             Infinito=0;
 949              		.loc 1 252 0
 950 02dc 0022     		movs	r2, #0
 951 02de 724B     		ldr	r3, .L576
 952 02e0 1A80     		strh	r2, [r3]	@ movhi
 953              	.L53:
 253:main.c        ****         
 254:main.c        ****         escribeDisplay1("page Principal");
 954              		.loc 1 254 0
 955 02e2 7248     		ldr	r0, .L576+4
 956 02e4 FFF7FEFF 		bl	escribeDisplay1
 957              	.LVL51:
 255:main.c        ****         escribeDisplay1("bkcmd=0");
 958              		.loc 1 255 0
 959 02e8 714C     		ldr	r4, .L576+8
 960 02ea 2046     		mov	r0, r4
 961 02ec FFF7FEFF 		bl	escribeDisplay1
 962              	.LVL52:
 256:main.c        ****         escribeDisplay2("page Ajustes");
 963              		.loc 1 256 0
 964 02f0 7048     		ldr	r0, .L576+12
 965 02f2 FFF7FEFF 		bl	escribeDisplay2
 966              	.LVL53:
 257:main.c        ****         escribeDisplay2("bkcmd=0");
 967              		.loc 1 257 0
 968 02f6 2046     		mov	r0, r4
 969 02f8 FFF7FEFF 		bl	escribeDisplay2
 970              	.LVL54:
 258:main.c        ****         CyDelay(10);
 971              		.loc 1 258 0
 972 02fc 0A20     		movs	r0, #10
 973 02fe FFF7FEFF 		bl	CyDelay
 974              	.LVL55:
 259:main.c        ****         Menu=20;Menu2=1;
 975              		.loc 1 259 0
 976 0302 1422     		movs	r2, #20
 977 0304 6C4B     		ldr	r3, .L576+16
 978 0306 1A70     		strb	r2, [r3]
 979 0308 0122     		movs	r2, #1
 980 030a 6C4B     		ldr	r3, .L576+20
 981 030c 1A70     		strb	r2, [r3]
 982              	.L45:
 260:main.c        ****     }
 261:main.c        ****     //write_ext_eeprom(78,160);
 262:main.c        ****     DS1302_write (DS1302_ENABLE, 0);
 983              		.loc 1 262 0
 984 030e 0021     		movs	r1, #0
 985 0310 8E20     		movs	r0, #142
 986 0312 FFF7FEFF 		bl	DS1302_write
 987              	.LVL56:
 263:main.c        ****     DS1302_write (DS1302_TRICKLE, 0x00);
ARM GAS  C:\Users\USUARIO\AppData\Local\Temp\cc9Uggst.s 			page 23


 988              		.loc 1 263 0
 989 0316 0021     		movs	r1, #0
 990 0318 9020     		movs	r0, #144
 991 031a FFF7FEFF 		bl	DS1302_write
 992              	.LVL57:
 264:main.c        ****     // Sete la IP
 265:main.c        ****     sprintf(Str,"%d.%d.%d.%d",IP[0],IP[1],IP[2],IP[3]); 
 993              		.loc 1 265 0
 994 031e 684C     		ldr	r4, .L576+24
 995 0320 2278     		ldrb	r2, [r4]	@ zero_extendqisi2
 996 0322 6378     		ldrb	r3, [r4, #1]	@ zero_extendqisi2
 997 0324 A178     		ldrb	r1, [r4, #2]	@ zero_extendqisi2
 998 0326 E078     		ldrb	r0, [r4, #3]	@ zero_extendqisi2
 999 0328 664E     		ldr	r6, .L576+28
 1000 032a 674D     		ldr	r5, .L576+32
 1001 032c 0190     		str	r0, [sp, #4]
 1002 032e 0091     		str	r1, [sp]
 1003 0330 3146     		mov	r1, r6
 1004 0332 2846     		mov	r0, r5
 1005 0334 FFF7FEFF 		bl	sprintf
 1006              	.LVL58:
 266:main.c        ****     ETH0_SetIP(ETH0_ParseIP(Str));
 1007              		.loc 1 266 0
 1008 0338 2846     		mov	r0, r5
 1009 033a FFF7FEFF 		bl	ETH0_ParseIP
 1010              	.LVL59:
 1011 033e FFF7FEFF 		bl	ETH0_SetIP
 1012              	.LVL60:
 267:main.c        ****     sprintf(displayStr,"%d.%d.%d.%d",Gateway[0],Gateway[1],Gateway[2],Gateway[3]); 
 1013              		.loc 1 267 0
 1014 0342 2279     		ldrb	r2, [r4, #4]	@ zero_extendqisi2
 1015 0344 6379     		ldrb	r3, [r4, #5]	@ zero_extendqisi2
 1016 0346 A179     		ldrb	r1, [r4, #6]	@ zero_extendqisi2
 1017 0348 E079     		ldrb	r0, [r4, #7]	@ zero_extendqisi2
 1018 034a 604F     		ldr	r7, .L576+36
 1019 034c 0190     		str	r0, [sp, #4]
 1020 034e 0091     		str	r1, [sp]
 1021 0350 3146     		mov	r1, r6
 1022 0352 3846     		mov	r0, r7
 1023 0354 FFF7FEFF 		bl	sprintf
 1024              	.LVL61:
 268:main.c        ****     sprintf(Str2,"%d.%d.%d.%d",Subnet[0],Subnet[1],Subnet[2],Subnet[3]); 
 1025              		.loc 1 268 0
 1026 0358 227A     		ldrb	r2, [r4, #8]	@ zero_extendqisi2
 1027 035a 637A     		ldrb	r3, [r4, #9]	@ zero_extendqisi2
 1028 035c A17A     		ldrb	r1, [r4, #10]	@ zero_extendqisi2
 1029 035e E07A     		ldrb	r0, [r4, #11]	@ zero_extendqisi2
 1030 0360 DFF8D081 		ldr	r8, .L576+140
 1031 0364 0190     		str	r0, [sp, #4]
 1032 0366 0091     		str	r1, [sp]
 1033 0368 3146     		mov	r1, r6
 1034 036a 4046     		mov	r0, r8
 1035 036c FFF7FEFF 		bl	sprintf
 1036              	.LVL62:
 269:main.c        ****     ETH0_Init(MAC,ETH0_ParseIP(Str),ETH0_ParseIP(Str2),ETH0_ParseIP(displayStr));
 1037              		.loc 1 269 0
 1038 0370 2846     		mov	r0, r5
ARM GAS  C:\Users\USUARIO\AppData\Local\Temp\cc9Uggst.s 			page 24


 1039 0372 FFF7FEFF 		bl	ETH0_ParseIP
 1040              	.LVL63:
 1041 0376 0546     		mov	r5, r0
 1042 0378 4046     		mov	r0, r8
 1043 037a FFF7FEFF 		bl	ETH0_ParseIP
 1044              	.LVL64:
 1045 037e 0646     		mov	r6, r0
 1046 0380 3846     		mov	r0, r7
 1047 0382 FFF7FEFF 		bl	ETH0_ParseIP
 1048              	.LVL65:
 1049 0386 0346     		mov	r3, r0
 1050 0388 3246     		mov	r2, r6
 1051 038a 2946     		mov	r1, r5
 1052 038c 04F10C00 		add	r0, r4, #12
 1053 0390 FFF7FEFF 		bl	ETH0_Init
 1054              	.LVL66:
 270:main.c        ****     //Captura la hora y minuto para la grafica
 271:main.c        ****     rtc_get_date(&Dia,&Mes,&Year,&dow);
 1055              		.loc 1 271 0
 1056 0394 4E4B     		ldr	r3, .L576+40
 1057 0396 4F4A     		ldr	r2, .L576+44
 1058 0398 4F49     		ldr	r1, .L576+48
 1059 039a 5048     		ldr	r0, .L576+52
 1060 039c FFF7FEFF 		bl	rtc_get_date
 1061              	.LVL67:
 272:main.c        ****     rtc_get_time(&Hora,&Minuto,&Segundo);
 1062              		.loc 1 272 0
 1063 03a0 4F4D     		ldr	r5, .L576+56
 1064 03a2 504C     		ldr	r4, .L576+60
 1065 03a4 504A     		ldr	r2, .L576+64
 1066 03a6 2946     		mov	r1, r5
 1067 03a8 2046     		mov	r0, r4
 1068 03aa FFF7FEFF 		bl	rtc_get_time
 1069              	.LVL68:
 273:main.c        ****     graph[0].Minuto=Minuto;
 1070              		.loc 1 273 0
 1071 03ae 4F4B     		ldr	r3, .L576+68
 1072 03b0 2A78     		ldrb	r2, [r5]	@ zero_extendqisi2
 1073 03b2 5A72     		strb	r2, [r3, #9]
 274:main.c        ****     graph[0].Hora=Hora;
 1074              		.loc 1 274 0
 1075 03b4 2278     		ldrb	r2, [r4]	@ zero_extendqisi2
 1076 03b6 1A72     		strb	r2, [r3, #8]
 275:main.c        ****     tmuestreoUSB_ant=tmuestreoUSB;
 1077              		.loc 1 275 0
 1078 03b8 4D4B     		ldr	r3, .L576+72
 1079 03ba 1A78     		ldrb	r2, [r3]	@ zero_extendqisi2
 1080 03bc 4D4B     		ldr	r3, .L576+76
 1081 03be 1A70     		strb	r2, [r3]
 1082              	.L487:
 276:main.c        ****     
 277:main.c        ****     for(;;)
 278:main.c        ****     {        
 279:main.c        ****         if(Lectura2){
 1083              		.loc 1 279 0
 1084 03c0 4D4B     		ldr	r3, .L576+80
 1085 03c2 B3F90630 		ldrsh	r3, [r3, #6]
ARM GAS  C:\Users\USUARIO\AppData\Local\Temp\cc9Uggst.s 			page 25


 1086 03c6 F3B1     		cbz	r3, .L54
 280:main.c        ****             Lectura2=0;
 1087              		.loc 1 280 0
 1088 03c8 0022     		movs	r2, #0
 1089 03ca 4B4B     		ldr	r3, .L576+80
 1090 03cc DA80     		strh	r2, [r3, #6]	@ movhi
 281:main.c        ****             Temperatura=leePt100(MediaMovil);
 1091              		.loc 1 281 0
 1092 03ce 4B4C     		ldr	r4, .L576+84
 1093 03d0 2078     		ldrb	r0, [r4]	@ zero_extendqisi2
 1094 03d2 FFF7FEFF 		bl	leePt100
 1095              	.LVL69:
 1096 03d6 4A4B     		ldr	r3, .L576+88
 1097 03d8 1860     		str	r0, [r3]	@ float
 282:main.c        ****             Temperatura2=leePt1002(MediaMovil);
 1098              		.loc 1 282 0
 1099 03da 2078     		ldrb	r0, [r4]	@ zero_extendqisi2
 1100 03dc FFF7FEFF 		bl	leePt1002
 1101              	.LVL70:
 1102 03e0 484B     		ldr	r3, .L576+92
 1103 03e2 1860     		str	r0, [r3]	@ float
 283:main.c        ****             Temperature2=leeLM35();
 1104              		.loc 1 283 0
 1105 03e4 FFF7FEFF 		bl	leeLM35
 1106              	.LVL71:
 1107 03e8 474B     		ldr	r3, .L576+96
 1108 03ea 1860     		str	r0, [r3]
 284:main.c        ****             Humedad=leeHumedad(MediaMovil2);
 1109              		.loc 1 284 0
 1110 03ec 474B     		ldr	r3, .L576+100
 1111 03ee 93F90000 		ldrsb	r0, [r3]
 1112 03f2 FFF7FEFF 		bl	leeHumedad
 1113              	.LVL72:
 1114 03f6 464B     		ldr	r3, .L576+104
 1115 03f8 1860     		str	r0, [r3]	@ float
 285:main.c        ****             ReadSensorCalibrationData();
 1116              		.loc 1 285 0
 1117 03fa FFF7FEFF 		bl	ReadSensorCalibrationData
 1118              	.LVL73:
 286:main.c        ****             ReadUncompensatedTemperature();
 1119              		.loc 1 286 0
 1120 03fe FFF7FEFF 		bl	ReadUncompensatedTemperature
 1121              	.LVL74:
 287:main.c        ****             ReadAndCalculateSensorData();
 1122              		.loc 1 287 0
 1123 0402 FFF7FEFF 		bl	ReadAndCalculateSensorData
 1124              	.LVL75:
 1125              	.L54:
 288:main.c        ****         }
 289:main.c        ****         
 290:main.c        ****         dataEthernet();
 1126              		.loc 1 290 0
 1127 0406 FFF7FEFF 		bl	dataEthernet
 1128              	.LVL76:
 291:main.c        ****         dataUSB();
 1129              		.loc 1 291 0
 1130 040a FFF7FEFF 		bl	dataUSB
ARM GAS  C:\Users\USUARIO\AppData\Local\Temp\cc9Uggst.s 			page 26


 1131              	.LVL77:
 292:main.c        ****         rtc_get_date(&Dia,&Mes,&Year,&dow);
 1132              		.loc 1 292 0
 1133 040e 304B     		ldr	r3, .L576+40
 1134 0410 304A     		ldr	r2, .L576+44
 1135 0412 3149     		ldr	r1, .L576+48
 1136 0414 3148     		ldr	r0, .L576+52
 1137 0416 FFF7FEFF 		bl	rtc_get_date
 1138              	.LVL78:
 293:main.c        ****         rtc_get_time(&Hora,&Minuto,&Segundo);
 1139              		.loc 1 293 0
 1140 041a 334A     		ldr	r2, .L576+64
 1141 041c 3049     		ldr	r1, .L576+56
 1142 041e 3148     		ldr	r0, .L576+60
 1143 0420 FFF7FEFF 		bl	rtc_get_time
 1144              	.LVL79:
 294:main.c        ****         LeeDisplay();
 1145              		.loc 1 294 0
 1146 0424 FFF7FEFF 		bl	LeeDisplay
 1147              	.LVL80:
 295:main.c        ****         
 296:main.c        **** //_------------------------------------------------------------------------------------------------
 297:main.c        ****         if(Menu == 120){ //Menu de Bienvenida.
 1148              		.loc 1 297 0
 1149 0428 234B     		ldr	r3, .L576+16
 1150 042a 1B78     		ldrb	r3, [r3]	@ zero_extendqisi2
 1151 042c 782B     		cmp	r3, #120
 1152 042e 09D1     		bne	.L55
 298:main.c        ****             escribeDisplay1("bkcmd=0");
 1153              		.loc 1 298 0
 1154 0430 1F48     		ldr	r0, .L576+8
 1155 0432 FFF7FEFF 		bl	escribeDisplay1
 1156              	.LVL81:
 299:main.c        ****             CyDelay(800);
 1157              		.loc 1 299 0
 1158 0436 4FF44870 		mov	r0, #800
 1159 043a FFF7FEFF 		bl	CyDelay
 1160              	.LVL82:
 300:main.c        ****             escribeDisplay1("page Clave");
 1161              		.loc 1 300 0
 1162 043e 3548     		ldr	r0, .L576+108
 1163 0440 FFF7FEFF 		bl	escribeDisplay1
 1164              	.LVL83:
 1165              	.L55:
 301:main.c        ****         }
 302:main.c        **** //_------------------------------------------------------------------------------------------------
 303:main.c        ****      
 304:main.c        **** //_-------------------------------------------------------Display 1--------------------------------
 305:main.c        **** //_------------------------------------------------------------------------------------------------
 306:main.c        ****     if(Menu==0){ //Menu de Contrasea de acceso.
 1166              		.loc 1 306 0
 1167 0444 1C4B     		ldr	r3, .L576+16
 1168 0446 1B78     		ldrb	r3, [r3]	@ zero_extendqisi2
 1169 0448 002B     		cmp	r3, #0
 1170 044a 40F00682 		bne	.L56
 307:main.c        ****       //ApagaSalidas();
 308:main.c        ****       entro=0;
ARM GAS  C:\Users\USUARIO\AppData\Local\Temp\cc9Uggst.s 			page 27


 1171              		.loc 1 308 0
 1172 044e 0022     		movs	r2, #0
 1173 0450 314B     		ldr	r3, .L576+112
 1174 0452 1A80     		strh	r2, [r3]	@ movhi
 309:main.c        ****       if(Rx_Buffer[4]==0x11){//11
 1175              		.loc 1 309 0
 1176 0454 314B     		ldr	r3, .L576+116
 1177 0456 1B79     		ldrb	r3, [r3, #4]	@ zero_extendqisi2
 1178 0458 112B     		cmp	r3, #17
 1179 045a 05D1     		bne	.L57
 310:main.c        ****          if(TipoClave!=0){
 1180              		.loc 1 310 0
 1181 045c 304B     		ldr	r3, .L576+120
 1182 045e 1B78     		ldrb	r3, [r3]	@ zero_extendqisi2
 1183 0460 13B1     		cbz	r3, .L57
 311:main.c        ****             escribeDisplay1("page Principal");
 1184              		.loc 1 311 0
 1185 0462 1248     		ldr	r0, .L576+4
 1186 0464 FFF7FEFF 		bl	escribeDisplay1
 1187              	.LVL84:
 1188              	.L57:
 312:main.c        ****          }
 313:main.c        ****       }
 314:main.c        ****       
 315:main.c        ****       if(TipoClave==3){
 1189              		.loc 1 315 0
 1190 0468 2D4B     		ldr	r3, .L576+120
 1191 046a 1B78     		ldrb	r3, [r3]	@ zero_extendqisi2
 1192 046c 032B     		cmp	r3, #3
 1193 046e 06D1     		bne	.L58
 316:main.c        ****          escribeDisplay1("titulo.txt=\"Clave Nueva\"");
 1194              		.loc 1 316 0
 1195 0470 2C48     		ldr	r0, .L576+124
 1196 0472 FFF7FEFF 		bl	escribeDisplay1
 1197              	.LVL85:
 317:main.c        ****          escribeDisplay1("doevents");
 1198              		.loc 1 317 0
 1199 0476 2C48     		ldr	r0, .L576+128
 1200 0478 FFF7FEFF 		bl	escribeDisplay1
 1201              	.LVL86:
 1202 047c 6EE0     		b	.L59
 1203              	.L58:
 318:main.c        ****       }else if(TipoClave==2){
 1204              		.loc 1 318 0
 1205 047e 022B     		cmp	r3, #2
 1206 0480 06D1     		bne	.L60
 319:main.c        ****          escribeDisplay1("titulo.txt=\"Clave Actual\"");         
 1207              		.loc 1 319 0
 1208 0482 2A48     		ldr	r0, .L576+132
 1209 0484 FFF7FEFF 		bl	escribeDisplay1
 1210              	.LVL87:
 320:main.c        ****          escribeDisplay1("doevents");
 1211              		.loc 1 320 0
 1212 0488 2748     		ldr	r0, .L576+128
 1213 048a FFF7FEFF 		bl	escribeDisplay1
 1214              	.LVL88:
 1215 048e 65E0     		b	.L59
ARM GAS  C:\Users\USUARIO\AppData\Local\Temp\cc9Uggst.s 			page 28


 1216              	.L60:
 321:main.c        ****       }else if(TipoClave==1 || TipoClave==4){
 1217              		.loc 1 321 0
 1218 0490 012B     		cmp	r3, #1
 1219 0492 01D0     		beq	.L61
 1220              		.loc 1 321 0 is_stmt 0 discriminator 1
 1221 0494 042B     		cmp	r3, #4
 1222 0496 4FD1     		bne	.L62
 1223              	.L61:
 322:main.c        ****          escribeDisplay1("titulo.txt=\"Clave Tecnico\"");         
 1224              		.loc 1 322 0 is_stmt 1
 1225 0498 2548     		ldr	r0, .L576+136
 1226 049a FFF7FEFF 		bl	escribeDisplay1
 1227              	.LVL89:
 323:main.c        ****          escribeDisplay1("doevents");         
 1228              		.loc 1 323 0
 1229 049e 2248     		ldr	r0, .L576+128
 1230 04a0 FFF7FEFF 		bl	escribeDisplay1
 1231              	.LVL90:
 1232 04a4 5AE0     		b	.L59
 1233              	.L577:
 1234 04a6 00BF     		.align	2
 1235              	.L576:
 1236 04a8 00000000 		.word	Infinito
 1237 04ac 18000000 		.word	.LC2
 1238 04b0 10000000 		.word	.LC1
 1239 04b4 28000000 		.word	.LC3
 1240 04b8 00000000 		.word	Menu
 1241 04bc 00000000 		.word	Menu2
 1242 04c0 00000000 		.word	.LANCHOR1
 1243 04c4 38000000 		.word	.LC4
 1244 04c8 00000000 		.word	Str
 1245 04cc 00000000 		.word	displayStr
 1246 04d0 00000000 		.word	dow
 1247 04d4 00000000 		.word	Year
 1248 04d8 00000000 		.word	Mes
 1249 04dc 00000000 		.word	Dia
 1250 04e0 00000000 		.word	Minuto
 1251 04e4 00000000 		.word	Hora
 1252 04e8 00000000 		.word	Segundo
 1253 04ec 00000000 		.word	graph
 1254 04f0 00000000 		.word	tmuestreoUSB
 1255 04f4 00000000 		.word	tmuestreoUSB_ant
 1256 04f8 00000000 		.word	.LANCHOR0
 1257 04fc 00000000 		.word	MediaMovil
 1258 0500 00000000 		.word	Temperatura
 1259 0504 00000000 		.word	Temperatura2
 1260 0508 00000000 		.word	Temperature2
 1261 050c 00000000 		.word	MediaMovil2
 1262 0510 00000000 		.word	Humedad
 1263 0514 44000000 		.word	.LC5
 1264 0518 00000000 		.word	entro
 1265 051c 00000000 		.word	Rx_Buffer
 1266 0520 00000000 		.word	TipoClave
 1267 0524 50000000 		.word	.LC6
 1268 0528 6C000000 		.word	.LC7
 1269 052c 78000000 		.word	.LC8
ARM GAS  C:\Users\USUARIO\AppData\Local\Temp\cc9Uggst.s 			page 29


 1270 0530 94000000 		.word	.LC9
 1271 0534 00000000 		.word	Str2
 1272              	.L62:
 324:main.c        ****       }else if(TipoClave==0){
 1273              		.loc 1 324 0
 1274 0538 83B9     		cbnz	r3, .L59
 325:main.c        ****         sprintf(displayStr,"titulo.txt=\"Ingrese Clave\"");
 1275              		.loc 1 325 0
 1276 053a B64D     		ldr	r5, .L578
 1277 053c B64C     		ldr	r4, .L578+4
 1278 053e 0FCC     		ldmia	r4!, {r0, r1, r2, r3}
 1279 0540 2860     		str	r0, [r5]	@ unaligned
 1280 0542 6960     		str	r1, [r5, #4]	@ unaligned
 1281 0544 AA60     		str	r2, [r5, #8]	@ unaligned
 1282 0546 EB60     		str	r3, [r5, #12]	@ unaligned
 1283 0548 03CC     		ldmia	r4!, {r0, r1}
 1284 054a 2861     		str	r0, [r5, #16]	@ unaligned
 1285 054c 6961     		str	r1, [r5, #20]	@ unaligned
 1286 054e 2288     		ldrh	r2, [r4]	@ unaligned
 1287 0550 A378     		ldrb	r3, [r4, #2]	@ zero_extendqisi2
 1288 0552 2A83     		strh	r2, [r5, #24]	@ unaligned
 1289 0554 AB76     		strb	r3, [r5, #26]
 326:main.c        ****         escribeDisplay1(displayStr);
 1290              		.loc 1 326 0
 1291 0556 2846     		mov	r0, r5
 1292 0558 FFF7FEFF 		bl	escribeDisplay1
 1293              	.LVL91:
 1294              	.L59:
 327:main.c        ****       }
 328:main.c        ****       
 329:main.c        ****       if(Rx_Buffer[3]==0x0f){//0f, recibe caracteres ingresados desde el Display
 1295              		.loc 1 329 0
 1296 055c AF4B     		ldr	r3, .L578+8
 1297 055e DB78     		ldrb	r3, [r3, #3]	@ zero_extendqisi2
 1298 0560 0F2B     		cmp	r3, #15
 1299 0562 40F07A81 		bne	.L56
 330:main.c        ****          if(TipoClave==0){
 1300              		.loc 1 330 0
 1301 0566 AE4B     		ldr	r3, .L578+12
 1302 0568 1B78     		ldrb	r3, [r3]	@ zero_extendqisi2
 1303 056a 002B     		cmp	r3, #0
 1304 056c 7FD1     		bne	.L63
 331:main.c        ****             if(Rx_Buffer[4]>=0x30 && Rx_Buffer[5]>=0x30 && Rx_Buffer[6]>=0x30 && Rx_Buffer[7]>=0x30
 1305              		.loc 1 331 0
 1306 056e AB4B     		ldr	r3, .L578+8
 1307 0570 1B79     		ldrb	r3, [r3, #4]	@ zero_extendqisi2
 1308 0572 2F2B     		cmp	r3, #47
 1309 0574 39D9     		bls	.L64
 1310              		.loc 1 331 0 is_stmt 0 discriminator 1
 1311 0576 A94A     		ldr	r2, .L578+8
 1312 0578 5279     		ldrb	r2, [r2, #5]	@ zero_extendqisi2
 1313 057a 2F2A     		cmp	r2, #47
 1314 057c 35D9     		bls	.L64
 1315              		.loc 1 331 0 discriminator 2
 1316 057e A749     		ldr	r1, .L578+8
 1317 0580 8979     		ldrb	r1, [r1, #6]	@ zero_extendqisi2
 1318 0582 2F29     		cmp	r1, #47
ARM GAS  C:\Users\USUARIO\AppData\Local\Temp\cc9Uggst.s 			page 30


 1319 0584 31D9     		bls	.L64
 1320              		.loc 1 331 0 discriminator 3
 1321 0586 A548     		ldr	r0, .L578+8
 1322 0588 C079     		ldrb	r0, [r0, #7]	@ zero_extendqisi2
 1323 058a 2F28     		cmp	r0, #47
 1324 058c 2DD9     		bls	.L64
 332:main.c        ****             && Rx_Buffer[4]<=0x39 && Rx_Buffer[5]<=0x39 && Rx_Buffer[6]<=0x39 && Rx_Buffer[7]<=0x39
 1325              		.loc 1 332 0 is_stmt 1
 1326 058e 392B     		cmp	r3, #57
 1327 0590 2BD8     		bhi	.L64
 1328              		.loc 1 332 0 is_stmt 0 discriminator 1
 1329 0592 392A     		cmp	r2, #57
 1330 0594 29D8     		bhi	.L64
 1331              		.loc 1 332 0 discriminator 2
 1332 0596 3929     		cmp	r1, #57
 1333 0598 27D8     		bhi	.L64
 1334              		.loc 1 332 0 discriminator 3
 1335 059a 3928     		cmp	r0, #57
 1336 059c 25D8     		bhi	.L64
 333:main.c        ****             if(Rx_Buffer[4]==0x33&&Rx_Buffer[5]==0x38&&Rx_Buffer[6]==0x39&&Rx_Buffer[7]==0x32){ // 
 1337              		.loc 1 333 0 is_stmt 1
 1338 059e 332B     		cmp	r3, #51
 1339 05a0 23D1     		bne	.L64
 1340              		.loc 1 333 0 is_stmt 0 discriminator 1
 1341 05a2 382A     		cmp	r2, #56
 1342 05a4 21D1     		bne	.L64
 1343              		.loc 1 333 0 discriminator 2
 1344 05a6 3929     		cmp	r1, #57
 1345 05a8 1FD1     		bne	.L64
 1346              		.loc 1 333 0 discriminator 3
 1347 05aa 3228     		cmp	r0, #50
 1348 05ac 1DD1     		bne	.L64
 334:main.c        ****                EEPROM_WriteByte(0,10);CyDelay(20);EEPROM_WriteByte(0,11);CyDelay(20);// Reestablece
 1349              		.loc 1 334 0 is_stmt 1
 1350 05ae 0A21     		movs	r1, #10
 1351 05b0 0020     		movs	r0, #0
 1352 05b2 FFF7FEFF 		bl	EEPROM_WriteByte
 1353              	.LVL92:
 1354 05b6 1420     		movs	r0, #20
 1355 05b8 FFF7FEFF 		bl	CyDelay
 1356              	.LVL93:
 1357 05bc 0B21     		movs	r1, #11
 1358 05be 0020     		movs	r0, #0
 1359 05c0 FFF7FEFF 		bl	EEPROM_WriteByte
 1360              	.LVL94:
 1361 05c4 1420     		movs	r0, #20
 1362 05c6 FFF7FEFF 		bl	CyDelay
 1363              	.LVL95:
 335:main.c        ****                EEPROM_WriteByte(0,12);CyDelay(20);EEPROM_WriteByte(0,13);CyDelay(20);
 1364              		.loc 1 335 0
 1365 05ca 0C21     		movs	r1, #12
 1366 05cc 0020     		movs	r0, #0
 1367 05ce FFF7FEFF 		bl	EEPROM_WriteByte
 1368              	.LVL96:
 1369 05d2 1420     		movs	r0, #20
 1370 05d4 FFF7FEFF 		bl	CyDelay
 1371              	.LVL97:
ARM GAS  C:\Users\USUARIO\AppData\Local\Temp\cc9Uggst.s 			page 31


 1372 05d8 0D21     		movs	r1, #13
 1373 05da 0020     		movs	r0, #0
 1374 05dc FFF7FEFF 		bl	EEPROM_WriteByte
 1375              	.LVL98:
 1376 05e0 1420     		movs	r0, #20
 1377 05e2 FFF7FEFF 		bl	CyDelay
 1378              	.LVL99:
 336:main.c        ****                CySoftwareReset();
 1379              		.loc 1 336 0
 1380 05e6 FFF7FEFF 		bl	CySoftwareReset
 1381              	.LVL100:
 1382              	.L64:
 337:main.c        ****             }
 338:main.c        ****             }
 339:main.c        ****             
 340:main.c        ****             if(Rx_Buffer[4]>=0x30 && Rx_Buffer[5]>=0x30 && Rx_Buffer[6]>=0x30 && Rx_Buffer[7]>=0x30
 1383              		.loc 1 340 0
 1384 05ea 8C4B     		ldr	r3, .L578+8
 1385 05ec 1B79     		ldrb	r3, [r3, #4]	@ zero_extendqisi2
 1386 05ee 2F2B     		cmp	r3, #47
 1387 05f0 40F23381 		bls	.L56
 1388              		.loc 1 340 0 is_stmt 0 discriminator 1
 1389 05f4 894A     		ldr	r2, .L578+8
 1390 05f6 5279     		ldrb	r2, [r2, #5]	@ zero_extendqisi2
 1391 05f8 2F2A     		cmp	r2, #47
 1392 05fa 40F22E81 		bls	.L56
 1393              		.loc 1 340 0 discriminator 2
 1394 05fe 8749     		ldr	r1, .L578+8
 1395 0600 8979     		ldrb	r1, [r1, #6]	@ zero_extendqisi2
 1396 0602 2F29     		cmp	r1, #47
 1397 0604 40F22981 		bls	.L56
 1398              		.loc 1 340 0 discriminator 3
 1399 0608 8448     		ldr	r0, .L578+8
 1400 060a C079     		ldrb	r0, [r0, #7]	@ zero_extendqisi2
 1401 060c 2F28     		cmp	r0, #47
 1402 060e 40F22481 		bls	.L56
 341:main.c        ****             && Rx_Buffer[4]<=0x39 && Rx_Buffer[5]<=0x39 && Rx_Buffer[6]<=0x39 && Rx_Buffer[7]<=0x39
 1403              		.loc 1 341 0 is_stmt 1
 1404 0612 392B     		cmp	r3, #57
 1405 0614 00F22181 		bhi	.L56
 1406              		.loc 1 341 0 is_stmt 0 discriminator 1
 1407 0618 392A     		cmp	r2, #57
 1408 061a 00F21E81 		bhi	.L56
 1409              		.loc 1 341 0 discriminator 2
 1410 061e 3929     		cmp	r1, #57
 1411 0620 00F21B81 		bhi	.L56
 1412              		.loc 1 341 0 discriminator 3
 1413 0624 3928     		cmp	r0, #57
 1414 0626 00F21881 		bhi	.L56
 342:main.c        ****             if((Rx_Buffer[4]==Password[0]+0x30)&&(Rx_Buffer[5]==Password[1]+0x30)&&(Rx_Buffer[6]==P
 1415              		.loc 1 342 0 is_stmt 1
 1416 062a 7E4C     		ldr	r4, .L578+16
 1417 062c 2478     		ldrb	r4, [r4]	@ zero_extendqisi2
 1418 062e 3034     		adds	r4, r4, #48
 1419 0630 A342     		cmp	r3, r4
 1420 0632 18D1     		bne	.L65
 1421              		.loc 1 342 0 is_stmt 0 discriminator 1
ARM GAS  C:\Users\USUARIO\AppData\Local\Temp\cc9Uggst.s 			page 32


 1422 0634 7B4B     		ldr	r3, .L578+16
 1423 0636 5B78     		ldrb	r3, [r3, #1]	@ zero_extendqisi2
 1424 0638 3033     		adds	r3, r3, #48
 1425 063a 9A42     		cmp	r2, r3
 1426 063c 13D1     		bne	.L65
 1427              		.loc 1 342 0 discriminator 2
 1428 063e 794B     		ldr	r3, .L578+16
 1429 0640 9B78     		ldrb	r3, [r3, #2]	@ zero_extendqisi2
 1430 0642 3033     		adds	r3, r3, #48
 1431 0644 9942     		cmp	r1, r3
 1432 0646 0ED1     		bne	.L65
 1433              		.loc 1 342 0 discriminator 3
 1434 0648 764B     		ldr	r3, .L578+16
 1435 064a DB78     		ldrb	r3, [r3, #3]	@ zero_extendqisi2
 1436 064c 3033     		adds	r3, r3, #48
 1437 064e 9842     		cmp	r0, r3
 1438 0650 09D1     		bne	.L65
 343:main.c        ****                   escribeDisplay1("page ClaveCorrecta");
 1439              		.loc 1 343 0 is_stmt 1
 1440 0652 7548     		ldr	r0, .L578+20
 1441 0654 FFF7FEFF 		bl	escribeDisplay1
 1442              	.LVL101:
 344:main.c        ****                   dibujo=OFF;
 1443              		.loc 1 344 0
 1444 0658 0022     		movs	r2, #0
 1445 065a 744B     		ldr	r3, .L578+24
 1446 065c 1A80     		strh	r2, [r3]	@ movhi
 345:main.c        ****                   escribeDisplay2("page Ajustes");
 1447              		.loc 1 345 0
 1448 065e 7448     		ldr	r0, .L578+28
 1449 0660 FFF7FEFF 		bl	escribeDisplay2
 1450              	.LVL102:
 1451 0664 F9E0     		b	.L56
 1452              	.L65:
 346:main.c        ****                   //RX_Buffer[3]=0x00;RX_Buffer2[3]=0x00;  
 347:main.c        ****                }else{
 348:main.c        ****                   escribeDisplay1("page ClaveBad");
 1453              		.loc 1 348 0
 1454 0666 7348     		ldr	r0, .L578+32
 1455 0668 FFF7FEFF 		bl	escribeDisplay1
 1456              	.LVL103:
 1457 066c F5E0     		b	.L56
 1458              	.L63:
 349:main.c        ****                   //RX_Buffer[3]=0x00;RX_Buffer2[3]=0x00;  
 350:main.c        ****                } 
 351:main.c        ****             }
 352:main.c        ****          }else if(TipoClave==1){
 1459              		.loc 1 352 0
 1460 066e 012B     		cmp	r3, #1
 1461 0670 2ED1     		bne	.L66
 353:main.c        ****             if(Rx_Buffer[4]>=0x30 && Rx_Buffer[5]>=0x30 && Rx_Buffer[6]>=0x30 && Rx_Buffer[7]>=0x30
 1462              		.loc 1 353 0
 1463 0672 6A4B     		ldr	r3, .L578+8
 1464 0674 1B79     		ldrb	r3, [r3, #4]	@ zero_extendqisi2
 1465 0676 2F2B     		cmp	r3, #47
 1466 0678 40F2EF80 		bls	.L56
 1467              		.loc 1 353 0 is_stmt 0 discriminator 1
ARM GAS  C:\Users\USUARIO\AppData\Local\Temp\cc9Uggst.s 			page 33


 1468 067c 674A     		ldr	r2, .L578+8
 1469 067e 5279     		ldrb	r2, [r2, #5]	@ zero_extendqisi2
 1470 0680 2F2A     		cmp	r2, #47
 1471 0682 40F2EA80 		bls	.L56
 1472              		.loc 1 353 0 discriminator 2
 1473 0686 6549     		ldr	r1, .L578+8
 1474 0688 8879     		ldrb	r0, [r1, #6]	@ zero_extendqisi2
 1475 068a 2F28     		cmp	r0, #47
 1476 068c 40F2E580 		bls	.L56
 1477              		.loc 1 353 0 discriminator 3
 1478 0690 C979     		ldrb	r1, [r1, #7]	@ zero_extendqisi2
 1479 0692 2F29     		cmp	r1, #47
 1480 0694 40F2E180 		bls	.L56
 354:main.c        ****             && Rx_Buffer[4]<=0x39 && Rx_Buffer[5]<=0x39 && Rx_Buffer[6]<=0x39 && Rx_Buffer[7]<=0x39
 1481              		.loc 1 354 0 is_stmt 1
 1482 0698 392B     		cmp	r3, #57
 1483 069a 00F2DE80 		bhi	.L56
 1484              		.loc 1 354 0 is_stmt 0 discriminator 1
 1485 069e 392A     		cmp	r2, #57
 1486 06a0 00F2DB80 		bhi	.L56
 1487              		.loc 1 354 0 discriminator 2
 1488 06a4 3928     		cmp	r0, #57
 1489 06a6 00F2D880 		bhi	.L56
 1490              		.loc 1 354 0 discriminator 3
 1491 06aa 3929     		cmp	r1, #57
 1492 06ac 00F2D580 		bhi	.L56
 355:main.c        ****             if(Rx_Buffer[4]==0x34&&Rx_Buffer[5]==0x34&&Rx_Buffer[6]==0x34&&Rx_Buffer[7]==0x34){ // 
 1493              		.loc 1 355 0 is_stmt 1
 1494 06b0 342B     		cmp	r3, #52
 1495 06b2 09D1     		bne	.L67
 1496              		.loc 1 355 0 is_stmt 0 discriminator 1
 1497 06b4 342A     		cmp	r2, #52
 1498 06b6 07D1     		bne	.L67
 1499              		.loc 1 355 0 discriminator 2
 1500 06b8 3428     		cmp	r0, #52
 1501 06ba 05D1     		bne	.L67
 1502              		.loc 1 355 0 discriminator 3
 1503 06bc 3429     		cmp	r1, #52
 1504 06be 03D1     		bne	.L67
 356:main.c        ****                escribeDisplay1("page Config");
 1505              		.loc 1 356 0 is_stmt 1
 1506 06c0 5D48     		ldr	r0, .L578+36
 1507 06c2 FFF7FEFF 		bl	escribeDisplay1
 1508              	.LVL104:
 1509 06c6 C8E0     		b	.L56
 1510              	.L67:
 357:main.c        ****             }else{
 358:main.c        ****                escribeDisplay1("page Principal");
 1511              		.loc 1 358 0
 1512 06c8 5C48     		ldr	r0, .L578+40
 1513 06ca FFF7FEFF 		bl	escribeDisplay1
 1514              	.LVL105:
 1515 06ce C4E0     		b	.L56
 1516              	.L66:
 359:main.c        ****             }
 360:main.c        ****             }
 361:main.c        ****          }else if(TipoClave==2){
ARM GAS  C:\Users\USUARIO\AppData\Local\Temp\cc9Uggst.s 			page 34


 1517              		.loc 1 361 0
 1518 06d0 022B     		cmp	r3, #2
 1519 06d2 45D1     		bne	.L68
 362:main.c        ****             if(Rx_Buffer[4]>=0x30 && Rx_Buffer[5]>=0x30 && Rx_Buffer[6]>=0x30 && Rx_Buffer[7]>=0x30
 1520              		.loc 1 362 0
 1521 06d4 514B     		ldr	r3, .L578+8
 1522 06d6 1B79     		ldrb	r3, [r3, #4]	@ zero_extendqisi2
 1523 06d8 2F2B     		cmp	r3, #47
 1524 06da 40F2BE80 		bls	.L56
 1525              		.loc 1 362 0 is_stmt 0 discriminator 1
 1526 06de 4F4A     		ldr	r2, .L578+8
 1527 06e0 5279     		ldrb	r2, [r2, #5]	@ zero_extendqisi2
 1528 06e2 2F2A     		cmp	r2, #47
 1529 06e4 40F2B980 		bls	.L56
 1530              		.loc 1 362 0 discriminator 2
 1531 06e8 4C49     		ldr	r1, .L578+8
 1532 06ea 8879     		ldrb	r0, [r1, #6]	@ zero_extendqisi2
 1533 06ec 2F28     		cmp	r0, #47
 1534 06ee 40F2B480 		bls	.L56
 1535              		.loc 1 362 0 discriminator 3
 1536 06f2 C979     		ldrb	r1, [r1, #7]	@ zero_extendqisi2
 1537 06f4 2F29     		cmp	r1, #47
 1538 06f6 40F2B080 		bls	.L56
 363:main.c        ****             && Rx_Buffer[4]<=0x39 && Rx_Buffer[5]<=0x39 && Rx_Buffer[6]<=0x39 && Rx_Buffer[7]<=0x39
 1539              		.loc 1 363 0 is_stmt 1
 1540 06fa 392B     		cmp	r3, #57
 1541 06fc 00F2AD80 		bhi	.L56
 1542              		.loc 1 363 0 is_stmt 0 discriminator 1
 1543 0700 392A     		cmp	r2, #57
 1544 0702 00F2AA80 		bhi	.L56
 1545              		.loc 1 363 0 discriminator 2
 1546 0706 3928     		cmp	r0, #57
 1547 0708 00F2A780 		bhi	.L56
 1548              		.loc 1 363 0 discriminator 3
 1549 070c 3929     		cmp	r1, #57
 1550 070e 00F2A480 		bhi	.L56
 364:main.c        ****             if((Rx_Buffer[4]==Password[0]+0x30)&&(Rx_Buffer[5]==Password[1]+0x30)&&(Rx_Buffer[6]==P
 1551              		.loc 1 364 0 is_stmt 1
 1552 0712 444C     		ldr	r4, .L578+16
 1553 0714 2478     		ldrb	r4, [r4]	@ zero_extendqisi2
 1554 0716 3034     		adds	r4, r4, #48
 1555 0718 A342     		cmp	r3, r4
 1556 071a 1DD1     		bne	.L69
 1557              		.loc 1 364 0 is_stmt 0 discriminator 1
 1558 071c 414B     		ldr	r3, .L578+16
 1559 071e 5B78     		ldrb	r3, [r3, #1]	@ zero_extendqisi2
 1560 0720 3033     		adds	r3, r3, #48
 1561 0722 9A42     		cmp	r2, r3
 1562 0724 18D1     		bne	.L69
 1563              		.loc 1 364 0 discriminator 2
 1564 0726 3F4B     		ldr	r3, .L578+16
 1565 0728 9B78     		ldrb	r3, [r3, #2]	@ zero_extendqisi2
 1566 072a 3033     		adds	r3, r3, #48
 1567 072c 9842     		cmp	r0, r3
 1568 072e 13D1     		bne	.L69
 1569              		.loc 1 364 0 discriminator 3
 1570 0730 3C4B     		ldr	r3, .L578+16
ARM GAS  C:\Users\USUARIO\AppData\Local\Temp\cc9Uggst.s 			page 35


 1571 0732 DB78     		ldrb	r3, [r3, #3]	@ zero_extendqisi2
 1572 0734 3033     		adds	r3, r3, #48
 1573 0736 9942     		cmp	r1, r3
 1574 0738 0ED1     		bne	.L69
 365:main.c        ****                escribeDisplay1("page Clave");
 1575              		.loc 1 365 0 is_stmt 1
 1576 073a 4148     		ldr	r0, .L578+44
 1577 073c FFF7FEFF 		bl	escribeDisplay1
 1578              	.LVL106:
 366:main.c        ****                escribeDisplay1("titulo.txt=\"Clave Nueva\"");
 1579              		.loc 1 366 0
 1580 0740 4048     		ldr	r0, .L578+48
 1581 0742 FFF7FEFF 		bl	escribeDisplay1
 1582              	.LVL107:
 367:main.c        ****                TipoClave=3;
 1583              		.loc 1 367 0
 1584 0746 0322     		movs	r2, #3
 1585 0748 354B     		ldr	r3, .L578+12
 1586 074a 1A70     		strb	r2, [r3]
 368:main.c        ****                Rx_Buffer[3]=0x00;
 1587              		.loc 1 368 0
 1588 074c 0023     		movs	r3, #0
 1589 074e 334A     		ldr	r2, .L578+8
 1590 0750 D370     		strb	r3, [r2, #3]
 369:main.c        ****                Rx_Buffer2[3]=0x00;
 1591              		.loc 1 369 0
 1592 0752 3D4A     		ldr	r2, .L578+52
 1593 0754 D370     		strb	r3, [r2, #3]
 1594 0756 80E0     		b	.L56
 1595              	.L69:
 370:main.c        ****             }else{
 371:main.c        ****                escribeDisplay1("page Principal");
 1596              		.loc 1 371 0
 1597 0758 3848     		ldr	r0, .L578+40
 1598 075a FFF7FEFF 		bl	escribeDisplay1
 1599              	.LVL108:
 1600 075e 7CE0     		b	.L56
 1601              	.L68:
 372:main.c        ****                //RX_Buffer[3]=0x00;
 373:main.c        ****                //RX_Buffer2[3]=0x00;
 374:main.c        ****             } 
 375:main.c        ****             }
 376:main.c        ****          }else if(TipoClave==3){
 1602              		.loc 1 376 0
 1603 0760 032B     		cmp	r3, #3
 1604 0762 40D1     		bne	.L70
 377:main.c        ****             escribeDisplay1("titulo.txt=\"Clave Nueva\"");
 1605              		.loc 1 377 0
 1606 0764 3748     		ldr	r0, .L578+48
 1607 0766 FFF7FEFF 		bl	escribeDisplay1
 1608              	.LVL109:
 378:main.c        ****             escribeDisplay1("page Principal");
 1609              		.loc 1 378 0
 1610 076a 3448     		ldr	r0, .L578+40
 1611 076c FFF7FEFF 		bl	escribeDisplay1
 1612              	.LVL110:
 379:main.c        ****             if(!GuardaEEPROM){
ARM GAS  C:\Users\USUARIO\AppData\Local\Temp\cc9Uggst.s 			page 36


 1613              		.loc 1 379 0
 1614 0770 364B     		ldr	r3, .L578+56
 1615 0772 B3F90030 		ldrsh	r3, [r3]
 1616 0776 3BBB     		cbnz	r3, .L71
 380:main.c        ****                //write_eeprom(10,Rx_Buffer[4]-0x30);delay_ms(20);write_eeprom(11,Rx_Buffer[5]-0x30)
 381:main.c        ****                EEPROM_WriteByte(Rx_Buffer[4]-0x30,10);CyDelay(20);
 1617              		.loc 1 381 0
 1618 0778 284C     		ldr	r4, .L578+8
 1619 077a 2079     		ldrb	r0, [r4, #4]	@ zero_extendqisi2
 1620 077c 3038     		subs	r0, r0, #48
 1621 077e 0A21     		movs	r1, #10
 1622 0780 C0B2     		uxtb	r0, r0
 1623 0782 FFF7FEFF 		bl	EEPROM_WriteByte
 1624              	.LVL111:
 1625 0786 1420     		movs	r0, #20
 1626 0788 FFF7FEFF 		bl	CyDelay
 1627              	.LVL112:
 382:main.c        ****                EEPROM_WriteByte(Rx_Buffer[5]-0x30,11);CyDelay(20);
 1628              		.loc 1 382 0
 1629 078c 6079     		ldrb	r0, [r4, #5]	@ zero_extendqisi2
 1630 078e 3038     		subs	r0, r0, #48
 1631 0790 0B21     		movs	r1, #11
 1632 0792 C0B2     		uxtb	r0, r0
 1633 0794 FFF7FEFF 		bl	EEPROM_WriteByte
 1634              	.LVL113:
 1635 0798 1420     		movs	r0, #20
 1636 079a FFF7FEFF 		bl	CyDelay
 1637              	.LVL114:
 383:main.c        ****                EEPROM_WriteByte(Rx_Buffer[6]-0x30,12);CyDelay(20);
 1638              		.loc 1 383 0
 1639 079e A079     		ldrb	r0, [r4, #6]	@ zero_extendqisi2
 1640 07a0 3038     		subs	r0, r0, #48
 1641 07a2 0C21     		movs	r1, #12
 1642 07a4 C0B2     		uxtb	r0, r0
 1643 07a6 FFF7FEFF 		bl	EEPROM_WriteByte
 1644              	.LVL115:
 1645 07aa 1420     		movs	r0, #20
 1646 07ac FFF7FEFF 		bl	CyDelay
 1647              	.LVL116:
 384:main.c        ****                EEPROM_WriteByte(Rx_Buffer[7]-0x30,13);CyDelay(20);
 1648              		.loc 1 384 0
 1649 07b0 E079     		ldrb	r0, [r4, #7]	@ zero_extendqisi2
 1650 07b2 3038     		subs	r0, r0, #48
 1651 07b4 0D21     		movs	r1, #13
 1652 07b6 C0B2     		uxtb	r0, r0
 1653 07b8 FFF7FEFF 		bl	EEPROM_WriteByte
 1654              	.LVL117:
 1655 07bc 1420     		movs	r0, #20
 1656 07be FFF7FEFF 		bl	CyDelay
 1657              	.LVL118:
 385:main.c        ****                GuardaEEPROM=ON;
 1658              		.loc 1 385 0
 1659 07c2 0122     		movs	r2, #1
 1660 07c4 214B     		ldr	r3, .L578+56
 1661 07c6 1A80     		strh	r2, [r3]	@ movhi
 1662              	.L71:
 386:main.c        ****             }
ARM GAS  C:\Users\USUARIO\AppData\Local\Temp\cc9Uggst.s 			page 37


 387:main.c        ****             Password[0]=Rx_Buffer[4]-0x30;Password[1]=Rx_Buffer[5]-0x30;Password[2]=Rx_Buffer[6]-0x
 1663              		.loc 1 387 0
 1664 07c8 144A     		ldr	r2, .L578+8
 1665 07ca 1179     		ldrb	r1, [r2, #4]	@ zero_extendqisi2
 1666 07cc 154B     		ldr	r3, .L578+16
 1667 07ce 3039     		subs	r1, r1, #48
 1668 07d0 1970     		strb	r1, [r3]
 1669 07d2 5179     		ldrb	r1, [r2, #5]	@ zero_extendqisi2
 1670 07d4 3039     		subs	r1, r1, #48
 1671 07d6 5970     		strb	r1, [r3, #1]
 1672 07d8 9179     		ldrb	r1, [r2, #6]	@ zero_extendqisi2
 1673 07da 3039     		subs	r1, r1, #48
 1674 07dc 9970     		strb	r1, [r3, #2]
 1675 07de D279     		ldrb	r2, [r2, #7]	@ zero_extendqisi2
 1676 07e0 303A     		subs	r2, r2, #48
 1677 07e2 DA70     		strb	r2, [r3, #3]
 1678 07e4 39E0     		b	.L56
 1679              	.L70:
 388:main.c        ****             //RX_Buffer[3]=0x00;
 389:main.c        ****             //RX_Buffer2[3]=0x00;
 390:main.c        ****          }else if(TipoClave==4){
 1680              		.loc 1 390 0
 1681 07e6 042B     		cmp	r3, #4
 1682 07e8 37D1     		bne	.L56
 391:main.c        ****             if(Rx_Buffer[4]==0x34&&Rx_Buffer[5]==0x34&&Rx_Buffer[6]==0x34&&Rx_Buffer[7]==0x34){ // 
 1683              		.loc 1 391 0
 1684 07ea 0C4B     		ldr	r3, .L578+8
 1685 07ec 1B79     		ldrb	r3, [r3, #4]	@ zero_extendqisi2
 1686 07ee 342B     		cmp	r3, #52
 1687 07f0 30D1     		bne	.L72
 1688              		.loc 1 391 0 is_stmt 0 discriminator 1
 1689 07f2 0A4B     		ldr	r3, .L578+8
 1690 07f4 5B79     		ldrb	r3, [r3, #5]	@ zero_extendqisi2
 1691 07f6 342B     		cmp	r3, #52
 1692 07f8 2CD1     		bne	.L72
 1693              		.loc 1 391 0 discriminator 2
 1694 07fa 084B     		ldr	r3, .L578+8
 1695 07fc 9B79     		ldrb	r3, [r3, #6]	@ zero_extendqisi2
 1696 07fe 342B     		cmp	r3, #52
 1697 0800 28D1     		bne	.L72
 1698              		.loc 1 391 0 discriminator 3
 1699 0802 064B     		ldr	r3, .L578+8
 1700 0804 DB79     		ldrb	r3, [r3, #7]	@ zero_extendqisi2
 1701 0806 342B     		cmp	r3, #52
 1702 0808 24D1     		bne	.L72
 392:main.c        ****                escribeDisplay1("page Test");
 1703              		.loc 1 392 0 is_stmt 1
 1704 080a 1148     		ldr	r0, .L578+60
 1705 080c FFF7FEFF 		bl	escribeDisplay1
 1706              	.LVL119:
 1707 0810 23E0     		b	.L56
 1708              	.L579:
 1709 0812 00BF     		.align	2
 1710              	.L578:
 1711 0814 00000000 		.word	displayStr
 1712 0818 B0000000 		.word	.LC10
 1713 081c 00000000 		.word	Rx_Buffer
ARM GAS  C:\Users\USUARIO\AppData\Local\Temp\cc9Uggst.s 			page 38


 1714 0820 00000000 		.word	TipoClave
 1715 0824 00000000 		.word	Password
 1716 0828 CC000000 		.word	.LC11
 1717 082c 00000000 		.word	dibujo
 1718 0830 28000000 		.word	.LC3
 1719 0834 E0000000 		.word	.LC12
 1720 0838 F0000000 		.word	.LC13
 1721 083c 18000000 		.word	.LC2
 1722 0840 44000000 		.word	.LC5
 1723 0844 50000000 		.word	.LC6
 1724 0848 00000000 		.word	Rx_Buffer2
 1725 084c 00000000 		.word	GuardaEEPROM
 1726 0850 FC000000 		.word	.LC14
 1727              	.L72:
 393:main.c        ****             }else{
 394:main.c        ****                escribeDisplay1("page Principal");
 1728              		.loc 1 394 0
 1729 0854 6548     		ldr	r0, .L580
 1730 0856 FFF7FEFF 		bl	escribeDisplay1
 1731              	.LVL120:
 1732              	.L56:
 395:main.c        ****             }
 396:main.c        ****             //RX_Buffer[3]=0x00;
 397:main.c        ****             //RX_Buffer2[3]=0x00;
 398:main.c        ****          }
 399:main.c        ****       }
 400:main.c        ****     }//Menu de Contrasea de acceso.
 401:main.c        **** //_------------------------------------------------------------------------------------------------
 402:main.c        **** 
 403:main.c        **** //_------------------------------------------------------------------------------------------------
 404:main.c        ****     if(Menu==2){ //Menu de Tiempo de Duracin
 1733              		.loc 1 404 0
 1734 085a 654B     		ldr	r3, .L580+4
 1735 085c 1B78     		ldrb	r3, [r3]	@ zero_extendqisi2
 1736 085e 022B     		cmp	r3, #2
 1737 0860 40F01B82 		bne	.L73
 405:main.c        ****         dibujo=OFF;
 1738              		.loc 1 405 0
 1739 0864 0023     		movs	r3, #0
 1740 0866 634A     		ldr	r2, .L580+8
 1741 0868 1380     		strh	r3, [r2]	@ movhi
 406:main.c        ****         imprime=OFF;
 1742              		.loc 1 406 0
 1743 086a 634A     		ldr	r2, .L580+12
 1744 086c 1380     		strh	r3, [r2]	@ movhi
 407:main.c        ****         sprintf(displayStr,"fecha.txt=\"Fecha:%02u/%02u/20%02u    Hora: %02u:%02u:%02u\"",Dia,Mes,Y
 1745              		.loc 1 407 0
 1746 086e 634B     		ldr	r3, .L580+16
 1747 0870 1B78     		ldrb	r3, [r3]	@ zero_extendqisi2
 1748 0872 634A     		ldr	r2, .L580+20
 1749 0874 1278     		ldrb	r2, [r2]	@ zero_extendqisi2
 1750 0876 634C     		ldr	r4, .L580+24
 1751 0878 6349     		ldr	r1, .L580+28
 1752 087a 0978     		ldrb	r1, [r1]	@ zero_extendqisi2
 1753 087c 0391     		str	r1, [sp, #12]
 1754 087e 6349     		ldr	r1, .L580+32
 1755 0880 0978     		ldrb	r1, [r1]	@ zero_extendqisi2
ARM GAS  C:\Users\USUARIO\AppData\Local\Temp\cc9Uggst.s 			page 39


 1756 0882 0291     		str	r1, [sp, #8]
 1757 0884 6249     		ldr	r1, .L580+36
 1758 0886 0978     		ldrb	r1, [r1]	@ zero_extendqisi2
 1759 0888 0191     		str	r1, [sp, #4]
 1760 088a 6249     		ldr	r1, .L580+40
 1761 088c 0978     		ldrb	r1, [r1]	@ zero_extendqisi2
 1762 088e 0091     		str	r1, [sp]
 1763 0890 6149     		ldr	r1, .L580+44
 1764 0892 2046     		mov	r0, r4
 1765 0894 FFF7FEFF 		bl	sprintf
 1766              	.LVL121:
 408:main.c        ****         escribeDisplay1(displayStr);
 1767              		.loc 1 408 0
 1768 0898 2046     		mov	r0, r4
 1769 089a FFF7FEFF 		bl	escribeDisplay1
 1770              	.LVL122:
 409:main.c        ****         
 410:main.c        ****          if(!rampa){
 1771              		.loc 1 410 0
 1772 089e 5F4B     		ldr	r3, .L580+48
 1773 08a0 B3F90030 		ldrsh	r3, [r3]
 1774 08a4 002B     		cmp	r3, #0
 1775 08a6 40F0D180 		bne	.L74
 411:main.c        ****             if(Rx_Buffer[4]==0x0a){//Selecciono Minutos
 1776              		.loc 1 411 0
 1777 08aa 5D4B     		ldr	r3, .L580+52
 1778 08ac 1B79     		ldrb	r3, [r3, #4]	@ zero_extendqisi2
 1779 08ae 0A2B     		cmp	r3, #10
 1780 08b0 09D1     		bne	.L75
 412:main.c        ****                Minutos=OFF;
 1781              		.loc 1 412 0
 1782 08b2 0022     		movs	r2, #0
 1783 08b4 5B49     		ldr	r1, .L580+56
 1784 08b6 0A80     		strh	r2, [r1]	@ movhi
 413:main.c        ****                Horas=ON;
 1785              		.loc 1 413 0
 1786 08b8 0120     		movs	r0, #1
 1787 08ba 5B49     		ldr	r1, .L580+60
 1788 08bc 0880     		strh	r0, [r1]	@ movhi
 414:main.c        ****                pulsoAumentar=OFF;
 1789              		.loc 1 414 0
 1790 08be 5B49     		ldr	r1, .L580+64
 1791 08c0 0A80     		strh	r2, [r1]	@ movhi
 415:main.c        ****                pulsoDisminuir=OFF;
 1792              		.loc 1 415 0
 1793 08c2 5B49     		ldr	r1, .L580+68
 1794 08c4 0A80     		strh	r2, [r1]	@ movhi
 1795              	.L75:
 416:main.c        ****             }
 417:main.c        ****             
 418:main.c        ****             if(Rx_Buffer[4]==0x0b){//Selecciono Segundos
 1796              		.loc 1 418 0
 1797 08c6 0B2B     		cmp	r3, #11
 1798 08c8 09D1     		bne	.L76
 419:main.c        ****                Minutos=ON;
 1799              		.loc 1 419 0
 1800 08ca 0121     		movs	r1, #1
ARM GAS  C:\Users\USUARIO\AppData\Local\Temp\cc9Uggst.s 			page 40


 1801 08cc 554A     		ldr	r2, .L580+56
 1802 08ce 1180     		strh	r1, [r2]	@ movhi
 420:main.c        ****                Horas=OFF;
 1803              		.loc 1 420 0
 1804 08d0 0022     		movs	r2, #0
 1805 08d2 5549     		ldr	r1, .L580+60
 1806 08d4 0A80     		strh	r2, [r1]	@ movhi
 421:main.c        ****                pulsoAumentar=OFF;
 1807              		.loc 1 421 0
 1808 08d6 5549     		ldr	r1, .L580+64
 1809 08d8 0A80     		strh	r2, [r1]	@ movhi
 422:main.c        ****                pulsoDisminuir=OFF;
 1810              		.loc 1 422 0
 1811 08da 5549     		ldr	r1, .L580+68
 1812 08dc 0A80     		strh	r2, [r1]	@ movhi
 1813              	.L76:
 423:main.c        ****             }           
 424:main.c        ****             
 425:main.c        ****             if(Rx_Buffer[4]==0x11){//Selecciono Regresar
 1814              		.loc 1 425 0
 1815 08de 112B     		cmp	r3, #17
 1816 08e0 36D1     		bne	.L77
 426:main.c        ****                CyDelay(200);
 1817              		.loc 1 426 0
 1818 08e2 C820     		movs	r0, #200
 1819 08e4 FFF7FEFF 		bl	CyDelay
 1820              	.LVL123:
 427:main.c        ****                if(Rx_Buffer[4]==0x11){
 1821              		.loc 1 427 0
 1822 08e8 4D4B     		ldr	r3, .L580+52
 1823 08ea 1B79     		ldrb	r3, [r3, #4]	@ zero_extendqisi2
 1824 08ec 112B     		cmp	r3, #17
 1825 08ee 2FD1     		bne	.L77
 428:main.c        ****                   Minutos=OFF;
 1826              		.loc 1 428 0
 1827 08f0 0023     		movs	r3, #0
 1828 08f2 4C4A     		ldr	r2, .L580+56
 1829 08f4 1380     		strh	r3, [r2]	@ movhi
 429:main.c        ****                   Horas=OFF;
 1830              		.loc 1 429 0
 1831 08f6 4C4A     		ldr	r2, .L580+60
 1832 08f8 1380     		strh	r3, [r2]	@ movhi
 430:main.c        ****                   escribeDisplay1("page Principal");
 1833              		.loc 1 430 0
 1834 08fa 3C48     		ldr	r0, .L580
 1835 08fc FFF7FEFF 		bl	escribeDisplay1
 1836              	.LVL124:
 431:main.c        ****                   if(!GuardaEEPROM){
 1837              		.loc 1 431 0
 1838 0900 4C4B     		ldr	r3, .L580+72
 1839 0902 B3F90030 		ldrsh	r3, [r3]
 1840 0906 1BBB     		cbnz	r3, .L77
 432:main.c        ****                      EEPROM_WriteByte(mEstp,0);
 1841              		.loc 1 432 0
 1842 0908 4B4C     		ldr	r4, .L580+76
 1843 090a 0021     		movs	r1, #0
 1844 090c 2078     		ldrb	r0, [r4]	@ zero_extendqisi2
ARM GAS  C:\Users\USUARIO\AppData\Local\Temp\cc9Uggst.s 			page 41


 1845 090e FFF7FEFF 		bl	EEPROM_WriteByte
 1846              	.LVL125:
 433:main.c        ****                      CyDelay(10);
 1847              		.loc 1 433 0
 1848 0912 0A20     		movs	r0, #10
 1849 0914 FFF7FEFF 		bl	CyDelay
 1850              	.LVL126:
 434:main.c        ****                      EEPROM_WriteByte(hEstp,1);
 1851              		.loc 1 434 0
 1852 0918 0121     		movs	r1, #1
 1853 091a 484B     		ldr	r3, .L580+80
 1854 091c 1878     		ldrb	r0, [r3]	@ zero_extendqisi2
 1855 091e FFF7FEFF 		bl	EEPROM_WriteByte
 1856              	.LVL127:
 435:main.c        ****                      CyDelay(10);
 1857              		.loc 1 435 0
 1858 0922 0A20     		movs	r0, #10
 1859 0924 FFF7FEFF 		bl	CyDelay
 1860              	.LVL128:
 436:main.c        ****                      //mEst=mEstp;
 437:main.c        ****                      //hEst=hEstp;
 438:main.c        ****                      if((mEstp==0)&&(hEstp==0))
 1861              		.loc 1 438 0
 1862 0928 2378     		ldrb	r3, [r4]	@ zero_extendqisi2
 1863 092a 33B9     		cbnz	r3, .L78
 1864              		.loc 1 438 0 is_stmt 0 discriminator 1
 1865 092c 434B     		ldr	r3, .L580+80
 1866 092e 1B78     		ldrb	r3, [r3]	@ zero_extendqisi2
 1867 0930 1BB9     		cbnz	r3, .L78
 439:main.c        ****                         Infinito=1;
 1868              		.loc 1 439 0 is_stmt 1
 1869 0932 0122     		movs	r2, #1
 1870 0934 424B     		ldr	r3, .L580+84
 1871 0936 1A80     		strh	r2, [r3]	@ movhi
 1872 0938 02E0     		b	.L79
 1873              	.L78:
 440:main.c        ****                      else
 441:main.c        ****                         Infinito=0;
 1874              		.loc 1 441 0
 1875 093a 0022     		movs	r2, #0
 1876 093c 404B     		ldr	r3, .L580+84
 1877 093e 1A80     		strh	r2, [r3]	@ movhi
 1878              	.L79:
 442:main.c        ****                      GuardaEEPROM=ON;
 1879              		.loc 1 442 0
 1880 0940 0122     		movs	r2, #1
 1881 0942 3C4B     		ldr	r3, .L580+72
 1882 0944 1A80     		strh	r2, [r3]	@ movhi
 443:main.c        ****                      pulsoAumentar=OFF;
 1883              		.loc 1 443 0
 1884 0946 0023     		movs	r3, #0
 1885 0948 384A     		ldr	r2, .L580+64
 1886 094a 1380     		strh	r3, [r2]	@ movhi
 444:main.c        ****                      pulsoDisminuir=OFF;
 1887              		.loc 1 444 0
 1888 094c 384A     		ldr	r2, .L580+68
 1889 094e 1380     		strh	r3, [r2]	@ movhi
ARM GAS  C:\Users\USUARIO\AppData\Local\Temp\cc9Uggst.s 			page 42


 1890              	.L77:
 445:main.c        ****                   }
 446:main.c        ****                }
 447:main.c        ****             }
 448:main.c        ****                         
 449:main.c        ****             if(pulsoAumentar){//Tecla arriba Oprimida
 1891              		.loc 1 449 0
 1892 0950 364B     		ldr	r3, .L580+64
 1893 0952 B3F90030 		ldrsh	r3, [r3]
 1894 0956 7BB1     		cbz	r3, .L80
 450:main.c        ****                if(Minutos){
 1895              		.loc 1 450 0
 1896 0958 324B     		ldr	r3, .L580+56
 1897 095a B3F90030 		ldrsh	r3, [r3]
 1898 095e 1BB1     		cbz	r3, .L81
 451:main.c        ****                   mEstp++;
 1899              		.loc 1 451 0
 1900 0960 354A     		ldr	r2, .L580+76
 1901 0962 1378     		ldrb	r3, [r2]	@ zero_extendqisi2
 1902 0964 0133     		adds	r3, r3, #1
 1903 0966 1370     		strb	r3, [r2]
 1904              	.L81:
 452:main.c        ****                }
 453:main.c        ****                if(Horas){
 1905              		.loc 1 453 0
 1906 0968 2F4B     		ldr	r3, .L580+60
 1907 096a B3F90030 		ldrsh	r3, [r3]
 1908 096e 1BB1     		cbz	r3, .L80
 454:main.c        ****                   hEstp++;
 1909              		.loc 1 454 0
 1910 0970 324A     		ldr	r2, .L580+80
 1911 0972 1378     		ldrb	r3, [r2]	@ zero_extendqisi2
 1912 0974 0133     		adds	r3, r3, #1
 1913 0976 1370     		strb	r3, [r2]
 1914              	.L80:
 455:main.c        ****                }  
 456:main.c        ****             }
 457:main.c        ****             
 458:main.c        ****             if(pulsoDisminuir){//Tecla abajo oprimida
 1915              		.loc 1 458 0
 1916 0978 2D4B     		ldr	r3, .L580+68
 1917 097a B3F90030 		ldrsh	r3, [r3]
 1918 097e 9BB1     		cbz	r3, .L82
 459:main.c        ****                if(Minutos && mEstp>0){
 1919              		.loc 1 459 0
 1920 0980 284B     		ldr	r3, .L580+56
 1921 0982 B3F90030 		ldrsh	r3, [r3]
 1922 0986 2BB1     		cbz	r3, .L83
 1923              		.loc 1 459 0 is_stmt 0 discriminator 1
 1924 0988 2B4B     		ldr	r3, .L580+76
 1925 098a 1B78     		ldrb	r3, [r3]	@ zero_extendqisi2
 1926 098c 13B1     		cbz	r3, .L83
 460:main.c        ****                   mEstp--;
 1927              		.loc 1 460 0 is_stmt 1
 1928 098e 013B     		subs	r3, r3, #1
 1929 0990 294A     		ldr	r2, .L580+76
 1930 0992 1370     		strb	r3, [r2]
ARM GAS  C:\Users\USUARIO\AppData\Local\Temp\cc9Uggst.s 			page 43


 1931              	.L83:
 461:main.c        ****                }
 462:main.c        ****                if(Horas  && hEstp>0){
 1932              		.loc 1 462 0
 1933 0994 244B     		ldr	r3, .L580+60
 1934 0996 B3F90030 		ldrsh	r3, [r3]
 1935 099a 2BB1     		cbz	r3, .L82
 1936              		.loc 1 462 0 is_stmt 0 discriminator 1
 1937 099c 274B     		ldr	r3, .L580+80
 1938 099e 1B78     		ldrb	r3, [r3]	@ zero_extendqisi2
 1939 09a0 13B1     		cbz	r3, .L82
 463:main.c        ****                   hEstp--;
 1940              		.loc 1 463 0 is_stmt 1
 1941 09a2 013B     		subs	r3, r3, #1
 1942 09a4 254A     		ldr	r2, .L580+80
 1943 09a6 1370     		strb	r3, [r2]
 1944              	.L82:
 464:main.c        ****                }
 465:main.c        ****             }
 466:main.c        ****             
 467:main.c        ****             if(hEstp>99)hEstp=1;
 1945              		.loc 1 467 0
 1946 09a8 244B     		ldr	r3, .L580+80
 1947 09aa 1B78     		ldrb	r3, [r3]	@ zero_extendqisi2
 1948 09ac 632B     		cmp	r3, #99
 1949 09ae 02D9     		bls	.L84
 1950              		.loc 1 467 0 is_stmt 0 discriminator 1
 1951 09b0 0122     		movs	r2, #1
 1952 09b2 224B     		ldr	r3, .L580+80
 1953 09b4 1A70     		strb	r2, [r3]
 1954              	.L84:
 468:main.c        ****             if(mEstp>59)mEstp=0;
 1955              		.loc 1 468 0 is_stmt 1
 1956 09b6 204B     		ldr	r3, .L580+76
 1957 09b8 1B78     		ldrb	r3, [r3]	@ zero_extendqisi2
 1958 09ba 3B2B     		cmp	r3, #59
 1959 09bc 02D9     		bls	.L85
 1960              		.loc 1 468 0 is_stmt 0 discriminator 1
 1961 09be 0022     		movs	r2, #0
 1962 09c0 1D4B     		ldr	r3, .L580+76
 1963 09c2 1A70     		strb	r2, [r3]
 1964              	.L85:
 469:main.c        ****                
 470:main.c        ****             sprintf(displayStr,"tminsec.txt=\"%02u\"",hEstp);
 1965              		.loc 1 470 0 is_stmt 1
 1966 09c4 0F4C     		ldr	r4, .L580+24
 1967 09c6 1D4B     		ldr	r3, .L580+80
 1968 09c8 1A78     		ldrb	r2, [r3]	@ zero_extendqisi2
 1969 09ca 1E49     		ldr	r1, .L580+88
 1970 09cc 2046     		mov	r0, r4
 1971 09ce FFF7FEFF 		bl	sprintf
 1972              	.LVL129:
 471:main.c        ****             escribeDisplay1(displayStr);
 1973              		.loc 1 471 0
 1974 09d2 2046     		mov	r0, r4
 1975 09d4 FFF7FEFF 		bl	escribeDisplay1
 1976              	.LVL130:
ARM GAS  C:\Users\USUARIO\AppData\Local\Temp\cc9Uggst.s 			page 44


 472:main.c        ****             sprintf(displayStr,"tsecsec.txt=\"%02u\"",mEstp);
 1977              		.loc 1 472 0
 1978 09d8 174B     		ldr	r3, .L580+76
 1979 09da 1A78     		ldrb	r2, [r3]	@ zero_extendqisi2
 1980 09dc 1A49     		ldr	r1, .L580+92
 1981 09de 2046     		mov	r0, r4
 1982 09e0 FFF7FEFF 		bl	sprintf
 1983              	.LVL131:
 473:main.c        ****             escribeDisplay1(displayStr);
 1984              		.loc 1 473 0
 1985 09e4 2046     		mov	r0, r4
 1986 09e6 FFF7FEFF 		bl	escribeDisplay1
 1987              	.LVL132:
 1988 09ea 2BE1     		b	.L86
 1989              	.L581:
 1990              		.align	2
 1991              	.L580:
 1992 09ec 18000000 		.word	.LC2
 1993 09f0 00000000 		.word	Menu
 1994 09f4 00000000 		.word	dibujo
 1995 09f8 00000000 		.word	imprime
 1996 09fc 00000000 		.word	Mes
 1997 0a00 00000000 		.word	Dia
 1998 0a04 00000000 		.word	displayStr
 1999 0a08 00000000 		.word	Segundo
 2000 0a0c 00000000 		.word	Minuto
 2001 0a10 00000000 		.word	Hora
 2002 0a14 00000000 		.word	Year
 2003 0a18 08010000 		.word	.LC15
 2004 0a1c 00000000 		.word	rampa
 2005 0a20 00000000 		.word	Rx_Buffer
 2006 0a24 00000000 		.word	Minutos
 2007 0a28 00000000 		.word	Horas
 2008 0a2c 00000000 		.word	pulsoAumentar
 2009 0a30 00000000 		.word	pulsoDisminuir
 2010 0a34 00000000 		.word	GuardaEEPROM
 2011 0a38 00000000 		.word	mEstp
 2012 0a3c 00000000 		.word	hEstp
 2013 0a40 00000000 		.word	Infinito
 2014 0a44 44010000 		.word	.LC16
 2015 0a48 58010000 		.word	.LC17
 2016              	.L74:
 474:main.c        ****          }else{
 475:main.c        ****             if(Rx_Buffer[4]==0x0a){//Selecciono Minutos
 2017              		.loc 1 475 0
 2018 0a4c A54B     		ldr	r3, .L582
 2019 0a4e 1B79     		ldrb	r3, [r3, #4]	@ zero_extendqisi2
 2020 0a50 0A2B     		cmp	r3, #10
 2021 0a52 05D1     		bne	.L87
 476:main.c        ****                Minutos=OFF;
 2022              		.loc 1 476 0
 2023 0a54 0021     		movs	r1, #0
 2024 0a56 A44A     		ldr	r2, .L582+4
 2025 0a58 1180     		strh	r1, [r2]	@ movhi
 477:main.c        ****                Horas=ON;
 2026              		.loc 1 477 0
 2027 0a5a 0121     		movs	r1, #1
ARM GAS  C:\Users\USUARIO\AppData\Local\Temp\cc9Uggst.s 			page 45


 2028 0a5c A34A     		ldr	r2, .L582+8
 2029 0a5e 1180     		strh	r1, [r2]	@ movhi
 2030              	.L87:
 478:main.c        ****             }
 479:main.c        ****             
 480:main.c        ****             if(Rx_Buffer[4]==0x0b){//Selecciono Segundos
 2031              		.loc 1 480 0
 2032 0a60 0B2B     		cmp	r3, #11
 2033 0a62 05D1     		bne	.L88
 481:main.c        ****                Minutos=ON;
 2034              		.loc 1 481 0
 2035 0a64 0121     		movs	r1, #1
 2036 0a66 A04A     		ldr	r2, .L582+4
 2037 0a68 1180     		strh	r1, [r2]	@ movhi
 482:main.c        ****                Horas=OFF;
 2038              		.loc 1 482 0
 2039 0a6a 0021     		movs	r1, #0
 2040 0a6c 9F4A     		ldr	r2, .L582+8
 2041 0a6e 1180     		strh	r1, [r2]	@ movhi
 2042              	.L88:
 483:main.c        ****             }           
 484:main.c        ****             
 485:main.c        ****             if(Rx_Buffer[4]==0x11){//Selecciono Regresar
 2043              		.loc 1 485 0
 2044 0a70 112B     		cmp	r3, #17
 2045 0a72 3CD1     		bne	.L89
 486:main.c        ****                CyDelay(200);
 2046              		.loc 1 486 0
 2047 0a74 C820     		movs	r0, #200
 2048 0a76 FFF7FEFF 		bl	CyDelay
 2049              	.LVL133:
 487:main.c        ****                if(Rx_Buffer[4]==0x11){
 2050              		.loc 1 487 0
 2051 0a7a 9A4B     		ldr	r3, .L582
 2052 0a7c 1B79     		ldrb	r3, [r3, #4]	@ zero_extendqisi2
 2053 0a7e 112B     		cmp	r3, #17
 2054 0a80 35D1     		bne	.L89
 488:main.c        ****                   Minutos=OFF;
 2055              		.loc 1 488 0
 2056 0a82 0023     		movs	r3, #0
 2057 0a84 984A     		ldr	r2, .L582+4
 2058 0a86 1380     		strh	r3, [r2]	@ movhi
 489:main.c        ****                   Horas=OFF;
 2059              		.loc 1 489 0
 2060 0a88 984A     		ldr	r2, .L582+8
 2061 0a8a 1380     		strh	r3, [r2]	@ movhi
 490:main.c        ****                   escribeDisplay1("page Rampas");
 2062              		.loc 1 490 0
 2063 0a8c 9848     		ldr	r0, .L582+12
 2064 0a8e FFF7FEFF 		bl	escribeDisplay1
 2065              	.LVL134:
 491:main.c        ****                   if(!GuardaEEPROM){
 2066              		.loc 1 491 0
 2067 0a92 984B     		ldr	r3, .L582+16
 2068 0a94 B3F90030 		ldrsh	r3, [r3]
 2069 0a98 23BB     		cbnz	r3, .L90
 492:main.c        ****                      EEPROM_WriteByte((int8)rampas[CicloLibre-1].Horas,103+((CicloLibre-1)*5));
ARM GAS  C:\Users\USUARIO\AppData\Local\Temp\cc9Uggst.s 			page 46


 2070              		.loc 1 492 0
 2071 0a9a 974D     		ldr	r5, .L582+20
 2072 0a9c 2B78     		ldrb	r3, [r5]	@ zero_extendqisi2
 2073 0a9e 013B     		subs	r3, r3, #1
 2074 0aa0 03EB8301 		add	r1, r3, r3, lsl #2
 2075 0aa4 6731     		adds	r1, r1, #103
 2076 0aa6 954C     		ldr	r4, .L582+24
 2077 0aa8 03EB4303 		add	r3, r3, r3, lsl #1
 2078 0aac 9A00     		lsls	r2, r3, #2
 2079 0aae 2244     		add	r2, r2, r4
 2080 0ab0 89B2     		uxth	r1, r1
 2081 0ab2 9078     		ldrb	r0, [r2, #2]	@ zero_extendqisi2
 2082 0ab4 FFF7FEFF 		bl	EEPROM_WriteByte
 2083              	.LVL135:
 493:main.c        ****                      CyDelay(10);
 2084              		.loc 1 493 0
 2085 0ab8 0A20     		movs	r0, #10
 2086 0aba FFF7FEFF 		bl	CyDelay
 2087              	.LVL136:
 494:main.c        ****                      EEPROM_WriteByte((int8)rampas[CicloLibre-1].Minutos,104+((CicloLibre-1)*5));
 2088              		.loc 1 494 0
 2089 0abe 2B78     		ldrb	r3, [r5]	@ zero_extendqisi2
 2090 0ac0 013B     		subs	r3, r3, #1
 2091 0ac2 03EB8301 		add	r1, r3, r3, lsl #2
 2092 0ac6 6831     		adds	r1, r1, #104
 2093 0ac8 03EB4303 		add	r3, r3, r3, lsl #1
 2094 0acc 9A00     		lsls	r2, r3, #2
 2095 0ace 2244     		add	r2, r2, r4
 2096 0ad0 89B2     		uxth	r1, r1
 2097 0ad2 D078     		ldrb	r0, [r2, #3]	@ zero_extendqisi2
 2098 0ad4 FFF7FEFF 		bl	EEPROM_WriteByte
 2099              	.LVL137:
 495:main.c        ****                      CyDelay(10);
 2100              		.loc 1 495 0
 2101 0ad8 0A20     		movs	r0, #10
 2102 0ada FFF7FEFF 		bl	CyDelay
 2103              	.LVL138:
 496:main.c        ****                      GuardaEEPROM=ON;
 2104              		.loc 1 496 0
 2105 0ade 0122     		movs	r2, #1
 2106 0ae0 844B     		ldr	r3, .L582+16
 2107 0ae2 1A80     		strh	r2, [r3]	@ movhi
 2108              	.L90:
 497:main.c        ****                   }
 498:main.c        ****                   pulsoAumentar=OFF;
 2109              		.loc 1 498 0
 2110 0ae4 0023     		movs	r3, #0
 2111 0ae6 864A     		ldr	r2, .L582+28
 2112 0ae8 1380     		strh	r3, [r2]	@ movhi
 499:main.c        ****                   pulsoDisminuir=OFF;
 2113              		.loc 1 499 0
 2114 0aea 864A     		ldr	r2, .L582+32
 2115 0aec 1380     		strh	r3, [r2]	@ movhi
 2116              	.L89:
 500:main.c        ****                }
 501:main.c        ****             }
 502:main.c        ****                       
ARM GAS  C:\Users\USUARIO\AppData\Local\Temp\cc9Uggst.s 			page 47


 503:main.c        ****             if(pulsoAumentar){//Tecla arriba Oprimida
 2117              		.loc 1 503 0
 2118 0aee 844B     		ldr	r3, .L582+28
 2119 0af0 B3F90030 		ldrsh	r3, [r3]
 2120 0af4 5BB3     		cbz	r3, .L91
 504:main.c        ****                if(Minutos){
 2121              		.loc 1 504 0
 2122 0af6 7C4B     		ldr	r3, .L582+4
 2123 0af8 B3F90030 		ldrsh	r3, [r3]
 2124 0afc 8BB1     		cbz	r3, .L92
 505:main.c        ****                   rampas[CicloLibre-1].Minutos+=1.0;
 2125              		.loc 1 505 0
 2126 0afe 7E4B     		ldr	r3, .L582+20
 2127 0b00 1B78     		ldrb	r3, [r3]	@ zero_extendqisi2
 2128 0b02 013B     		subs	r3, r3, #1
 2129 0b04 7D49     		ldr	r1, .L582+24
 2130 0b06 5800     		lsls	r0, r3, #1
 2131 0b08 C418     		adds	r4, r0, r3
 2132 0b0a A200     		lsls	r2, r4, #2
 2133 0b0c 8C18     		adds	r4, r1, r2
 2134 0b0e E078     		ldrb	r0, [r4, #3]	@ zero_extendqisi2
 2135 0b10 FFF7FEFF 		bl	__aeabi_i2d
 2136              	.LVL139:
 2137 0b14 0022     		movs	r2, #0
 2138 0b16 7C4B     		ldr	r3, .L582+36
 2139 0b18 FFF7FEFF 		bl	__aeabi_dadd
 2140              	.LVL140:
 2141 0b1c FFF7FEFF 		bl	__aeabi_d2uiz
 2142              	.LVL141:
 2143 0b20 E070     		strb	r0, [r4, #3]
 2144              	.L92:
 506:main.c        ****                }
 507:main.c        ****                if(Horas){
 2145              		.loc 1 507 0
 2146 0b22 724B     		ldr	r3, .L582+8
 2147 0b24 B3F90030 		ldrsh	r3, [r3]
 2148 0b28 8BB1     		cbz	r3, .L91
 508:main.c        ****                   rampas[CicloLibre-1].Horas+=1.0;
 2149              		.loc 1 508 0
 2150 0b2a 734B     		ldr	r3, .L582+20
 2151 0b2c 1B78     		ldrb	r3, [r3]	@ zero_extendqisi2
 2152 0b2e 013B     		subs	r3, r3, #1
 2153 0b30 7249     		ldr	r1, .L582+24
 2154 0b32 5800     		lsls	r0, r3, #1
 2155 0b34 C418     		adds	r4, r0, r3
 2156 0b36 A200     		lsls	r2, r4, #2
 2157 0b38 8C18     		adds	r4, r1, r2
 2158 0b3a A078     		ldrb	r0, [r4, #2]	@ zero_extendqisi2
 2159 0b3c FFF7FEFF 		bl	__aeabi_i2d
 2160              	.LVL142:
 2161 0b40 0022     		movs	r2, #0
 2162 0b42 714B     		ldr	r3, .L582+36
 2163 0b44 FFF7FEFF 		bl	__aeabi_dadd
 2164              	.LVL143:
 2165 0b48 FFF7FEFF 		bl	__aeabi_d2uiz
 2166              	.LVL144:
 2167 0b4c A070     		strb	r0, [r4, #2]
ARM GAS  C:\Users\USUARIO\AppData\Local\Temp\cc9Uggst.s 			page 48


 2168              	.L91:
 509:main.c        ****                }  
 510:main.c        ****             }
 511:main.c        ****             
 512:main.c        ****             if(pulsoDisminuir){//Tecla abajo oprimida
 2169              		.loc 1 512 0
 2170 0b4e 6D4B     		ldr	r3, .L582+32
 2171 0b50 B3F90030 		ldrsh	r3, [r3]
 2172 0b54 002B     		cmp	r3, #0
 2173 0b56 37D0     		beq	.L93
 513:main.c        ****                if(Minutos && rampas[CicloLibre-1].Minutos>0){
 2174              		.loc 1 513 0
 2175 0b58 634B     		ldr	r3, .L582+4
 2176 0b5a B3F90030 		ldrsh	r3, [r3]
 2177 0b5e BBB1     		cbz	r3, .L94
 2178              		.loc 1 513 0 is_stmt 0 discriminator 1
 2179 0b60 654B     		ldr	r3, .L582+20
 2180 0b62 1B78     		ldrb	r3, [r3]	@ zero_extendqisi2
 2181 0b64 013B     		subs	r3, r3, #1
 2182 0b66 03EB4301 		add	r1, r3, r3, lsl #1
 2183 0b6a 8A00     		lsls	r2, r1, #2
 2184 0b6c 6349     		ldr	r1, .L582+24
 2185 0b6e 0A44     		add	r2, r2, r1
 2186 0b70 D078     		ldrb	r0, [r2, #3]	@ zero_extendqisi2
 2187 0b72 68B1     		cbz	r0, .L94
 514:main.c        ****                   rampas[CicloLibre-1].Minutos-=1.0;
 2188              		.loc 1 514 0 is_stmt 1
 2189 0b74 03EB4303 		add	r3, r3, r3, lsl #1
 2190 0b78 9A00     		lsls	r2, r3, #2
 2191 0b7a 0C46     		mov	r4, r1
 2192 0b7c 1444     		add	r4, r4, r2
 2193 0b7e FFF7FEFF 		bl	__aeabi_i2d
 2194              	.LVL145:
 2195 0b82 0022     		movs	r2, #0
 2196 0b84 604B     		ldr	r3, .L582+36
 2197 0b86 FFF7FEFF 		bl	__aeabi_dsub
 2198              	.LVL146:
 2199 0b8a FFF7FEFF 		bl	__aeabi_d2uiz
 2200              	.LVL147:
 2201 0b8e E070     		strb	r0, [r4, #3]
 2202              	.L94:
 515:main.c        ****                }
 516:main.c        ****                if(Horas  && rampas[CicloLibre-1].Horas>0){
 2203              		.loc 1 516 0
 2204 0b90 564B     		ldr	r3, .L582+8
 2205 0b92 B3F90030 		ldrsh	r3, [r3]
 2206 0b96 BBB1     		cbz	r3, .L93
 2207              		.loc 1 516 0 is_stmt 0 discriminator 1
 2208 0b98 574B     		ldr	r3, .L582+20
 2209 0b9a 1B78     		ldrb	r3, [r3]	@ zero_extendqisi2
 2210 0b9c 013B     		subs	r3, r3, #1
 2211 0b9e 03EB4301 		add	r1, r3, r3, lsl #1
 2212 0ba2 8A00     		lsls	r2, r1, #2
 2213 0ba4 5549     		ldr	r1, .L582+24
 2214 0ba6 0A44     		add	r2, r2, r1
 2215 0ba8 9078     		ldrb	r0, [r2, #2]	@ zero_extendqisi2
 2216 0baa 68B1     		cbz	r0, .L93
ARM GAS  C:\Users\USUARIO\AppData\Local\Temp\cc9Uggst.s 			page 49


 517:main.c        ****                   rampas[CicloLibre-1].Horas-=1.0;
 2217              		.loc 1 517 0 is_stmt 1
 2218 0bac 03EB4303 		add	r3, r3, r3, lsl #1
 2219 0bb0 9A00     		lsls	r2, r3, #2
 2220 0bb2 0C46     		mov	r4, r1
 2221 0bb4 1444     		add	r4, r4, r2
 2222 0bb6 FFF7FEFF 		bl	__aeabi_i2d
 2223              	.LVL148:
 2224 0bba 0022     		movs	r2, #0
 2225 0bbc 524B     		ldr	r3, .L582+36
 2226 0bbe FFF7FEFF 		bl	__aeabi_dsub
 2227              	.LVL149:
 2228 0bc2 FFF7FEFF 		bl	__aeabi_d2uiz
 2229              	.LVL150:
 2230 0bc6 A070     		strb	r0, [r4, #2]
 2231              	.L93:
 518:main.c        ****                }
 519:main.c        ****             }
 520:main.c        ****             
 521:main.c        ****             if(rampas[CicloLibre-1].Horas>99)rampas[CicloLibre-1].Horas=1;
 2232              		.loc 1 521 0
 2233 0bc8 4B4B     		ldr	r3, .L582+20
 2234 0bca 1B78     		ldrb	r3, [r3]	@ zero_extendqisi2
 2235 0bcc 013B     		subs	r3, r3, #1
 2236 0bce 03EB4301 		add	r1, r3, r3, lsl #1
 2237 0bd2 8A00     		lsls	r2, r1, #2
 2238 0bd4 4949     		ldr	r1, .L582+24
 2239 0bd6 0A44     		add	r2, r2, r1
 2240 0bd8 9278     		ldrb	r2, [r2, #2]	@ zero_extendqisi2
 2241 0bda 632A     		cmp	r2, #99
 2242 0bdc 06D9     		bls	.L95
 2243              		.loc 1 521 0 is_stmt 0 discriminator 1
 2244 0bde 03EB4301 		add	r1, r3, r3, lsl #1
 2245 0be2 8A00     		lsls	r2, r1, #2
 2246 0be4 4549     		ldr	r1, .L582+24
 2247 0be6 0A44     		add	r2, r2, r1
 2248 0be8 0121     		movs	r1, #1
 2249 0bea 9170     		strb	r1, [r2, #2]
 2250              	.L95:
 522:main.c        ****             if(rampas[CicloLibre-1].Minutos>59)rampas[CicloLibre-1].Minutos=0;
 2251              		.loc 1 522 0 is_stmt 1
 2252 0bec 03EB4301 		add	r1, r3, r3, lsl #1
 2253 0bf0 8A00     		lsls	r2, r1, #2
 2254 0bf2 4249     		ldr	r1, .L582+24
 2255 0bf4 0A44     		add	r2, r2, r1
 2256 0bf6 D278     		ldrb	r2, [r2, #3]	@ zero_extendqisi2
 2257 0bf8 3B2A     		cmp	r2, #59
 2258 0bfa 06D9     		bls	.L96
 2259              		.loc 1 522 0 is_stmt 0 discriminator 1
 2260 0bfc 03EB4301 		add	r1, r3, r3, lsl #1
 2261 0c00 8A00     		lsls	r2, r1, #2
 2262 0c02 3E49     		ldr	r1, .L582+24
 2263 0c04 0A44     		add	r2, r2, r1
 2264 0c06 0021     		movs	r1, #0
 2265 0c08 D170     		strb	r1, [r2, #3]
 2266              	.L96:
 523:main.c        ****                
ARM GAS  C:\Users\USUARIO\AppData\Local\Temp\cc9Uggst.s 			page 50


 524:main.c        ****             sprintf(displayStr,"tminsec.txt=\"%02u\"",rampas[CicloLibre-1].Horas);
 2267              		.loc 1 524 0 is_stmt 1
 2268 0c0a 3C4D     		ldr	r5, .L582+24
 2269 0c0c 03EB4303 		add	r3, r3, r3, lsl #1
 2270 0c10 9A00     		lsls	r2, r3, #2
 2271 0c12 2A44     		add	r2, r2, r5
 2272 0c14 3D4C     		ldr	r4, .L582+40
 2273 0c16 9278     		ldrb	r2, [r2, #2]	@ zero_extendqisi2
 2274 0c18 3D49     		ldr	r1, .L582+44
 2275 0c1a 2046     		mov	r0, r4
 2276 0c1c FFF7FEFF 		bl	sprintf
 2277              	.LVL151:
 525:main.c        ****             escribeDisplay1(displayStr);
 2278              		.loc 1 525 0
 2279 0c20 2046     		mov	r0, r4
 2280 0c22 FFF7FEFF 		bl	escribeDisplay1
 2281              	.LVL152:
 526:main.c        ****             sprintf(displayStr,"tsecsec.txt=\"%02u\"",rampas[CicloLibre-1].Minutos);
 2282              		.loc 1 526 0
 2283 0c26 344B     		ldr	r3, .L582+20
 2284 0c28 1B78     		ldrb	r3, [r3]	@ zero_extendqisi2
 2285 0c2a 013B     		subs	r3, r3, #1
 2286 0c2c 03EB4303 		add	r3, r3, r3, lsl #1
 2287 0c30 9A00     		lsls	r2, r3, #2
 2288 0c32 2A44     		add	r2, r2, r5
 2289 0c34 D278     		ldrb	r2, [r2, #3]	@ zero_extendqisi2
 2290 0c36 3749     		ldr	r1, .L582+48
 2291 0c38 2046     		mov	r0, r4
 2292 0c3a FFF7FEFF 		bl	sprintf
 2293              	.LVL153:
 527:main.c        ****             escribeDisplay1(displayStr);
 2294              		.loc 1 527 0
 2295 0c3e 2046     		mov	r0, r4
 2296 0c40 FFF7FEFF 		bl	escribeDisplay1
 2297              	.LVL154:
 2298              	.L86:
 528:main.c        ****          }
 529:main.c        ****         
 530:main.c        ****         if(Rx_Buffer[4]==0x0c || Rx_Buffer[4]==0x10){//Tecla Abajo Oprimida
 2299              		.loc 1 530 0
 2300 0c44 274B     		ldr	r3, .L582
 2301 0c46 1B79     		ldrb	r3, [r3, #4]	@ zero_extendqisi2
 2302 0c48 0C2B     		cmp	r3, #12
 2303 0c4a 01D0     		beq	.L97
 2304              		.loc 1 530 0 is_stmt 0 discriminator 1
 2305 0c4c 102B     		cmp	r3, #16
 2306 0c4e 0ED1     		bne	.L98
 2307              	.L97:
 531:main.c        ****             if(Rx_Buffer[4]==0x10){
 2308              		.loc 1 531 0 is_stmt 1
 2309 0c50 102B     		cmp	r3, #16
 2310 0c52 09D1     		bne	.L99
 532:main.c        ****                 pulsoAumentar=OFF;
 2311              		.loc 1 532 0
 2312 0c54 0023     		movs	r3, #0
 2313 0c56 2A4A     		ldr	r2, .L582+28
 2314 0c58 1380     		strh	r3, [r2]	@ movhi
ARM GAS  C:\Users\USUARIO\AppData\Local\Temp\cc9Uggst.s 			page 51


 533:main.c        ****                 pulsoDisminuir=OFF; 
 2315              		.loc 1 533 0
 2316 0c5a 2A4A     		ldr	r2, .L582+32
 2317 0c5c 1380     		strh	r3, [r2]	@ movhi
 534:main.c        ****                 Rx_Buffer[4]=0x00;
 2318              		.loc 1 534 0
 2319 0c5e 214A     		ldr	r2, .L582
 2320 0c60 1371     		strb	r3, [r2, #4]
 535:main.c        ****                 Rx_Buffer2[4]=0x00;
 2321              		.loc 1 535 0
 2322 0c62 2D4A     		ldr	r2, .L582+52
 2323 0c64 1371     		strb	r3, [r2, #4]
 2324 0c66 02E0     		b	.L98
 2325              	.L99:
 536:main.c        ****             }else{
 537:main.c        ****                 pulsoDisminuir=ON; 
 2326              		.loc 1 537 0
 2327 0c68 0122     		movs	r2, #1
 2328 0c6a 264B     		ldr	r3, .L582+32
 2329 0c6c 1A80     		strh	r2, [r3]	@ movhi
 2330              	.L98:
 538:main.c        ****             }
 539:main.c        ****         }
 540:main.c        ****         
 541:main.c        ****         if(Rx_Buffer[4]==0x0d || Rx_Buffer[4]==0x0e){//Tecla Abajo Oprimida
 2331              		.loc 1 541 0
 2332 0c6e 1D4B     		ldr	r3, .L582
 2333 0c70 1A79     		ldrb	r2, [r3, #4]	@ zero_extendqisi2
 2334 0c72 A2F10D03 		sub	r3, r2, #13
 2335 0c76 DBB2     		uxtb	r3, r3
 2336 0c78 012B     		cmp	r3, #1
 2337 0c7a 0ED8     		bhi	.L73
 542:main.c        ****             if(Rx_Buffer[4]==0x0e){
 2338              		.loc 1 542 0
 2339 0c7c 0E2A     		cmp	r2, #14
 2340 0c7e 09D1     		bne	.L100
 543:main.c        ****                 pulsoAumentar=OFF;
 2341              		.loc 1 543 0
 2342 0c80 0023     		movs	r3, #0
 2343 0c82 1F4A     		ldr	r2, .L582+28
 2344 0c84 1380     		strh	r3, [r2]	@ movhi
 544:main.c        ****                 pulsoDisminuir=OFF; 
 2345              		.loc 1 544 0
 2346 0c86 1F4A     		ldr	r2, .L582+32
 2347 0c88 1380     		strh	r3, [r2]	@ movhi
 545:main.c        ****                 Rx_Buffer[4]=0x00;
 2348              		.loc 1 545 0
 2349 0c8a 164A     		ldr	r2, .L582
 2350 0c8c 1371     		strb	r3, [r2, #4]
 546:main.c        ****                 Rx_Buffer2[4]=0x00;
 2351              		.loc 1 546 0
 2352 0c8e 224A     		ldr	r2, .L582+52
 2353 0c90 1371     		strb	r3, [r2, #4]
 2354 0c92 02E0     		b	.L73
 2355              	.L100:
 547:main.c        ****             }else{
 548:main.c        ****                 pulsoAumentar=ON; 
ARM GAS  C:\Users\USUARIO\AppData\Local\Temp\cc9Uggst.s 			page 52


 2356              		.loc 1 548 0
 2357 0c94 0122     		movs	r2, #1
 2358 0c96 1A4B     		ldr	r3, .L582+28
 2359 0c98 1A80     		strh	r2, [r3]	@ movhi
 2360              	.L73:
 549:main.c        ****             }
 550:main.c        ****         }
 551:main.c        ****         
 552:main.c        ****         
 553:main.c        ****     }//Menu de Tiempo de Duracin
 554:main.c        **** //_------------------------------------------------------------------------------------------------
 555:main.c        **** 
 556:main.c        **** //_------------------------------------------------------------------------------------------------
 557:main.c        ****     if(Menu==3){ //Menu de Temperatura
 2361              		.loc 1 557 0
 2362 0c9a 204B     		ldr	r3, .L582+56
 2363 0c9c 1B78     		ldrb	r3, [r3]	@ zero_extendqisi2
 2364 0c9e 032B     		cmp	r3, #3
 2365 0ca0 40F04E83 		bne	.L101
 558:main.c        ****       dibujo=OFF;
 2366              		.loc 1 558 0
 2367 0ca4 0023     		movs	r3, #0
 2368 0ca6 1E4A     		ldr	r2, .L582+60
 2369 0ca8 1380     		strh	r3, [r2]	@ movhi
 559:main.c        ****       imprime=OFF;
 2370              		.loc 1 559 0
 2371 0caa 1E4A     		ldr	r2, .L582+64
 2372 0cac 1380     		strh	r3, [r2]	@ movhi
 560:main.c        ****       
 561:main.c        ****         if(Rx_Buffer[4]==0x0d){//Tecla Arriba Oprimida
 2373              		.loc 1 561 0
 2374 0cae 0D4B     		ldr	r3, .L582
 2375 0cb0 1B79     		ldrb	r3, [r3, #4]	@ zero_extendqisi2
 2376 0cb2 0D2B     		cmp	r3, #13
 2377 0cb4 0AD1     		bne	.L102
 562:main.c        ****            pulsoAumentar=ON;
 2378              		.loc 1 562 0
 2379 0cb6 0122     		movs	r2, #1
 2380 0cb8 114B     		ldr	r3, .L582+28
 2381 0cba 1A80     		strh	r2, [r3]	@ movhi
 563:main.c        ****            pulsoDisminuir=OFF;
 2382              		.loc 1 563 0
 2383 0cbc 0023     		movs	r3, #0
 2384 0cbe 114A     		ldr	r2, .L582+32
 2385 0cc0 1380     		strh	r3, [r2]	@ movhi
 564:main.c        ****            Rx_Buffer[4]=0x00;  
 2386              		.loc 1 564 0
 2387 0cc2 084A     		ldr	r2, .L582
 2388 0cc4 1371     		strb	r3, [r2, #4]
 565:main.c        ****            Rx_Buffer2[4]=0x00;  
 2389              		.loc 1 565 0
 2390 0cc6 144A     		ldr	r2, .L582+52
 2391 0cc8 1371     		strb	r3, [r2, #4]
 2392 0cca 93E0     		b	.L103
 2393              	.L102:
 566:main.c        ****         }else if(Rx_Buffer[4]==0x0e){//Tecla Arriba Suelta
 2394              		.loc 1 566 0
ARM GAS  C:\Users\USUARIO\AppData\Local\Temp\cc9Uggst.s 			page 53


 2395 0ccc 0E2B     		cmp	r3, #14
 2396 0cce 2BD1     		bne	.L104
 567:main.c        ****            pulsoAumentar=OFF;
 2397              		.loc 1 567 0
 2398 0cd0 0023     		movs	r3, #0
 2399 0cd2 0B4A     		ldr	r2, .L582+28
 2400 0cd4 1380     		strh	r3, [r2]	@ movhi
 568:main.c        ****            pulsoDisminuir=OFF;
 2401              		.loc 1 568 0
 2402 0cd6 0B4A     		ldr	r2, .L582+32
 2403 0cd8 1380     		strh	r3, [r2]	@ movhi
 569:main.c        ****            Rx_Buffer[4]=0x00;  
 2404              		.loc 1 569 0
 2405 0cda 024A     		ldr	r2, .L582
 2406 0cdc 1371     		strb	r3, [r2, #4]
 570:main.c        ****            Rx_Buffer2[4]=0x00;            
 2407              		.loc 1 570 0
 2408 0cde 0E4A     		ldr	r2, .L582+52
 2409 0ce0 1371     		strb	r3, [r2, #4]
 2410 0ce2 87E0     		b	.L103
 2411              	.L583:
 2412              		.align	2
 2413              	.L582:
 2414 0ce4 00000000 		.word	Rx_Buffer
 2415 0ce8 00000000 		.word	Minutos
 2416 0cec 00000000 		.word	Horas
 2417 0cf0 6C010000 		.word	.LC18
 2418 0cf4 00000000 		.word	GuardaEEPROM
 2419 0cf8 00000000 		.word	CicloLibre
 2420 0cfc 00000000 		.word	rampas
 2421 0d00 00000000 		.word	pulsoAumentar
 2422 0d04 00000000 		.word	pulsoDisminuir
 2423 0d08 0000F03F 		.word	1072693248
 2424 0d0c 00000000 		.word	displayStr
 2425 0d10 44010000 		.word	.LC16
 2426 0d14 58010000 		.word	.LC17
 2427 0d18 00000000 		.word	Rx_Buffer2
 2428 0d1c 00000000 		.word	Menu
 2429 0d20 00000000 		.word	dibujo
 2430 0d24 00000000 		.word	imprime
 2431              	.L104:
 571:main.c        ****         }else if(Rx_Buffer[4]==0x0c){//Tecla Abajo Oprimida
 2432              		.loc 1 571 0
 2433 0d28 0C2B     		cmp	r3, #12
 2434 0d2a 0AD1     		bne	.L105
 572:main.c        ****            pulsoDisminuir=ON;
 2435              		.loc 1 572 0
 2436 0d2c 0122     		movs	r2, #1
 2437 0d2e 9A4B     		ldr	r3, .L584+8
 2438 0d30 1A80     		strh	r2, [r3]	@ movhi
 573:main.c        ****             pulsoAumentar=OFF;
 2439              		.loc 1 573 0
 2440 0d32 0023     		movs	r3, #0
 2441 0d34 994A     		ldr	r2, .L584+12
 2442 0d36 1380     		strh	r3, [r2]	@ movhi
 574:main.c        ****            Rx_Buffer[4]=0x00;
 2443              		.loc 1 574 0
ARM GAS  C:\Users\USUARIO\AppData\Local\Temp\cc9Uggst.s 			page 54


 2444 0d38 994A     		ldr	r2, .L584+16
 2445 0d3a 1371     		strb	r3, [r2, #4]
 575:main.c        ****            Rx_Buffer2[4]=0x00;                                   
 2446              		.loc 1 575 0
 2447 0d3c 994A     		ldr	r2, .L584+20
 2448 0d3e 1371     		strb	r3, [r2, #4]
 2449 0d40 58E0     		b	.L103
 2450              	.L105:
 576:main.c        ****         }else if(Rx_Buffer[4]==0x0b){//Tecla Abajo Oprimida
 2451              		.loc 1 576 0
 2452 0d42 0B2B     		cmp	r3, #11
 2453 0d44 09D1     		bne	.L106
 577:main.c        ****            pulsoAumentar=OFF;
 2454              		.loc 1 577 0
 2455 0d46 0023     		movs	r3, #0
 2456 0d48 944A     		ldr	r2, .L584+12
 2457 0d4a 1380     		strh	r3, [r2]	@ movhi
 578:main.c        ****            pulsoDisminuir=OFF;
 2458              		.loc 1 578 0
 2459 0d4c 924A     		ldr	r2, .L584+8
 2460 0d4e 1380     		strh	r3, [r2]	@ movhi
 579:main.c        ****            Rx_Buffer[4]=0x00;
 2461              		.loc 1 579 0
 2462 0d50 934A     		ldr	r2, .L584+16
 2463 0d52 1371     		strb	r3, [r2, #4]
 580:main.c        ****            Rx_Buffer2[4]=0x00;                                   
 2464              		.loc 1 580 0
 2465 0d54 934A     		ldr	r2, .L584+20
 2466 0d56 1371     		strb	r3, [r2, #4]
 2467 0d58 4CE0     		b	.L103
 2468              	.L106:
 581:main.c        ****         }else if(Rx_Buffer[4]==0x20){//Selecciono x1
 2469              		.loc 1 581 0
 2470 0d5a 202B     		cmp	r3, #32
 2471 0d5c 15D1     		bne	.L107
 582:main.c        ****             x1=ON;
 2472              		.loc 1 582 0
 2473 0d5e 0122     		movs	r2, #1
 2474 0d60 914B     		ldr	r3, .L584+24
 2475 0d62 1A80     		strh	r2, [r3]	@ movhi
 583:main.c        ****             x10=OFF;
 2476              		.loc 1 583 0
 2477 0d64 0024     		movs	r4, #0
 2478 0d66 914B     		ldr	r3, .L584+28
 2479 0d68 1C80     		strh	r4, [r3]	@ movhi
 584:main.c        ****             x100=OFF;
 2480              		.loc 1 584 0
 2481 0d6a 914B     		ldr	r3, .L584+32
 2482 0d6c 1C80     		strh	r4, [r3]	@ movhi
 585:main.c        ****             escribeDisplay1("c0.val=1");
 2483              		.loc 1 585 0
 2484 0d6e 9148     		ldr	r0, .L584+36
 2485 0d70 FFF7FEFF 		bl	escribeDisplay1
 2486              	.LVL155:
 586:main.c        ****             escribeDisplay1("c1.val=0");
 2487              		.loc 1 586 0
 2488 0d74 9048     		ldr	r0, .L584+40
ARM GAS  C:\Users\USUARIO\AppData\Local\Temp\cc9Uggst.s 			page 55


 2489 0d76 FFF7FEFF 		bl	escribeDisplay1
 2490              	.LVL156:
 587:main.c        ****             escribeDisplay1("c2.val=0");
 2491              		.loc 1 587 0
 2492 0d7a 9048     		ldr	r0, .L584+44
 2493 0d7c FFF7FEFF 		bl	escribeDisplay1
 2494              	.LVL157:
 588:main.c        ****             Rx_Buffer[4]=0x00;  
 2495              		.loc 1 588 0
 2496 0d80 874B     		ldr	r3, .L584+16
 2497 0d82 1C71     		strb	r4, [r3, #4]
 589:main.c        ****             Rx_Buffer2[4]=0x00;     
 2498              		.loc 1 589 0
 2499 0d84 874B     		ldr	r3, .L584+20
 2500 0d86 1C71     		strb	r4, [r3, #4]
 2501 0d88 34E0     		b	.L103
 2502              	.L107:
 590:main.c        ****         }else if(Rx_Buffer[4]==0x21){//Selecciono x10
 2503              		.loc 1 590 0
 2504 0d8a 212B     		cmp	r3, #33
 2505 0d8c 15D1     		bne	.L108
 591:main.c        ****             x1=OFF;
 2506              		.loc 1 591 0
 2507 0d8e 0024     		movs	r4, #0
 2508 0d90 854B     		ldr	r3, .L584+24
 2509 0d92 1C80     		strh	r4, [r3]	@ movhi
 592:main.c        ****             x10=ON;
 2510              		.loc 1 592 0
 2511 0d94 0122     		movs	r2, #1
 2512 0d96 854B     		ldr	r3, .L584+28
 2513 0d98 1A80     		strh	r2, [r3]	@ movhi
 593:main.c        ****             x100=OFF;
 2514              		.loc 1 593 0
 2515 0d9a 854B     		ldr	r3, .L584+32
 2516 0d9c 1C80     		strh	r4, [r3]	@ movhi
 594:main.c        ****             escribeDisplay1("c0.val=0");
 2517              		.loc 1 594 0
 2518 0d9e 8848     		ldr	r0, .L584+48
 2519 0da0 FFF7FEFF 		bl	escribeDisplay1
 2520              	.LVL158:
 595:main.c        ****             escribeDisplay1("c1.val=1");
 2521              		.loc 1 595 0
 2522 0da4 8748     		ldr	r0, .L584+52
 2523 0da6 FFF7FEFF 		bl	escribeDisplay1
 2524              	.LVL159:
 596:main.c        ****             escribeDisplay1("c2.val=0");
 2525              		.loc 1 596 0
 2526 0daa 8448     		ldr	r0, .L584+44
 2527 0dac FFF7FEFF 		bl	escribeDisplay1
 2528              	.LVL160:
 597:main.c        ****             Rx_Buffer[4]=0x00;  
 2529              		.loc 1 597 0
 2530 0db0 7B4B     		ldr	r3, .L584+16
 2531 0db2 1C71     		strb	r4, [r3, #4]
 598:main.c        ****             Rx_Buffer2[4]=0x00;     
 2532              		.loc 1 598 0
 2533 0db4 7B4B     		ldr	r3, .L584+20
ARM GAS  C:\Users\USUARIO\AppData\Local\Temp\cc9Uggst.s 			page 56


 2534 0db6 1C71     		strb	r4, [r3, #4]
 2535 0db8 1CE0     		b	.L103
 2536              	.L108:
 599:main.c        ****         }else if(Rx_Buffer[4]==0x22){//Selecciono x100
 2537              		.loc 1 599 0
 2538 0dba 222B     		cmp	r3, #34
 2539 0dbc 15D1     		bne	.L109
 600:main.c        ****             x1=OFF;
 2540              		.loc 1 600 0
 2541 0dbe 0024     		movs	r4, #0
 2542 0dc0 794B     		ldr	r3, .L584+24
 2543 0dc2 1C80     		strh	r4, [r3]	@ movhi
 601:main.c        ****             x10=OFF;
 2544              		.loc 1 601 0
 2545 0dc4 794B     		ldr	r3, .L584+28
 2546 0dc6 1C80     		strh	r4, [r3]	@ movhi
 602:main.c        ****             x100=ON;
 2547              		.loc 1 602 0
 2548 0dc8 0122     		movs	r2, #1
 2549 0dca 794B     		ldr	r3, .L584+32
 2550 0dcc 1A80     		strh	r2, [r3]	@ movhi
 603:main.c        ****             escribeDisplay1("c0.val=0");
 2551              		.loc 1 603 0
 2552 0dce 7C48     		ldr	r0, .L584+48
 2553 0dd0 FFF7FEFF 		bl	escribeDisplay1
 2554              	.LVL161:
 604:main.c        ****             escribeDisplay1("c1.val=0");
 2555              		.loc 1 604 0
 2556 0dd4 7848     		ldr	r0, .L584+40
 2557 0dd6 FFF7FEFF 		bl	escribeDisplay1
 2558              	.LVL162:
 605:main.c        ****             escribeDisplay1("c2.val=1");
 2559              		.loc 1 605 0
 2560 0dda 7B48     		ldr	r0, .L584+56
 2561 0ddc FFF7FEFF 		bl	escribeDisplay1
 2562              	.LVL163:
 606:main.c        ****             Rx_Buffer[4]=0x00;  
 2563              		.loc 1 606 0
 2564 0de0 6F4B     		ldr	r3, .L584+16
 2565 0de2 1C71     		strb	r4, [r3, #4]
 607:main.c        ****             Rx_Buffer2[4]=0x00;     
 2566              		.loc 1 607 0
 2567 0de4 6F4B     		ldr	r3, .L584+20
 2568 0de6 1C71     		strb	r4, [r3, #4]
 2569 0de8 04E0     		b	.L103
 2570              	.L109:
 608:main.c        ****         }else{//if(Rx_Buffer[4]!=0x00){
 609:main.c        ****            pulsoAumentar=OFF;
 2571              		.loc 1 609 0
 2572 0dea 0023     		movs	r3, #0
 2573 0dec 6B4A     		ldr	r2, .L584+12
 2574 0dee 1380     		strh	r3, [r2]	@ movhi
 610:main.c        ****            pulsoDisminuir=OFF; 
 2575              		.loc 1 610 0
 2576 0df0 694A     		ldr	r2, .L584+8
 2577 0df2 1380     		strh	r3, [r2]	@ movhi
 2578              	.L103:
ARM GAS  C:\Users\USUARIO\AppData\Local\Temp\cc9Uggst.s 			page 57


 611:main.c        ****         }
 612:main.c        ****         
 613:main.c        ****       sprintf(displayStr,"fecha.txt=\"Fecha:%02u/%02u/20%02u    Hora: %02u:%02u:%02u\"",Dia,Mes,Yea
 2579              		.loc 1 613 0
 2580 0df4 754B     		ldr	r3, .L584+60
 2581 0df6 1B78     		ldrb	r3, [r3]	@ zero_extendqisi2
 2582 0df8 754A     		ldr	r2, .L584+64
 2583 0dfa 1278     		ldrb	r2, [r2]	@ zero_extendqisi2
 2584 0dfc 754C     		ldr	r4, .L584+68
 2585 0dfe 7649     		ldr	r1, .L584+72
 2586 0e00 0978     		ldrb	r1, [r1]	@ zero_extendqisi2
 2587 0e02 0391     		str	r1, [sp, #12]
 2588 0e04 7549     		ldr	r1, .L584+76
 2589 0e06 0978     		ldrb	r1, [r1]	@ zero_extendqisi2
 2590 0e08 0291     		str	r1, [sp, #8]
 2591 0e0a 7549     		ldr	r1, .L584+80
 2592 0e0c 0978     		ldrb	r1, [r1]	@ zero_extendqisi2
 2593 0e0e 0191     		str	r1, [sp, #4]
 2594 0e10 7449     		ldr	r1, .L584+84
 2595 0e12 0978     		ldrb	r1, [r1]	@ zero_extendqisi2
 2596 0e14 0091     		str	r1, [sp]
 2597 0e16 7449     		ldr	r1, .L584+88
 2598 0e18 2046     		mov	r0, r4
 2599 0e1a FFF7FEFF 		bl	sprintf
 2600              	.LVL164:
 614:main.c        ****       escribeDisplay1(displayStr);
 2601              		.loc 1 614 0
 2602 0e1e 2046     		mov	r0, r4
 2603 0e20 FFF7FEFF 		bl	escribeDisplay1
 2604              	.LVL165:
 615:main.c        ****       
 616:main.c        ****       if(!rampa){
 2605              		.loc 1 616 0
 2606 0e24 714B     		ldr	r3, .L584+92
 2607 0e26 B3F90030 		ldrsh	r3, [r3]
 2608 0e2a 002B     		cmp	r3, #0
 2609 0e2c 40F01B81 		bne	.L110
 617:main.c        ****          sprintf(displayStr,"tsettem.txt=\"%2.1f\"",Setpoint);
 2610              		.loc 1 617 0
 2611 0e30 6F4B     		ldr	r3, .L584+96
 2612 0e32 1868     		ldr	r0, [r3]	@ float
 2613 0e34 FFF7FEFF 		bl	__aeabi_f2d
 2614              	.LVL166:
 2615 0e38 0246     		mov	r2, r0
 2616 0e3a 0B46     		mov	r3, r1
 2617 0e3c 6D49     		ldr	r1, .L584+100
 2618 0e3e 2046     		mov	r0, r4
 2619 0e40 FFF7FEFF 		bl	sprintf
 2620              	.LVL167:
 618:main.c        ****          escribeDisplay1(displayStr);
 2621              		.loc 1 618 0
 2622 0e44 2046     		mov	r0, r4
 2623 0e46 FFF7FEFF 		bl	escribeDisplay1
 2624              	.LVL168:
 619:main.c        ****          
 620:main.c        ****          if(Rx_Buffer[4]==0x11){//Selecciono Regresar
 2625              		.loc 1 620 0
ARM GAS  C:\Users\USUARIO\AppData\Local\Temp\cc9Uggst.s 			page 58


 2626 0e4a 554B     		ldr	r3, .L584+16
 2627 0e4c 1B79     		ldrb	r3, [r3, #4]	@ zero_extendqisi2
 2628 0e4e 112B     		cmp	r3, #17
 2629 0e50 4FD1     		bne	.L111
 621:main.c        ****             Horas=OFF;
 2630              		.loc 1 621 0
 2631 0e52 0023     		movs	r3, #0
 2632 0e54 684A     		ldr	r2, .L584+104
 2633 0e56 1380     		strh	r3, [r2]	@ movhi
 622:main.c        ****             Minutos=OFF;
 2634              		.loc 1 622 0
 2635 0e58 684A     		ldr	r2, .L584+108
 2636 0e5a 1380     		strh	r3, [r2]	@ movhi
 623:main.c        ****             escribeDisplay1("page Principal");  
 2637              		.loc 1 623 0
 2638 0e5c 6848     		ldr	r0, .L584+112
 2639 0e5e FFF7FEFF 		bl	escribeDisplay1
 2640              	.LVL169:
 624:main.c        ****             if(!GuardaEEPROM){
 2641              		.loc 1 624 0
 2642 0e62 684B     		ldr	r3, .L584+116
 2643 0e64 B3F90030 		ldrsh	r3, [r3]
 2644 0e68 9BB9     		cbnz	r3, .L112
 625:main.c        ****                EEPROM_WriteByte((int8)Setpoint,2);
 2645              		.loc 1 625 0
 2646 0e6a 614C     		ldr	r4, .L584+96
 2647 0e6c 2068     		ldr	r0, [r4]	@ float
 2648 0e6e FFF7FEFF 		bl	__aeabi_f2iz
 2649              	.LVL170:
 2650 0e72 0221     		movs	r1, #2
 2651 0e74 C0B2     		uxtb	r0, r0
 2652 0e76 FFF7FEFF 		bl	EEPROM_WriteByte
 2653              	.LVL171:
 626:main.c        ****                EEPROM_WriteByte(extraeDecimal(Setpoint),3);
 2654              		.loc 1 626 0
 2655 0e7a 2068     		ldr	r0, [r4]	@ float
 2656 0e7c FFF7FEFF 		bl	extraeDecimal
 2657              	.LVL172:
 2658 0e80 0321     		movs	r1, #3
 2659 0e82 FFF7FEFF 		bl	EEPROM_WriteByte
 2660              	.LVL173:
 627:main.c        ****                CyDelay(10);
 2661              		.loc 1 627 0
 2662 0e86 0A20     		movs	r0, #10
 2663 0e88 FFF7FEFF 		bl	CyDelay
 2664              	.LVL174:
 628:main.c        ****                GuardaEEPROM=ON;
 2665              		.loc 1 628 0
 2666 0e8c 0122     		movs	r2, #1
 2667 0e8e 5D4B     		ldr	r3, .L584+116
 2668 0e90 1A80     		strh	r2, [r3]	@ movhi
 2669              	.L112:
 629:main.c        ****             }
 630:main.c        ****             pulsoAumentar=OFF;
 2670              		.loc 1 630 0
 2671 0e92 0023     		movs	r3, #0
 2672 0e94 414A     		ldr	r2, .L584+12
ARM GAS  C:\Users\USUARIO\AppData\Local\Temp\cc9Uggst.s 			page 59


 2673 0e96 1380     		strh	r3, [r2]	@ movhi
 631:main.c        ****             pulsoDisminuir=OFF;            
 2674              		.loc 1 631 0
 2675 0e98 3F4A     		ldr	r2, .L584+8
 2676 0e9a 1380     		strh	r3, [r2]	@ movhi
 632:main.c        ****             if(Setpoint<Temperatura){
 2677              		.loc 1 632 0
 2678 0e9c 544B     		ldr	r3, .L584+96
 2679 0e9e 1C68     		ldr	r4, [r3]	@ float
 2680 0ea0 594B     		ldr	r3, .L584+120
 2681 0ea2 1968     		ldr	r1, [r3]	@ float
 2682 0ea4 2046     		mov	r0, r4
 2683 0ea6 FFF7FEFF 		bl	__aeabi_fcmplt
 2684              	.LVL175:
 2685 0eaa 88B1     		cbz	r0, .L570
 633:main.c        ****                Enfria=1;
 2686              		.loc 1 633 0
 2687 0eac 0122     		movs	r2, #1
 2688 0eae 574B     		ldr	r3, .L584+124
 2689 0eb0 1A80     		strh	r2, [r3]	@ movhi
 634:main.c        ****                Ganancia=GananciaR*(Setpoint/200);               
 2690              		.loc 1 634 0
 2691 0eb2 5749     		ldr	r1, .L584+128
 2692 0eb4 2046     		mov	r0, r4
 2693 0eb6 FFF7FEFF 		bl	__aeabi_fdiv
 2694              	.LVL176:
 2695 0eba 0446     		mov	r4, r0
 2696 0ebc 554B     		ldr	r3, .L584+132
 2697 0ebe 1878     		ldrb	r0, [r3]	@ zero_extendqisi2
 2698 0ec0 FFF7FEFF 		bl	__aeabi_i2f
 2699              	.LVL177:
 2700 0ec4 2146     		mov	r1, r4
 2701 0ec6 FFF7FEFF 		bl	__aeabi_fmul
 2702              	.LVL178:
 2703 0eca 534B     		ldr	r3, .L584+136
 2704 0ecc 1860     		str	r0, [r3]	@ float
 2705 0ece 10E0     		b	.L111
 2706              	.L570:
 635:main.c        ****             }else{
 636:main.c        ****                Enfria=0;
 2707              		.loc 1 636 0
 2708 0ed0 0022     		movs	r2, #0
 2709 0ed2 4E4B     		ldr	r3, .L584+124
 2710 0ed4 1A80     		strh	r2, [r3]	@ movhi
 637:main.c        ****                Ganancia=GananciaR*(Setpoint/200);
 2711              		.loc 1 637 0
 2712 0ed6 4E49     		ldr	r1, .L584+128
 2713 0ed8 2046     		mov	r0, r4
 2714 0eda FFF7FEFF 		bl	__aeabi_fdiv
 2715              	.LVL179:
 2716 0ede 0446     		mov	r4, r0
 2717 0ee0 4C4B     		ldr	r3, .L584+132
 2718 0ee2 1878     		ldrb	r0, [r3]	@ zero_extendqisi2
 2719 0ee4 FFF7FEFF 		bl	__aeabi_i2f
 2720              	.LVL180:
 2721 0ee8 2146     		mov	r1, r4
 2722 0eea FFF7FEFF 		bl	__aeabi_fmul
ARM GAS  C:\Users\USUARIO\AppData\Local\Temp\cc9Uggst.s 			page 60


 2723              	.LVL181:
 2724 0eee 4A4B     		ldr	r3, .L584+136
 2725 0ef0 1860     		str	r0, [r3]	@ float
 2726              	.L111:
 638:main.c        ****             }
 639:main.c        ****          }
 640:main.c        ****          
 641:main.c        ****         if(pulsoAumentar){
 2727              		.loc 1 641 0
 2728 0ef2 2A4B     		ldr	r3, .L584+12
 2729 0ef4 B3F90030 		ldrsh	r3, [r3]
 2730 0ef8 33B3     		cbz	r3, .L115
 642:main.c        ****             if(x1)
 2731              		.loc 1 642 0
 2732 0efa 2B4B     		ldr	r3, .L584+24
 2733 0efc B3F90030 		ldrsh	r3, [r3]
 2734 0f00 63B1     		cbz	r3, .L116
 643:main.c        ****                 Setpoint+=0.1;    
 2735              		.loc 1 643 0
 2736 0f02 3B4C     		ldr	r4, .L584+96
 2737 0f04 2068     		ldr	r0, [r4]	@ float
 2738 0f06 FFF7FEFF 		bl	__aeabi_f2d
 2739              	.LVL182:
 2740 0f0a 21A3     		adr	r3, .L584
 2741 0f0c D3E90023 		ldrd	r2, [r3]
 2742 0f10 FFF7FEFF 		bl	__aeabi_dadd
 2743              	.LVL183:
 2744 0f14 FFF7FEFF 		bl	__aeabi_d2f
 2745              	.LVL184:
 2746 0f18 2060     		str	r0, [r4]	@ float
 2747 0f1a 15E0     		b	.L115
 2748              	.L116:
 644:main.c        ****             else if(x10)    
 2749              		.loc 1 644 0
 2750 0f1c 234B     		ldr	r3, .L584+28
 2751 0f1e B3F90030 		ldrsh	r3, [r3]
 2752 0f22 3BB1     		cbz	r3, .L117
 645:main.c        ****                 Setpoint+=1;    
 2753              		.loc 1 645 0
 2754 0f24 324C     		ldr	r4, .L584+96
 2755 0f26 4FF07E51 		mov	r1, #1065353216
 2756 0f2a 2068     		ldr	r0, [r4]	@ float
 2757 0f2c FFF7FEFF 		bl	__aeabi_fadd
 2758              	.LVL185:
 2759 0f30 2060     		str	r0, [r4]	@ float
 2760 0f32 09E0     		b	.L115
 2761              	.L117:
 646:main.c        ****             else if(x100)    
 2762              		.loc 1 646 0
 2763 0f34 1E4B     		ldr	r3, .L584+32
 2764 0f36 B3F90030 		ldrsh	r3, [r3]
 2765 0f3a 2BB1     		cbz	r3, .L115
 647:main.c        ****                 Setpoint+=10;             
 2766              		.loc 1 647 0
 2767 0f3c 2C4C     		ldr	r4, .L584+96
 2768 0f3e 3749     		ldr	r1, .L584+140
 2769 0f40 2068     		ldr	r0, [r4]	@ float
ARM GAS  C:\Users\USUARIO\AppData\Local\Temp\cc9Uggst.s 			page 61


 2770 0f42 FFF7FEFF 		bl	__aeabi_fadd
 2771              	.LVL186:
 2772 0f46 2060     		str	r0, [r4]	@ float
 2773              	.L115:
 648:main.c        ****         }
 649:main.c        ****         
 650:main.c        ****         if(pulsoDisminuir){
 2774              		.loc 1 650 0
 2775 0f48 134B     		ldr	r3, .L584+8
 2776 0f4a B3F90030 		ldrsh	r3, [r3]
 2777 0f4e 002B     		cmp	r3, #0
 2778 0f50 70D0     		beq	.L118
 651:main.c        ****             if(x1)
 2779              		.loc 1 651 0
 2780 0f52 154B     		ldr	r3, .L584+24
 2781 0f54 B3F90030 		ldrsh	r3, [r3]
 2782 0f58 63B1     		cbz	r3, .L119
 652:main.c        ****                 Setpoint-=0.1;    
 2783              		.loc 1 652 0
 2784 0f5a 254C     		ldr	r4, .L584+96
 2785 0f5c 2068     		ldr	r0, [r4]	@ float
 2786 0f5e FFF7FEFF 		bl	__aeabi_f2d
 2787              	.LVL187:
 2788 0f62 0BA3     		adr	r3, .L584
 2789 0f64 D3E90023 		ldrd	r2, [r3]
 2790 0f68 FFF7FEFF 		bl	__aeabi_dsub
 2791              	.LVL188:
 2792 0f6c FFF7FEFF 		bl	__aeabi_d2f
 2793              	.LVL189:
 2794 0f70 2060     		str	r0, [r4]	@ float
 2795 0f72 5FE0     		b	.L118
 2796              	.L119:
 653:main.c        ****             else if(x10)    
 2797              		.loc 1 653 0
 2798 0f74 0D4B     		ldr	r3, .L584+28
 2799 0f76 B3F90030 		ldrsh	r3, [r3]
 2800 0f7a 002B     		cmp	r3, #0
 2801 0f7c 50D0     		beq	.L120
 654:main.c        ****                 Setpoint-=1;    
 2802              		.loc 1 654 0
 2803 0f7e 1C4C     		ldr	r4, .L584+96
 2804 0f80 4FF07E51 		mov	r1, #1065353216
 2805 0f84 2068     		ldr	r0, [r4]	@ float
 2806 0f86 FFF7FEFF 		bl	__aeabi_fsub
 2807              	.LVL190:
 2808 0f8a 2060     		str	r0, [r4]	@ float
 2809 0f8c 52E0     		b	.L118
 2810              	.L585:
 2811 0f8e 00BF     		.align	3
 2812              	.L584:
 2813 0f90 9A999999 		.word	-1717986918
 2814 0f94 9999B93F 		.word	1069128089
 2815 0f98 00000000 		.word	pulsoDisminuir
 2816 0f9c 00000000 		.word	pulsoAumentar
 2817 0fa0 00000000 		.word	Rx_Buffer
 2818 0fa4 00000000 		.word	Rx_Buffer2
 2819 0fa8 00000000 		.word	x1
ARM GAS  C:\Users\USUARIO\AppData\Local\Temp\cc9Uggst.s 			page 62


 2820 0fac 00000000 		.word	x10
 2821 0fb0 00000000 		.word	x100
 2822 0fb4 78010000 		.word	.LC19
 2823 0fb8 84010000 		.word	.LC20
 2824 0fbc 90010000 		.word	.LC21
 2825 0fc0 9C010000 		.word	.LC22
 2826 0fc4 A8010000 		.word	.LC23
 2827 0fc8 B4010000 		.word	.LC24
 2828 0fcc 00000000 		.word	Mes
 2829 0fd0 00000000 		.word	Dia
 2830 0fd4 00000000 		.word	displayStr
 2831 0fd8 00000000 		.word	Segundo
 2832 0fdc 00000000 		.word	Minuto
 2833 0fe0 00000000 		.word	Hora
 2834 0fe4 00000000 		.word	Year
 2835 0fe8 08010000 		.word	.LC15
 2836 0fec 00000000 		.word	rampa
 2837 0ff0 00000000 		.word	Setpoint
 2838 0ff4 C0010000 		.word	.LC25
 2839 0ff8 00000000 		.word	Horas
 2840 0ffc 00000000 		.word	Minutos
 2841 1000 18000000 		.word	.LC2
 2842 1004 00000000 		.word	GuardaEEPROM
 2843 1008 00000000 		.word	Temperatura
 2844 100c 00000000 		.word	Enfria
 2845 1010 00004843 		.word	1128792064
 2846 1014 00000000 		.word	GananciaR
 2847 1018 00000000 		.word	Ganancia
 2848 101c 00002041 		.word	1092616192
 2849              	.L120:
 655:main.c        ****             else if(x100)    
 2850              		.loc 1 655 0
 2851 1020 914B     		ldr	r3, .L586+8
 2852 1022 B3F90030 		ldrsh	r3, [r3]
 2853 1026 2BB1     		cbz	r3, .L118
 656:main.c        ****                 Setpoint-=10;            
 2854              		.loc 1 656 0
 2855 1028 904C     		ldr	r4, .L586+12
 2856 102a 9149     		ldr	r1, .L586+16
 2857 102c 2068     		ldr	r0, [r4]	@ float
 2858 102e FFF7FEFF 		bl	__aeabi_fsub
 2859              	.LVL191:
 2860 1032 2060     		str	r0, [r4]	@ float
 2861              	.L118:
 657:main.c        ****         }
 658:main.c        ****          
 659:main.c        ****         if(Setpoint<0.1)
 2862              		.loc 1 659 0
 2863 1034 8D4B     		ldr	r3, .L586+12
 2864 1036 1868     		ldr	r0, [r3]	@ float
 2865 1038 FFF7FEFF 		bl	__aeabi_f2d
 2866              	.LVL192:
 2867 103c 88A3     		adr	r3, .L586
 2868 103e D3E90023 		ldrd	r2, [r3]
 2869 1042 FFF7FEFF 		bl	__aeabi_dcmplt
 2870              	.LVL193:
 2871 1046 10B1     		cbz	r0, .L121
ARM GAS  C:\Users\USUARIO\AppData\Local\Temp\cc9Uggst.s 			page 63


 660:main.c        ****             Setpoint=60.0;
 2872              		.loc 1 660 0
 2873 1048 8A4A     		ldr	r2, .L586+20
 2874 104a 884B     		ldr	r3, .L586+12
 2875 104c 1A60     		str	r2, [r3]	@ float
 2876              	.L121:
 661:main.c        ****          if(Setpoint>60.0)
 2877              		.loc 1 661 0
 2878 104e 8949     		ldr	r1, .L586+20
 2879 1050 864B     		ldr	r3, .L586+12
 2880 1052 1868     		ldr	r0, [r3]	@ float
 2881 1054 FFF7FEFF 		bl	__aeabi_fcmpgt
 2882              	.LVL194:
 2883 1058 0028     		cmp	r0, #0
 2884 105a 00F07181 		beq	.L101
 662:main.c        ****             Setpoint=0.1;
 2885              		.loc 1 662 0
 2886 105e 864A     		ldr	r2, .L586+24
 2887 1060 824B     		ldr	r3, .L586+12
 2888 1062 1A60     		str	r2, [r3]	@ float
 2889 1064 6CE1     		b	.L101
 2890              	.L110:
 663:main.c        ****       }else{
 664:main.c        ****          sprintf(displayStr,"tsettem.txt=\"%2.1f\"",rampas[CicloLibre-1].Temperatura);
 2891              		.loc 1 664 0
 2892 1066 854B     		ldr	r3, .L586+28
 2893 1068 1B78     		ldrb	r3, [r3]	@ zero_extendqisi2
 2894 106a 013B     		subs	r3, r3, #1
 2895 106c 03EB4303 		add	r3, r3, r3, lsl #1
 2896 1070 9A00     		lsls	r2, r3, #2
 2897 1072 834B     		ldr	r3, .L586+32
 2898 1074 1A44     		add	r2, r2, r3
 2899 1076 9068     		ldr	r0, [r2, #8]	@ float
 2900 1078 FFF7FEFF 		bl	__aeabi_f2d
 2901              	.LVL195:
 2902 107c 814C     		ldr	r4, .L586+36
 2903 107e 0246     		mov	r2, r0
 2904 1080 0B46     		mov	r3, r1
 2905 1082 8149     		ldr	r1, .L586+40
 2906 1084 2046     		mov	r0, r4
 2907 1086 FFF7FEFF 		bl	sprintf
 2908              	.LVL196:
 665:main.c        ****          escribeDisplay1(displayStr);
 2909              		.loc 1 665 0
 2910 108a 2046     		mov	r0, r4
 2911 108c FFF7FEFF 		bl	escribeDisplay1
 2912              	.LVL197:
 666:main.c        ****                     
 667:main.c        ****          if(Rx_Buffer[4]==0x11){//Selecciono Regresar
 2913              		.loc 1 667 0
 2914 1090 7E4B     		ldr	r3, .L586+44
 2915 1092 1B79     		ldrb	r3, [r3, #4]	@ zero_extendqisi2
 2916 1094 112B     		cmp	r3, #17
 2917 1096 6ED1     		bne	.L124
 668:main.c        ****             n=0;
 2918              		.loc 1 668 0
 2919 1098 0023     		movs	r3, #0
ARM GAS  C:\Users\USUARIO\AppData\Local\Temp\cc9Uggst.s 			page 64


 2920 109a 7D4A     		ldr	r2, .L586+48
 2921 109c 1370     		strb	r3, [r2]
 669:main.c        ****             conteo=0;
 2922              		.loc 1 669 0
 2923 109e 7D4A     		ldr	r2, .L586+52
 2924 10a0 1370     		strb	r3, [r2]
 670:main.c        ****             Horas=OFF;
 2925              		.loc 1 670 0
 2926 10a2 7D4A     		ldr	r2, .L586+56
 2927 10a4 1380     		strh	r3, [r2]	@ movhi
 671:main.c        ****             Minutos=OFF;
 2928              		.loc 1 671 0
 2929 10a6 7D4A     		ldr	r2, .L586+60
 2930 10a8 1380     		strh	r3, [r2]	@ movhi
 672:main.c        ****             escribeDisplay1("page Rampas");
 2931              		.loc 1 672 0
 2932 10aa 7D48     		ldr	r0, .L586+64
 2933 10ac FFF7FEFF 		bl	escribeDisplay1
 2934              	.LVL198:
 673:main.c        ****             if(!GuardaEEPROM){
 2935              		.loc 1 673 0
 2936 10b0 7C4B     		ldr	r3, .L586+68
 2937 10b2 B3F90030 		ldrsh	r3, [r3]
 2938 10b6 73BB     		cbnz	r3, .L125
 674:main.c        ****                EEPROM_WriteByte((uint8)rampas[CicloLibre-1].Temperatura,100+((CicloLibre-1)*5));
 2939              		.loc 1 674 0
 2940 10b8 704D     		ldr	r5, .L586+28
 2941 10ba 2B78     		ldrb	r3, [r5]	@ zero_extendqisi2
 2942 10bc 013B     		subs	r3, r3, #1
 2943 10be 704E     		ldr	r6, .L586+32
 2944 10c0 03EB4301 		add	r1, r3, r3, lsl #1
 2945 10c4 8A00     		lsls	r2, r1, #2
 2946 10c6 3244     		add	r2, r2, r6
 2947 10c8 03EB8303 		add	r3, r3, r3, lsl #2
 2948 10cc 03F16404 		add	r4, r3, #100
 2949 10d0 A4B2     		uxth	r4, r4
 2950 10d2 9068     		ldr	r0, [r2, #8]	@ float
 2951 10d4 FFF7FEFF 		bl	__aeabi_f2uiz
 2952              	.LVL199:
 2953 10d8 2146     		mov	r1, r4
 2954 10da C0B2     		uxtb	r0, r0
 2955 10dc FFF7FEFF 		bl	EEPROM_WriteByte
 2956              	.LVL200:
 675:main.c        ****                CyDelay(10);
 2957              		.loc 1 675 0
 2958 10e0 0A20     		movs	r0, #10
 2959 10e2 FFF7FEFF 		bl	CyDelay
 2960              	.LVL201:
 676:main.c        ****                EEPROM_WriteByte(extraeDecimal(rampas[CicloLibre-1].Temperatura),101+((CicloLibre-1)
 2961              		.loc 1 676 0
 2962 10e6 2B78     		ldrb	r3, [r5]	@ zero_extendqisi2
 2963 10e8 013B     		subs	r3, r3, #1
 2964 10ea 03EB4303 		add	r3, r3, r3, lsl #1
 2965 10ee 9A00     		lsls	r2, r3, #2
 2966 10f0 3244     		add	r2, r2, r6
 2967 10f2 9068     		ldr	r0, [r2, #8]	@ float
 2968 10f4 FFF7FEFF 		bl	extraeDecimal
ARM GAS  C:\Users\USUARIO\AppData\Local\Temp\cc9Uggst.s 			page 65


 2969              	.LVL202:
 2970 10f8 2B78     		ldrb	r3, [r5]	@ zero_extendqisi2
 2971 10fa 013B     		subs	r3, r3, #1
 2972 10fc 03EB8303 		add	r3, r3, r3, lsl #2
 2973 1100 03F16501 		add	r1, r3, #101
 2974 1104 89B2     		uxth	r1, r1
 2975 1106 FFF7FEFF 		bl	EEPROM_WriteByte
 2976              	.LVL203:
 677:main.c        ****                CyDelay(10);
 2977              		.loc 1 677 0
 2978 110a 0A20     		movs	r0, #10
 2979 110c FFF7FEFF 		bl	CyDelay
 2980              	.LVL204:
 678:main.c        ****                GuardaEEPROM=ON;
 2981              		.loc 1 678 0
 2982 1110 0122     		movs	r2, #1
 2983 1112 644B     		ldr	r3, .L586+68
 2984 1114 1A80     		strh	r2, [r3]	@ movhi
 2985              	.L125:
 679:main.c        ****             }
 680:main.c        ****             pulsoAumentar=OFF;
 2986              		.loc 1 680 0
 2987 1116 0023     		movs	r3, #0
 2988 1118 634A     		ldr	r2, .L586+72
 2989 111a 1380     		strh	r3, [r2]	@ movhi
 681:main.c        ****             pulsoDisminuir=OFF;
 2990              		.loc 1 681 0
 2991 111c 634A     		ldr	r2, .L586+76
 2992 111e 1380     		strh	r3, [r2]	@ movhi
 682:main.c        ****             if(Setpoint<Temperatura){
 2993              		.loc 1 682 0
 2994 1120 524B     		ldr	r3, .L586+12
 2995 1122 1C68     		ldr	r4, [r3]	@ float
 2996 1124 624B     		ldr	r3, .L586+80
 2997 1126 1968     		ldr	r1, [r3]	@ float
 2998 1128 2046     		mov	r0, r4
 2999 112a FFF7FEFF 		bl	__aeabi_fcmplt
 3000              	.LVL205:
 3001 112e 88B1     		cbz	r0, .L571
 683:main.c        ****                Enfria=1;
 3002              		.loc 1 683 0
 3003 1130 0122     		movs	r2, #1
 3004 1132 604B     		ldr	r3, .L586+84
 3005 1134 1A80     		strh	r2, [r3]	@ movhi
 684:main.c        ****                Ganancia=GananciaR*(Setpoint/200);               
 3006              		.loc 1 684 0
 3007 1136 6049     		ldr	r1, .L586+88
 3008 1138 2046     		mov	r0, r4
 3009 113a FFF7FEFF 		bl	__aeabi_fdiv
 3010              	.LVL206:
 3011 113e 0446     		mov	r4, r0
 3012 1140 5E4B     		ldr	r3, .L586+92
 3013 1142 1878     		ldrb	r0, [r3]	@ zero_extendqisi2
 3014 1144 FFF7FEFF 		bl	__aeabi_i2f
 3015              	.LVL207:
 3016 1148 2146     		mov	r1, r4
 3017 114a FFF7FEFF 		bl	__aeabi_fmul
ARM GAS  C:\Users\USUARIO\AppData\Local\Temp\cc9Uggst.s 			page 66


 3018              	.LVL208:
 3019 114e 5C4B     		ldr	r3, .L586+96
 3020 1150 1860     		str	r0, [r3]	@ float
 3021 1152 10E0     		b	.L124
 3022              	.L571:
 685:main.c        ****             }else{
 686:main.c        ****                Enfria=0;
 3023              		.loc 1 686 0
 3024 1154 0022     		movs	r2, #0
 3025 1156 574B     		ldr	r3, .L586+84
 3026 1158 1A80     		strh	r2, [r3]	@ movhi
 687:main.c        ****                Ganancia=GananciaR*(Setpoint/200);
 3027              		.loc 1 687 0
 3028 115a 5749     		ldr	r1, .L586+88
 3029 115c 2046     		mov	r0, r4
 3030 115e FFF7FEFF 		bl	__aeabi_fdiv
 3031              	.LVL209:
 3032 1162 0446     		mov	r4, r0
 3033 1164 554B     		ldr	r3, .L586+92
 3034 1166 1878     		ldrb	r0, [r3]	@ zero_extendqisi2
 3035 1168 FFF7FEFF 		bl	__aeabi_i2f
 3036              	.LVL210:
 3037 116c 2146     		mov	r1, r4
 3038 116e FFF7FEFF 		bl	__aeabi_fmul
 3039              	.LVL211:
 3040 1172 534B     		ldr	r3, .L586+96
 3041 1174 1860     		str	r0, [r3]	@ float
 3042              	.L124:
 688:main.c        ****             }
 689:main.c        ****          }
 690:main.c        ****         
 691:main.c        ****         if(pulsoAumentar){
 3043              		.loc 1 691 0
 3044 1176 4C4B     		ldr	r3, .L586+72
 3045 1178 B3F90030 		ldrsh	r3, [r3]
 3046 117c 002B     		cmp	r3, #0
 3047 117e 3BD0     		beq	.L128
 692:main.c        ****             if(x1)
 3048              		.loc 1 692 0
 3049 1180 504B     		ldr	r3, .L586+100
 3050 1182 B3F90030 		ldrsh	r3, [r3]
 3051 1186 9BB1     		cbz	r3, .L129
 693:main.c        ****                 rampas[CicloLibre-1].Temperatura+=0.1;    
 3052              		.loc 1 693 0
 3053 1188 3C4B     		ldr	r3, .L586+28
 3054 118a 1B78     		ldrb	r3, [r3]	@ zero_extendqisi2
 3055 118c 013B     		subs	r3, r3, #1
 3056 118e 3C49     		ldr	r1, .L586+32
 3057 1190 5800     		lsls	r0, r3, #1
 3058 1192 C418     		adds	r4, r0, r3
 3059 1194 A200     		lsls	r2, r4, #2
 3060 1196 8C18     		adds	r4, r1, r2
 3061 1198 A068     		ldr	r0, [r4, #8]	@ float
 3062 119a FFF7FEFF 		bl	__aeabi_f2d
 3063              	.LVL212:
 3064 119e 30A3     		adr	r3, .L586
 3065 11a0 D3E90023 		ldrd	r2, [r3]
ARM GAS  C:\Users\USUARIO\AppData\Local\Temp\cc9Uggst.s 			page 67


 3066 11a4 FFF7FEFF 		bl	__aeabi_dadd
 3067              	.LVL213:
 3068 11a8 FFF7FEFF 		bl	__aeabi_d2f
 3069              	.LVL214:
 3070 11ac A060     		str	r0, [r4, #8]	@ float
 3071 11ae 23E0     		b	.L128
 3072              	.L129:
 694:main.c        ****             else if(x10)    
 3073              		.loc 1 694 0
 3074 11b0 454B     		ldr	r3, .L586+104
 3075 11b2 B3F90030 		ldrsh	r3, [r3]
 3076 11b6 73B1     		cbz	r3, .L130
 695:main.c        ****                 rampas[CicloLibre-1].Temperatura+=1;    
 3077              		.loc 1 695 0
 3078 11b8 304B     		ldr	r3, .L586+28
 3079 11ba 1B78     		ldrb	r3, [r3]	@ zero_extendqisi2
 3080 11bc 013B     		subs	r3, r3, #1
 3081 11be 3049     		ldr	r1, .L586+32
 3082 11c0 5800     		lsls	r0, r3, #1
 3083 11c2 C418     		adds	r4, r0, r3
 3084 11c4 A200     		lsls	r2, r4, #2
 3085 11c6 8C18     		adds	r4, r1, r2
 3086 11c8 4FF07E51 		mov	r1, #1065353216
 3087 11cc A068     		ldr	r0, [r4, #8]	@ float
 3088 11ce FFF7FEFF 		bl	__aeabi_fadd
 3089              	.LVL215:
 3090 11d2 A060     		str	r0, [r4, #8]	@ float
 3091 11d4 10E0     		b	.L128
 3092              	.L130:
 696:main.c        ****             else if(x100)    
 3093              		.loc 1 696 0
 3094 11d6 244B     		ldr	r3, .L586+8
 3095 11d8 B3F90030 		ldrsh	r3, [r3]
 3096 11dc 63B1     		cbz	r3, .L128
 697:main.c        ****                 rampas[CicloLibre-1].Temperatura+=10;
 3097              		.loc 1 697 0
 3098 11de 274B     		ldr	r3, .L586+28
 3099 11e0 1B78     		ldrb	r3, [r3]	@ zero_extendqisi2
 3100 11e2 013B     		subs	r3, r3, #1
 3101 11e4 2649     		ldr	r1, .L586+32
 3102 11e6 5800     		lsls	r0, r3, #1
 3103 11e8 C418     		adds	r4, r0, r3
 3104 11ea A200     		lsls	r2, r4, #2
 3105 11ec 8C18     		adds	r4, r1, r2
 3106 11ee 2049     		ldr	r1, .L586+16
 3107 11f0 A068     		ldr	r0, [r4, #8]	@ float
 3108 11f2 FFF7FEFF 		bl	__aeabi_fadd
 3109              	.LVL216:
 3110 11f6 A060     		str	r0, [r4, #8]	@ float
 3111              	.L128:
 698:main.c        ****                 
 699:main.c        ****         }
 700:main.c        ****         
 701:main.c        ****         if(pulsoDisminuir){
 3112              		.loc 1 701 0
 3113 11f8 2C4B     		ldr	r3, .L586+76
 3114 11fa B3F90030 		ldrsh	r3, [r3]
ARM GAS  C:\Users\USUARIO\AppData\Local\Temp\cc9Uggst.s 			page 68


 3115 11fe 002B     		cmp	r3, #0
 3116 1200 75D0     		beq	.L131
 702:main.c        ****             if(x1)
 3117              		.loc 1 702 0
 3118 1202 304B     		ldr	r3, .L586+100
 3119 1204 B3F90030 		ldrsh	r3, [r3]
 3120 1208 9BB1     		cbz	r3, .L132
 703:main.c        ****                 rampas[CicloLibre-1].Temperatura-=0.1;    
 3121              		.loc 1 703 0
 3122 120a 1C4B     		ldr	r3, .L586+28
 3123 120c 1B78     		ldrb	r3, [r3]	@ zero_extendqisi2
 3124 120e 013B     		subs	r3, r3, #1
 3125 1210 1B49     		ldr	r1, .L586+32
 3126 1212 5800     		lsls	r0, r3, #1
 3127 1214 C418     		adds	r4, r0, r3
 3128 1216 A200     		lsls	r2, r4, #2
 3129 1218 8C18     		adds	r4, r1, r2
 3130 121a A068     		ldr	r0, [r4, #8]	@ float
 3131 121c FFF7FEFF 		bl	__aeabi_f2d
 3132              	.LVL217:
 3133 1220 0FA3     		adr	r3, .L586
 3134 1222 D3E90023 		ldrd	r2, [r3]
 3135 1226 FFF7FEFF 		bl	__aeabi_dsub
 3136              	.LVL218:
 3137 122a FFF7FEFF 		bl	__aeabi_d2f
 3138              	.LVL219:
 3139 122e A060     		str	r0, [r4, #8]	@ float
 3140 1230 5DE0     		b	.L131
 3141              	.L132:
 704:main.c        ****             else if(x10)    
 3142              		.loc 1 704 0
 3143 1232 254B     		ldr	r3, .L586+104
 3144 1234 B3F90030 		ldrsh	r3, [r3]
 3145 1238 002B     		cmp	r3, #0
 3146 123a 47D0     		beq	.L133
 705:main.c        ****                 rampas[CicloLibre-1].Temperatura-=1;    
 3147              		.loc 1 705 0
 3148 123c 0F4B     		ldr	r3, .L586+28
 3149 123e 1B78     		ldrb	r3, [r3]	@ zero_extendqisi2
 3150 1240 013B     		subs	r3, r3, #1
 3151 1242 0F49     		ldr	r1, .L586+32
 3152 1244 5800     		lsls	r0, r3, #1
 3153 1246 C418     		adds	r4, r0, r3
 3154 1248 A200     		lsls	r2, r4, #2
 3155 124a 8C18     		adds	r4, r1, r2
 3156 124c 4FF07E51 		mov	r1, #1065353216
 3157 1250 A068     		ldr	r0, [r4, #8]	@ float
 3158 1252 FFF7FEFF 		bl	__aeabi_fsub
 3159              	.LVL220:
 3160 1256 A060     		str	r0, [r4, #8]	@ float
 3161 1258 49E0     		b	.L131
 3162              	.L587:
 3163 125a 00BFAFF3 		.align	3
 3163      0080
 3164              	.L586:
 3165 1260 9A999999 		.word	-1717986918
 3166 1264 9999B93F 		.word	1069128089
ARM GAS  C:\Users\USUARIO\AppData\Local\Temp\cc9Uggst.s 			page 69


 3167 1268 00000000 		.word	x100
 3168 126c 00000000 		.word	Setpoint
 3169 1270 00002041 		.word	1092616192
 3170 1274 00007042 		.word	1114636288
 3171 1278 CDCCCC3D 		.word	1036831949
 3172 127c 00000000 		.word	CicloLibre
 3173 1280 00000000 		.word	rampas
 3174 1284 00000000 		.word	displayStr
 3175 1288 C0010000 		.word	.LC25
 3176 128c 00000000 		.word	Rx_Buffer
 3177 1290 00000000 		.word	n
 3178 1294 00000000 		.word	conteo
 3179 1298 00000000 		.word	Horas
 3180 129c 00000000 		.word	Minutos
 3181 12a0 6C010000 		.word	.LC18
 3182 12a4 00000000 		.word	GuardaEEPROM
 3183 12a8 00000000 		.word	pulsoAumentar
 3184 12ac 00000000 		.word	pulsoDisminuir
 3185 12b0 00000000 		.word	Temperatura
 3186 12b4 00000000 		.word	Enfria
 3187 12b8 00004843 		.word	1128792064
 3188 12bc 00000000 		.word	GananciaR
 3189 12c0 00000000 		.word	Ganancia
 3190 12c4 00000000 		.word	x1
 3191 12c8 00000000 		.word	x10
 3192              	.L133:
 706:main.c        ****             else if(x100)    
 3193              		.loc 1 706 0
 3194 12cc 9C4B     		ldr	r3, .L588+8
 3195 12ce B3F90030 		ldrsh	r3, [r3]
 3196 12d2 63B1     		cbz	r3, .L131
 707:main.c        ****                 rampas[CicloLibre-1].Temperatura-=10;
 3197              		.loc 1 707 0
 3198 12d4 9B4B     		ldr	r3, .L588+12
 3199 12d6 1B78     		ldrb	r3, [r3]	@ zero_extendqisi2
 3200 12d8 013B     		subs	r3, r3, #1
 3201 12da 9B49     		ldr	r1, .L588+16
 3202 12dc 5800     		lsls	r0, r3, #1
 3203 12de C418     		adds	r4, r0, r3
 3204 12e0 A200     		lsls	r2, r4, #2
 3205 12e2 8C18     		adds	r4, r1, r2
 3206 12e4 9949     		ldr	r1, .L588+20
 3207 12e6 A068     		ldr	r0, [r4, #8]	@ float
 3208 12e8 FFF7FEFF 		bl	__aeabi_fsub
 3209              	.LVL221:
 3210 12ec A060     		str	r0, [r4, #8]	@ float
 3211              	.L131:
 708:main.c        ****                 
 709:main.c        ****         }   
 710:main.c        ****         
 711:main.c        ****         if(rampas[CicloLibre-1].Temperatura<0.1)
 3212              		.loc 1 711 0
 3213 12ee 954B     		ldr	r3, .L588+12
 3214 12f0 1C78     		ldrb	r4, [r3]	@ zero_extendqisi2
 3215 12f2 013C     		subs	r4, r4, #1
 3216 12f4 04EB4402 		add	r2, r4, r4, lsl #1
 3217 12f8 9300     		lsls	r3, r2, #2
ARM GAS  C:\Users\USUARIO\AppData\Local\Temp\cc9Uggst.s 			page 70


 3218 12fa 934A     		ldr	r2, .L588+16
 3219 12fc 1344     		add	r3, r3, r2
 3220 12fe 9868     		ldr	r0, [r3, #8]	@ float
 3221 1300 FFF7FEFF 		bl	__aeabi_f2d
 3222              	.LVL222:
 3223 1304 8CA3     		adr	r3, .L588
 3224 1306 D3E90023 		ldrd	r2, [r3]
 3225 130a FFF7FEFF 		bl	__aeabi_dcmplt
 3226              	.LVL223:
 3227 130e 30B1     		cbz	r0, .L134
 712:main.c        ****             rampas[CicloLibre-1].Temperatura=60.0;
 3228              		.loc 1 712 0
 3229 1310 04EB4402 		add	r2, r4, r4, lsl #1
 3230 1314 9300     		lsls	r3, r2, #2
 3231 1316 8C4A     		ldr	r2, .L588+16
 3232 1318 1344     		add	r3, r3, r2
 3233 131a 8D4A     		ldr	r2, .L588+24
 3234 131c 9A60     		str	r2, [r3, #8]	@ float
 3235              	.L134:
 713:main.c        ****          if(rampas[CicloLibre-1].Temperatura>60.0)
 3236              		.loc 1 713 0
 3237 131e 04EB4402 		add	r2, r4, r4, lsl #1
 3238 1322 9300     		lsls	r3, r2, #2
 3239 1324 884A     		ldr	r2, .L588+16
 3240 1326 1344     		add	r3, r3, r2
 3241 1328 8949     		ldr	r1, .L588+24
 3242 132a 9868     		ldr	r0, [r3, #8]	@ float
 3243 132c FFF7FEFF 		bl	__aeabi_fcmpgt
 3244              	.LVL224:
 3245 1330 30B1     		cbz	r0, .L101
 714:main.c        ****             rampas[CicloLibre-1].Temperatura=0.1;
 3246              		.loc 1 714 0
 3247 1332 04EB4404 		add	r4, r4, r4, lsl #1
 3248 1336 A300     		lsls	r3, r4, #2
 3249 1338 834A     		ldr	r2, .L588+16
 3250 133a 1344     		add	r3, r3, r2
 3251 133c 854A     		ldr	r2, .L588+28
 3252 133e 9A60     		str	r2, [r3, #8]	@ float
 3253              	.L101:
 715:main.c        ****       }
 716:main.c        ****          
 717:main.c        ****     }//Menu de Temperatura
 718:main.c        **** //_------------------------------------------------------------------------------------------------
 719:main.c        **** 
 720:main.c        **** //_------------------------------------------------------------------------------------------------
 721:main.c        ****     if(Menu==4){ //Menu de Humedad
 3254              		.loc 1 721 0
 3255 1340 854B     		ldr	r3, .L588+32
 3256 1342 1B78     		ldrb	r3, [r3]	@ zero_extendqisi2
 3257 1344 042B     		cmp	r3, #4
 3258 1346 40F00582 		bne	.L137
 722:main.c        ****       sprintf(displayStr,"fecha.txt=\"Fecha:%02u/%02u/20%02u    Hora: %02u:%02u:%02u\"",Dia,Mes,Yea
 3259              		.loc 1 722 0
 3260 134a 844B     		ldr	r3, .L588+36
 3261 134c 1B78     		ldrb	r3, [r3]	@ zero_extendqisi2
 3262 134e 844A     		ldr	r2, .L588+40
 3263 1350 1278     		ldrb	r2, [r2]	@ zero_extendqisi2
ARM GAS  C:\Users\USUARIO\AppData\Local\Temp\cc9Uggst.s 			page 71


 3264 1352 844C     		ldr	r4, .L588+44
 3265 1354 8449     		ldr	r1, .L588+48
 3266 1356 0978     		ldrb	r1, [r1]	@ zero_extendqisi2
 3267 1358 0391     		str	r1, [sp, #12]
 3268 135a 8449     		ldr	r1, .L588+52
 3269 135c 0978     		ldrb	r1, [r1]	@ zero_extendqisi2
 3270 135e 0291     		str	r1, [sp, #8]
 3271 1360 8349     		ldr	r1, .L588+56
 3272 1362 0978     		ldrb	r1, [r1]	@ zero_extendqisi2
 3273 1364 0191     		str	r1, [sp, #4]
 3274 1366 8349     		ldr	r1, .L588+60
 3275 1368 0978     		ldrb	r1, [r1]	@ zero_extendqisi2
 3276 136a 0091     		str	r1, [sp]
 3277 136c 8249     		ldr	r1, .L588+64
 3278 136e 2046     		mov	r0, r4
 3279 1370 FFF7FEFF 		bl	sprintf
 3280              	.LVL225:
 723:main.c        ****       escribeDisplay1(displayStr);
 3281              		.loc 1 723 0
 3282 1374 2046     		mov	r0, r4
 3283 1376 FFF7FEFF 		bl	escribeDisplay1
 3284              	.LVL226:
 724:main.c        ****       
 725:main.c        ****         if(Rx_Buffer[4]==0x0d){//Tecla Arriba Oprimida
 3285              		.loc 1 725 0
 3286 137a 804B     		ldr	r3, .L588+68
 3287 137c 1B79     		ldrb	r3, [r3, #4]	@ zero_extendqisi2
 3288 137e 0D2B     		cmp	r3, #13
 3289 1380 0AD1     		bne	.L138
 726:main.c        ****            pulsoAumentar=ON;
 3290              		.loc 1 726 0
 3291 1382 0122     		movs	r2, #1
 3292 1384 7E4B     		ldr	r3, .L588+72
 3293 1386 1A80     		strh	r2, [r3]	@ movhi
 727:main.c        ****            pulsoDisminuir=OFF;
 3294              		.loc 1 727 0
 3295 1388 0023     		movs	r3, #0
 3296 138a 7E4A     		ldr	r2, .L588+76
 3297 138c 1380     		strh	r3, [r2]	@ movhi
 728:main.c        ****            Rx_Buffer[4]=0x00;  
 3298              		.loc 1 728 0
 3299 138e 7B4A     		ldr	r2, .L588+68
 3300 1390 1371     		strb	r3, [r2, #4]
 729:main.c        ****            Rx_Buffer2[4]=0x00;  
 3301              		.loc 1 729 0
 3302 1392 7D4A     		ldr	r2, .L588+80
 3303 1394 1371     		strb	r3, [r2, #4]
 3304 1396 59E0     		b	.L139
 3305              	.L138:
 730:main.c        ****         }else if(Rx_Buffer[4]==0x0e){//Tecla Arriba Suelta
 3306              		.loc 1 730 0
 3307 1398 0E2B     		cmp	r3, #14
 3308 139a 09D1     		bne	.L140
 731:main.c        ****            pulsoAumentar=OFF;
 3309              		.loc 1 731 0
 3310 139c 0023     		movs	r3, #0
 3311 139e 784A     		ldr	r2, .L588+72
ARM GAS  C:\Users\USUARIO\AppData\Local\Temp\cc9Uggst.s 			page 72


 3312 13a0 1380     		strh	r3, [r2]	@ movhi
 732:main.c        ****            pulsoDisminuir=OFF;
 3313              		.loc 1 732 0
 3314 13a2 784A     		ldr	r2, .L588+76
 3315 13a4 1380     		strh	r3, [r2]	@ movhi
 733:main.c        ****            Rx_Buffer[4]=0x00;  
 3316              		.loc 1 733 0
 3317 13a6 754A     		ldr	r2, .L588+68
 3318 13a8 1371     		strb	r3, [r2, #4]
 734:main.c        ****            Rx_Buffer2[4]=0x00;                       
 3319              		.loc 1 734 0
 3320 13aa 774A     		ldr	r2, .L588+80
 3321 13ac 1371     		strb	r3, [r2, #4]
 3322 13ae 4DE0     		b	.L139
 3323              	.L140:
 735:main.c        ****         }else if(Rx_Buffer[4]==0x0c){//Tecla Abajo Oprimida
 3324              		.loc 1 735 0
 3325 13b0 0C2B     		cmp	r3, #12
 3326 13b2 0AD1     		bne	.L141
 736:main.c        ****            pulsoDisminuir=ON;
 3327              		.loc 1 736 0
 3328 13b4 0122     		movs	r2, #1
 3329 13b6 734B     		ldr	r3, .L588+76
 3330 13b8 1A80     		strh	r2, [r3]	@ movhi
 737:main.c        ****             pulsoAumentar=OFF;
 3331              		.loc 1 737 0
 3332 13ba 0023     		movs	r3, #0
 3333 13bc 704A     		ldr	r2, .L588+72
 3334 13be 1380     		strh	r3, [r2]	@ movhi
 738:main.c        ****            Rx_Buffer[4]=0x00;
 3335              		.loc 1 738 0
 3336 13c0 6E4A     		ldr	r2, .L588+68
 3337 13c2 1371     		strb	r3, [r2, #4]
 739:main.c        ****            Rx_Buffer2[4]=0x00;                        
 3338              		.loc 1 739 0
 3339 13c4 704A     		ldr	r2, .L588+80
 3340 13c6 1371     		strb	r3, [r2, #4]
 3341 13c8 40E0     		b	.L139
 3342              	.L141:
 740:main.c        ****         }else if(Rx_Buffer[4]==0x0b){//Tecla Abajo Oprimida
 3343              		.loc 1 740 0
 3344 13ca 0B2B     		cmp	r3, #11
 3345 13cc 09D1     		bne	.L142
 741:main.c        ****            pulsoAumentar=OFF;
 3346              		.loc 1 741 0
 3347 13ce 0023     		movs	r3, #0
 3348 13d0 6B4A     		ldr	r2, .L588+72
 3349 13d2 1380     		strh	r3, [r2]	@ movhi
 742:main.c        ****            pulsoDisminuir=OFF;
 3350              		.loc 1 742 0
 3351 13d4 6B4A     		ldr	r2, .L588+76
 3352 13d6 1380     		strh	r3, [r2]	@ movhi
 743:main.c        ****            Rx_Buffer[4]=0x00;
 3353              		.loc 1 743 0
 3354 13d8 684A     		ldr	r2, .L588+68
 3355 13da 1371     		strb	r3, [r2, #4]
 744:main.c        ****            Rx_Buffer2[4]=0x00;                                   
ARM GAS  C:\Users\USUARIO\AppData\Local\Temp\cc9Uggst.s 			page 73


 3356              		.loc 1 744 0
 3357 13dc 6A4A     		ldr	r2, .L588+80
 3358 13de 1371     		strb	r3, [r2, #4]
 3359 13e0 34E0     		b	.L139
 3360              	.L142:
 745:main.c        ****         }else if(Rx_Buffer[4]==0x20){//Selecciono x1
 3361              		.loc 1 745 0
 3362 13e2 202B     		cmp	r3, #32
 3363 13e4 15D1     		bne	.L143
 746:main.c        ****             x1=ON;
 3364              		.loc 1 746 0
 3365 13e6 0122     		movs	r2, #1
 3366 13e8 684B     		ldr	r3, .L588+84
 3367 13ea 1A80     		strh	r2, [r3]	@ movhi
 747:main.c        ****             x10=OFF;
 3368              		.loc 1 747 0
 3369 13ec 0024     		movs	r4, #0
 3370 13ee 684B     		ldr	r3, .L588+88
 3371 13f0 1C80     		strh	r4, [r3]	@ movhi
 748:main.c        ****             x100=OFF;
 3372              		.loc 1 748 0
 3373 13f2 534B     		ldr	r3, .L588+8
 3374 13f4 1C80     		strh	r4, [r3]	@ movhi
 749:main.c        ****             escribeDisplay1("c0.val=1");
 3375              		.loc 1 749 0
 3376 13f6 6748     		ldr	r0, .L588+92
 3377 13f8 FFF7FEFF 		bl	escribeDisplay1
 3378              	.LVL227:
 750:main.c        ****             escribeDisplay1("c1.val=0");
 3379              		.loc 1 750 0
 3380 13fc 6648     		ldr	r0, .L588+96
 3381 13fe FFF7FEFF 		bl	escribeDisplay1
 3382              	.LVL228:
 751:main.c        ****             escribeDisplay1("c2.val=0");
 3383              		.loc 1 751 0
 3384 1402 6648     		ldr	r0, .L588+100
 3385 1404 FFF7FEFF 		bl	escribeDisplay1
 3386              	.LVL229:
 752:main.c        ****             Rx_Buffer[4]=0x00;  
 3387              		.loc 1 752 0
 3388 1408 5C4B     		ldr	r3, .L588+68
 3389 140a 1C71     		strb	r4, [r3, #4]
 753:main.c        ****             Rx_Buffer2[4]=0x00;     
 3390              		.loc 1 753 0
 3391 140c 5E4B     		ldr	r3, .L588+80
 3392 140e 1C71     		strb	r4, [r3, #4]
 3393 1410 1CE0     		b	.L139
 3394              	.L143:
 754:main.c        ****         }else if(Rx_Buffer[4]==0x21){//Selecciono x10
 3395              		.loc 1 754 0
 3396 1412 212B     		cmp	r3, #33
 3397 1414 15D1     		bne	.L144
 755:main.c        ****             x1=OFF;
 3398              		.loc 1 755 0
 3399 1416 0024     		movs	r4, #0
 3400 1418 5C4B     		ldr	r3, .L588+84
 3401 141a 1C80     		strh	r4, [r3]	@ movhi
ARM GAS  C:\Users\USUARIO\AppData\Local\Temp\cc9Uggst.s 			page 74


 756:main.c        ****             x10=ON;
 3402              		.loc 1 756 0
 3403 141c 0122     		movs	r2, #1
 3404 141e 5C4B     		ldr	r3, .L588+88
 3405 1420 1A80     		strh	r2, [r3]	@ movhi
 757:main.c        ****             x100=OFF;
 3406              		.loc 1 757 0
 3407 1422 474B     		ldr	r3, .L588+8
 3408 1424 1C80     		strh	r4, [r3]	@ movhi
 758:main.c        ****             escribeDisplay1("c0.val=0");
 3409              		.loc 1 758 0
 3410 1426 5E48     		ldr	r0, .L588+104
 3411 1428 FFF7FEFF 		bl	escribeDisplay1
 3412              	.LVL230:
 759:main.c        ****             escribeDisplay1("c1.val=1");
 3413              		.loc 1 759 0
 3414 142c 5D48     		ldr	r0, .L588+108
 3415 142e FFF7FEFF 		bl	escribeDisplay1
 3416              	.LVL231:
 760:main.c        ****             escribeDisplay1("c2.val=0");
 3417              		.loc 1 760 0
 3418 1432 5A48     		ldr	r0, .L588+100
 3419 1434 FFF7FEFF 		bl	escribeDisplay1
 3420              	.LVL232:
 761:main.c        ****             Rx_Buffer[4]=0x00;  
 3421              		.loc 1 761 0
 3422 1438 504B     		ldr	r3, .L588+68
 3423 143a 1C71     		strb	r4, [r3, #4]
 762:main.c        ****             Rx_Buffer2[4]=0x00;     
 3424              		.loc 1 762 0
 3425 143c 524B     		ldr	r3, .L588+80
 3426 143e 1C71     		strb	r4, [r3, #4]
 3427 1440 04E0     		b	.L139
 3428              	.L144:
 763:main.c        ****         }else{// if(Rx_Buffer[4]!=0x00){
 764:main.c        ****            pulsoAumentar=OFF;
 3429              		.loc 1 764 0
 3430 1442 0023     		movs	r3, #0
 3431 1444 4E4A     		ldr	r2, .L588+72
 3432 1446 1380     		strh	r3, [r2]	@ movhi
 765:main.c        ****            pulsoDisminuir=OFF; 
 3433              		.loc 1 765 0
 3434 1448 4E4A     		ldr	r2, .L588+76
 3435 144a 1380     		strh	r3, [r2]	@ movhi
 3436              	.L139:
 766:main.c        ****         }
 767:main.c        ****         
 768:main.c        ****       if(!rampa){
 3437              		.loc 1 768 0
 3438 144c 564B     		ldr	r3, .L588+112
 3439 144e B3F90030 		ldrsh	r3, [r3]
 3440 1452 002B     		cmp	r3, #0
 3441 1454 40F0DF80 		bne	.L145
 769:main.c        ****          if(Rx_Buffer[4]==0x11){//Selecciono Regresar
 3442              		.loc 1 769 0
 3443 1458 484B     		ldr	r3, .L588+68
 3444 145a 1B79     		ldrb	r3, [r3, #4]	@ zero_extendqisi2
ARM GAS  C:\Users\USUARIO\AppData\Local\Temp\cc9Uggst.s 			page 75


 3445 145c 112B     		cmp	r3, #17
 3446 145e 45D1     		bne	.L146
 770:main.c        ****             Horas=OFF;
 3447              		.loc 1 770 0
 3448 1460 0023     		movs	r3, #0
 3449 1462 524A     		ldr	r2, .L588+116
 3450 1464 1380     		strh	r3, [r2]	@ movhi
 771:main.c        ****             Minutos=OFF;
 3451              		.loc 1 771 0
 3452 1466 524A     		ldr	r2, .L588+120
 3453 1468 1380     		strh	r3, [r2]	@ movhi
 772:main.c        ****             escribeDisplay1("page Principal");
 3454              		.loc 1 772 0
 3455 146a 5248     		ldr	r0, .L588+124
 3456 146c FFF7FEFF 		bl	escribeDisplay1
 3457              	.LVL233:
 773:main.c        ****             if(!GuardaEEPROM){
 3458              		.loc 1 773 0
 3459 1470 514B     		ldr	r3, .L588+128
 3460 1472 B3F90030 		ldrsh	r3, [r3]
 3461 1476 53B9     		cbnz	r3, .L147
 774:main.c        ****                EEPROM_WriteByte(SetpointH,4);
 3462              		.loc 1 774 0
 3463 1478 0421     		movs	r1, #4
 3464 147a 504B     		ldr	r3, .L588+132
 3465 147c 1878     		ldrb	r0, [r3]	@ zero_extendqisi2
 3466 147e FFF7FEFF 		bl	EEPROM_WriteByte
 3467              	.LVL234:
 775:main.c        ****                CyDelay(10);
 3468              		.loc 1 775 0
 3469 1482 0A20     		movs	r0, #10
 3470 1484 FFF7FEFF 		bl	CyDelay
 3471              	.LVL235:
 776:main.c        ****                GuardaEEPROM=ON;
 3472              		.loc 1 776 0
 3473 1488 0122     		movs	r2, #1
 3474 148a 4B4B     		ldr	r3, .L588+128
 3475 148c 1A80     		strh	r2, [r3]	@ movhi
 3476              	.L147:
 777:main.c        ****             }
 778:main.c        ****             T1=(uint8)(((float)T1Humedad)*((float)SetpointH/80.0));
 3477              		.loc 1 778 0
 3478 148e 4C4B     		ldr	r3, .L588+136
 3479 1490 1878     		ldrb	r0, [r3]	@ zero_extendqisi2
 3480 1492 FFF7FEFF 		bl	__aeabi_ui2f
 3481              	.LVL236:
 3482 1496 0646     		mov	r6, r0
 3483 1498 484B     		ldr	r3, .L588+132
 3484 149a 1888     		ldrh	r0, [r3]
 3485 149c FFF7FEFF 		bl	__aeabi_ui2f
 3486              	.LVL237:
 3487 14a0 FFF7FEFF 		bl	__aeabi_f2d
 3488              	.LVL238:
 3489 14a4 0022     		movs	r2, #0
 3490 14a6 474B     		ldr	r3, .L588+140
 3491 14a8 FFF7FEFF 		bl	__aeabi_ddiv
 3492              	.LVL239:
ARM GAS  C:\Users\USUARIO\AppData\Local\Temp\cc9Uggst.s 			page 76


 3493 14ac 0446     		mov	r4, r0
 3494 14ae 0D46     		mov	r5, r1
 3495 14b0 3046     		mov	r0, r6
 3496 14b2 FFF7FEFF 		bl	__aeabi_f2d
 3497              	.LVL240:
 3498 14b6 2246     		mov	r2, r4
 3499 14b8 2B46     		mov	r3, r5
 3500 14ba FFF7FEFF 		bl	__aeabi_dmul
 3501              	.LVL241:
 3502 14be FFF7FEFF 		bl	__aeabi_d2uiz
 3503              	.LVL242:
 3504 14c2 414B     		ldr	r3, .L588+144
 3505 14c4 1870     		strb	r0, [r3]
 779:main.c        ****             T3=(uint8)(((float)T3Humedad)*((float)SetpointH/80.0));
 3506              		.loc 1 779 0
 3507 14c6 414B     		ldr	r3, .L588+148
 3508 14c8 1878     		ldrb	r0, [r3]	@ zero_extendqisi2
 3509 14ca FFF7FEFF 		bl	__aeabi_ui2f
 3510              	.LVL243:
 3511 14ce FFF7FEFF 		bl	__aeabi_f2d
 3512              	.LVL244:
 3513 14d2 2246     		mov	r2, r4
 3514 14d4 2B46     		mov	r3, r5
 3515 14d6 FFF7FEFF 		bl	__aeabi_dmul
 3516              	.LVL245:
 3517 14da FFF7FEFF 		bl	__aeabi_d2uiz
 3518              	.LVL246:
 3519 14de 3C4B     		ldr	r3, .L588+152
 3520 14e0 1870     		strb	r0, [r3]
 780:main.c        ****             pulsoAumentar=OFF;
 3521              		.loc 1 780 0
 3522 14e2 0023     		movs	r3, #0
 3523 14e4 264A     		ldr	r2, .L588+72
 3524 14e6 1380     		strh	r3, [r2]	@ movhi
 781:main.c        ****             pulsoDisminuir=OFF;
 3525              		.loc 1 781 0
 3526 14e8 264A     		ldr	r2, .L588+76
 3527 14ea 1380     		strh	r3, [r2]	@ movhi
 3528              	.L146:
 782:main.c        ****          }
 783:main.c        ****          
 784:main.c        ****         if(pulsoAumentar){
 3529              		.loc 1 784 0
 3530 14ec 244B     		ldr	r3, .L588+72
 3531 14ee B3F90030 		ldrsh	r3, [r3]
 3532 14f2 83B1     		cbz	r3, .L148
 785:main.c        ****             if(x1)
 3533              		.loc 1 785 0
 3534 14f4 254B     		ldr	r3, .L588+84
 3535 14f6 B3F90030 		ldrsh	r3, [r3]
 3536 14fa 23B1     		cbz	r3, .L149
 786:main.c        ****                 SetpointH+=1;    
 3537              		.loc 1 786 0
 3538 14fc 2F4A     		ldr	r2, .L588+132
 3539 14fe 1388     		ldrh	r3, [r2]
 3540 1500 0133     		adds	r3, r3, #1
 3541 1502 1380     		strh	r3, [r2]	@ movhi
ARM GAS  C:\Users\USUARIO\AppData\Local\Temp\cc9Uggst.s 			page 77


 3542 1504 07E0     		b	.L148
 3543              	.L149:
 787:main.c        ****             else if(x10)    
 3544              		.loc 1 787 0
 3545 1506 224B     		ldr	r3, .L588+88
 3546 1508 B3F90030 		ldrsh	r3, [r3]
 3547 150c 1BB1     		cbz	r3, .L148
 788:main.c        ****                 SetpointH+=10;    
 3548              		.loc 1 788 0
 3549 150e 2B4A     		ldr	r2, .L588+132
 3550 1510 1388     		ldrh	r3, [r2]
 3551 1512 0A33     		adds	r3, r3, #10
 3552 1514 1380     		strh	r3, [r2]	@ movhi
 3553              	.L148:
 789:main.c        ****         }
 790:main.c        ****         
 791:main.c        ****         if(pulsoDisminuir){
 3554              		.loc 1 791 0
 3555 1516 1B4B     		ldr	r3, .L588+76
 3556 1518 B3F90030 		ldrsh	r3, [r3]
 3557 151c 002B     		cmp	r3, #0
 3558 151e 61D0     		beq	.L150
 792:main.c        ****             if(x1)
 3559              		.loc 1 792 0
 3560 1520 1A4B     		ldr	r3, .L588+84
 3561 1522 B3F90030 		ldrsh	r3, [r3]
 3562 1526 002B     		cmp	r3, #0
 3563 1528 54D0     		beq	.L151
 793:main.c        ****                 SetpointH-=1;    
 3564              		.loc 1 793 0
 3565 152a 244A     		ldr	r2, .L588+132
 3566 152c 1388     		ldrh	r3, [r2]
 3567 152e 013B     		subs	r3, r3, #1
 3568 1530 1380     		strh	r3, [r2]	@ movhi
 3569 1532 57E0     		b	.L150
 3570              	.L589:
 3571 1534 AFF30080 		.align	3
 3572              	.L588:
 3573 1538 9A999999 		.word	-1717986918
 3574 153c 9999B93F 		.word	1069128089
 3575 1540 00000000 		.word	x100
 3576 1544 00000000 		.word	CicloLibre
 3577 1548 00000000 		.word	rampas
 3578 154c 00002041 		.word	1092616192
 3579 1550 00007042 		.word	1114636288
 3580 1554 CDCCCC3D 		.word	1036831949
 3581 1558 00000000 		.word	Menu
 3582 155c 00000000 		.word	Mes
 3583 1560 00000000 		.word	Dia
 3584 1564 00000000 		.word	displayStr
 3585 1568 00000000 		.word	Segundo
 3586 156c 00000000 		.word	Minuto
 3587 1570 00000000 		.word	Hora
 3588 1574 00000000 		.word	Year
 3589 1578 08010000 		.word	.LC15
 3590 157c 00000000 		.word	Rx_Buffer
 3591 1580 00000000 		.word	pulsoAumentar
ARM GAS  C:\Users\USUARIO\AppData\Local\Temp\cc9Uggst.s 			page 78


 3592 1584 00000000 		.word	pulsoDisminuir
 3593 1588 00000000 		.word	Rx_Buffer2
 3594 158c 00000000 		.word	x1
 3595 1590 00000000 		.word	x10
 3596 1594 78010000 		.word	.LC19
 3597 1598 84010000 		.word	.LC20
 3598 159c 90010000 		.word	.LC21
 3599 15a0 9C010000 		.word	.LC22
 3600 15a4 A8010000 		.word	.LC23
 3601 15a8 00000000 		.word	rampa
 3602 15ac 00000000 		.word	Horas
 3603 15b0 00000000 		.word	Minutos
 3604 15b4 18000000 		.word	.LC2
 3605 15b8 00000000 		.word	GuardaEEPROM
 3606 15bc 00000000 		.word	SetpointH
 3607 15c0 00000000 		.word	T1Humedad
 3608 15c4 00005440 		.word	1079246848
 3609 15c8 00000000 		.word	T1
 3610 15cc 00000000 		.word	T3Humedad
 3611 15d0 00000000 		.word	T3
 3612              	.L151:
 794:main.c        ****             else if(x10)    
 3613              		.loc 1 794 0
 3614 15d4 7D4B     		ldr	r3, .L590
 3615 15d6 B3F90030 		ldrsh	r3, [r3]
 3616 15da 1BB1     		cbz	r3, .L150
 795:main.c        ****                 SetpointH-=10;    
 3617              		.loc 1 795 0
 3618 15dc 7C4A     		ldr	r2, .L590+4
 3619 15de 1388     		ldrh	r3, [r2]
 3620 15e0 0A3B     		subs	r3, r3, #10
 3621 15e2 1380     		strh	r3, [r2]	@ movhi
 3622              	.L150:
 796:main.c        ****         }
 797:main.c        ****         
 798:main.c        ****         if(SetpointH<10)
 3623              		.loc 1 798 0
 3624 15e4 7A4B     		ldr	r3, .L590+4
 3625 15e6 1B88     		ldrh	r3, [r3]
 3626 15e8 092B     		cmp	r3, #9
 3627 15ea 02D8     		bhi	.L152
 799:main.c        ****             SetpointH=95;
 3628              		.loc 1 799 0
 3629 15ec 5F22     		movs	r2, #95
 3630 15ee 784B     		ldr	r3, .L590+4
 3631 15f0 1A80     		strh	r2, [r3]	@ movhi
 3632              	.L152:
 800:main.c        ****          if(SetpointH>95)
 3633              		.loc 1 800 0
 3634 15f2 774B     		ldr	r3, .L590+4
 3635 15f4 1B88     		ldrh	r3, [r3]
 3636 15f6 5F2B     		cmp	r3, #95
 3637 15f8 02D9     		bls	.L153
 801:main.c        ****             SetpointH=10;
 3638              		.loc 1 801 0
 3639 15fa 0A22     		movs	r2, #10
 3640 15fc 744B     		ldr	r3, .L590+4
ARM GAS  C:\Users\USUARIO\AppData\Local\Temp\cc9Uggst.s 			page 79


 3641 15fe 1A80     		strh	r2, [r3]	@ movhi
 3642              	.L153:
 802:main.c        ****         
 803:main.c        ****          sprintf(displayStr,"tsettem.txt=\"%02u\"",SetpointH);
 3643              		.loc 1 803 0
 3644 1600 744C     		ldr	r4, .L590+8
 3645 1602 734B     		ldr	r3, .L590+4
 3646 1604 1A88     		ldrh	r2, [r3]
 3647 1606 7449     		ldr	r1, .L590+12
 3648 1608 2046     		mov	r0, r4
 3649 160a FFF7FEFF 		bl	sprintf
 3650              	.LVL247:
 804:main.c        ****          escribeDisplay1(displayStr);
 3651              		.loc 1 804 0
 3652 160e 2046     		mov	r0, r4
 3653 1610 FFF7FEFF 		bl	escribeDisplay1
 3654              	.LVL248:
 3655 1614 9EE0     		b	.L137
 3656              	.L145:
 805:main.c        ****       }else{
 806:main.c        ****          
 807:main.c        ****          if(Rx_Buffer[4]==0x11){//Selecciono Regresar
 3657              		.loc 1 807 0
 3658 1616 714B     		ldr	r3, .L590+16
 3659 1618 1B79     		ldrb	r3, [r3, #4]	@ zero_extendqisi2
 3660 161a 112B     		cmp	r3, #17
 3661 161c 25D1     		bne	.L154
 808:main.c        ****             Horas=OFF;
 3662              		.loc 1 808 0
 3663 161e 0023     		movs	r3, #0
 3664 1620 6F4A     		ldr	r2, .L590+20
 3665 1622 1380     		strh	r3, [r2]	@ movhi
 809:main.c        ****             Minutos=OFF;
 3666              		.loc 1 809 0
 3667 1624 6F4A     		ldr	r2, .L590+24
 3668 1626 1380     		strh	r3, [r2]	@ movhi
 810:main.c        ****             escribeDisplay1("page Rampas");
 3669              		.loc 1 810 0
 3670 1628 6F48     		ldr	r0, .L590+28
 3671 162a FFF7FEFF 		bl	escribeDisplay1
 3672              	.LVL249:
 811:main.c        ****             if(!GuardaEEPROM){
 3673              		.loc 1 811 0
 3674 162e 6F4B     		ldr	r3, .L590+32
 3675 1630 B3F90030 		ldrsh	r3, [r3]
 3676 1634 A3B9     		cbnz	r3, .L155
 812:main.c        ****                EEPROM_WriteByte(rampas[CicloLibre-1].Humedad,102+((CicloLibre-1)*5));
 3677              		.loc 1 812 0
 3678 1636 6E4B     		ldr	r3, .L590+36
 3679 1638 1B78     		ldrb	r3, [r3]	@ zero_extendqisi2
 3680 163a 013B     		subs	r3, r3, #1
 3681 163c 03EB8301 		add	r1, r3, r3, lsl #2
 3682 1640 6631     		adds	r1, r1, #102
 3683 1642 03EB4303 		add	r3, r3, r3, lsl #1
 3684 1646 9A00     		lsls	r2, r3, #2
 3685 1648 6A4B     		ldr	r3, .L590+40
 3686 164a 1A44     		add	r2, r2, r3
ARM GAS  C:\Users\USUARIO\AppData\Local\Temp\cc9Uggst.s 			page 80


 3687 164c 89B2     		uxth	r1, r1
 3688 164e 1079     		ldrb	r0, [r2, #4]	@ zero_extendqisi2
 3689 1650 FFF7FEFF 		bl	EEPROM_WriteByte
 3690              	.LVL250:
 813:main.c        ****                CyDelay(10);
 3691              		.loc 1 813 0
 3692 1654 0A20     		movs	r0, #10
 3693 1656 FFF7FEFF 		bl	CyDelay
 3694              	.LVL251:
 814:main.c        ****                GuardaEEPROM=ON;
 3695              		.loc 1 814 0
 3696 165a 0122     		movs	r2, #1
 3697 165c 634B     		ldr	r3, .L590+32
 3698 165e 1A80     		strh	r2, [r3]	@ movhi
 3699              	.L155:
 815:main.c        ****             }
 816:main.c        ****             pulsoAumentar=OFF;
 3700              		.loc 1 816 0
 3701 1660 0023     		movs	r3, #0
 3702 1662 654A     		ldr	r2, .L590+44
 3703 1664 1380     		strh	r3, [r2]	@ movhi
 817:main.c        ****             pulsoDisminuir=OFF;
 3704              		.loc 1 817 0
 3705 1666 654A     		ldr	r2, .L590+48
 3706 1668 1380     		strh	r3, [r2]	@ movhi
 3707              	.L154:
 818:main.c        ****          }
 819:main.c        ****          
 820:main.c        ****          if(pulsoAumentar){
 3708              		.loc 1 820 0
 3709 166a 634B     		ldr	r3, .L590+44
 3710 166c B3F90030 		ldrsh	r3, [r3]
 3711 1670 F3B1     		cbz	r3, .L156
 821:main.c        ****             if(x1)
 3712              		.loc 1 821 0
 3713 1672 634B     		ldr	r3, .L590+52
 3714 1674 B3F90030 		ldrsh	r3, [r3]
 3715 1678 5BB1     		cbz	r3, .L157
 822:main.c        ****                 rampas[CicloLibre-1].Humedad+=1;    
 3716              		.loc 1 822 0
 3717 167a 5D4B     		ldr	r3, .L590+36
 3718 167c 1B78     		ldrb	r3, [r3]	@ zero_extendqisi2
 3719 167e 013B     		subs	r3, r3, #1
 3720 1680 5C48     		ldr	r0, .L590+40
 3721 1682 5900     		lsls	r1, r3, #1
 3722 1684 CC18     		adds	r4, r1, r3
 3723 1686 A200     		lsls	r2, r4, #2
 3724 1688 0244     		add	r2, r2, r0
 3725 168a 1379     		ldrb	r3, [r2, #4]	@ zero_extendqisi2
 3726 168c 0133     		adds	r3, r3, #1
 3727 168e 1371     		strb	r3, [r2, #4]
 3728 1690 0EE0     		b	.L156
 3729              	.L157:
 823:main.c        ****             else if(x10)    
 3730              		.loc 1 823 0
 3731 1692 4E4B     		ldr	r3, .L590
 3732 1694 B3F90030 		ldrsh	r3, [r3]
ARM GAS  C:\Users\USUARIO\AppData\Local\Temp\cc9Uggst.s 			page 81


 3733 1698 53B1     		cbz	r3, .L156
 824:main.c        ****                 rampas[CicloLibre-1].Humedad+=10;                
 3734              		.loc 1 824 0
 3735 169a 554B     		ldr	r3, .L590+36
 3736 169c 1B78     		ldrb	r3, [r3]	@ zero_extendqisi2
 3737 169e 013B     		subs	r3, r3, #1
 3738 16a0 5448     		ldr	r0, .L590+40
 3739 16a2 5900     		lsls	r1, r3, #1
 3740 16a4 CC18     		adds	r4, r1, r3
 3741 16a6 A200     		lsls	r2, r4, #2
 3742 16a8 0244     		add	r2, r2, r0
 3743 16aa 1379     		ldrb	r3, [r2, #4]	@ zero_extendqisi2
 3744 16ac 0A33     		adds	r3, r3, #10
 3745 16ae 1371     		strb	r3, [r2, #4]
 3746              	.L156:
 825:main.c        ****         }
 826:main.c        ****         
 827:main.c        ****         if(pulsoDisminuir){
 3747              		.loc 1 827 0
 3748 16b0 524B     		ldr	r3, .L590+48
 3749 16b2 B3F90030 		ldrsh	r3, [r3]
 3750 16b6 F3B1     		cbz	r3, .L158
 828:main.c        ****             if(x1)
 3751              		.loc 1 828 0
 3752 16b8 514B     		ldr	r3, .L590+52
 3753 16ba B3F90030 		ldrsh	r3, [r3]
 3754 16be 5BB1     		cbz	r3, .L159
 829:main.c        ****                 rampas[CicloLibre-1].Humedad-=1;    
 3755              		.loc 1 829 0
 3756 16c0 4B4B     		ldr	r3, .L590+36
 3757 16c2 1B78     		ldrb	r3, [r3]	@ zero_extendqisi2
 3758 16c4 013B     		subs	r3, r3, #1
 3759 16c6 4B48     		ldr	r0, .L590+40
 3760 16c8 5900     		lsls	r1, r3, #1
 3761 16ca CC18     		adds	r4, r1, r3
 3762 16cc A200     		lsls	r2, r4, #2
 3763 16ce 0244     		add	r2, r2, r0
 3764 16d0 1379     		ldrb	r3, [r2, #4]	@ zero_extendqisi2
 3765 16d2 013B     		subs	r3, r3, #1
 3766 16d4 1371     		strb	r3, [r2, #4]
 3767 16d6 0EE0     		b	.L158
 3768              	.L159:
 830:main.c        ****             else if(x10)    
 3769              		.loc 1 830 0
 3770 16d8 3C4B     		ldr	r3, .L590
 3771 16da B3F90030 		ldrsh	r3, [r3]
 3772 16de 53B1     		cbz	r3, .L158
 831:main.c        ****                 rampas[CicloLibre-1].Humedad-=10;                
 3773              		.loc 1 831 0
 3774 16e0 434B     		ldr	r3, .L590+36
 3775 16e2 1B78     		ldrb	r3, [r3]	@ zero_extendqisi2
 3776 16e4 013B     		subs	r3, r3, #1
 3777 16e6 4348     		ldr	r0, .L590+40
 3778 16e8 5900     		lsls	r1, r3, #1
 3779 16ea CC18     		adds	r4, r1, r3
 3780 16ec A200     		lsls	r2, r4, #2
 3781 16ee 0244     		add	r2, r2, r0
ARM GAS  C:\Users\USUARIO\AppData\Local\Temp\cc9Uggst.s 			page 82


 3782 16f0 1379     		ldrb	r3, [r2, #4]	@ zero_extendqisi2
 3783 16f2 0A3B     		subs	r3, r3, #10
 3784 16f4 1371     		strb	r3, [r2, #4]
 3785              	.L158:
 832:main.c        ****         }
 833:main.c        ****         
 834:main.c        ****         if(rampas[CicloLibre-1].Humedad<10)
 3786              		.loc 1 834 0
 3787 16f6 3E4B     		ldr	r3, .L590+36
 3788 16f8 1B78     		ldrb	r3, [r3]	@ zero_extendqisi2
 3789 16fa 013B     		subs	r3, r3, #1
 3790 16fc 03EB4301 		add	r1, r3, r3, lsl #1
 3791 1700 8A00     		lsls	r2, r1, #2
 3792 1702 3C49     		ldr	r1, .L590+40
 3793 1704 0A44     		add	r2, r2, r1
 3794 1706 1279     		ldrb	r2, [r2, #4]	@ zero_extendqisi2
 3795 1708 092A     		cmp	r2, #9
 3796 170a 06D8     		bhi	.L160
 835:main.c        ****             rampas[CicloLibre-1].Humedad=95;
 3797              		.loc 1 835 0
 3798 170c 03EB4301 		add	r1, r3, r3, lsl #1
 3799 1710 8A00     		lsls	r2, r1, #2
 3800 1712 3849     		ldr	r1, .L590+40
 3801 1714 0A44     		add	r2, r2, r1
 3802 1716 5F21     		movs	r1, #95
 3803 1718 1171     		strb	r1, [r2, #4]
 3804              	.L160:
 836:main.c        ****          if(rampas[CicloLibre-1].Humedad>95)
 3805              		.loc 1 836 0
 3806 171a 03EB4301 		add	r1, r3, r3, lsl #1
 3807 171e 8A00     		lsls	r2, r1, #2
 3808 1720 3449     		ldr	r1, .L590+40
 3809 1722 0A44     		add	r2, r2, r1
 3810 1724 1279     		ldrb	r2, [r2, #4]	@ zero_extendqisi2
 3811 1726 5F2A     		cmp	r2, #95
 3812 1728 06D9     		bls	.L161
 837:main.c        ****             rampas[CicloLibre-1].Humedad=10;
 3813              		.loc 1 837 0
 3814 172a 03EB4301 		add	r1, r3, r3, lsl #1
 3815 172e 8A00     		lsls	r2, r1, #2
 3816 1730 3049     		ldr	r1, .L590+40
 3817 1732 0A44     		add	r2, r2, r1
 3818 1734 0A21     		movs	r1, #10
 3819 1736 1171     		strb	r1, [r2, #4]
 3820              	.L161:
 838:main.c        ****             
 839:main.c        ****          sprintf(displayStr,"tsettem.txt=\"%02u\"",rampas[CicloLibre-1].Humedad);
 3821              		.loc 1 839 0
 3822 1738 03EB4303 		add	r3, r3, r3, lsl #1
 3823 173c 9A00     		lsls	r2, r3, #2
 3824 173e 2D4B     		ldr	r3, .L590+40
 3825 1740 1A44     		add	r2, r2, r3
 3826 1742 244C     		ldr	r4, .L590+8
 3827 1744 1279     		ldrb	r2, [r2, #4]	@ zero_extendqisi2
 3828 1746 2449     		ldr	r1, .L590+12
 3829 1748 2046     		mov	r0, r4
 3830 174a FFF7FEFF 		bl	sprintf
ARM GAS  C:\Users\USUARIO\AppData\Local\Temp\cc9Uggst.s 			page 83


 3831              	.LVL252:
 840:main.c        ****          escribeDisplay1(displayStr);
 3832              		.loc 1 840 0
 3833 174e 2046     		mov	r0, r4
 3834 1750 FFF7FEFF 		bl	escribeDisplay1
 3835              	.LVL253:
 3836              	.L137:
 841:main.c        ****       }
 842:main.c        ****     }//Menu de Humedad
 843:main.c        **** //_------------------------------------------------------------------------------------------------
 844:main.c        ****       
 845:main.c        **** //_------------------------------------------------------------------------------------------------
 846:main.c        ****     if(Menu==8){ //Menu de Rampas
 3837              		.loc 1 846 0
 3838 1754 2B4B     		ldr	r3, .L590+56
 3839 1756 1B78     		ldrb	r3, [r3]	@ zero_extendqisi2
 3840 1758 082B     		cmp	r3, #8
 3841 175a 40F06381 		bne	.L162
 847:main.c        ****       flagBorrado=OFF;
 3842              		.loc 1 847 0
 3843 175e 0024     		movs	r4, #0
 3844 1760 294B     		ldr	r3, .L590+60
 3845 1762 1C80     		strh	r4, [r3]	@ movhi
 848:main.c        ****       sprintf(displayStr,"fecha.txt=\"Fecha:%02u/%02u/20%02u Hora: %02u:%02u:%02u\"",Dia,Mes,Year,H
 3846              		.loc 1 848 0
 3847 1764 294B     		ldr	r3, .L590+64
 3848 1766 1B78     		ldrb	r3, [r3]	@ zero_extendqisi2
 3849 1768 294A     		ldr	r2, .L590+68
 3850 176a 1278     		ldrb	r2, [r2]	@ zero_extendqisi2
 3851 176c 194D     		ldr	r5, .L590+8
 3852 176e 2949     		ldr	r1, .L590+72
 3853 1770 0978     		ldrb	r1, [r1]	@ zero_extendqisi2
 3854 1772 0391     		str	r1, [sp, #12]
 3855 1774 2849     		ldr	r1, .L590+76
 3856 1776 0978     		ldrb	r1, [r1]	@ zero_extendqisi2
 3857 1778 0291     		str	r1, [sp, #8]
 3858 177a 2849     		ldr	r1, .L590+80
 3859 177c 0978     		ldrb	r1, [r1]	@ zero_extendqisi2
 3860 177e 0191     		str	r1, [sp, #4]
 3861 1780 2749     		ldr	r1, .L590+84
 3862 1782 0978     		ldrb	r1, [r1]	@ zero_extendqisi2
 3863 1784 0091     		str	r1, [sp]
 3864 1786 2749     		ldr	r1, .L590+88
 3865 1788 2846     		mov	r0, r5
 3866 178a FFF7FEFF 		bl	sprintf
 3867              	.LVL254:
 849:main.c        ****       escribeDisplay1(displayStr);
 3868              		.loc 1 849 0
 3869 178e 2846     		mov	r0, r5
 3870 1790 FFF7FEFF 		bl	escribeDisplay1
 3871              	.LVL255:
 850:main.c        ****       x1=ON;x10=OFF;x100=OFF;
 3872              		.loc 1 850 0
 3873 1794 0122     		movs	r2, #1
 3874 1796 1A4B     		ldr	r3, .L590+52
 3875 1798 1A80     		strh	r2, [r3]	@ movhi
 3876 179a 0C4B     		ldr	r3, .L590
ARM GAS  C:\Users\USUARIO\AppData\Local\Temp\cc9Uggst.s 			page 84


 3877 179c 1C80     		strh	r4, [r3]	@ movhi
 3878 179e 224B     		ldr	r3, .L590+92
 3879 17a0 1C80     		strh	r4, [r3]	@ movhi
 851:main.c        ****     
 852:main.c        ****       for(i=0;i<20;i++){
 3880              		.loc 1 852 0
 3881 17a2 224B     		ldr	r3, .L590+96
 3882 17a4 1C70     		strb	r4, [r3]
 3883 17a6 4BE0     		b	.L163
 3884              	.L166:
 853:main.c        ****          if(rampas[i].Horas==0 && rampas[i].Minutos==0){
 3885              		.loc 1 853 0
 3886 17a8 03EB4301 		add	r1, r3, r3, lsl #1
 3887 17ac 8A00     		lsls	r2, r1, #2
 3888 17ae 1149     		ldr	r1, .L590+40
 3889 17b0 0A44     		add	r2, r2, r1
 3890 17b2 9278     		ldrb	r2, [r2, #2]	@ zero_extendqisi2
 3891 17b4 002A     		cmp	r2, #0
 3892 17b6 3DD1     		bne	.L164
 3893              		.loc 1 853 0 is_stmt 0 discriminator 1
 3894 17b8 03EB4301 		add	r1, r3, r3, lsl #1
 3895 17bc 8A00     		lsls	r2, r1, #2
 3896 17be 0D49     		ldr	r1, .L590+40
 3897 17c0 0A44     		add	r2, r2, r1
 3898 17c2 D278     		ldrb	r2, [r2, #3]	@ zero_extendqisi2
 3899 17c4 B2BB     		cbnz	r2, .L164
 854:main.c        ****             Segmentos=i;  
 3900              		.loc 1 854 0 is_stmt 1
 3901 17c6 1A4A     		ldr	r2, .L590+100
 3902 17c8 1370     		strb	r3, [r2]
 855:main.c        ****             break;
 3903              		.loc 1 855 0
 3904 17ca 3DE0     		b	.L165
 3905              	.L591:
 3906              		.align	2
 3907              	.L590:
 3908 17cc 00000000 		.word	x10
 3909 17d0 00000000 		.word	SetpointH
 3910 17d4 00000000 		.word	displayStr
 3911 17d8 D4010000 		.word	.LC26
 3912 17dc 00000000 		.word	Rx_Buffer
 3913 17e0 00000000 		.word	Horas
 3914 17e4 00000000 		.word	Minutos
 3915 17e8 6C010000 		.word	.LC18
 3916 17ec 00000000 		.word	GuardaEEPROM
 3917 17f0 00000000 		.word	CicloLibre
 3918 17f4 00000000 		.word	rampas
 3919 17f8 00000000 		.word	pulsoAumentar
 3920 17fc 00000000 		.word	pulsoDisminuir
 3921 1800 00000000 		.word	x1
 3922 1804 00000000 		.word	Menu
 3923 1808 00000000 		.word	flagBorrado
 3924 180c 00000000 		.word	Mes
 3925 1810 00000000 		.word	Dia
 3926 1814 00000000 		.word	Segundo
 3927 1818 00000000 		.word	Minuto
 3928 181c 00000000 		.word	Hora
ARM GAS  C:\Users\USUARIO\AppData\Local\Temp\cc9Uggst.s 			page 85


 3929 1820 00000000 		.word	Year
 3930 1824 E8010000 		.word	.LC27
 3931 1828 00000000 		.word	x100
 3932 182c 00000000 		.word	i
 3933 1830 00000000 		.word	Segmentos
 3934              	.L164:
 856:main.c        ****          }else{
 857:main.c        ****             Segmentos=i+1;  
 3935              		.loc 1 857 0 discriminator 2
 3936 1834 0133     		adds	r3, r3, #1
 3937 1836 DBB2     		uxtb	r3, r3
 3938 1838 334A     		ldr	r2, .L592
 3939 183a 1370     		strb	r3, [r2]
 852:main.c        ****          if(rampas[i].Horas==0 && rampas[i].Minutos==0){
 3940              		.loc 1 852 0 discriminator 2
 3941 183c 334A     		ldr	r2, .L592+4
 3942 183e 1370     		strb	r3, [r2]
 3943              	.L163:
 852:main.c        ****          if(rampas[i].Horas==0 && rampas[i].Minutos==0){
 3944              		.loc 1 852 0 is_stmt 0 discriminator 1
 3945 1840 324B     		ldr	r3, .L592+4
 3946 1842 1B78     		ldrb	r3, [r3]	@ zero_extendqisi2
 3947 1844 132B     		cmp	r3, #19
 3948 1846 AFD9     		bls	.L166
 3949              	.L165:
 858:main.c        ****          }
 859:main.c        ****       }
 860:main.c        ****       
 861:main.c        ****       sprintf(displayStr,"t3.txt=\"Pasos Programados %02u\"",Segmentos);
 3950              		.loc 1 861 0 is_stmt 1
 3951 1848 314C     		ldr	r4, .L592+8
 3952 184a 2F4B     		ldr	r3, .L592
 3953 184c 1A78     		ldrb	r2, [r3]	@ zero_extendqisi2
 3954 184e 3149     		ldr	r1, .L592+12
 3955 1850 2046     		mov	r0, r4
 3956 1852 FFF7FEFF 		bl	sprintf
 3957              	.LVL256:
 862:main.c        ****       escribeDisplay1(displayStr);
 3958              		.loc 1 862 0
 3959 1856 2046     		mov	r0, r4
 3960 1858 FFF7FEFF 		bl	escribeDisplay1
 3961              	.LVL257:
 863:main.c        ****       GuardaEEPROM=OFF;
 3962              		.loc 1 863 0
 3963 185c 0022     		movs	r2, #0
 3964 185e 2E4B     		ldr	r3, .L592+16
 3965 1860 1A80     		strh	r2, [r3]	@ movhi
 864:main.c        ****       
 865:main.c        ****       if(Rx_Buffer[4]>0x00 && Rx_Buffer[4]<21){//Personalizados
 3966              		.loc 1 865 0
 3967 1862 2E4B     		ldr	r3, .L592+20
 3968 1864 1A79     		ldrb	r2, [r3, #4]	@ zero_extendqisi2
 3969 1866 531E     		subs	r3, r2, #1
 3970 1868 DBB2     		uxtb	r3, r3
 3971 186a 132B     		cmp	r3, #19
 3972 186c 3BD8     		bhi	.L167
 866:main.c        ****          sprintf(displayStr,"ciclo.txt=\"Paso %02u\"",Rx_Buffer[4]);
ARM GAS  C:\Users\USUARIO\AppData\Local\Temp\cc9Uggst.s 			page 86


 3973              		.loc 1 866 0
 3974 186e 2C49     		ldr	r1, .L592+24
 3975 1870 2046     		mov	r0, r4
 3976 1872 FFF7FEFF 		bl	sprintf
 3977              	.LVL258:
 867:main.c        ****          escribeDisplay1(displayStr);
 3978              		.loc 1 867 0
 3979 1876 2046     		mov	r0, r4
 3980 1878 FFF7FEFF 		bl	escribeDisplay1
 3981              	.LVL259:
 868:main.c        ****          sprintf(displayStr,"temp.txt=\"Temperatura: %2.1fC\"",rampas[Rx_Buffer[4]-1].Temperatura
 3982              		.loc 1 868 0
 3983 187c 274D     		ldr	r5, .L592+20
 3984 187e 2B79     		ldrb	r3, [r5, #4]	@ zero_extendqisi2
 3985 1880 013B     		subs	r3, r3, #1
 3986 1882 284E     		ldr	r6, .L592+28
 3987 1884 03EB4303 		add	r3, r3, r3, lsl #1
 3988 1888 9A00     		lsls	r2, r3, #2
 3989 188a 3244     		add	r2, r2, r6
 3990 188c 9068     		ldr	r0, [r2, #8]	@ float
 3991 188e FFF7FEFF 		bl	__aeabi_f2d
 3992              	.LVL260:
 3993 1892 0246     		mov	r2, r0
 3994 1894 0B46     		mov	r3, r1
 3995 1896 2449     		ldr	r1, .L592+32
 3996 1898 2046     		mov	r0, r4
 3997 189a FFF7FEFF 		bl	sprintf
 3998              	.LVL261:
 869:main.c        ****          escribeDisplay1(displayStr);
 3999              		.loc 1 869 0
 4000 189e 2046     		mov	r0, r4
 4001 18a0 FFF7FEFF 		bl	escribeDisplay1
 4002              	.LVL262:
 870:main.c        ****          sprintf(displayStr,"hum.txt=\"Humedad: %03u \"",rampas[Rx_Buffer[4]-1].Humedad);
 4003              		.loc 1 870 0
 4004 18a4 2B79     		ldrb	r3, [r5, #4]	@ zero_extendqisi2
 4005 18a6 013B     		subs	r3, r3, #1
 4006 18a8 03EB4303 		add	r3, r3, r3, lsl #1
 4007 18ac 9A00     		lsls	r2, r3, #2
 4008 18ae 3244     		add	r2, r2, r6
 4009 18b0 1279     		ldrb	r2, [r2, #4]	@ zero_extendqisi2
 4010 18b2 1E49     		ldr	r1, .L592+36
 4011 18b4 2046     		mov	r0, r4
 4012 18b6 FFF7FEFF 		bl	sprintf
 4013              	.LVL263:
 871:main.c        ****          escribeDisplay1(displayStr);
 4014              		.loc 1 871 0
 4015 18ba 2046     		mov	r0, r4
 4016 18bc FFF7FEFF 		bl	escribeDisplay1
 4017              	.LVL264:
 872:main.c        ****          sprintf(displayStr,"tiempo.txt=\"Tiempo: %02u:%02u \"",rampas[Rx_Buffer[4]-1].Horas,rampas
 4018              		.loc 1 872 0
 4019 18c0 2B79     		ldrb	r3, [r5, #4]	@ zero_extendqisi2
 4020 18c2 013B     		subs	r3, r3, #1
 4021 18c4 5900     		lsls	r1, r3, #1
 4022 18c6 C818     		adds	r0, r1, r3
 4023 18c8 8200     		lsls	r2, r0, #2
ARM GAS  C:\Users\USUARIO\AppData\Local\Temp\cc9Uggst.s 			page 87


 4024 18ca 3244     		add	r2, r2, r6
 4025 18cc D378     		ldrb	r3, [r2, #3]	@ zero_extendqisi2
 4026 18ce 9278     		ldrb	r2, [r2, #2]	@ zero_extendqisi2
 4027 18d0 1749     		ldr	r1, .L592+40
 4028 18d2 2046     		mov	r0, r4
 4029 18d4 FFF7FEFF 		bl	sprintf
 4030              	.LVL265:
 873:main.c        ****          escribeDisplay1(displayStr);
 4031              		.loc 1 873 0
 4032 18d8 2046     		mov	r0, r4
 4033 18da FFF7FEFF 		bl	escribeDisplay1
 4034              	.LVL266:
 874:main.c        ****          CicloLibre=Rx_Buffer[4];
 4035              		.loc 1 874 0
 4036 18de 2A79     		ldrb	r2, [r5, #4]	@ zero_extendqisi2
 4037 18e0 144B     		ldr	r3, .L592+44
 4038 18e2 1A70     		strb	r2, [r3]
 4039 18e4 6DE0     		b	.L168
 4040              	.L167:
 875:main.c        ****       }else if(CicloLibre==0x00){
 4041              		.loc 1 875 0
 4042 18e6 134B     		ldr	r3, .L592+44
 4043 18e8 1A78     		ldrb	r2, [r3]	@ zero_extendqisi2
 4044 18ea 6ABB     		cbnz	r2, .L169
 876:main.c        ****          escribeDisplay1("ciclo.txt=\"Paso --\"");
 4045              		.loc 1 876 0
 4046 18ec 1248     		ldr	r0, .L592+48
 4047 18ee FFF7FEFF 		bl	escribeDisplay1
 4048              	.LVL267:
 877:main.c        ****          escribeDisplay1("temp.txt=\"Temperatura: --\"");
 4049              		.loc 1 877 0
 4050 18f2 1248     		ldr	r0, .L592+52
 4051 18f4 FFF7FEFF 		bl	escribeDisplay1
 4052              	.LVL268:
 878:main.c        ****          escribeDisplay1("hum.txt=\"Humedad: --\"");
 4053              		.loc 1 878 0
 4054 18f8 1148     		ldr	r0, .L592+56
 4055 18fa FFF7FEFF 		bl	escribeDisplay1
 4056              	.LVL269:
 879:main.c        ****          escribeDisplay1("tiempo.txt=\"Tiempo: --:--\"");
 4057              		.loc 1 879 0
 4058 18fe 1148     		ldr	r0, .L592+60
 4059 1900 FFF7FEFF 		bl	escribeDisplay1
 4060              	.LVL270:
 4061 1904 5DE0     		b	.L168
 4062              	.L593:
 4063 1906 00BF     		.align	2
 4064              	.L592:
 4065 1908 00000000 		.word	Segmentos
 4066 190c 00000000 		.word	i
 4067 1910 00000000 		.word	displayStr
 4068 1914 20020000 		.word	.LC28
 4069 1918 00000000 		.word	GuardaEEPROM
 4070 191c 00000000 		.word	Rx_Buffer
 4071 1920 40020000 		.word	.LC29
 4072 1924 00000000 		.word	rampas
 4073 1928 58020000 		.word	.LC30
ARM GAS  C:\Users\USUARIO\AppData\Local\Temp\cc9Uggst.s 			page 88


 4074 192c 7C020000 		.word	.LC31
 4075 1930 98020000 		.word	.LC32
 4076 1934 00000000 		.word	CicloLibre
 4077 1938 B8020000 		.word	.LC33
 4078 193c CC020000 		.word	.LC34
 4079 1940 E8020000 		.word	.LC35
 4080 1944 00030000 		.word	.LC36
 4081              	.L169:
 880:main.c        ****       }else if(CicloLibre>0 && CicloLibre<21){
 4082              		.loc 1 880 0
 4083 1948 531E     		subs	r3, r2, #1
 4084 194a DBB2     		uxtb	r3, r3
 4085 194c 132B     		cmp	r3, #19
 4086 194e 38D8     		bhi	.L168
 881:main.c        ****          sprintf(displayStr,"ciclo.txt=\"Paso %02u\"",CicloLibre);
 4087              		.loc 1 881 0
 4088 1950 904C     		ldr	r4, .L594
 4089 1952 9149     		ldr	r1, .L594+4
 4090 1954 2046     		mov	r0, r4
 4091 1956 FFF7FEFF 		bl	sprintf
 4092              	.LVL271:
 882:main.c        ****          escribeDisplay1(displayStr);         
 4093              		.loc 1 882 0
 4094 195a 2046     		mov	r0, r4
 4095 195c FFF7FEFF 		bl	escribeDisplay1
 4096              	.LVL272:
 883:main.c        ****          sprintf(displayStr,"temp.txt=\"Temperatura: %2.1fC\"",rampas[CicloLibre-1].Temperatura);
 4097              		.loc 1 883 0
 4098 1960 8E4E     		ldr	r6, .L594+8
 4099 1962 3378     		ldrb	r3, [r6]	@ zero_extendqisi2
 4100 1964 013B     		subs	r3, r3, #1
 4101 1966 8E4D     		ldr	r5, .L594+12
 4102 1968 03EB4303 		add	r3, r3, r3, lsl #1
 4103 196c 9A00     		lsls	r2, r3, #2
 4104 196e 2A44     		add	r2, r2, r5
 4105 1970 9068     		ldr	r0, [r2, #8]	@ float
 4106 1972 FFF7FEFF 		bl	__aeabi_f2d
 4107              	.LVL273:
 4108 1976 0246     		mov	r2, r0
 4109 1978 0B46     		mov	r3, r1
 4110 197a 8A49     		ldr	r1, .L594+16
 4111 197c 2046     		mov	r0, r4
 4112 197e FFF7FEFF 		bl	sprintf
 4113              	.LVL274:
 884:main.c        ****          escribeDisplay1(displayStr);
 4114              		.loc 1 884 0
 4115 1982 2046     		mov	r0, r4
 4116 1984 FFF7FEFF 		bl	escribeDisplay1
 4117              	.LVL275:
 885:main.c        ****          sprintf(displayStr,"hum.txt=\"Humedad: %03u \"",rampas[CicloLibre-1].Humedad);
 4118              		.loc 1 885 0
 4119 1988 3378     		ldrb	r3, [r6]	@ zero_extendqisi2
 4120 198a 013B     		subs	r3, r3, #1
 4121 198c 03EB4303 		add	r3, r3, r3, lsl #1
 4122 1990 9A00     		lsls	r2, r3, #2
 4123 1992 2A44     		add	r2, r2, r5
 4124 1994 1279     		ldrb	r2, [r2, #4]	@ zero_extendqisi2
ARM GAS  C:\Users\USUARIO\AppData\Local\Temp\cc9Uggst.s 			page 89


 4125 1996 8449     		ldr	r1, .L594+20
 4126 1998 2046     		mov	r0, r4
 4127 199a FFF7FEFF 		bl	sprintf
 4128              	.LVL276:
 886:main.c        ****          escribeDisplay1(displayStr);
 4129              		.loc 1 886 0
 4130 199e 2046     		mov	r0, r4
 4131 19a0 FFF7FEFF 		bl	escribeDisplay1
 4132              	.LVL277:
 887:main.c        ****          sprintf(displayStr,"tiempo.txt=\"Tiempo: %02u:%02u \"",rampas[CicloLibre-1].Horas,rampas[C
 4133              		.loc 1 887 0
 4134 19a4 3378     		ldrb	r3, [r6]	@ zero_extendqisi2
 4135 19a6 013B     		subs	r3, r3, #1
 4136 19a8 5900     		lsls	r1, r3, #1
 4137 19aa C818     		adds	r0, r1, r3
 4138 19ac 8200     		lsls	r2, r0, #2
 4139 19ae 2A44     		add	r2, r2, r5
 4140 19b0 D378     		ldrb	r3, [r2, #3]	@ zero_extendqisi2
 4141 19b2 9278     		ldrb	r2, [r2, #2]	@ zero_extendqisi2
 4142 19b4 7D49     		ldr	r1, .L594+24
 4143 19b6 2046     		mov	r0, r4
 4144 19b8 FFF7FEFF 		bl	sprintf
 4145              	.LVL278:
 888:main.c        ****          escribeDisplay1(displayStr);
 4146              		.loc 1 888 0
 4147 19bc 2046     		mov	r0, r4
 4148 19be FFF7FEFF 		bl	escribeDisplay1
 4149              	.LVL279:
 4150              	.L168:
 889:main.c        ****       }
 890:main.c        ****       
 891:main.c        ****       if(Rx_Buffer[4]==0x20 && CicloLibre>0){//20, Temperatura
 4151              		.loc 1 891 0
 4152 19c2 7B4B     		ldr	r3, .L594+28
 4153 19c4 1B79     		ldrb	r3, [r3, #4]	@ zero_extendqisi2
 4154 19c6 202B     		cmp	r3, #32
 4155 19c8 08D1     		bne	.L170
 4156              		.loc 1 891 0 is_stmt 0 discriminator 1
 4157 19ca 744B     		ldr	r3, .L594+8
 4158 19cc 1B78     		ldrb	r3, [r3]	@ zero_extendqisi2
 4159 19ce 2BB1     		cbz	r3, .L170
 892:main.c        ****          escribeDisplay1("page Temperatura");
 4160              		.loc 1 892 0 is_stmt 1
 4161 19d0 7848     		ldr	r0, .L594+32
 4162 19d2 FFF7FEFF 		bl	escribeDisplay1
 4163              	.LVL280:
 893:main.c        ****          rampa=ON;
 4164              		.loc 1 893 0
 4165 19d6 0122     		movs	r2, #1
 4166 19d8 774B     		ldr	r3, .L594+36
 4167 19da 1A80     		strh	r2, [r3]	@ movhi
 4168              	.L170:
 894:main.c        ****       }
 895:main.c        ****       
 896:main.c        ****       if(Rx_Buffer[4]==0x30 && CicloLibre>0){//30, Humedad
 4169              		.loc 1 896 0
 4170 19dc 744B     		ldr	r3, .L594+28
ARM GAS  C:\Users\USUARIO\AppData\Local\Temp\cc9Uggst.s 			page 90


 4171 19de 1B79     		ldrb	r3, [r3, #4]	@ zero_extendqisi2
 4172 19e0 302B     		cmp	r3, #48
 4173 19e2 08D1     		bne	.L171
 4174              		.loc 1 896 0 is_stmt 0 discriminator 1
 4175 19e4 6D4B     		ldr	r3, .L594+8
 4176 19e6 1B78     		ldrb	r3, [r3]	@ zero_extendqisi2
 4177 19e8 2BB1     		cbz	r3, .L171
 897:main.c        ****          escribeDisplay1("page Humedad");
 4178              		.loc 1 897 0 is_stmt 1
 4179 19ea 7448     		ldr	r0, .L594+40
 4180 19ec FFF7FEFF 		bl	escribeDisplay1
 4181              	.LVL281:
 898:main.c        ****          rampa=ON;
 4182              		.loc 1 898 0
 4183 19f0 0122     		movs	r2, #1
 4184 19f2 714B     		ldr	r3, .L594+36
 4185 19f4 1A80     		strh	r2, [r3]	@ movhi
 4186              	.L171:
 899:main.c        ****       }
 900:main.c        ****       
 901:main.c        ****       if(Rx_Buffer[4]==0x40 && CicloLibre>0){//40, Tiempo
 4187              		.loc 1 901 0
 4188 19f6 6E4B     		ldr	r3, .L594+28
 4189 19f8 1B79     		ldrb	r3, [r3, #4]	@ zero_extendqisi2
 4190 19fa 402B     		cmp	r3, #64
 4191 19fc 08D1     		bne	.L172
 4192              		.loc 1 901 0 is_stmt 0 discriminator 1
 4193 19fe 674B     		ldr	r3, .L594+8
 4194 1a00 1B78     		ldrb	r3, [r3]	@ zero_extendqisi2
 4195 1a02 2BB1     		cbz	r3, .L172
 902:main.c        ****          escribeDisplay1("page Tiempo");
 4196              		.loc 1 902 0 is_stmt 1
 4197 1a04 6E48     		ldr	r0, .L594+44
 4198 1a06 FFF7FEFF 		bl	escribeDisplay1
 4199              	.LVL282:
 903:main.c        ****          rampa=ON;
 4200              		.loc 1 903 0
 4201 1a0a 0122     		movs	r2, #1
 4202 1a0c 6A4B     		ldr	r3, .L594+36
 4203 1a0e 1A80     		strh	r2, [r3]	@ movhi
 4204              	.L172:
 904:main.c        ****       }
 905:main.c        ****       
 906:main.c        ****       if(Rx_Buffer[4]==0x70){//70, Regresar
 4205              		.loc 1 906 0
 4206 1a10 674B     		ldr	r3, .L594+28
 4207 1a12 1B79     		ldrb	r3, [r3, #4]	@ zero_extendqisi2
 4208 1a14 702B     		cmp	r3, #112
 4209 1a16 05D1     		bne	.L162
 907:main.c        ****          escribeDisplay1("page Principal");
 4210              		.loc 1 907 0
 4211 1a18 6A48     		ldr	r0, .L594+48
 4212 1a1a FFF7FEFF 		bl	escribeDisplay1
 4213              	.LVL283:
 908:main.c        ****          rampa=OFF;
 4214              		.loc 1 908 0
 4215 1a1e 0022     		movs	r2, #0
ARM GAS  C:\Users\USUARIO\AppData\Local\Temp\cc9Uggst.s 			page 91


 4216 1a20 654B     		ldr	r3, .L594+36
 4217 1a22 1A80     		strh	r2, [r3]	@ movhi
 4218              	.L162:
 909:main.c        ****       }
 910:main.c        ****    }//Menu de Rampas
 911:main.c        **** //_------------------------------------------------------------------------------------------------
 912:main.c        ****         
 913:main.c        **** //_------------------------------------------------------------------------------------------------
 914:main.c        ****     if(Menu==15){//Menu de Clave Correcta
 4219              		.loc 1 914 0
 4220 1a24 684B     		ldr	r3, .L594+52
 4221 1a26 1B78     		ldrb	r3, [r3]	@ zero_extendqisi2
 4222 1a28 0F2B     		cmp	r3, #15
 4223 1a2a 0DD1     		bne	.L173
 915:main.c        ****       if(!entro){
 4224              		.loc 1 915 0
 4225 1a2c 674B     		ldr	r3, .L594+56
 4226 1a2e B3F90030 		ldrsh	r3, [r3]
 4227 1a32 33B9     		cbnz	r3, .L174
 916:main.c        ****          CyDelay(800);
 4228              		.loc 1 916 0
 4229 1a34 4FF44870 		mov	r0, #800
 4230 1a38 FFF7FEFF 		bl	CyDelay
 4231              	.LVL284:
 917:main.c        ****          entro=ON;
 4232              		.loc 1 917 0
 4233 1a3c 0122     		movs	r2, #1
 4234 1a3e 634B     		ldr	r3, .L594+56
 4235 1a40 1A80     		strh	r2, [r3]	@ movhi
 4236              	.L174:
 918:main.c        ****       }
 919:main.c        ****       escribeDisplay1("page Principal");
 4237              		.loc 1 919 0
 4238 1a42 6048     		ldr	r0, .L594+48
 4239 1a44 FFF7FEFF 		bl	escribeDisplay1
 4240              	.LVL285:
 4241              	.L173:
 920:main.c        ****    }//Menu de Clave Correcta
 921:main.c        **** //_------------------------------------------------------------------------------------------------
 922:main.c        **** 
 923:main.c        **** //_------------------------------------------------------------------------------------------------
 924:main.c        ****     if(Menu==16){//Menu de Clave InCorrecta
 4242              		.loc 1 924 0
 4243 1a48 5F4B     		ldr	r3, .L594+52
 4244 1a4a 1B78     		ldrb	r3, [r3]	@ zero_extendqisi2
 4245 1a4c 102B     		cmp	r3, #16
 4246 1a4e 0DD1     		bne	.L175
 925:main.c        ****       if(!entro){
 4247              		.loc 1 925 0
 4248 1a50 5E4B     		ldr	r3, .L594+56
 4249 1a52 B3F90030 		ldrsh	r3, [r3]
 4250 1a56 33B9     		cbnz	r3, .L176
 926:main.c        ****          CyDelay(800);         
 4251              		.loc 1 926 0
 4252 1a58 4FF44870 		mov	r0, #800
 4253 1a5c FFF7FEFF 		bl	CyDelay
 4254              	.LVL286:
ARM GAS  C:\Users\USUARIO\AppData\Local\Temp\cc9Uggst.s 			page 92


 927:main.c        ****          entro=ON;
 4255              		.loc 1 927 0
 4256 1a60 0122     		movs	r2, #1
 4257 1a62 5A4B     		ldr	r3, .L594+56
 4258 1a64 1A80     		strh	r2, [r3]	@ movhi
 4259              	.L176:
 928:main.c        ****       }
 929:main.c        ****       escribeDisplay1("page Clave");
 4260              		.loc 1 929 0
 4261 1a66 5A48     		ldr	r0, .L594+60
 4262 1a68 FFF7FEFF 		bl	escribeDisplay1
 4263              	.LVL287:
 4264              	.L175:
 930:main.c        ****    }//Menu de Clave InCorrecta
 931:main.c        **** //_------------------------------------------------------------------------------------------------
 932:main.c        **** 
 933:main.c        **** //_------------------------------------------------------------------------------------------------
 934:main.c        ****     if(Menu==20){ //Menu de Funcionamiento
 4265              		.loc 1 934 0
 4266 1a6c 564B     		ldr	r3, .L594+52
 4267 1a6e 1B78     		ldrb	r3, [r3]	@ zero_extendqisi2
 4268 1a70 142B     		cmp	r3, #20
 4269 1a72 40F05786 		bne	.L177
 935:main.c        ****       GuardaEEPROM=OFF;
 4270              		.loc 1 935 0
 4271 1a76 0023     		movs	r3, #0
 4272 1a78 564A     		ldr	r2, .L594+64
 4273 1a7a 1380     		strh	r3, [r2]	@ movhi
 936:main.c        ****       dibujo=OFF;
 4274              		.loc 1 936 0
 4275 1a7c 564A     		ldr	r2, .L594+68
 4276 1a7e 1380     		strh	r3, [r2]	@ movhi
 937:main.c        ****       conteoPregunta=OFF;
 4277              		.loc 1 937 0
 4278 1a80 564A     		ldr	r2, .L594+72
 4279 1a82 1380     		strh	r3, [r2]	@ movhi
 938:main.c        ****       tPregunta=0;
 4280              		.loc 1 938 0
 4281 1a84 564A     		ldr	r2, .L594+76
 4282 1a86 1380     		strh	r3, [r2]	@ movhi
 939:main.c        ****       sprintf(displayStr,"t7.txt=\"Camara Climatica JP Inglobal \"");
 4283              		.loc 1 939 0
 4284 1a88 564E     		ldr	r6, .L594+80
 4285 1a8a 424C     		ldr	r4, .L594
 4286 1a8c 06F12007 		add	r7, r6, #32
 4287              	.L178:
 4288 1a90 3546     		mov	r5, r6
 4289 1a92 0FCD     		ldmia	r5!, {r0, r1, r2, r3}
 4290 1a94 2060     		str	r0, [r4]	@ unaligned
 4291 1a96 6160     		str	r1, [r4, #4]	@ unaligned
 4292 1a98 A260     		str	r2, [r4, #8]	@ unaligned
 4293 1a9a E360     		str	r3, [r4, #12]	@ unaligned
 4294 1a9c 2E46     		mov	r6, r5
 4295 1a9e 1034     		adds	r4, r4, #16
 4296 1aa0 BD42     		cmp	r5, r7
 4297 1aa2 F5D1     		bne	.L178
 4298 1aa4 2868     		ldr	r0, [r5]	@ unaligned
ARM GAS  C:\Users\USUARIO\AppData\Local\Temp\cc9Uggst.s 			page 93


 4299 1aa6 2060     		str	r0, [r4]	@ unaligned
 4300 1aa8 AA88     		ldrh	r2, [r5, #4]	@ unaligned
 4301 1aaa AB79     		ldrb	r3, [r5, #6]	@ zero_extendqisi2
 4302 1aac A280     		strh	r2, [r4, #4]	@ unaligned
 4303 1aae A371     		strb	r3, [r4, #6]
 940:main.c        ****       escribeDisplay1(displayStr);
 4304              		.loc 1 940 0
 4305 1ab0 384C     		ldr	r4, .L594
 4306 1ab2 2046     		mov	r0, r4
 4307 1ab4 FFF7FEFF 		bl	escribeDisplay1
 4308              	.LVL288:
 941:main.c        ****       sprintf(displayStr,"fecha.txt=\"Fecha:%02u/%02u/20%02u    Hora: %02u:%02u:%02u\"",Dia,Mes,Yea
 4309              		.loc 1 941 0
 4310 1ab8 4B4B     		ldr	r3, .L594+84
 4311 1aba 1B78     		ldrb	r3, [r3]	@ zero_extendqisi2
 4312 1abc 4B4A     		ldr	r2, .L594+88
 4313 1abe 1278     		ldrb	r2, [r2]	@ zero_extendqisi2
 4314 1ac0 4B49     		ldr	r1, .L594+92
 4315 1ac2 0978     		ldrb	r1, [r1]	@ zero_extendqisi2
 4316 1ac4 0391     		str	r1, [sp, #12]
 4317 1ac6 4B49     		ldr	r1, .L594+96
 4318 1ac8 0978     		ldrb	r1, [r1]	@ zero_extendqisi2
 4319 1aca 0291     		str	r1, [sp, #8]
 4320 1acc 4A49     		ldr	r1, .L594+100
 4321 1ace 0978     		ldrb	r1, [r1]	@ zero_extendqisi2
 4322 1ad0 0191     		str	r1, [sp, #4]
 4323 1ad2 4A49     		ldr	r1, .L594+104
 4324 1ad4 0978     		ldrb	r1, [r1]	@ zero_extendqisi2
 4325 1ad6 0091     		str	r1, [sp]
 4326 1ad8 4949     		ldr	r1, .L594+108
 4327 1ada 2046     		mov	r0, r4
 4328 1adc FFF7FEFF 		bl	sprintf
 4329              	.LVL289:
 942:main.c        ****       escribeDisplay1(displayStr);
 4330              		.loc 1 942 0
 4331 1ae0 2046     		mov	r0, r4
 4332 1ae2 FFF7FEFF 		bl	escribeDisplay1
 4333              	.LVL290:
 943:main.c        ****       x1=ON;x10=OFF;x100=OFF;
 4334              		.loc 1 943 0
 4335 1ae6 0122     		movs	r2, #1
 4336 1ae8 464B     		ldr	r3, .L594+112
 4337 1aea 1A80     		strh	r2, [r3]	@ movhi
 4338 1aec 0023     		movs	r3, #0
 4339 1aee 464A     		ldr	r2, .L594+116
 4340 1af0 1380     		strh	r3, [r2]	@ movhi
 4341 1af2 464A     		ldr	r2, .L594+120
 4342 1af4 1380     		strh	r3, [r2]	@ movhi
 944:main.c        ****       
 945:main.c        ****       if(Rx_Buffer[4]==0x01){//Temperatura
 4343              		.loc 1 945 0
 4344 1af6 2E4B     		ldr	r3, .L594+28
 4345 1af8 1B79     		ldrb	r3, [r3, #4]	@ zero_extendqisi2
 4346 1afa 012B     		cmp	r3, #1
 4347 1afc 02D1     		bne	.L179
 946:main.c        ****          escribeDisplay1("page Temperatura");
 4348              		.loc 1 946 0
ARM GAS  C:\Users\USUARIO\AppData\Local\Temp\cc9Uggst.s 			page 94


 4349 1afe 2D48     		ldr	r0, .L594+32
 4350 1b00 FFF7FEFF 		bl	escribeDisplay1
 4351              	.LVL291:
 4352              	.L179:
 947:main.c        ****       }
 948:main.c        ****       
 949:main.c        ****       if(Rx_Buffer[4]==0x02){//Humedad
 4353              		.loc 1 949 0
 4354 1b04 2A4B     		ldr	r3, .L594+28
 4355 1b06 1B79     		ldrb	r3, [r3, #4]	@ zero_extendqisi2
 4356 1b08 022B     		cmp	r3, #2
 4357 1b0a 02D1     		bne	.L180
 950:main.c        ****          escribeDisplay1("page Humedad");
 4358              		.loc 1 950 0
 4359 1b0c 2B48     		ldr	r0, .L594+40
 4360 1b0e FFF7FEFF 		bl	escribeDisplay1
 4361              	.LVL292:
 4362              	.L180:
 951:main.c        ****       }
 952:main.c        ****       
 953:main.c        ****       if(Rx_Buffer[4]==0x03){//Tiempo
 4363              		.loc 1 953 0
 4364 1b12 274B     		ldr	r3, .L594+28
 4365 1b14 1B79     		ldrb	r3, [r3, #4]	@ zero_extendqisi2
 4366 1b16 032B     		cmp	r3, #3
 4367 1b18 02D1     		bne	.L181
 954:main.c        ****          escribeDisplay1("page Tiempo");
 4368              		.loc 1 954 0
 4369 1b1a 2948     		ldr	r0, .L594+44
 4370 1b1c FFF7FEFF 		bl	escribeDisplay1
 4371              	.LVL293:
 4372              	.L181:
 955:main.c        ****       }
 956:main.c        ****     
 957:main.c        ****       if(desconectoHumedad){
 4373              		.loc 1 957 0
 4374 1b20 3B4B     		ldr	r3, .L594+124
 4375 1b22 B3F90030 		ldrsh	r3, [r3]
 4376 1b26 33B1     		cbz	r3, .L182
 958:main.c        ****         inicioControlH=OFF;
 4377              		.loc 1 958 0
 4378 1b28 0023     		movs	r3, #0
 4379 1b2a 3A4A     		ldr	r2, .L594+128
 4380 1b2c 1380     		strh	r3, [r2]	@ movhi
 959:main.c        ****         flagControlH=OFF;
 4381              		.loc 1 959 0
 4382 1b2e 3A4A     		ldr	r2, .L594+132
 4383 1b30 1380     		strh	r3, [r2]	@ movhi
 960:main.c        ****         flagRampa=OFF;
 4384              		.loc 1 960 0
 4385 1b32 3A4A     		ldr	r2, .L594+136
 4386 1b34 1380     		strh	r3, [r2]	@ movhi
 4387              	.L182:
 961:main.c        ****       }
 962:main.c        ****         
 963:main.c        ****       if(desconectoTemperatura){
 4388              		.loc 1 963 0
ARM GAS  C:\Users\USUARIO\AppData\Local\Temp\cc9Uggst.s 			page 95


 4389 1b36 3A4B     		ldr	r3, .L594+140
 4390 1b38 B3F90030 		ldrsh	r3, [r3]
 4391 1b3c 33B1     		cbz	r3, .L183
 964:main.c        ****         inicioControlT=OFF;
 4392              		.loc 1 964 0
 4393 1b3e 0023     		movs	r3, #0
 4394 1b40 384A     		ldr	r2, .L594+144
 4395 1b42 1380     		strh	r3, [r2]	@ movhi
 965:main.c        ****         flagControlT=OFF;
 4396              		.loc 1 965 0
 4397 1b44 384A     		ldr	r2, .L594+148
 4398 1b46 1380     		strh	r3, [r2]	@ movhi
 966:main.c        ****         flagRampa=OFF;
 4399              		.loc 1 966 0
 4400 1b48 344A     		ldr	r2, .L594+136
 4401 1b4a 1380     		strh	r3, [r2]	@ movhi
 4402              	.L183:
 967:main.c        ****       }
 968:main.c        ****       
 969:main.c        ****       if(Rx_Buffer[4]==0x0a){//Configuracion Parametros
 4403              		.loc 1 969 0
 4404 1b4c 184B     		ldr	r3, .L594+28
 4405 1b4e 1B79     		ldrb	r3, [r3, #4]	@ zero_extendqisi2
 4406 1b50 0A2B     		cmp	r3, #10
 4407 1b52 02D1     		bne	.L184
 970:main.c        ****          escribeDisplay1("page Rampas");
 4408              		.loc 1 970 0
 4409 1b54 3548     		ldr	r0, .L594+152
 4410 1b56 FFF7FEFF 		bl	escribeDisplay1
 4411              	.LVL294:
 4412              	.L184:
 971:main.c        ****       }
 972:main.c        ****       
 973:main.c        ****       if(Finalizo==0){
 4413              		.loc 1 973 0
 4414 1b5a 354B     		ldr	r3, .L594+156
 4415 1b5c B3F90030 		ldrsh	r3, [r3]
 4416 1b60 002B     		cmp	r3, #0
 4417 1b62 40F0B183 		bne	.L185
 974:main.c        ****             if(DOOR_Read()==0){
 4418              		.loc 1 974 0
 4419 1b66 FFF7FEFF 		bl	DOOR_Read
 4420              	.LVL295:
 4421 1b6a 0028     		cmp	r0, #0
 4422 1b6c 40F00283 		bne	.L186
 975:main.c        ****                 if(Rx_Buffer[4]==0x08){//Inicia Control Temperatura
 4423              		.loc 1 975 0
 4424 1b70 0F4B     		ldr	r3, .L594+28
 4425 1b72 1B79     		ldrb	r3, [r3, #4]	@ zero_extendqisi2
 4426 1b74 082B     		cmp	r3, #8
 4427 1b76 40F08880 		bne	.L187
 976:main.c        ****                     flagControlT=!flagControlT;
 4428              		.loc 1 976 0
 4429 1b7a 2B4B     		ldr	r3, .L594+148
 4430 1b7c B3F90040 		ldrsh	r4, [r3]
 4431 1b80 B4FA84F4 		clz	r4, r4
 4432 1b84 6409     		lsrs	r4, r4, #5
ARM GAS  C:\Users\USUARIO\AppData\Local\Temp\cc9Uggst.s 			page 96


 4433 1b86 1C80     		strh	r4, [r3]	@ movhi
 977:main.c        ****                     if(flagControlT)
 4434              		.loc 1 977 0
 4435 1b88 002C     		cmp	r4, #0
 4436 1b8a 53D0     		beq	.L188
 978:main.c        ****                         inicioControlT=ON;
 4437              		.loc 1 978 0
 4438 1b8c 0122     		movs	r2, #1
 4439 1b8e 254B     		ldr	r3, .L594+144
 4440 1b90 1A80     		strh	r2, [r3]	@ movhi
 4441 1b92 52E0     		b	.L189
 4442              	.L595:
 4443              		.align	2
 4444              	.L594:
 4445 1b94 00000000 		.word	displayStr
 4446 1b98 40020000 		.word	.LC29
 4447 1b9c 00000000 		.word	CicloLibre
 4448 1ba0 00000000 		.word	rampas
 4449 1ba4 58020000 		.word	.LC30
 4450 1ba8 7C020000 		.word	.LC31
 4451 1bac 98020000 		.word	.LC32
 4452 1bb0 00000000 		.word	Rx_Buffer
 4453 1bb4 1C030000 		.word	.LC37
 4454 1bb8 00000000 		.word	rampa
 4455 1bbc 30030000 		.word	.LC38
 4456 1bc0 40030000 		.word	.LC39
 4457 1bc4 18000000 		.word	.LC2
 4458 1bc8 00000000 		.word	Menu
 4459 1bcc 00000000 		.word	entro
 4460 1bd0 44000000 		.word	.LC5
 4461 1bd4 00000000 		.word	GuardaEEPROM
 4462 1bd8 00000000 		.word	dibujo
 4463 1bdc 00000000 		.word	conteoPregunta
 4464 1be0 00000000 		.word	tPregunta
 4465 1be4 4C030000 		.word	.LC40
 4466 1be8 00000000 		.word	Mes
 4467 1bec 00000000 		.word	Dia
 4468 1bf0 00000000 		.word	Segundo
 4469 1bf4 00000000 		.word	Minuto
 4470 1bf8 00000000 		.word	Hora
 4471 1bfc 00000000 		.word	Year
 4472 1c00 08010000 		.word	.LC15
 4473 1c04 00000000 		.word	x1
 4474 1c08 00000000 		.word	x10
 4475 1c0c 00000000 		.word	x100
 4476 1c10 00000000 		.word	desconectoHumedad
 4477 1c14 00000000 		.word	inicioControlH
 4478 1c18 00000000 		.word	flagControlH
 4479 1c1c 00000000 		.word	flagRampa
 4480 1c20 00000000 		.word	desconectoTemperatura
 4481 1c24 00000000 		.word	inicioControlT
 4482 1c28 00000000 		.word	flagControlT
 4483 1c2c 6C010000 		.word	.LC18
 4484 1c30 00000000 		.word	Finalizo
 4485              	.L188:
 979:main.c        ****                     else
 980:main.c        ****                         inicioControlT=OFF;
ARM GAS  C:\Users\USUARIO\AppData\Local\Temp\cc9Uggst.s 			page 97


 4486              		.loc 1 980 0
 4487 1c34 0022     		movs	r2, #0
 4488 1c36 AE4B     		ldr	r3, .L596
 4489 1c38 1A80     		strh	r2, [r3]	@ movhi
 4490              	.L189:
 981:main.c        ****                     Rx_Buffer[4]=0x00;
 4491              		.loc 1 981 0
 4492 1c3a 0023     		movs	r3, #0
 4493 1c3c AD4A     		ldr	r2, .L596+4
 4494 1c3e 1371     		strb	r3, [r2, #4]
 982:main.c        ****                     Rx_Buffer2[4]=0x00;
 4495              		.loc 1 982 0
 4496 1c40 AD4A     		ldr	r2, .L596+8
 4497 1c42 1371     		strb	r3, [r2, #4]
 983:main.c        ****                     Ganancia=GananciaR*(Setpoint/200);
 4498              		.loc 1 983 0
 4499 1c44 AD49     		ldr	r1, .L596+12
 4500 1c46 AE4B     		ldr	r3, .L596+16
 4501 1c48 1868     		ldr	r0, [r3]	@ float
 4502 1c4a FFF7FEFF 		bl	__aeabi_fdiv
 4503              	.LVL296:
 4504 1c4e 0546     		mov	r5, r0
 4505 1c50 AC4B     		ldr	r3, .L596+20
 4506 1c52 1878     		ldrb	r0, [r3]	@ zero_extendqisi2
 4507 1c54 FFF7FEFF 		bl	__aeabi_i2f
 4508              	.LVL297:
 4509 1c58 2946     		mov	r1, r5
 4510 1c5a FFF7FEFF 		bl	__aeabi_fmul
 4511              	.LVL298:
 4512 1c5e AA4B     		ldr	r3, .L596+24
 4513 1c60 1860     		str	r0, [r3]	@ float
 984:main.c        ****                     if((mEstp==0)&&(hEstp==0))
 4514              		.loc 1 984 0
 4515 1c62 AA4B     		ldr	r3, .L596+28
 4516 1c64 1B78     		ldrb	r3, [r3]	@ zero_extendqisi2
 4517 1c66 33B9     		cbnz	r3, .L190
 4518              		.loc 1 984 0 is_stmt 0 discriminator 1
 4519 1c68 A94B     		ldr	r3, .L596+32
 4520 1c6a 1B78     		ldrb	r3, [r3]	@ zero_extendqisi2
 4521 1c6c 1BB9     		cbnz	r3, .L190
 985:main.c        ****                         Infinito=1;
 4522              		.loc 1 985 0 is_stmt 1
 4523 1c6e 0122     		movs	r2, #1
 4524 1c70 A84B     		ldr	r3, .L596+36
 4525 1c72 1A80     		strh	r2, [r3]	@ movhi
 4526 1c74 02E0     		b	.L191
 4527              	.L190:
 986:main.c        ****                     else
 987:main.c        ****                         Infinito=0;
 4528              		.loc 1 987 0
 4529 1c76 0022     		movs	r2, #0
 4530 1c78 A64B     		ldr	r3, .L596+36
 4531 1c7a 1A80     		strh	r2, [r3]	@ movhi
 4532              	.L191:
 988:main.c        ****                     EEPROM_WriteByte((uint8)flagControlT,41);CyDelay(20);
 4533              		.loc 1 988 0
 4534 1c7c 2921     		movs	r1, #41
ARM GAS  C:\Users\USUARIO\AppData\Local\Temp\cc9Uggst.s 			page 98


 4535 1c7e 2046     		mov	r0, r4
 4536 1c80 FFF7FEFF 		bl	EEPROM_WriteByte
 4537              	.LVL299:
 4538 1c84 1420     		movs	r0, #20
 4539 1c86 FFF7FEFF 		bl	CyDelay
 4540              	.LVL300:
 4541              	.L187:
 989:main.c        ****                 }
 990:main.c        ****               
 991:main.c        ****                 if(Rx_Buffer[4]==0x09){//Inicia Control Humedad
 4542              		.loc 1 991 0
 4543 1c8a 9A4B     		ldr	r3, .L596+4
 4544 1c8c 1B79     		ldrb	r3, [r3, #4]	@ zero_extendqisi2
 4545 1c8e 092B     		cmp	r3, #9
 4546 1c90 51D1     		bne	.L192
 992:main.c        ****                     flagControlH=!flagControlH;
 4547              		.loc 1 992 0
 4548 1c92 A14B     		ldr	r3, .L596+40
 4549 1c94 B3F90040 		ldrsh	r4, [r3]
 4550 1c98 B4FA84F4 		clz	r4, r4
 4551 1c9c 6409     		lsrs	r4, r4, #5
 4552 1c9e 1C80     		strh	r4, [r3]	@ movhi
 993:main.c        ****                     T1=(uint8)(((float)T1Humedad)*((float)SetpointH/80.0));
 4553              		.loc 1 993 0
 4554 1ca0 9E4B     		ldr	r3, .L596+44
 4555 1ca2 1878     		ldrb	r0, [r3]	@ zero_extendqisi2
 4556 1ca4 FFF7FEFF 		bl	__aeabi_ui2f
 4557              	.LVL301:
 4558 1ca8 0546     		mov	r5, r0
 4559 1caa 9D4B     		ldr	r3, .L596+48
 4560 1cac 1888     		ldrh	r0, [r3]
 4561 1cae FFF7FEFF 		bl	__aeabi_ui2f
 4562              	.LVL302:
 4563 1cb2 FFF7FEFF 		bl	__aeabi_f2d
 4564              	.LVL303:
 4565 1cb6 0022     		movs	r2, #0
 4566 1cb8 9A4B     		ldr	r3, .L596+52
 4567 1cba FFF7FEFF 		bl	__aeabi_ddiv
 4568              	.LVL304:
 4569 1cbe 0646     		mov	r6, r0
 4570 1cc0 0F46     		mov	r7, r1
 4571 1cc2 2846     		mov	r0, r5
 4572 1cc4 FFF7FEFF 		bl	__aeabi_f2d
 4573              	.LVL305:
 4574 1cc8 3246     		mov	r2, r6
 4575 1cca 3B46     		mov	r3, r7
 4576 1ccc FFF7FEFF 		bl	__aeabi_dmul
 4577              	.LVL306:
 4578 1cd0 FFF7FEFF 		bl	__aeabi_d2uiz
 4579              	.LVL307:
 4580 1cd4 944B     		ldr	r3, .L596+56
 4581 1cd6 1870     		strb	r0, [r3]
 994:main.c        ****                     T3=(uint8)(((float)T3Humedad)*((float)SetpointH/80.0));
 4582              		.loc 1 994 0
 4583 1cd8 944B     		ldr	r3, .L596+60
 4584 1cda 1878     		ldrb	r0, [r3]	@ zero_extendqisi2
 4585 1cdc FFF7FEFF 		bl	__aeabi_ui2f
ARM GAS  C:\Users\USUARIO\AppData\Local\Temp\cc9Uggst.s 			page 99


 4586              	.LVL308:
 4587 1ce0 FFF7FEFF 		bl	__aeabi_f2d
 4588              	.LVL309:
 4589 1ce4 3246     		mov	r2, r6
 4590 1ce6 3B46     		mov	r3, r7
 4591 1ce8 FFF7FEFF 		bl	__aeabi_dmul
 4592              	.LVL310:
 4593 1cec FFF7FEFF 		bl	__aeabi_d2uiz
 4594              	.LVL311:
 4595 1cf0 8F4B     		ldr	r3, .L596+64
 4596 1cf2 1870     		strb	r0, [r3]
 995:main.c        ****                     if(flagControlH)
 4597              		.loc 1 995 0
 4598 1cf4 1CB1     		cbz	r4, .L193
 996:main.c        ****                         inicioControlH=ON;
 4599              		.loc 1 996 0
 4600 1cf6 0122     		movs	r2, #1
 4601 1cf8 8E4B     		ldr	r3, .L596+68
 4602 1cfa 1A80     		strh	r2, [r3]	@ movhi
 4603 1cfc 02E0     		b	.L194
 4604              	.L193:
 997:main.c        ****                     else
 998:main.c        ****                         inicioControlH=OFF;
 4605              		.loc 1 998 0
 4606 1cfe 0022     		movs	r2, #0
 4607 1d00 8C4B     		ldr	r3, .L596+68
 4608 1d02 1A80     		strh	r2, [r3]	@ movhi
 4609              	.L194:
 999:main.c        ****                     Rx_Buffer[4]=0x00;
 4610              		.loc 1 999 0
 4611 1d04 0023     		movs	r3, #0
 4612 1d06 7B4A     		ldr	r2, .L596+4
 4613 1d08 1371     		strb	r3, [r2, #4]
1000:main.c        ****                     Rx_Buffer2[4]=0x00;
 4614              		.loc 1 1000 0
 4615 1d0a 7B4A     		ldr	r2, .L596+8
 4616 1d0c 1371     		strb	r3, [r2, #4]
1001:main.c        ****                     if((mEstp==0)&&(hEstp==0))
 4617              		.loc 1 1001 0
 4618 1d0e 7F4B     		ldr	r3, .L596+28
 4619 1d10 1B78     		ldrb	r3, [r3]	@ zero_extendqisi2
 4620 1d12 33B9     		cbnz	r3, .L195
 4621              		.loc 1 1001 0 is_stmt 0 discriminator 1
 4622 1d14 7E4B     		ldr	r3, .L596+32
 4623 1d16 1B78     		ldrb	r3, [r3]	@ zero_extendqisi2
 4624 1d18 1BB9     		cbnz	r3, .L195
1002:main.c        ****                         Infinito=1;
 4625              		.loc 1 1002 0 is_stmt 1
 4626 1d1a 0122     		movs	r2, #1
 4627 1d1c 7D4B     		ldr	r3, .L596+36
 4628 1d1e 1A80     		strh	r2, [r3]	@ movhi
 4629 1d20 02E0     		b	.L196
 4630              	.L195:
1003:main.c        ****                     else
1004:main.c        ****                         Infinito=0;
 4631              		.loc 1 1004 0
 4632 1d22 0022     		movs	r2, #0
ARM GAS  C:\Users\USUARIO\AppData\Local\Temp\cc9Uggst.s 			page 100


 4633 1d24 7B4B     		ldr	r3, .L596+36
 4634 1d26 1A80     		strh	r2, [r3]	@ movhi
 4635              	.L196:
1005:main.c        ****                     EEPROM_WriteByte((uint8)flagControlH,42);CyDelay(20);
 4636              		.loc 1 1005 0
 4637 1d28 2A21     		movs	r1, #42
 4638 1d2a 2046     		mov	r0, r4
 4639 1d2c FFF7FEFF 		bl	EEPROM_WriteByte
 4640              	.LVL312:
 4641 1d30 1420     		movs	r0, #20
 4642 1d32 FFF7FEFF 		bl	CyDelay
 4643              	.LVL313:
 4644              	.L192:
1006:main.c        ****                 }
1007:main.c        ****                 
1008:main.c        ****                 if(Rx_Buffer[4]==0x0b){//Inicia Control Rampa
 4645              		.loc 1 1008 0
 4646 1d36 6F4B     		ldr	r3, .L596+4
 4647 1d38 1B79     		ldrb	r3, [r3, #4]	@ zero_extendqisi2
 4648 1d3a 0B2B     		cmp	r3, #11
 4649 1d3c 40F08680 		bne	.L197
1009:main.c        ****                     if(Segmentos>0 && !inicioControlH && !inicioControlT){
 4650              		.loc 1 1009 0
 4651 1d40 7D4B     		ldr	r3, .L596+72
 4652 1d42 1B78     		ldrb	r3, [r3]	@ zero_extendqisi2
 4653 1d44 002B     		cmp	r3, #0
 4654 1d46 7CD0     		beq	.L198
 4655              		.loc 1 1009 0 is_stmt 0 discriminator 1
 4656 1d48 7A4B     		ldr	r3, .L596+68
 4657 1d4a B3F90030 		ldrsh	r3, [r3]
 4658 1d4e 002B     		cmp	r3, #0
 4659 1d50 77D1     		bne	.L198
 4660              		.loc 1 1009 0 discriminator 2
 4661 1d52 674B     		ldr	r3, .L596
 4662 1d54 B3F90030 		ldrsh	r3, [r3]
 4663 1d58 002B     		cmp	r3, #0
 4664 1d5a 72D1     		bne	.L198
1010:main.c        ****                         flagRampa=!flagRampa;
 4665              		.loc 1 1010 0 is_stmt 1
 4666 1d5c 774A     		ldr	r2, .L596+76
 4667 1d5e B2F90030 		ldrsh	r3, [r2]
 4668 1d62 B3FA83F3 		clz	r3, r3
 4669 1d66 5B09     		lsrs	r3, r3, #5
 4670 1d68 1380     		strh	r3, [r2]	@ movhi
1011:main.c        ****                         if(flagRampa){
 4671              		.loc 1 1011 0
 4672 1d6a 002B     		cmp	r3, #0
 4673 1d6c 50D0     		beq	.L199
1012:main.c        ****                             // Configura parametros para inicio de rampa  
1013:main.c        ****                             SetpointAnt=Setpoint;
 4674              		.loc 1 1013 0
 4675 1d6e DFF890A1 		ldr	r10, .L596+16
 4676 1d72 DAF80020 		ldr	r2, [r10]	@ float
 4677 1d76 724B     		ldr	r3, .L596+80
 4678 1d78 1A60     		str	r2, [r3]	@ float
1014:main.c        ****                             SetpointHAnt=SetpointH;
 4679              		.loc 1 1014 0
ARM GAS  C:\Users\USUARIO\AppData\Local\Temp\cc9Uggst.s 			page 101


 4680 1d7a DFF8A4E1 		ldr	lr, .L596+48
 4681 1d7e BEF80020 		ldrh	r2, [lr]
 4682 1d82 704B     		ldr	r3, .L596+84
 4683 1d84 1A80     		strh	r2, [r3]	@ movhi
1015:main.c        ****                             hEstpAnt=hEstp;
 4684              		.loc 1 1015 0
 4685 1d86 DFF88881 		ldr	r8, .L596+32
 4686 1d8a 98F80020 		ldrb	r2, [r8]	@ zero_extendqisi2
 4687 1d8e 6E4B     		ldr	r3, .L596+88
 4688 1d90 1A70     		strb	r2, [r3]
1016:main.c        ****                             mEstpAnt=mEstp;
 4689              		.loc 1 1016 0
 4690 1d92 5E4F     		ldr	r7, .L596+28
 4691 1d94 3A78     		ldrb	r2, [r7]	@ zero_extendqisi2
 4692 1d96 6D4B     		ldr	r3, .L596+92
 4693 1d98 1A70     		strb	r2, [r3]
1017:main.c        ****                             TempeInicial=Temperatura;
 4694              		.loc 1 1017 0
 4695 1d9a 6D4B     		ldr	r3, .L596+96
 4696 1d9c 1968     		ldr	r1, [r3]	@ float
 4697 1d9e 6D4B     		ldr	r3, .L596+100
 4698 1da0 1960     		str	r1, [r3]	@ float
1018:main.c        ****                             Tiempo=(rampas[Segmento].Horas*3600)+(rampas[Segmento].Minutos*60);    
 4699              		.loc 1 1018 0
 4700 1da2 6D4B     		ldr	r3, .L596+104
 4701 1da4 1B78     		ldrb	r3, [r3]	@ zero_extendqisi2
 4702 1da6 DFF8E8C1 		ldr	ip, .L596+160
 4703 1daa 4FEA4309 		lsl	r9, r3, #1
 4704 1dae 09EB0300 		add	r0, r9, r3
 4705 1db2 8200     		lsls	r2, r0, #2
 4706 1db4 6244     		add	r2, r2, ip
 4707 1db6 9678     		ldrb	r6, [r2, #2]	@ zero_extendqisi2
 4708 1db8 D578     		ldrb	r5, [r2, #3]	@ zero_extendqisi2
 4709 1dba C6EB0610 		rsb	r0, r6, r6, lsl #4
 4710 1dbe C0EB0010 		rsb	r0, r0, r0, lsl #4
 4711 1dc2 0401     		lsls	r4, r0, #4
 4712 1dc4 C5EB051B 		rsb	fp, r5, r5, lsl #4
 4713 1dc8 4FEA8B00 		lsl	r0, fp, #2
 4714 1dcc 2044     		add	r0, r0, r4
 4715 1dce 84B2     		uxth	r4, r0
 4716 1dd0 6248     		ldr	r0, .L596+108
 4717 1dd2 0480     		strh	r4, [r0]	@ movhi
1019:main.c        ****                             Setpoint=rampas[Segmento].Temperatura;
 4718              		.loc 1 1019 0
 4719 1dd4 9068     		ldr	r0, [r2, #8]	@ float
 4720 1dd6 CAF80000 		str	r0, [r10]	@ float
1020:main.c        ****                             SetpointH=rampas[Segmento].Humedad;
 4721              		.loc 1 1020 0
 4722 1dda 4B44     		add	r3, r3, r9
 4723 1ddc 9A00     		lsls	r2, r3, #2
 4724 1dde 6244     		add	r2, r2, ip
 4725 1de0 1379     		ldrb	r3, [r2, #4]	@ zero_extendqisi2
 4726 1de2 AEF80030 		strh	r3, [lr]	@ movhi
1021:main.c        ****                             Pendiente=((Setpoint-TempeInicial)/Tiempo);
 4727              		.loc 1 1021 0
 4728 1de6 FFF7FEFF 		bl	__aeabi_fsub
 4729              	.LVL314:
ARM GAS  C:\Users\USUARIO\AppData\Local\Temp\cc9Uggst.s 			page 102


 4730 1dea 8146     		mov	r9, r0
 4731 1dec 2046     		mov	r0, r4
 4732 1dee FFF7FEFF 		bl	__aeabi_i2f
 4733              	.LVL315:
 4734 1df2 0146     		mov	r1, r0
 4735 1df4 4846     		mov	r0, r9
 4736 1df6 FFF7FEFF 		bl	__aeabi_fdiv
 4737              	.LVL316:
 4738 1dfa 594B     		ldr	r3, .L596+112
 4739 1dfc 1860     		str	r0, [r3]	@ float
1022:main.c        ****                             hEstp=rampas[Segmento].Horas;
 4740              		.loc 1 1022 0
 4741 1dfe 88F80060 		strb	r6, [r8]
1023:main.c        ****                             mEstp=rampas[Segmento].Minutos;
 4742              		.loc 1 1023 0
 4743 1e02 3D70     		strb	r5, [r7]
1024:main.c        ****                             flagControlH=ON;
 4744              		.loc 1 1024 0
 4745 1e04 0123     		movs	r3, #1
 4746 1e06 444A     		ldr	r2, .L596+40
 4747 1e08 1380     		strh	r3, [r2]	@ movhi
1025:main.c        ****                             flagControlT=ON;
 4748              		.loc 1 1025 0
 4749 1e0a 564A     		ldr	r2, .L596+116
 4750 1e0c 1380     		strh	r3, [r2]	@ movhi
 4751 1e0e 18E0     		b	.L198
 4752              	.L199:
1026:main.c        ****                         }else{
1027:main.c        ****                             Setpoint=SetpointAnt;
 4753              		.loc 1 1027 0
 4754 1e10 4B4B     		ldr	r3, .L596+80
 4755 1e12 1A68     		ldr	r2, [r3]	@ float
 4756 1e14 3A4B     		ldr	r3, .L596+16
 4757 1e16 1A60     		str	r2, [r3]	@ float
1028:main.c        ****                             SetpointH=SetpointHAnt;
 4758              		.loc 1 1028 0
 4759 1e18 4A4B     		ldr	r3, .L596+84
 4760 1e1a 1A88     		ldrh	r2, [r3]
 4761 1e1c 404B     		ldr	r3, .L596+48
 4762 1e1e 1A80     		strh	r2, [r3]	@ movhi
1029:main.c        ****                             hEstp=hEstpAnt;
 4763              		.loc 1 1029 0
 4764 1e20 494B     		ldr	r3, .L596+88
 4765 1e22 1A78     		ldrb	r2, [r3]	@ zero_extendqisi2
 4766 1e24 3A4B     		ldr	r3, .L596+32
 4767 1e26 1A70     		strb	r2, [r3]
1030:main.c        ****                             mEstp=mEstpAnt;
 4768              		.loc 1 1030 0
 4769 1e28 484B     		ldr	r3, .L596+92
 4770 1e2a 1A78     		ldrb	r2, [r3]	@ zero_extendqisi2
 4771 1e2c 374B     		ldr	r3, .L596+28
 4772 1e2e 1A70     		strb	r2, [r3]
1031:main.c        ****                             mEst=0;
 4773              		.loc 1 1031 0
 4774 1e30 0023     		movs	r3, #0
 4775 1e32 4D4A     		ldr	r2, .L596+120
 4776 1e34 1370     		strb	r3, [r2]
ARM GAS  C:\Users\USUARIO\AppData\Local\Temp\cc9Uggst.s 			page 103


1032:main.c        ****                             hEst=0;
 4777              		.loc 1 1032 0
 4778 1e36 4D4A     		ldr	r2, .L596+124
 4779 1e38 1370     		strb	r3, [r2]
1033:main.c        ****                             flagControlH=OFF;
 4780              		.loc 1 1033 0
 4781 1e3a 374A     		ldr	r2, .L596+40
 4782 1e3c 1380     		strh	r3, [r2]	@ movhi
1034:main.c        ****                             flagControlT=OFF;
 4783              		.loc 1 1034 0
 4784 1e3e 494A     		ldr	r2, .L596+116
 4785 1e40 1380     		strh	r3, [r2]	@ movhi
 4786              	.L198:
1035:main.c        ****                         }
1036:main.c        ****                     }
1037:main.c        ****                     Rx_Buffer[4]=0x00;
 4787              		.loc 1 1037 0
 4788 1e42 0023     		movs	r3, #0
 4789 1e44 2B4A     		ldr	r2, .L596+4
 4790 1e46 1371     		strb	r3, [r2, #4]
1038:main.c        ****                     Rx_Buffer2[4]=0x00;
 4791              		.loc 1 1038 0
 4792 1e48 2B4A     		ldr	r2, .L596+8
 4793 1e4a 1371     		strb	r3, [r2, #4]
 4794              	.L197:
1039:main.c        ****                 }
1040:main.c        ****                 if(flagRampa){
 4795              		.loc 1 1040 0
 4796 1e4c 3B4B     		ldr	r3, .L596+76
 4797 1e4e B3F90030 		ldrsh	r3, [r3]
 4798 1e52 002B     		cmp	r3, #0
 4799 1e54 00F0EF80 		beq	.L200
1041:main.c        ****                     iniciaConteo(); 
 4800              		.loc 1 1041 0
 4801 1e58 FFF7FEFF 		bl	iniciaConteo
 4802              	.LVL317:
1042:main.c        ****                     escribeDisplay1("b4.pic=85");
 4803              		.loc 1 1042 0
 4804 1e5c 4448     		ldr	r0, .L596+128
 4805 1e5e FFF7FEFF 		bl	escribeDisplay1
 4806              	.LVL318:
1043:main.c        ****                     escribeDisplay1("b5.pic=85");
 4807              		.loc 1 1043 0
 4808 1e62 4448     		ldr	r0, .L596+132
 4809 1e64 FFF7FEFF 		bl	escribeDisplay1
 4810              	.LVL319:
1044:main.c        ****                     escribeDisplay1("b6.pic=85");
 4811              		.loc 1 1044 0
 4812 1e68 4348     		ldr	r0, .L596+136
 4813 1e6a FFF7FEFF 		bl	escribeDisplay1
 4814              	.LVL320:
1045:main.c        ****                     if(tlevel>tiempoNivel){
 4815              		.loc 1 1045 0
 4816 1e6e 434B     		ldr	r3, .L596+140
 4817 1e70 1B88     		ldrh	r3, [r3]
 4818 1e72 032B     		cmp	r3, #3
 4819 1e74 40F28E80 		bls	.L201
ARM GAS  C:\Users\USUARIO\AppData\Local\Temp\cc9Uggst.s 			page 104


1046:main.c        ****                         if(tllenado<tiempoLlenado){
 4820              		.loc 1 1046 0
 4821 1e78 414B     		ldr	r3, .L596+144
 4822 1e7a 1B88     		ldrh	r3, [r3]
 4823 1e7c B3F5967F 		cmp	r3, #300
 4824 1e80 17D2     		bcs	.L202
1047:main.c        ****                             escribeDisplay1("status.txt=\"Estado:Llenando\"");
 4825              		.loc 1 1047 0
 4826 1e82 4048     		ldr	r0, .L596+148
 4827 1e84 FFF7FEFF 		bl	escribeDisplay1
 4828              	.LVL321:
1048:main.c        ****                             CR7_Write(1);//Humidificador_off;
 4829              		.loc 1 1048 0
 4830 1e88 0120     		movs	r0, #1
 4831 1e8a FFF7FEFF 		bl	CR7_Write
 4832              	.LVL322:
1049:main.c        ****                             CR8_Write(1);//Bomba ON;
 4833              		.loc 1 1049 0
 4834 1e8e 0120     		movs	r0, #1
 4835 1e90 FFF7FEFF 		bl	CR8_Write
 4836              	.LVL323:
1050:main.c        ****                             BUZZER_Write(1);
 4837              		.loc 1 1050 0
 4838 1e94 0120     		movs	r0, #1
 4839 1e96 FFF7FEFF 		bl	BUZZER_Write
 4840              	.LVL324:
1051:main.c        ****                             CyDelay(300);
 4841              		.loc 1 1051 0
 4842 1e9a 4FF49670 		mov	r0, #300
 4843 1e9e FFF7FEFF 		bl	CyDelay
 4844              	.LVL325:
1052:main.c        ****                             BUZZER_Write(0);
 4845              		.loc 1 1052 0
 4846 1ea2 0020     		movs	r0, #0
 4847 1ea4 FFF7FEFF 		bl	BUZZER_Write
 4848              	.LVL326:
1053:main.c        ****                             CyDelay(300);
 4849              		.loc 1 1053 0
 4850 1ea8 4FF49670 		mov	r0, #300
 4851 1eac FFF7FEFF 		bl	CyDelay
 4852              	.LVL327:
 4853 1eb0 7FE0     		b	.L203
 4854              	.L202:
1054:main.c        ****                         }else{
