ARM GAS  C:\Users\USUARIO\AppData\Local\Temp\cczfFPJv.s 			page 1


   1              		.syntax unified
   2              		.cpu cortex-m3
   3              		.fpu softvfp
   4              		.eabi_attribute 20, 1
   5              		.eabi_attribute 21, 1
   6              		.eabi_attribute 23, 3
   7              		.eabi_attribute 24, 1
   8              		.eabi_attribute 25, 1
   9              		.eabi_attribute 26, 1
  10              		.eabi_attribute 30, 1
  11              		.eabi_attribute 34, 1
  12              		.eabi_attribute 18, 4
  13              		.thumb
  14              		.syntax unified
  15              		.file	"MyServer.c"
  16              		.text
  17              	.Ltext0:
  18              		.cfi_sections	.debug_frame
  19              		.section	.text.LED_state,"ax",%progbits
  20              		.align	2
  21              		.global	LED_state
  22              		.thumb
  23              		.thumb_func
  24              		.type	LED_state, %function
  25              	LED_state:
  26              	.LFB64:
  27              		.file 1 "MyServer.c"
   1:MyServer.c    **** /* ========================================*/
   2:MyServer.c    **** 
   3:MyServer.c    **** //
   4:MyServer.c    **** //   	HTML-Шпаргалка:    http://ruseller.com/htmlshpora.php?id=52   	Основы HTML   h
   5:MyServer.c    **** 
   6:MyServer.c    **** #include <stdio.h>
   7:MyServer.c    **** #include <stdlib.h>
   8:MyServer.c    **** #include <funciones.h>
   9:MyServer.c    **** #include <MyServer.h>
  10:MyServer.c    **** #define led_on()    { BUZZER_Write(1);}		
  11:MyServer.c    **** #define led_off()   { BUZZER_Write(0);}	
  12:MyServer.c    **** 
  13:MyServer.c    **** // variables
  14:MyServer.c    **** char lang_ru;  		// Language page
  15:MyServer.c    **** int counter;		// page update counter
  16:MyServer.c    **** char str[32];
  17:MyServer.c    **** //__________________________________________________________________________
  18:MyServer.c    **** 
  19:MyServer.c    **** short LED_state (void ){	// LED status monitoring
  28              		.loc 1 19 0
  29              		.cfi_startproc
  30              		@ args = 0, pretend = 0, frame = 0
  31              		@ frame_needed = 0, uses_anonymous_args = 0
  32 0000 08B5     		push	{r3, lr}
  33              		.cfi_def_cfa_offset 8
  34              		.cfi_offset 3, -8
  35              		.cfi_offset 14, -4
  20:MyServer.c    ****     return !BUZZER_Read();
  36              		.loc 1 20 0
  37 0002 FFF7FEFF 		bl	BUZZER_Read
ARM GAS  C:\Users\USUARIO\AppData\Local\Temp\cczfFPJv.s 			page 2


  38              	.LVL0:
  21:MyServer.c    **** }	
  39              		.loc 1 21 0
  40 0006 B0FA80F0 		clz	r0, r0
  41 000a 4009     		lsrs	r0, r0, #5
  42 000c 08BD     		pop	{r3, pc}
  43              		.cfi_endproc
  44              	.LFE64:
  45              		.size	LED_state, .-LED_state
  46 000e 00BF     		.section	.text.set_param,"ax",%progbits
  47              		.align	2
  48              		.global	set_param
  49              		.thumb
  50              		.thumb_func
  51              		.type	set_param, %function
  52              	set_param:
  53              	.LFB65:
  22:MyServer.c    **** 
  23:MyServer.c    **** char header[] =    
  24:MyServer.c    **** "<!DOCTYPE html>"
  25:MyServer.c    **** "<html>"
  26:MyServer.c    **** "<head>"
  27:MyServer.c    ****   "<meta charset='UTF-8'>"
  28:MyServer.c    ****   "<meta name='viewport' content='width=device-width, initial-scale=1.0'>"
  29:MyServer.c    ****   "<meta http-equiv='X-UA-Compatible' content='ie=edge'>"
  30:MyServer.c    ****   "<meta http-equiv='refresh' content='15' >"
  31:MyServer.c    ****   "<title>JP Bioingenieria SAS</title>"
  32:MyServer.c    **** 
  33:MyServer.c    ****   "<!-- Bootstrap CSS CDN -->"
  34:MyServer.c    ****   "<link rel='stylesheet' href='https://stackpath.bootstrapcdn.com/bootstrap/4.1.0/css/bootstrap.mi
  35:MyServer.c    **** 
  36:MyServer.c    ****   "<!-- Font Awesome JS -->"
  37:MyServer.c    ****   "<script defer src='https://use.fontawesome.com/releases/v5.0.13/js/solid.js' integrity='sha384-t
  38:MyServer.c    ****   "<script defer src='https://use.fontawesome.com/releases/v5.0.13/js/fontawesome.js' integrity='sh
  39:MyServer.c    **** 
  40:MyServer.c    ****   "<!--BOOTSTRAP 4 -->"
  41:MyServer.c    ****   "<link rel='stylesheet' href='https://maxcdn.bootstrapcdn.com/bootstrap/3.3.7/css/bootstrap.min.c
  42:MyServer.c    ****     
  43:MyServer.c    ****   "<style>"
  44:MyServer.c    ****   "body {"
  45:MyServer.c    **** 	"background: #0F2027;  /* fallback for old browsers */"
  46:MyServer.c    **** 	"background: -webkit-linear-gradient(to right, #2C5364, #203A43, #0F2027);  /* Chrome 10-25, Safar
  47:MyServer.c    **** 	"background: linear-gradient(to right, #2C5364, #203A43, #0F2027); /* W3C, IE 10+/ Edge, Firefox 1
  48:MyServer.c    ****     "color:white;"
  49:MyServer.c    ****   "}"
  50:MyServer.c    ****   "</style>"
  51:MyServer.c    **** "</head>"
  52:MyServer.c    ****     "<h2>Camara Climatica JP Inglobal V1.0.0.0</h2>\r\n";
  53:MyServer.c    **** //__________________________________________________________________________
  54:MyServer.c    **** // Заголовок странички
  55:MyServer.c    **** char web_edit_header[] =   "";// "HTTP/1.0 200 OK\r\nContent-Type: text/html; charset=UTF-8\r\n\r\n
  56:MyServer.c    **** //"<body text='#0000CC' bgcolor='#CCFFFF'>";	  // set color:    http://www.w3schools.com/tags/ref_c
  57:MyServer.c    **** //__________________________________________________________________________
  58:MyServer.c    **** 
  59:MyServer.c    **** // Страничка с ошибкой 404
  60:MyServer.c    **** char webif_404_reply[] =
  61:MyServer.c    **** "HTTP/1.0 404 Not Found\r\nContent-Type: text/html; charset=UTF-8\r\n\r\n" 
ARM GAS  C:\Users\USUARIO\AppData\Local\Temp\cczfFPJv.s 			page 3


  62:MyServer.c    **** "<html><body>"   "<pre>Page not found\r\n\r\n"
  63:MyServer.c    **** "<a href='/'>Home page</a></pre>\r\n"
  64:MyServer.c    **** "</body></html>" ; 	// CLOSE PAGE
  65:MyServer.c    **** //__________________________________________________________________________
  66:MyServer.c    **** 
  67:MyServer.c    **** 
  68:MyServer.c    **** void set_param(char *params, char *p)	// reading and setting the obtained parameters
  69:MyServer.c    **** {
  54              		.loc 1 69 0
  55              		.cfi_startproc
  56              		@ args = 0, pretend = 0, frame = 0
  57              		@ frame_needed = 0, uses_anonymous_args = 0
  58              	.LVL1:
  59 0000 70B5     		push	{r4, r5, r6, lr}
  60              		.cfi_def_cfa_offset 16
  61              		.cfi_offset 4, -16
  62              		.cfi_offset 5, -12
  63              		.cfi_offset 6, -8
  64              		.cfi_offset 14, -4
  65 0002 0446     		mov	r4, r0
  70:MyServer.c    **** char *name;   char *value;	
  71:MyServer.c    **** 
  72:MyServer.c    **** //*________________________________________________________________________________________________
  73:MyServer.c    **** 	while(params)	// if detected a question mark   ( ? )
  66              		.loc 1 73 0
  67 0004 2AE0     		b	.L4
  68              	.LVL2:
  69              	.L9:
  74:MyServer.c    ****             {
  75:MyServer.c    **** // looking for where it ends.   symbol "&" - the ampersand is a separator between parameters.
  76:MyServer.c    ****                 if((p = strchr(params, '&')))
  70              		.loc 1 76 0
  71 0006 2621     		movs	r1, #38
  72 0008 2046     		mov	r0, r4
  73 000a FFF7FEFF 		bl	strchr
  74              	.LVL3:
  75 000e 18B1     		cbz	r0, .L10
  77:MyServer.c    ****                     *(p++) = 0;	//& replaced by zero ,  p - pointer to the next parameter
  76              		.loc 1 77 0
  77 0010 461C     		adds	r6, r0, #1
  78              	.LVL4:
  79 0012 0022     		movs	r2, #0
  80 0014 0270     		strb	r2, [r0]
  81 0016 00E0     		b	.L5
  82              	.LVL5:
  83              	.L10:
  76:MyServer.c    ****                     *(p++) = 0;	//& replaced by zero ,  p - pointer to the next parameter
  84              		.loc 1 76 0
  85 0018 0646     		mov	r6, r0
  86              	.LVL6:
  87              	.L5:
  78:MyServer.c    **** // Parse the parameter name and value on
  79:MyServer.c    **** 	            name = params;    
  80:MyServer.c    ****                 
  81:MyServer.c    ****                 if((value = strchr(name, '=')))
  88              		.loc 1 81 0
  89 001a 3D21     		movs	r1, #61
ARM GAS  C:\Users\USUARIO\AppData\Local\Temp\cczfFPJv.s 			page 4


  90 001c 2046     		mov	r0, r4
  91 001e FFF7FEFF 		bl	strchr
  92              	.LVL7:
  93 0022 18B1     		cbz	r0, .L11
  82:MyServer.c    ****                     *(value++) = 0;	//  name - 0 - value  
  94              		.loc 1 82 0
  95 0024 451C     		adds	r5, r0, #1
  96              	.LVL8:
  97 0026 0022     		movs	r2, #0
  98 0028 0270     		strb	r2, [r0]
  99 002a 00E0     		b	.L6
 100              	.LVL9:
 101              	.L11:
  81:MyServer.c    ****                     *(value++) = 0;	//  name - 0 - value  
 102              		.loc 1 81 0
 103 002c 0546     		mov	r5, r0
 104              	.LVL10:
 105              	.L6:
  83:MyServer.c    **** // params = led (on/off)?
  84:MyServer.c    ****                 if( (strcmp (name,  ("led")) == 0 ) && value )	// if name = "led"  and value Found 
 106              		.loc 1 84 0
 107 002e 0D49     		ldr	r1, .L13
 108 0030 2046     		mov	r0, r4
 109 0032 FFF7FEFF 		bl	strcmp
 110              	.LVL11:
 111 0036 80B9     		cbnz	r0, .L7
 112              		.loc 1 84 0 is_stmt 0 discriminator 1
 113 0038 7DB1     		cbz	r5, .L7
  85:MyServer.c    ****                 {
  86:MyServer.c    ****                     if(strcmp(value, ("on")) == 0)         		led_off()
 114              		.loc 1 86 0 is_stmt 1
 115 003a 0B49     		ldr	r1, .L13+4
 116 003c 2846     		mov	r0, r5
 117 003e FFF7FEFF 		bl	strcmp
 118              	.LVL12:
 119 0042 10B9     		cbnz	r0, .L8
 120              		.loc 1 86 0 is_stmt 0 discriminator 1
 121 0044 FFF7FEFF 		bl	BUZZER_Write
 122              	.LVL13:
 123 0048 07E0     		b	.L7
 124              	.L8:
  87:MyServer.c    ****                     else if(strcmp(value, ("off")) == 0)       	led_on()
 125              		.loc 1 87 0 is_stmt 1
 126 004a 0849     		ldr	r1, .L13+8
 127 004c 2846     		mov	r0, r5
 128 004e FFF7FEFF 		bl	strcmp
 129              	.LVL14:
 130 0052 10B9     		cbnz	r0, .L7
 131              		.loc 1 87 0 is_stmt 0 discriminator 1
 132 0054 0120     		movs	r0, #1
 133 0056 FFF7FEFF 		bl	BUZZER_Write
 134              	.LVL15:
 135              	.L7:
 136 005a 3446     		mov	r4, r6
 137              	.LVL16:
 138              	.L4:
  73:MyServer.c    ****             {
ARM GAS  C:\Users\USUARIO\AppData\Local\Temp\cczfFPJv.s 			page 5


 139              		.loc 1 73 0 is_stmt 1
 140 005c 002C     		cmp	r4, #0
 141 005e D2D1     		bne	.L9
  88:MyServer.c    ****                 }
  89:MyServer.c    **** 	 params = p;	// next params
  90:MyServer.c    **** 			}
  91:MyServer.c    **** }//------------------------------------------------------------------------------------
 142              		.loc 1 91 0
 143 0060 70BD     		pop	{r4, r5, r6, pc}
 144              	.LVL17:
 145              	.L14:
 146 0062 00BF     		.align	2
 147              	.L13:
 148 0064 00000000 		.word	.LC0
 149 0068 04000000 		.word	.LC1
 150 006c 08000000 		.word	.LC2
 151              		.cfi_endproc
 152              	.LFE65:
 153              		.size	set_param, .-set_param
 154              		.global	__aeabi_f2d
 155              		.section	.text.display_param,"ax",%progbits
 156              		.align	2
 157              		.global	display_param
 158              		.thumb
 159              		.thumb_func
 160              		.type	display_param, %function
 161              	display_param:
 162              	.LFB66:
  92:MyServer.c    **** 
  93:MyServer.c    **** void display_param(char *buffer)	// Shows received parameters
  94:MyServer.c    **** {
 163              		.loc 1 94 0
 164              		.cfi_startproc
 165              		@ args = 0, pretend = 0, frame = 0
 166              		@ frame_needed = 0, uses_anonymous_args = 0
 167              	.LVL18:
 168 0000 70B5     		push	{r4, r5, r6, lr}
 169              		.cfi_def_cfa_offset 16
 170              		.cfi_offset 4, -16
 171              		.cfi_offset 5, -12
 172              		.cfi_offset 6, -8
 173              		.cfi_offset 14, -4
 174 0002 0446     		mov	r4, r0
  95:MyServer.c    **** 	memset(buffer, 0,  2000);	// all data stored in  buffer  processed. clean the buffer to reply
 175              		.loc 1 95 0
 176 0004 4FF4FA62 		mov	r2, #2000
 177 0008 0021     		movs	r1, #0
 178 000a FFF7FEFF 		bl	memset
 179              	.LVL19:
  96:MyServer.c    **** 	strcpy(buffer,	header);	// open page 
 180              		.loc 1 96 0
 181 000e 3949     		ldr	r1, .L17
 182 0010 2046     		mov	r0, r4
 183 0012 FFF7FEFF 		bl	strcpy
 184              	.LVL20:
  97:MyServer.c    ****     strcat(buffer,	"<pre>");	
 185              		.loc 1 97 0
ARM GAS  C:\Users\USUARIO\AppData\Local\Temp\cczfFPJv.s 			page 6


 186 0016 2046     		mov	r0, r4
 187 0018 FFF7FEFF 		bl	strlen
 188              	.LVL21:
 189 001c 0246     		mov	r2, r0
 190 001e 2118     		adds	r1, r4, r0
 191 0020 354B     		ldr	r3, .L17+4
 192 0022 1868     		ldr	r0, [r3]	@ unaligned
 193 0024 A050     		str	r0, [r4, r2]	@ unaligned
 194 0026 9B88     		ldrh	r3, [r3, #4]	@ unaligned
 195 0028 8B80     		strh	r3, [r1, #4]	@ unaligned
  98:MyServer.c    **** /*
  99:MyServer.c    ****     if((!LED_state()))
 100:MyServer.c    ****         strcat(buffer,	"Buzzer encendido. <a href='/?led=on'>Apaguelo</a>." 				);
 101:MyServer.c    ****   	else if (LED_state())
 102:MyServer.c    ****         strcat(buffer,	"Buzzer apagado.  <a href='/?led=off'>Enciendalo</a>."				);*/
 103:MyServer.c    **** 
 104:MyServer.c    **** 	sprintf(str,"<p>Temperatura: <b>%2.1f°C </b>",Temperatura);
 196              		.loc 1 104 0
 197 002a 344B     		ldr	r3, .L17+8
 198 002c 1868     		ldr	r0, [r3]	@ float
 199 002e FFF7FEFF 		bl	__aeabi_f2d
 200              	.LVL22:
 201 0032 334D     		ldr	r5, .L17+12
 202 0034 0246     		mov	r2, r0
 203 0036 0B46     		mov	r3, r1
 204 0038 3249     		ldr	r1, .L17+16
 205 003a 2846     		mov	r0, r5
 206 003c FFF7FEFF 		bl	sprintf
 207              	.LVL23:
 105:MyServer.c    **** 	strcat(buffer,	 str);							 
 208              		.loc 1 105 0
 209 0040 2946     		mov	r1, r5
 210 0042 2046     		mov	r0, r4
 211 0044 FFF7FEFF 		bl	strcat
 212              	.LVL24:
 106:MyServer.c    ****     sprintf(str,"<p>Temperatura2: <b>%2.1f°C </b>",Temperatura2);
 213              		.loc 1 106 0
 214 0048 2F4B     		ldr	r3, .L17+20
 215 004a 1868     		ldr	r0, [r3]	@ float
 216 004c FFF7FEFF 		bl	__aeabi_f2d
 217              	.LVL25:
 218 0050 0246     		mov	r2, r0
 219 0052 0B46     		mov	r3, r1
 220 0054 2D49     		ldr	r1, .L17+24
 221 0056 2846     		mov	r0, r5
 222 0058 FFF7FEFF 		bl	sprintf
 223              	.LVL26:
 107:MyServer.c    **** 	strcat(buffer,	 str);				
 224              		.loc 1 107 0
 225 005c 2946     		mov	r1, r5
 226 005e 2046     		mov	r0, r4
 227 0060 FFF7FEFF 		bl	strcat
 228              	.LVL27:
 108:MyServer.c    ****     sprintf(str,"<p>Temperatura Ambiente: <b>%02ld°C </b>",Temperature2/100);
 229              		.loc 1 108 0
 230 0064 2A4B     		ldr	r3, .L17+28
 231 0066 1B68     		ldr	r3, [r3]
ARM GAS  C:\Users\USUARIO\AppData\Local\Temp\cczfFPJv.s 			page 7


 232 0068 2A4A     		ldr	r2, .L17+32
 233 006a 82FB0312 		smull	r1, r2, r2, r3
 234 006e DB17     		asrs	r3, r3, #31
 235 0070 C3EB6212 		rsb	r2, r3, r2, asr #5
 236 0074 2849     		ldr	r1, .L17+36
 237 0076 2846     		mov	r0, r5
 238 0078 FFF7FEFF 		bl	sprintf
 239              	.LVL28:
 109:MyServer.c    **** 	strcat(buffer,	 str);				
 240              		.loc 1 109 0
 241 007c 2946     		mov	r1, r5
 242 007e 2046     		mov	r0, r4
 243 0080 FFF7FEFF 		bl	strcat
 244              	.LVL29:
 110:MyServer.c    ****     sprintf(str,"<p>Humedad: <b>%2.1f%% </b>",Humedad);
 245              		.loc 1 110 0
 246 0084 254B     		ldr	r3, .L17+40
 247 0086 1868     		ldr	r0, [r3]	@ float
 248 0088 FFF7FEFF 		bl	__aeabi_f2d
 249              	.LVL30:
 250 008c 0246     		mov	r2, r0
 251 008e 0B46     		mov	r3, r1
 252 0090 2349     		ldr	r1, .L17+44
 253 0092 2846     		mov	r0, r5
 254 0094 FFF7FEFF 		bl	sprintf
 255              	.LVL31:
 111:MyServer.c    **** 	strcat(buffer,	 str);
 256              		.loc 1 111 0
 257 0098 2946     		mov	r1, r5
 258 009a 2046     		mov	r0, r4
 259 009c FFF7FEFF 		bl	strcat
 260              	.LVL32:
 112:MyServer.c    ****     sprintf(str,"<p>Temperatura H: <b>%2.1f°C </b>",Tam);
 261              		.loc 1 112 0
 262 00a0 204B     		ldr	r3, .L17+48
 263 00a2 1868     		ldr	r0, [r3]	@ float
 264 00a4 FFF7FEFF 		bl	__aeabi_f2d
 265              	.LVL33:
 266 00a8 0246     		mov	r2, r0
 267 00aa 0B46     		mov	r3, r1
 268 00ac 1E49     		ldr	r1, .L17+52
 269 00ae 2846     		mov	r0, r5
 270 00b0 FFF7FEFF 		bl	sprintf
 271              	.LVL34:
 113:MyServer.c    **** 	strcat(buffer,	 str);
 272              		.loc 1 113 0
 273 00b4 2946     		mov	r1, r5
 274 00b6 2046     		mov	r0, r4
 275 00b8 FFF7FEFF 		bl	strcat
 276              	.LVL35:
 114:MyServer.c    **** 	//strcat(buffer,	"<a href='/edit'>Change</a>");	// The created "Change" button on the page with a 
 115:MyServer.c    **** 	//counter = counter+1;									// for the test page refresh increment counter
 116:MyServer.c    **** 	strcat(buffer,	"</pre>");
 277              		.loc 1 116 0
 278 00bc 2046     		mov	r0, r4
 279 00be FFF7FEFF 		bl	strlen
 280              	.LVL36:
ARM GAS  C:\Users\USUARIO\AppData\Local\Temp\cczfFPJv.s 			page 8


 281 00c2 0146     		mov	r1, r0
 282 00c4 2218     		adds	r2, r4, r0
 283 00c6 194B     		ldr	r3, .L17+56
 284 00c8 1868     		ldr	r0, [r3]	@ unaligned
 285 00ca 6050     		str	r0, [r4, r1]	@ unaligned
 286 00cc 9988     		ldrh	r1, [r3, #4]	@ unaligned
 287 00ce 9B79     		ldrb	r3, [r3, #6]	@ zero_extendqisi2
 288 00d0 9180     		strh	r1, [r2, #4]	@ unaligned
 289 00d2 9371     		strb	r3, [r2, #6]
 117:MyServer.c    **** 	strcat(buffer,	"</body></html>"); 				// close page
 290              		.loc 1 117 0
 291 00d4 2046     		mov	r0, r4
 292 00d6 FFF7FEFF 		bl	strlen
 293              	.LVL37:
 294 00da 0646     		mov	r6, r0
 295 00dc 2518     		adds	r5, r4, r0
 296 00de 144B     		ldr	r3, .L17+60
 297 00e0 07CB     		ldmia	r3!, {r0, r1, r2}
 298 00e2 A051     		str	r0, [r4, r6]	@ unaligned
 299 00e4 6960     		str	r1, [r5, #4]	@ unaligned
 300 00e6 AA60     		str	r2, [r5, #8]	@ unaligned
 301 00e8 1A88     		ldrh	r2, [r3]	@ unaligned
 302 00ea 9B78     		ldrb	r3, [r3, #2]	@ zero_extendqisi2
 303 00ec AA81     		strh	r2, [r5, #12]	@ unaligned
 304 00ee AB73     		strb	r3, [r5, #14]
 305 00f0 70BD     		pop	{r4, r5, r6, pc}
 306              	.LVL38:
 307              	.L18:
 308 00f2 00BF     		.align	2
 309              	.L17:
 310 00f4 00000000 		.word	.LANCHOR0
 311 00f8 0C000000 		.word	.LC3
 312 00fc 00000000 		.word	Temperatura
 313 0100 00000000 		.word	str
 314 0104 14000000 		.word	.LC4
 315 0108 00000000 		.word	Temperatura2
 316 010c 38000000 		.word	.LC5
 317 0110 00000000 		.word	Temperature2
 318 0114 1F85EB51 		.word	1374389535
 319 0118 5C000000 		.word	.LC6
 320 011c 00000000 		.word	Humedad
 321 0120 88000000 		.word	.LC7
 322 0124 00000000 		.word	Tam
 323 0128 A4000000 		.word	.LC8
 324 012c C8000000 		.word	.LC9
 325 0130 D0000000 		.word	.LC10
 326              		.cfi_endproc
 327              	.LFE66:
 328              		.size	display_param, .-display_param
 329              		.section	.text.web_form,"ax",%progbits
 330              		.align	2
 331              		.global	web_form
 332              		.thumb
 333              		.thumb_func
 334              		.type	web_form, %function
 335              	web_form:
 336              	.LFB67:
ARM GAS  C:\Users\USUARIO\AppData\Local\Temp\cczfFPJv.s 			page 9


 118:MyServer.c    **** }//----------------------------------
 119:MyServer.c    **** 
 120:MyServer.c    **** void web_form(char *buffer, int counter)	// form to change the counter
 121:MyServer.c    **** {
 337              		.loc 1 121 0
 338              		.cfi_startproc
 339              		@ args = 0, pretend = 0, frame = 0
 340              		@ frame_needed = 0, uses_anonymous_args = 0
 341              	.LVL39:
 342 0000 F8B5     		push	{r3, r4, r5, r6, r7, lr}
 343              		.cfi_def_cfa_offset 24
 344              		.cfi_offset 3, -24
 345              		.cfi_offset 4, -20
 346              		.cfi_offset 5, -16
 347              		.cfi_offset 6, -12
 348              		.cfi_offset 7, -8
 349              		.cfi_offset 14, -4
 350 0002 0746     		mov	r7, r0
 351 0004 0C46     		mov	r4, r1
 122:MyServer.c    **** 	memset(buffer, 0,  2000);			// all data stored in  buffer  processed. clean the buffer to reply
 352              		.loc 1 122 0
 353 0006 4FF4FA62 		mov	r2, #2000
 354 000a 0021     		movs	r1, #0
 355              	.LVL40:
 356 000c FFF7FEFF 		bl	memset
 357              	.LVL41:
 123:MyServer.c    **** 	sprintf(str,"%d",counter);
 358              		.loc 1 123 0
 359 0010 2246     		mov	r2, r4
 360 0012 3D49     		ldr	r1, .L24
 361 0014 3D48     		ldr	r0, .L24+4
 362 0016 FFF7FEFF 		bl	sprintf
 363              	.LVL42:
 124:MyServer.c    **** 	strcat( buffer,	 web_edit_header );	// header without  'refresh'
 364              		.loc 1 124 0
 365 001a 3D49     		ldr	r1, .L24+8
 366 001c 3846     		mov	r0, r7
 367 001e FFF7FEFF 		bl	strcat
 368              	.LVL43:
 125:MyServer.c    **** 	strcat( buffer,	("<pre> <form action='/' method='GET'>\r\n"));
 369              		.loc 1 125 0
 370 0022 3846     		mov	r0, r7
 371 0024 FFF7FEFF 		bl	strlen
 372              	.LVL44:
 373 0028 3A4E     		ldr	r6, .L24+12
 374 002a 3C18     		adds	r4, r7, r0
 375              	.LVL45:
 376 002c 06F1200E 		add	lr, r6, #32
 377              	.L20:
 378 0030 3546     		mov	r5, r6
 379 0032 0FCD     		ldmia	r5!, {r0, r1, r2, r3}
 380 0034 2060     		str	r0, [r4]	@ unaligned
 381 0036 6160     		str	r1, [r4, #4]	@ unaligned
 382 0038 A260     		str	r2, [r4, #8]	@ unaligned
 383 003a E360     		str	r3, [r4, #12]	@ unaligned
 384 003c 2E46     		mov	r6, r5
 385 003e 1034     		adds	r4, r4, #16
ARM GAS  C:\Users\USUARIO\AppData\Local\Temp\cczfFPJv.s 			page 10


 386 0040 7545     		cmp	r5, lr
 387 0042 F5D1     		bne	.L20
 388 0044 2868     		ldr	r0, [r5]	@ unaligned
 389 0046 2060     		str	r0, [r4]	@ unaligned
 390 0048 AA88     		ldrh	r2, [r5, #4]	@ unaligned
 391 004a AB79     		ldrb	r3, [r5, #6]	@ zero_extendqisi2
 392 004c A280     		strh	r2, [r4, #4]	@ unaligned
 393 004e A371     		strb	r3, [r4, #6]
 126:MyServer.c    **** //	strcat( buffer,	"<form action='/' method='GET'>\r\n");
 127:MyServer.c    **** 	strcat( buffer,	"Enter value (0..255):\r\n");
 394              		.loc 1 127 0
 395 0050 3846     		mov	r0, r7
 396 0052 FFF7FEFF 		bl	strlen
 397              	.LVL46:
 398 0056 0646     		mov	r6, r0
 399 0058 3D18     		adds	r5, r7, r0
 400 005a 2F4C     		ldr	r4, .L24+16
 401 005c 0FCC     		ldmia	r4!, {r0, r1, r2, r3}
 402 005e B851     		str	r0, [r7, r6]	@ unaligned
 403 0060 6960     		str	r1, [r5, #4]	@ unaligned
 404 0062 AA60     		str	r2, [r5, #8]	@ unaligned
 405 0064 EB60     		str	r3, [r5, #12]	@ unaligned
 406 0066 03CC     		ldmia	r4!, {r0, r1}
 407 0068 2861     		str	r0, [r5, #16]	@ unaligned
 408 006a 6961     		str	r1, [r5, #20]	@ unaligned
 128:MyServer.c    **** 	strcat( buffer,	"<input type='text' name='pwm' size='4' value='");
 409              		.loc 1 128 0
 410 006c 3846     		mov	r0, r7
 411 006e FFF7FEFF 		bl	strlen
 412              	.LVL47:
 413 0072 2A4C     		ldr	r4, .L24+20
 414 0074 3D18     		adds	r5, r7, r0
 415 0076 04F1200E 		add	lr, r4, #32
 416              	.L21:
 417 007a 2646     		mov	r6, r4
 418 007c 0FCE     		ldmia	r6!, {r0, r1, r2, r3}
 419 007e 2860     		str	r0, [r5]	@ unaligned
 420 0080 6960     		str	r1, [r5, #4]	@ unaligned
 421 0082 AA60     		str	r2, [r5, #8]	@ unaligned
 422 0084 EB60     		str	r3, [r5, #12]	@ unaligned
 423 0086 3446     		mov	r4, r6
 424 0088 1035     		adds	r5, r5, #16
 425 008a 7645     		cmp	r6, lr
 426 008c F5D1     		bne	.L21
 427 008e 07CC     		ldmia	r4!, {r0, r1, r2}
 428 0090 2860     		str	r0, [r5]	@ unaligned
 429 0092 6960     		str	r1, [r5, #4]	@ unaligned
 430 0094 AA60     		str	r2, [r5, #8]	@ unaligned
 431 0096 2288     		ldrh	r2, [r4]	@ unaligned
 432 0098 A378     		ldrb	r3, [r4, #2]	@ zero_extendqisi2
 433 009a AA81     		strh	r2, [r5, #12]	@ unaligned
 434 009c AB73     		strb	r3, [r5, #14]
 129:MyServer.c    **** 	strcat( buffer,	 str);
 435              		.loc 1 129 0
 436 009e 1B49     		ldr	r1, .L24+4
 437 00a0 3846     		mov	r0, r7
 438 00a2 FFF7FEFF 		bl	strcat
ARM GAS  C:\Users\USUARIO\AppData\Local\Temp\cczfFPJv.s 			page 11


 439              	.LVL48:
 130:MyServer.c    **** 	strcat( buffer,	"'>  ");
 440              		.loc 1 130 0
 441 00a6 3846     		mov	r0, r7
 442 00a8 FFF7FEFF 		bl	strlen
 443              	.LVL49:
 444 00ac 0246     		mov	r2, r0
 445 00ae 3918     		adds	r1, r7, r0
 446 00b0 1B4B     		ldr	r3, .L24+24
 447 00b2 1868     		ldr	r0, [r3]	@ unaligned
 448 00b4 B850     		str	r0, [r7, r2]	@ unaligned
 449 00b6 1B79     		ldrb	r3, [r3, #4]	@ zero_extendqisi2
 450 00b8 0B71     		strb	r3, [r1, #4]
 131:MyServer.c    **** 	strcat( buffer,	"<input type='submit' value='OK'>\r\n");
 451              		.loc 1 131 0
 452 00ba 3846     		mov	r0, r7
 453 00bc FFF7FEFF 		bl	strlen
 454              	.LVL50:
 455 00c0 184E     		ldr	r6, .L24+28
 456 00c2 3C18     		adds	r4, r7, r0
 457 00c4 06F1200E 		add	lr, r6, #32
 458              	.L22:
 459 00c8 3546     		mov	r5, r6
 460 00ca 0FCD     		ldmia	r5!, {r0, r1, r2, r3}
 461 00cc 2060     		str	r0, [r4]	@ unaligned
 462 00ce 6160     		str	r1, [r4, #4]	@ unaligned
 463 00d0 A260     		str	r2, [r4, #8]	@ unaligned
 464 00d2 E360     		str	r3, [r4, #12]	@ unaligned
 465 00d4 2E46     		mov	r6, r5
 466 00d6 1034     		adds	r4, r4, #16
 467 00d8 7545     		cmp	r5, lr
 468 00da F5D1     		bne	.L22
 469 00dc 2A88     		ldrh	r2, [r5]	@ unaligned
 470 00de AB78     		ldrb	r3, [r5, #2]	@ zero_extendqisi2
 471 00e0 2280     		strh	r2, [r4]	@ unaligned
 472 00e2 A370     		strb	r3, [r4, #2]
 132:MyServer.c    **** 	strcat( buffer,	"</form>  </pre> </body> </html>");	// Закрыть страничку
 473              		.loc 1 132 0
 474 00e4 3846     		mov	r0, r7
 475 00e6 FFF7FEFF 		bl	strlen
 476              	.LVL51:
 477 00ea 0646     		mov	r6, r0
 478 00ec 3D18     		adds	r5, r7, r0
 479 00ee 0E4C     		ldr	r4, .L24+32
 480 00f0 0FCC     		ldmia	r4!, {r0, r1, r2, r3}
 481 00f2 B851     		str	r0, [r7, r6]	@ unaligned
 482 00f4 6960     		str	r1, [r5, #4]	@ unaligned
 483 00f6 AA60     		str	r2, [r5, #8]	@ unaligned
 484 00f8 EB60     		str	r3, [r5, #12]	@ unaligned
 485 00fa 0FCC     		ldmia	r4!, {r0, r1, r2, r3}
 486 00fc 2861     		str	r0, [r5, #16]	@ unaligned
 487 00fe 6961     		str	r1, [r5, #20]	@ unaligned
 488 0100 AA61     		str	r2, [r5, #24]	@ unaligned
 489 0102 EB61     		str	r3, [r5, #28]	@ unaligned
 490 0104 F8BD     		pop	{r3, r4, r5, r6, r7, pc}
 491              	.LVL52:
 492              	.L25:
ARM GAS  C:\Users\USUARIO\AppData\Local\Temp\cczfFPJv.s 			page 12


 493 0106 00BF     		.align	2
 494              	.L24:
 495 0108 E0000000 		.word	.LC11
 496 010c 00000000 		.word	str
 497 0110 00000000 		.word	.LANCHOR1
 498 0114 E4000000 		.word	.LC12
 499 0118 0C010000 		.word	.LC13
 500 011c 24010000 		.word	.LC14
 501 0120 54010000 		.word	.LC15
 502 0124 5C010000 		.word	.LC16
 503 0128 80010000 		.word	.LC17
 504              		.cfi_endproc
 505              	.LFE67:
 506              		.size	web_form, .-web_form
 507              		.section	.text.webif_data,"ax",%progbits
 508              		.align	2
 509              		.global	webif_data
 510              		.thumb
 511              		.thumb_func
 512              		.type	webif_data, %function
 513              	webif_data:
 514              	.LFB68:
 133:MyServer.c    **** }//________________________________________________________________________________________________
 134:MyServer.c    **** 
 135:MyServer.c    **** /****************************  Called when data is received from the browser  *********************
 136:MyServer.c    **** /***																																***/
 137:MyServer.c    **** /**************************************************************************************************
 138:MyServer.c    **** 
 139:MyServer.c    **** void webif_data(char socket, char *Inbuff)
 140:MyServer.c    **** {
 515              		.loc 1 140 0
 516              		.cfi_startproc
 517              		@ args = 0, pretend = 0, frame = 0
 518              		@ frame_needed = 0, uses_anonymous_args = 0
 519              	.LVL53:
 520 0000 2DE9F041 		push	{r4, r5, r6, r7, r8, lr}
 521              		.cfi_def_cfa_offset 24
 522              		.cfi_offset 4, -24
 523              		.cfi_offset 5, -20
 524              		.cfi_offset 6, -16
 525              		.cfi_offset 7, -12
 526              		.cfi_offset 8, -8
 527              		.cfi_offset 14, -4
 528 0004 0646     		mov	r6, r0
 529 0006 0C46     		mov	r4, r1
 141:MyServer.c    **** char *url; 		//  URL 
 142:MyServer.c    **** char *p; 		// label or a pointer to the next parameter  (указатель разметки)
 143:MyServer.c    **** char *params;	// a pointer to the name of the parameter
 144:MyServer.c    **** 
 145:MyServer.c    **** //   Parse query - check that the method - GET and get our URL. (Page address with parameters)
 146:MyServer.c    **** if((p = strchr(Inbuff + 4, ' ')) == 0)
 530              		.loc 1 146 0
 531 0008 0D1D     		adds	r5, r1, #4
 532 000a 2021     		movs	r1, #32
 533              	.LVL54:
 534 000c 2846     		mov	r0, r5
 535              	.LVL55:
ARM GAS  C:\Users\USUARIO\AppData\Local\Temp\cczfFPJv.s 			page 13


 536 000e FFF7FEFF 		bl	strchr
 537              	.LVL56:
 538 0012 28B9     		cbnz	r0, .L27
 147:MyServer.c    ****     strcat(Inbuff, " ");	// Request IE update page - there is no space at the end. add!!!
 539              		.loc 1 147 0
 540 0014 2046     		mov	r0, r4
 541              	.LVL57:
 542 0016 FFF7FEFF 		bl	strlen
 543              	.LVL58:
 544 001a 234B     		ldr	r3, .L35
 545 001c 1B88     		ldrh	r3, [r3]	@ unaligned
 546 001e 2352     		strh	r3, [r4, r0]	@ unaligned
 547              	.L27:
 148:MyServer.c    ****     
 149:MyServer.c    **** if( (memcmp(Inbuff, ("GET "), 4) == 0) &&  ((p = strchr(Inbuff + 4, ' ')) != 0) )	// now begin
 548              		.loc 1 149 0
 549 0020 0422     		movs	r2, #4
 550 0022 2249     		ldr	r1, .L35+4
 551 0024 2046     		mov	r0, r4
 552 0026 FFF7FEFF 		bl	memcmp
 553              	.LVL59:
 554 002a 78BB     		cbnz	r0, .L28
 555              		.loc 1 149 0 is_stmt 0 discriminator 1
 556 002c 2021     		movs	r1, #32
 557 002e 2846     		mov	r0, r5
 558 0030 FFF7FEFF 		bl	strchr
 559              	.LVL60:
 560 0034 0746     		mov	r7, r0
 561 0036 48B3     		cbz	r0, .L28
 562              	.LVL61:
 150:MyServer.c    ****   {
 151:MyServer.c    **** 	url = Inbuff + 4 ;  					// a pointer to the beginning of the received URL. end - the first space
 152:MyServer.c    **** 	*p = 0;   								// celebrate the end of the URL address and the parameters
 563              		.loc 1 152 0 is_stmt 1
 564 0038 0023     		movs	r3, #0
 565 003a 0370     		strb	r3, [r0]
 153:MyServer.c    **** 
 154:MyServer.c    **** 	//  Parse the URL and the path settings (find in turn question marks)
 155:MyServer.c    **** 	if((params = strchr(url, '?')))
 566              		.loc 1 155 0
 567 003c 3F21     		movs	r1, #63
 568 003e 2846     		mov	r0, r5
 569              	.LVL62:
 570 0040 FFF7FEFF 		bl	strchr
 571              	.LVL63:
 572 0044 20B1     		cbz	r0, .L33
 156:MyServer.c    ****         *(params++) = 0;			// write 0 instead of the first one found? immediately followed by - poi
 573              		.loc 1 156 0
 574 0046 00F10108 		add	r8, r0, #1
 575              	.LVL64:
 576 004a 0022     		movs	r2, #0
 577 004c 0270     		strb	r2, [r0]
 578 004e 00E0     		b	.L29
 579              	.LVL65:
 580              	.L33:
 155:MyServer.c    ****         *(params++) = 0;			// write 0 instead of the first one found? immediately followed by - poi
 581              		.loc 1 155 0
ARM GAS  C:\Users\USUARIO\AppData\Local\Temp\cczfFPJv.s 			page 14


 582 0050 8046     		mov	r8, r0
 583              	.LVL66:
 584              	.L29:
 157:MyServer.c    **** 
 158:MyServer.c    **** 		// Check the path. we have a home page "/" and the page counter compounds   "/edit"  
 159:MyServer.c    **** 	
 160:MyServer.c    **** 	  if(strcmp(url, ("/")) == 0)			//   home page "/"
 585              		.loc 1 160 0
 586 0052 1749     		ldr	r1, .L35+8
 587 0054 2846     		mov	r0, r5
 588 0056 FFF7FEFF 		bl	strcmp
 589              	.LVL67:
 590 005a 38B9     		cbnz	r0, .L30
 161:MyServer.c    **** 		{
 162:MyServer.c    ****        		set_param ( params,  p );		// Parse and process parameters
 591              		.loc 1 162 0
 592 005c 3946     		mov	r1, r7
 593 005e 4046     		mov	r0, r8
 594 0060 FFF7FEFF 		bl	set_param
 595              	.LVL68:
 163:MyServer.c    ****    			display_param( Inbuff );		// Displays the params on the main page
 596              		.loc 1 163 0
 597 0064 2046     		mov	r0, r4
 598 0066 FFF7FEFF 		bl	display_param
 599              	.LVL69:
 600 006a 13E0     		b	.L31
 601              	.L30:
 164:MyServer.c    **** 		}
 165:MyServer.c    ****  	   else if(strcmp(url, ("/edit")) == 0){
 602              		.loc 1 165 0
 603 006c 1149     		ldr	r1, .L35+12
 604 006e 2846     		mov	r0, r5
 605 0070 FFF7FEFF 		bl	strcmp
 606              	.LVL70:
 607 0074 28B9     		cbnz	r0, .L32
 166:MyServer.c    ****             web_form(Inbuff,  counter); 	// Browser requests a page / edit? Submit a form for chang
 608              		.loc 1 166 0
 609 0076 104B     		ldr	r3, .L35+16
 610 0078 1968     		ldr	r1, [r3]
 611 007a 2046     		mov	r0, r4
 612 007c FFF7FEFF 		bl	web_form
 613              	.LVL71:
 614 0080 08E0     		b	.L31
 615              	.L32:
 167:MyServer.c    ****        }else{    // Wrong URL - write 404 page  in  buffer
 168:MyServer.c    **** 	        strcat(Inbuff, webif_404_reply);	
 616              		.loc 1 168 0
 617 0082 0E49     		ldr	r1, .L35+20
 618 0084 2046     		mov	r0, r4
 619 0086 FFF7FEFF 		bl	strcat
 620              	.LVL72:
 621 008a 03E0     		b	.L31
 622              	.LVL73:
 623              	.L28:
 169:MyServer.c    ****        }	
 170:MyServer.c    **** 
 171:MyServer.c    ****    }	
ARM GAS  C:\Users\USUARIO\AppData\Local\Temp\cczfFPJv.s 			page 15


 172:MyServer.c    **** else    // Wrong URL - write 404 page  in  buffer
 173:MyServer.c    ****    {		 strcat(Inbuff, webif_404_reply);	}	
 624              		.loc 1 173 0
 625 008c 0B49     		ldr	r1, .L35+20
 626 008e 2046     		mov	r0, r4
 627 0090 FFF7FEFF 		bl	strcat
 628              	.LVL74:
 629              	.L31:
 174:MyServer.c    **** 	ETH0_TcpSend(socket, (uint8*)Inbuff,  strlen((char *)Inbuff));	
 630              		.loc 1 174 0
 631 0094 2046     		mov	r0, r4
 632 0096 FFF7FEFF 		bl	strlen
 633              	.LVL75:
 634 009a 82B2     		uxth	r2, r0
 635 009c 2146     		mov	r1, r4
 636 009e 3046     		mov	r0, r6
 637 00a0 FFF7FEFF 		bl	ETH0_TcpSend
 638              	.LVL76:
 639 00a4 BDE8F081 		pop	{r4, r5, r6, r7, r8, pc}
 640              	.LVL77:
 641              	.L36:
 642              		.align	2
 643              	.L35:
 644 00a8 A0010000 		.word	.LC18
 645 00ac A4010000 		.word	.LC19
 646 00b0 AC010000 		.word	.LC20
 647 00b4 B0010000 		.word	.LC21
 648 00b8 00000000 		.word	counter
 649 00bc EC050000 		.word	.LANCHOR0+1516
 650              		.cfi_endproc
 651              	.LFE68:
 652              		.size	webif_data, .-webif_data
 653              		.global	webif_404_reply
 654              		.global	web_edit_header
 655              		.global	header
 656              		.comm	str,32,4
 657              		.comm	counter,4,4
 658              		.comm	lang_ru,1,1
 659              		.comm	calib,144,4
 660              		.comm	graph,9600,4
 661              		.comm	rampas,240,4
 662              		.data
 663              		.align	2
 664              		.set	.LANCHOR0,. + 0
 665              		.type	header, %object
 666              		.size	header, 1516
 667              	header:
 668 0000 3C21444F 		.ascii	"<!DOCTYPE html><html><head><meta charset='UTF-8'><m"
 668      43545950 
 668      45206874 
 668      6D6C3E3C 
 668      68746D6C 
 669 0033 65746120 		.ascii	"eta name='viewport' content='width=device-width, in"
 669      6E616D65 
 669      3D277669 
 669      6577706F 
 669      72742720 
ARM GAS  C:\Users\USUARIO\AppData\Local\Temp\cczfFPJv.s 			page 16


 670 0066 69746961 		.ascii	"itial-scale=1.0'><meta http-equiv='X-UA-Compatible'"
 670      6C2D7363 
 670      616C653D 
 670      312E3027 
 670      3E3C6D65 
 671 0099 20636F6E 		.ascii	" content='ie=edge'><meta http-equiv='refresh' conte"
 671      74656E74 
 671      3D276965 
 671      3D656467 
 671      65273E3C 
 672 00cc 6E743D27 		.ascii	"nt='15' ><title>JP Bioingenieria SAS</title><!-- Bo"
 672      31352720 
 672      3E3C7469 
 672      746C653E 
 672      4A502042 
 673 00ff 6F747374 		.ascii	"otstrap CSS CDN --><link rel='stylesheet' href='htt"
 673      72617020 
 673      43535320 
 673      43444E20 
 673      2D2D3E3C 
 674 0132 70733A2F 		.ascii	"ps://stackpath.bootstrapcdn.com/bootstrap/4.1.0/css"
 674      2F737461 
 674      636B7061 
 674      74682E62 
 674      6F6F7473 
 675 0165 2F626F6F 		.ascii	"/bootstrap.min.css' integrity='sha384-9gVQ4dYFwwWSj"
 675      74737472 
 675      61702E6D 
 675      696E2E63 
 675      73732720 
 676 0198 49445A6E 		.ascii	"IDZnLEWnxCjeSWFphJiwGPXr1jddIhOegiu1FwO5qRGvFXOdJZ4"
 676      4C45576E 
 676      78436A65 
 676      53574670 
 676      684A6977 
 677 01cb 27206372 		.ascii	"' crossorigin='anonymous'><!-- Font Awesome JS --><"
 677      6F73736F 
 677      72696769 
 677      6E3D2761 
 677      6E6F6E79 
 678 01fe 73637269 		.ascii	"script defer src='https://use.fontawesome.com/relea"
 678      70742064 
 678      65666572 
 678      20737263 
 678      3D276874 
 679 0231 7365732F 		.ascii	"ses/v5.0.13/js/solid.js' integrity='sha384-tzzSw1/V"
 679      76352E30 
 679      2E31332F 
 679      6A732F73 
 679      6F6C6964 
 680 0264 6F2B304E 		.ascii	"o+0N5UhStP3bvwWPq+uvzCMfrN1fEFe+xBmv1C/AtVX5K0uZtmc"
 680      35556853 
 680      74503362 
 680      76775750 
 680      712B7576 
 681 0297 48697446 		.ascii	"HitFZ' crossorigin='anonymous'></script><script def"
 681      5A272063 
ARM GAS  C:\Users\USUARIO\AppData\Local\Temp\cczfFPJv.s 			page 17


 681      726F7373 
 681      6F726967 
 681      696E3D27 
 682 02ca 65722073 		.ascii	"er src='https://use.fontawesome.com/releases/v5.0.1"
 682      72633D27 
 682      68747470 
 682      733A2F2F 
 682      7573652E 
 683 02fd 332F6A73 		.ascii	"3/js/fontawesome.js' integrity='sha384-6OIrr52G08Np"
 683      2F666F6E 
 683      74617765 
 683      736F6D65 
 683      2E6A7327 
 684 0330 4F46535A 		.ascii	"OFSZdxxz1xdNSndlD4vdcf/q2myIUVO0VsqaGHJsB0RaBE01VTO"
 684      6478787A 
 684      3178644E 
 684      536E646C 
 684      44347664 
 685 0363 59272063 		.ascii	"Y' crossorigin='anonymous'></script><!--BOOTSTRAP 4"
 685      726F7373 
 685      6F726967 
 685      696E3D27 
 685      616E6F6E 
 686 0396 202D2D3E 		.ascii	" --><link rel='stylesheet' href='https://maxcdn.boo"
 686      3C6C696E 
 686      6B207265 
 686      6C3D2773 
 686      74796C65 
 687 03c9 74737472 		.ascii	"tstrapcdn.com/bootstrap/3.3.7/css/bootstrap.min.css"
 687      61706364 
 687      6E2E636F 
 687      6D2F626F 
 687      6F747374 
 688 03fc 2720696E 		.ascii	"' integrity='sha384-BVYiiSIFeK1dGmJRAkycuHAHRg32OmU"
 688      74656772 
 688      6974793D 
 688      27736861 
 688      3338342D 
 689 042f 63777737 		.ascii	"cww7on3RYdg4Va+PmSTsz/K68vbdEjh4u' crossorigin='ano"
 689      6F6E3352 
 689      59646734 
 689      56612B50 
 689      6D535473 
 690 0462 6E796D6F 		.ascii	"nymous'><style>body {background: #0F2027;  /* fallb"
 690      7573273E 
 690      3C737479 
 690      6C653E62 
 690      6F647920 
 691 0495 61636B20 		.ascii	"ack for old browsers */background: -webkit-linear-g"
 691      666F7220 
 691      6F6C6420 
 691      62726F77 
 691      73657273 
 692 04c8 72616469 		.ascii	"radient(to right, #2C5364, #203A43, #0F2027);  /* C"
 692      656E7428 
 692      746F2072 
 692      69676874 
ARM GAS  C:\Users\USUARIO\AppData\Local\Temp\cczfFPJv.s 			page 18


 692      2C202332 
 693 04fb 68726F6D 		.ascii	"hrome 10-25, Safari 5.1-6 */background: linear-grad"
 693      65203130 
 693      2D32352C 
 693      20536166 
 693      61726920 
 694 052e 69656E74 		.ascii	"ient(to right, #2C5364, #203A43, #0F2027); /* W3C, "
 694      28746F20 
 694      72696768 
 694      742C2023 
 694      32433533 
 695 0561 49452031 		.ascii	"IE 10+/ Edge, Firefox 16+, Chrome 26+, Opera 12+, S"
 695      302B2F20 
 695      45646765 
 695      2C204669 
 695      7265666F 
 696 0594 61666172 		.ascii	"afari 7+ */color:white;}</style></head><h2>Camara C"
 696      6920372B 
 696      202A2F63 
 696      6F6C6F72 
 696      3A776869 
 697 05c7 6C696D61 		.ascii	"limatica JP Inglobal V1.0.0.0</h2>\015\012\000"
 697      74696361 
 697      204A5020 
 697      496E676C 
 697      6F62616C 
 698              		.type	webif_404_reply, %object
 699              		.size	webif_404_reply, 149
 700              	webif_404_reply:
 701 05ec 48545450 		.ascii	"HTTP/1.0 404 Not Found\015\012Content-Type: text/ht"
 701      2F312E30 
 701      20343034 
 701      204E6F74 
 701      20466F75 
 702 0619 6D6C3B20 		.ascii	"ml; charset=UTF-8\015\012\015\012<html><body><pre>P"
 702      63686172 
 702      7365743D 
 702      5554462D 
 702      380D0A0D 
 703 0640 61676520 		.ascii	"age not found\015\012\015\012<a href='/'>Home page<"
 703      6E6F7420 
 703      666F756E 
 703      640D0A0D 
 703      0A3C6120 
 704 0667 2F613E3C 		.ascii	"/a></pre>\015\012</body></html>\000"
 704      2F707265 
 704      3E0D0A3C 
 704      2F626F64 
 704      793E3C2F 
 705              		.section	.rodata.str1.4,"aMS",%progbits,1
 706              		.align	2
 707              	.LC0:
 708 0000 6C656400 		.ascii	"led\000"
 709              	.LC1:
 710 0004 6F6E00   		.ascii	"on\000"
 711 0007 00       		.space	1
 712              	.LC2:
ARM GAS  C:\Users\USUARIO\AppData\Local\Temp\cczfFPJv.s 			page 19


 713 0008 6F666600 		.ascii	"off\000"
 714              	.LC3:
 715 000c 3C707265 		.ascii	"<pre>\000"
 715      3E00
 716 0012 0000     		.space	2
 717              	.LC4:
 718 0014 3C703E54 		.ascii	"<p>Temperatura: <b>%2.1f\302\260C </b>\000"
 718      656D7065 
 718      72617475 
 718      72613A20 
 718      3C623E25 
 719 0035 000000   		.space	3
 720              	.LC5:
 721 0038 3C703E54 		.ascii	"<p>Temperatura2: <b>%2.1f\302\260C </b>\000"
 721      656D7065 
 721      72617475 
 721      7261323A 
 721      203C623E 
 722 005a 0000     		.space	2
 723              	.LC6:
 724 005c 3C703E54 		.ascii	"<p>Temperatura Ambiente: <b>%02ld\302\260C </b>\000"
 724      656D7065 
 724      72617475 
 724      72612041 
 724      6D626965 
 725 0086 0000     		.space	2
 726              	.LC7:
 727 0088 3C703E48 		.ascii	"<p>Humedad: <b>%2.1f%% </b>\000"
 727      756D6564 
 727      61643A20 
 727      3C623E25 
 727      322E3166 
 728              	.LC8:
 729 00a4 3C703E54 		.ascii	"<p>Temperatura H: <b>%2.1f\302\260C </b>\000"
 729      656D7065 
 729      72617475 
 729      72612048 
 729      3A203C62 
 730 00c7 00       		.space	1
 731              	.LC9:
 732 00c8 3C2F7072 		.ascii	"</pre>\000"
 732      653E00
 733 00cf 00       		.space	1
 734              	.LC10:
 735 00d0 3C2F626F 		.ascii	"</body></html>\000"
 735      64793E3C 
 735      2F68746D 
 735      6C3E00
 736 00df 00       		.space	1
 737              	.LC11:
 738 00e0 256400   		.ascii	"%d\000"
 739 00e3 00       		.space	1
 740              	.LC12:
 741 00e4 3C707265 		.ascii	"<pre> <form action='/' method='GET'>\015\012\000"
 741      3E203C66 
 741      6F726D20 
 741      61637469 
ARM GAS  C:\Users\USUARIO\AppData\Local\Temp\cczfFPJv.s 			page 20


 741      6F6E3D27 
 742 010b 00       		.space	1
 743              	.LC13:
 744 010c 456E7465 		.ascii	"Enter value (0..255):\015\012\000"
 744      72207661 
 744      6C756520 
 744      28302E2E 
 744      32353529 
 745              	.LC14:
 746 0124 3C696E70 		.ascii	"<input type='text' name='pwm' size='4' value='\000"
 746      75742074 
 746      7970653D 
 746      27746578 
 746      7427206E 
 747 0153 00       		.space	1
 748              	.LC15:
 749 0154 273E2020 		.ascii	"'>  \000"
 749      00
 750 0159 000000   		.space	3
 751              	.LC16:
 752 015c 3C696E70 		.ascii	"<input type='submit' value='OK'>\015\012\000"
 752      75742074 
 752      7970653D 
 752      27737562 
 752      6D697427 
 753 017f 00       		.space	1
 754              	.LC17:
 755 0180 3C2F666F 		.ascii	"</form>  </pre> </body> </html>\000"
 755      726D3E20 
 755      203C2F70 
 755      72653E20 
 755      3C2F626F 
 756              	.LC18:
 757 01a0 2000     		.ascii	" \000"
 758 01a2 0000     		.space	2
 759              	.LC19:
 760 01a4 47455420 		.ascii	"GET \000"
 760      00
 761 01a9 000000   		.space	3
 762              	.LC20:
 763 01ac 2F00     		.ascii	"/\000"
 764 01ae 0000     		.space	2
 765              	.LC21:
 766 01b0 2F656469 		.ascii	"/edit\000"
 766      7400
 767              		.bss
 768              		.align	2
 769              		.set	.LANCHOR1,. + 0
 770              		.type	web_edit_header, %object
 771              		.size	web_edit_header, 1
 772              	web_edit_header:
 773 0000 00       		.space	1
 774              		.text
 775              	.Letext0:
 776              		.file 2 "c:\\program files (x86)\\cypress\\psoc creator\\4.4\\psoc creator\\import\\gnu\\arm\\5.4.
 777              		.file 3 "c:\\program files (x86)\\cypress\\psoc creator\\4.4\\psoc creator\\import\\gnu\\arm\\5.4.
 778              		.file 4 "Generated_Source\\PSoC5/cytypes.h"
ARM GAS  C:\Users\USUARIO\AppData\Local\Temp\cczfFPJv.s 			page 21


 779              		.file 5 "./funciones.h"
 780              		.file 6 "Generated_Source\\PSoC5/core_cm3.h"
 781              		.file 7 "Generated_Source\\PSoC5/BUZZER.h"
 782              		.file 8 "c:\\program files (x86)\\cypress\\psoc creator\\4.4\\psoc creator\\import\\gnu\\arm\\5.4.
 783              		.file 9 "c:\\program files (x86)\\cypress\\psoc creator\\4.4\\psoc creator\\import\\gnu\\arm\\5.4.
 784              		.file 10 "Generated_Source\\PSoC5/ETH0.h"
 785              		.file 11 "<built-in>"