ARM GAS  C:\Users\USUARIO\AppData\Local\Temp\ccUv4o23.s 			page 1


   1              		.syntax unified
   2              		.cpu cortex-m3
   3              		.fpu softvfp
   4              		.eabi_attribute 20, 1
   5              		.eabi_attribute 21, 1
   6              		.eabi_attribute 23, 3
   7              		.eabi_attribute 24, 1
   8              		.eabi_attribute 25, 1
   9              		.eabi_attribute 26, 1
  10              		.eabi_attribute 30, 1
  11              		.eabi_attribute 34, 1
  12              		.eabi_attribute 18, 4
  13              		.thumb
  14              		.syntax unified
  15              		.file	"main.c"
  16              		.text
  17              	.Ltext0:
  18              		.cfi_sections	.debug_frame
  19              		.syntax unified
  20              		.global _printf_float
  21              		.thumb
  22              		.syntax unified
  23              		.section	.text.Reloj2,"ax",%progbits
  24              		.align	2
  25              		.global	Reloj2
  26              		.thumb
  27              		.thumb_func
  28              		.type	Reloj2, %function
  29              	Reloj2:
  30              	.LFB83:
  31              		.file 1 "main.c"
   1:main.c        **** /* ========================================
   2:main.c        ****  *
   3:main.c        ****  * Copyright YOUR COMPANY, THE YEAR
   4:main.c        ****  * All Rights Reserved
   5:main.c        ****  * UNPUBLISHED, LICENSED SOFTWARE.
   6:main.c        ****  *
   7:main.c        ****  * CONFIDENTIAL AND PROPRIETARY INFORMATION
   8:main.c        ****  * WHICH IS THE PROPERTY OF your company.
   9:main.c        ****  *
  10:main.c        ****  * ========================================
  11:main.c        **** */
  12:main.c        **** #include <BMP180.h>
  13:main.c        **** #include "removeOffsetNoise.h"
  14:main.c        **** #include "getResistance.h"
  15:main.c        **** #include <stdio.h>
  16:main.c        **** #include <main.h>
  17:main.c        **** #include <math.h>
  18:main.c        **** #include <stdlib.h>
  19:main.c        **** #include <DS1302.h>
  20:main.c        **** 
  21:main.c        **** #if defined (__GNUC__)
  22:main.c        ****     /* Add an explicit reference to the floating point printf library */
  23:main.c        ****     /* to allow the usage of floating point conversion specifiers. */
  24:main.c        ****     /* This is not linked in by default with the newlib-nano library. */
  25:main.c        ****     asm (".global _printf_float");
  26:main.c        **** #endif
ARM GAS  C:\Users\USUARIO\AppData\Local\Temp\ccUv4o23.s 			page 2


  27:main.c        **** 
  28:main.c        **** #define OFF 0
  29:main.c        **** #define ON  1
  30:main.c        **** #define false 0
  31:main.c        **** #define true  1
  32:main.c        **** #define LOW 0
  33:main.c        **** #define HIGH  1
  34:main.c        **** 
  35:main.c        **** int8 Regular[12]={0,3,3,6,1,4,6,2,5,0,3,5};
  36:main.c        **** int8 Bisiesto[12]={0,3,4,0,2,5,0,3,6,1,4,6};
  37:main.c        **** 
  38:main.c        **** int16 offset;
  39:main.c        **** int16 coldJnTemp;
  40:main.c        **** int32 tcColdJnuVolt;
  41:main.c        **** int32 hotJnCount;
  42:main.c        **** int32 filHotJnCount;
  43:main.c        **** int32 tcHotJnuVolt;
  44:main.c        **** int32 tcuVolt;
  45:main.c        **** int32 tcTemp;
  46:main.c        **** char displayStr[100];	
  47:main.c        **** uint8 first = 0;
  48:main.c        **** extern uint8 const CYCODE LCD_customFonts[];  
  49:main.c        **** uint8_t i,pwm1,pwm2,n,PantallaPrincipal,Programa,Opcion2,Derivativo,Integral,MediaMovil,MediaMovil2
  50:main.c        **** uint16 ctr,SetpointH,SetpointHAnt,derivativo_ant;
  51:main.c        **** float Setpoint,SetpointAnt;
  52:main.c        **** uint32_t output,tGrafica;
  53:main.c        **** short flagButton0,flagButton1,flagButton2,flagButton3,dibujo,pulsoAumentar,pulsoDisminuir,flagBorra
  54:main.c        **** short estadoCR2,estadoCR3,inicioControlT,inicioControlH;
  55:main.c        **** float valor,pendiente,Ganancia,GananciaIn,vacio,pwmPeltier;
  56:main.c        **** 
  57:main.c        **** #define RX_BUFFER_SIZE  10
  58:main.c        **** char Rx_Buffer[RX_BUFFER_SIZE+1];
  59:main.c        **** char Rx_Buffer2[RX_BUFFER_SIZE+1];
  60:main.c        **** uint8 RX_Wr_Index=0;
  61:main.c        **** uint8 RX_Rd_Index=0;
  62:main.c        **** uint8 RX_Counter=0;
  63:main.c        **** 
  64:main.c        **** char Rx_Buffer3[RX_BUFFER_SIZE+1];
  65:main.c        **** char Rx_Buffer4[RX_BUFFER_SIZE+1];
  66:main.c        **** uint8 RX_Wr_Index2=0;
  67:main.c        **** uint8 RX_Rd_Index2=0;
  68:main.c        **** uint8 RX_Counter2=0;
  69:main.c        **** 
  70:main.c        **** uint8 i2cbuf[4];
  71:main.c        **** uint8 iconoGrande[15]={75,76,77,78,79,27,45};
  72:main.c        **** uint8 iconoPeque[15]={80,81,82,83,84,37,16};
  73:main.c        **** char const texto[9][20]={"PROGRAMA 1","PROGRAMA 2","PROGRAMA 3","PROGRAMA 4","PROGRAMA 5","TEST","C
  74:main.c        **** 
  75:main.c        **** uint8 Dato2,Dato3,Dato_Exitoso,Dato_Exitoso2,Menu,MenuAntt,MenuAnt,Menu2,MenuAntt2,z,TipoClave,Segm
  76:main.c        **** uint8 Dia,Mes,Year,Hora,Minuto,Segundo,dow;
  77:main.c        **** short Inicio,Inicio2,EstadoPaso,entro,GuardaEEPROM,rampa,Minutos,Horas,flagTemperatura,Test,x1,x10,
  78:main.c        **** uint8 Password[4];
  79:main.c        **** uint8 tiempo_esterilizacion,y,hEst,mEst,hEstp,mEstp,hEstpAnt,mEstpAnt,Segmento,conteo;
  80:main.c        **** uint16 tiempos,tiempos3,tiempoctrl,Tc,Tp,tiemporeset,TiempoControl,tiemporecta,tiemposetpoint,tinic
  81:main.c        **** short mensaje,Lectura2,flag_setpoint,flag_tiempocalentamiento,Lectura,flagup,flagdn,flagRampa,flag_
  82:main.c        **** short Finalizo,conteoPregunta,grafica,imprime,Infinito,flagControlT,flagControlH,Controlando,flag_c
  83:main.c        **** float X[2]={0.0,0.0};
ARM GAS  C:\Users\USUARIO\AppData\Local\Temp\ccUv4o23.s 			page 3


  84:main.c        **** float Temperatura,Temperatura2,Aumento,PendienteActual,DifPendiente,TempeInicial,Pendiente,Temperat
  85:main.c        **** float error,Potencia,TpulsoMax,TpulsoMax2,Tpulsomin,Tpulsomin2;
  86:main.c        **** uint16 TiempoActual,MinutosActual,HorasActual,Tiempo,TiempoRampa,tPregunta;
  87:main.c        **** uint8 dataReady = 0u,GananciaR;
  88:main.c        **** uint16 result;
  89:main.c        **** float Prom,Prom2,V0,V1,Temperature;
  90:main.c        **** uint8 YearTx=0,MesTx=0,DiaTx=0,HoraTx=0,MinutoTx=0,dowTx=0;
  91:main.c        **** 
  92:main.c        **** int32 rtdRes[2];
  93:main.c        **** int32 rtdTemp[2];
  94:main.c        **** int32 vRef,filt;
  95:main.c        **** uint8 i,l,h,entero;
  96:main.c        **** uint8 ll,hh;
  97:main.c        **** int32 decTemp[2];
  98:main.c        **** uint16 decTemplf,decTemphf;
  99:main.c        **** int32 fracTemp[2];
 100:main.c        **** uint16 adcReading,presmV;
 101:main.c        **** uint32 lm35,tmp;
 102:main.c        **** float presion,Temporal,presionHorno,Tam;
 103:main.c        **** uint8 i;
 104:main.c        **** uint8 l2,h2,k,kk,tEnvioUSB,tmuestreoUSB,controlH,controlT,controlR;
 105:main.c        **** float promedio2[20];
 106:main.c        **** 
 107:main.c        **** float promedioT1[90];
 108:main.c        **** float promedioT2[90];
 109:main.c        **** float promediolm35[20];
 110:main.c        **** 
 111:main.c        **** /*-------Variables Humedad-----------*/
 112:main.c        **** short Humidificar,flagHumedad,humidificador;
 113:main.c        **** uint8 f,T1Humedad,T2Humedad,T3Humedad;
 114:main.c        **** uint16 tdehumidificador,thumidificador,tllenado;
 115:main.c        **** float RH2,Tam,Humedad;
 116:main.c        **** float promedioH[80];
 117:main.c        **** float promedioTa[80];
 118:main.c        **** /*-------------------------------------*/
 119:main.c        **** 
 120:main.c        **** void LeeEEPROM(){
 121:main.c        ****    mEstp=EEPROM_ReadByte(0);CyDelay(5);  
 122:main.c        ****    hEstp=EEPROM_ReadByte(1);CyDelay(5);  
 123:main.c        ****    
 124:main.c        ****    entero=EEPROM_ReadByte(80);CyDelay(5);  
 125:main.c        ****    Temporal=EEPROM_ReadByte(81);CyDelay(5);  
 126:main.c        ****    Temporal=Temporal/10.0;
 127:main.c        ****    Setpoint=entero+Temporal;  
 128:main.c        ****    
 129:main.c        ****    SetpointH=EEPROM_ReadByte(82);
 130:main.c        ****    CyDelay(5);   
 131:main.c        **** 
 132:main.c        ****    Password[0]=EEPROM_ReadByte(10);CyDelay(5);  
 133:main.c        ****    Password[1]=EEPROM_ReadByte(11);CyDelay(5);  
 134:main.c        ****    Password[2]=EEPROM_ReadByte(12);CyDelay(5);  
 135:main.c        ****    Password[3]=EEPROM_ReadByte(13);CyDelay(5);  
 136:main.c        ****    
 137:main.c        ****    Ganancia=EEPROM_ReadByte(30);CyDelay(5);  
 138:main.c        ****    Derivativo=EEPROM_ReadByte(31);CyDelay(5);  
 139:main.c        ****    Integral=EEPROM_ReadByte(32);CyDelay(5);  
 140:main.c        ****    Tciclo=EEPROM_ReadByte(33);CyDelay(5);  
ARM GAS  C:\Users\USUARIO\AppData\Local\Temp\ccUv4o23.s 			page 4


 141:main.c        ****    Ajuste=EEPROM_ReadByte(34);CyDelay(5);  
 142:main.c        ****    Ajusten=EEPROM_ReadByte(35);CyDelay(5);  
 143:main.c        ****    MediaMovil=EEPROM_ReadByte(36);CyDelay(5);  
 144:main.c        ****    Ajuste2=EEPROM_ReadByte(37);CyDelay(5);
 145:main.c        ****    Ajusten2=EEPROM_ReadByte(38);CyDelay(5);
 146:main.c        ****    MediaMovil2=EEPROM_ReadByte(39);CyDelay(5);  
 147:main.c        ****    tmuestreoUSB=EEPROM_ReadByte(40);CyDelay(5);
 148:main.c        ****    controlT=EEPROM_ReadByte(41);CyDelay(5);
 149:main.c        ****    controlH=EEPROM_ReadByte(42);CyDelay(5);
 150:main.c        ****    controlR=EEPROM_ReadByte(43);CyDelay(5);
 151:main.c        ****    T1Humedad=EEPROM_ReadByte(44);CyDelay(5);
 152:main.c        ****    T2Humedad=EEPROM_ReadByte(45);CyDelay(5);
 153:main.c        ****    T3Humedad=EEPROM_ReadByte(46);CyDelay(5);
 154:main.c        ****    //Coeficiente=EEPROM_ReadByte(37);CyDelay(5);  
 155:main.c        ****    //Saturacion=EEPROM_ReadByte(38);CyDelay(5);  
 156:main.c        ****    GananciaR=Ganancia;
 157:main.c        ****    
 158:main.c        ****    for(i=0;i<20;i++){//Lee valores almacenados de ciclos personalizados
 159:main.c        ****       rampas[i].TemperaturaInt=EEPROM_ReadByte(100+(i*6)); 
 160:main.c        ****       rampas[i].TemperaturaDec=EEPROM_ReadByte(101+(i*6)); 
 161:main.c        ****       rampas[i].Humedad=EEPROM_ReadByte(102+(i*6)); 
 162:main.c        ****       rampas[i].Horas=EEPROM_ReadByte(103+(i*6)); 
 163:main.c        ****       rampas[i].Minutos=EEPROM_ReadByte(104+(i*6)); 
 164:main.c        ****       
 165:main.c        ****       rampas[i].Temperatura=rampas[i].TemperaturaInt+inttofloat(rampas[i].TemperaturaDec);
 166:main.c        ****       if(rampas[i].Temperatura>60.0 || rampas[i].Temperatura<0.1)rampas[i].Temperatura=30.0;
 167:main.c        ****       if(rampas[i].Humedad>95 || rampas[i].Humedad<10)rampas[i].Humedad=60.0;
 168:main.c        ****       if(rampas[i].Horas>99)rampas[i].Horas=10;
 169:main.c        ****       if(rampas[i].Minutos>59)rampas[i].Minutos=10;
 170:main.c        ****    }
 171:main.c        **** }
 172:main.c        **** 
 173:main.c        **** void LimitaValores(){
 174:main.c        ****    if(mEstp>59){
 175:main.c        ****       mEstp=10;EEPROM_WriteByte(10,0);CyDelay(20);
 176:main.c        ****    }
 177:main.c        ****    if(hEstp>99){
 178:main.c        ****       hEstp=10;EEPROM_WriteByte(10,1);CyDelay(20);
 179:main.c        ****    }
 180:main.c        ****    if(Password[0]>9 || Password[0]<0){
 181:main.c        ****       Password[0]=0;EEPROM_WriteByte(0,10);CyDelay(20);
 182:main.c        ****    }
 183:main.c        ****    if(Password[1]>9 || Password[1]<0){
 184:main.c        ****       Password[1]=0;EEPROM_WriteByte(0,11);CyDelay(20);
 185:main.c        ****    }
 186:main.c        ****    if(Password[2]>9 || Password[2]<0){
 187:main.c        ****       Password[2]=0;EEPROM_WriteByte(0,12);CyDelay(20);
 188:main.c        ****    }
 189:main.c        ****    if(Password[3]>9 || Password[3]<0){
 190:main.c        ****       Password[3]=0;EEPROM_WriteByte(0,13);CyDelay(20);
 191:main.c        ****    }
 192:main.c        ****    if(Setpoint>60.0 || Setpoint<0.0){
 193:main.c        ****       Setpoint=30.0;EEPROM_WriteByte(100,80);CyDelay(20);EEPROM_WriteByte(0,81);CyDelay(20);
 194:main.c        ****    }
 195:main.c        ****    if(SetpointH>95 || SetpointH<10){
 196:main.c        ****       SetpointH=60.0;EEPROM_WriteByte(60,82);CyDelay(20);
 197:main.c        ****    }
ARM GAS  C:\Users\USUARIO\AppData\Local\Temp\ccUv4o23.s 			page 5


 198:main.c        ****    if(Ganancia>20 || Ganancia<1){
 199:main.c        ****       Ganancia=2;EEPROM_WriteByte(2,30);CyDelay(20);
 200:main.c        ****    }
 201:main.c        ****    if(Derivativo>80 || Derivativo<5){
 202:main.c        ****       Derivativo=80;EEPROM_WriteByte(80,31);CyDelay(20);
 203:main.c        ****    }
 204:main.c        ****    if(Integral>4 || Integral<1){
 205:main.c        ****       Integral=1;EEPROM_WriteByte(1,32);CyDelay(20);
 206:main.c        ****    }
 207:main.c        ****    if(Tciclo>20 || Tciclo<5){
 208:main.c        ****       Tciclo=5;EEPROM_WriteByte(5,33);CyDelay(20);
 209:main.c        ****    }
 210:main.c        ****    if(Ajuste>100){
 211:main.c        ****       Ajuste=0;EEPROM_WriteByte(0,34);CyDelay(20);
 212:main.c        ****    }
 213:main.c        ****    if(Ajusten>100){
 214:main.c        ****       Ajusten=0;EEPROM_WriteByte(0,35);CyDelay(20);
 215:main.c        ****    }
 216:main.c        ****    if(MediaMovil>80 || MediaMovil<10){
 217:main.c        ****       MediaMovil=80;EEPROM_WriteByte(80,36);CyDelay(20);
 218:main.c        ****    }
 219:main.c        ****    if(Ajuste2>100){
 220:main.c        ****       Ajuste2=0;EEPROM_WriteByte(0,37);CyDelay(20);
 221:main.c        ****    }
 222:main.c        ****    if(Ajusten2>100){
 223:main.c        ****       Ajusten2=0;EEPROM_WriteByte(0,38);CyDelay(20);
 224:main.c        ****    }
 225:main.c        ****    if(MediaMovil2>80 || MediaMovil2<10){
 226:main.c        ****       MediaMovil2=40;EEPROM_WriteByte(40,39);CyDelay(20);
 227:main.c        ****    }
 228:main.c        ****    if(controlT>1){
 229:main.c        ****       controlT=0;EEPROM_WriteByte(0,41);CyDelay(20);
 230:main.c        ****    }
 231:main.c        ****    if(controlH>1){
 232:main.c        ****       controlH=0;EEPROM_WriteByte(0,42);CyDelay(20);
 233:main.c        ****    }
 234:main.c        ****    if(controlR>1){
 235:main.c        ****       controlR=0;EEPROM_WriteByte(0,43);CyDelay(20);
 236:main.c        ****    }
 237:main.c        ****    if(T1Humedad>60 || T1Humedad<4){
 238:main.c        ****       T1Humedad=10;EEPROM_WriteByte(10,44);CyDelay(20);
 239:main.c        ****    }
 240:main.c        ****    if(T2Humedad>60 || T2Humedad<4){
 241:main.c        ****       T2Humedad=30;EEPROM_WriteByte(30,45);CyDelay(20);
 242:main.c        ****    }
 243:main.c        ****    if(T3Humedad>60 || T3Humedad<4){
 244:main.c        ****       T3Humedad=6;EEPROM_WriteByte(6,46);CyDelay(20);
 245:main.c        ****    }
 246:main.c        **** }
 247:main.c        **** 
 248:main.c        **** void ActualizaRecta(){
 249:main.c        ****    X[y]=Temperatura;
 250:main.c        ****    y++;
 251:main.c        ****    if(y>=2){
 252:main.c        ****       y=0;
 253:main.c        ****       Aumento=X[1]-X[0];
 254:main.c        ****       HorasActual=hEst;
ARM GAS  C:\Users\USUARIO\AppData\Local\Temp\ccUv4o23.s 			page 6


 255:main.c        ****       MinutosActual=mEst;
 256:main.c        ****       TiempoActual=Tiempo-((HorasActual*3600)+(MinutosActual*60)+tinicio);
 257:main.c        ****       PendienteActual=((Setpoint-Temperatura)/TiempoActual);
 258:main.c        ****       DifPendiente=(PendienteActual*20)-Aumento;
 259:main.c        ****       DifPendiente=DifPendiente*5;
 260:main.c        ****    }
 261:main.c        **** }
 262:main.c        **** 
 263:main.c        **** void Controla(){
 264:main.c        **** //-------------------------------Control de Calentamiento------------------------------------------
 265:main.c        ****    float tmp=0.0;
 266:main.c        ****      if(!flagRampa){
 267:main.c        ****         if(tiemporecta>=Derivativo){
 268:main.c        ****             ActualizaRecta();
 269:main.c        ****             tiemporecta=0;
 270:main.c        ****         } 
 271:main.c        ****     }else{
 272:main.c        ****         if(tiemporecta>=10){
 273:main.c        ****             ActualizaRecta();
 274:main.c        ****             tiemporecta=0;
 275:main.c        ****         }
 276:main.c        ****     }
 277:main.c        ****     
 278:main.c        ****     CR6_Write(0); // activa Ventiladores de Celda de Peltier
 279:main.c        ****     
 280:main.c        ****     if(flagRampa){
 281:main.c        ****       if(Segmento==0){
 282:main.c        ****          if(flag_calcula==0){
 283:main.c        ****             Tiempo=(rampas[0].Horas*3600)+(rampas[0].Minutos*60);         
 284:main.c        ****             Setpoint=rampas[0].Temperatura;
 285:main.c        ****             SetpointH=rampas[Segmento].Humedad;
 286:main.c        ****             Pendiente=(((float)Setpoint-TempeInicial)/(float)Tiempo);
 287:main.c        ****             hEstp=rampas[0].Horas;
 288:main.c        ****             mEstp=rampas[0].Minutos;
 289:main.c        ****             flag_calcula=1;
 290:main.c        ****             Ganancia=GananciaR*(Setpoint/200);
 291:main.c        ****          }
 292:main.c        ****       }else{
 293:main.c        ****          if(flag_calcula==0){
 294:main.c        ****             Tiempo=(rampas[Segmento].Horas*3600)+(rampas[Segmento].Minutos*60);         
 295:main.c        ****             Setpoint=rampas[Segmento].Temperatura;
 296:main.c        ****             SetpointH=rampas[Segmento].Humedad;
 297:main.c        ****             Pendiente=(((float)rampas[Segmento].Temperatura-(float)rampas[Segmento-1].Temperatura)/
 298:main.c        ****             hEstp=rampas[Segmento].Horas;
 299:main.c        ****             mEstp=rampas[Segmento].Minutos;
 300:main.c        ****             flag_calcula=1;
 301:main.c        ****             Ganancia=GananciaR*(Setpoint/200);
 302:main.c        ****          }
 303:main.c        ****       }
 304:main.c        ****     }
 305:main.c        ****    
 306:main.c        ****   
 307:main.c        ****    if(Pendiente!=0 && flagRampa){// Si Esta realizando una Rampa debe realizar el control de acuerd
 308:main.c        ****       
 309:main.c        ****       TiempoRampa=((hEst*3600)+(mEst*60)+tinicio);
 310:main.c        ****       if(Segmento==0){
 311:main.c        ****          TemperaturaIdeal=(Pendiente*TiempoRampa)+TempeInicial;
ARM GAS  C:\Users\USUARIO\AppData\Local\Temp\ccUv4o23.s 			page 7


 312:main.c        ****       }else{
 313:main.c        ****          TemperaturaIdeal=(Pendiente*TiempoRampa)+rampas[Segmento-1].Temperatura;
 314:main.c        ****       }
 315:main.c        ****       PotenciaEntregada=((TemperaturaIdeal-Temperatura)*100)/penMufla;
 316:main.c        **** // Pendiente determinar si el comportamiento de la mufla es lineal 10°C/min o si tiene un comporta
 317:main.c        ****       if(Pendiente<0){
 318:main.c        ****          if(PotenciaEntregada<0 && PotenciaEntregada>-100.0){
 319:main.c        ****             if(PotenciaEntregada<0)
 320:main.c        ****                 PotenciaEntregada=PotenciaEntregada*-1;
 321:main.c        ****          }else if(PotenciaEntregada<-100.0){
 322:main.c        ****             PotenciaEntregada=100.0;
 323:main.c        ****          }else if(PotenciaEntregada>0){
 324:main.c        ****             PotenciaEntregada=0; 
 325:main.c        ****          }
 326:main.c        ****       }else{
 327:main.c        ****          if(PotenciaEntregada>100.0)
 328:main.c        ****             PotenciaEntregada=100.0;
 329:main.c        ****      
 330:main.c        ****          if(PotenciaEntregada<0)
 331:main.c        ****             PotenciaEntregada=0; 
 332:main.c        ****       }
 333:main.c        ****       
 334:main.c        ****       if(Enfria==1){
 335:main.c        ****          CR1_Write(0);
 336:main.c        ****          CR2_Write(0);
 337:main.c        ****          CR3_Write(0);
 338:main.c        ****          CR4_Write(0);
 339:main.c        ****       }else{
 340:main.c        ****          CR1_Write(1);
 341:main.c        ****          CR2_Write(1);
 342:main.c        ****          CR3_Write(1);
 343:main.c        ****          CR4_Write(1);
 344:main.c        ****       }
 345:main.c        ****       Tpulso=(PotenciaEntregada*Tciclo)/100;  
 346:main.c        ****    }else{
 347:main.c        ****                
 348:main.c        ****       if(Enfria==1){
 349:main.c        ****          CR1_Write(0);
 350:main.c        ****          CR2_Write(0);
 351:main.c        ****          CR3_Write(0);
 352:main.c        ****          CR4_Write(0);
 353:main.c        ****          error=Setpoint-desvio-Temperatura;      // Cálculo del error ******
 354:main.c        ****          
 355:main.c        ****          if(error<-0.4 && Aumento>-0.2){
 356:main.c        ****             if(Potencia<90.0){
 357:main.c        ****                if(TiempoControl>=Derivativo*2){
 358:main.c        ****                   TiempoControl=0;
 359:main.c        ****                   if(Aumento>0.2){
 360:main.c        ****                      Ganancia+=Integral;
 361:main.c        ****                   }else{
 362:main.c        ****                      if(Aumento>0.0){
 363:main.c        ****                         Ganancia+=Integral-0.4;
 364:main.c        ****                      }else{
 365:main.c        ****                         Ganancia+=Integral-0.7;
 366:main.c        ****                      }
 367:main.c        ****                   }
 368:main.c        ****                }
ARM GAS  C:\Users\USUARIO\AppData\Local\Temp\ccUv4o23.s 			page 8


 369:main.c        ****             }
 370:main.c        ****          }
 371:main.c        ****       
 372:main.c        ****          if(error>0.0)     // Anti Wind_DOWN
 373:main.c        ****             error=0.0;
 374:main.c        ****          
 375:main.c        ****          error=error*-1.0;
 376:main.c        ****          
 377:main.c        ****          if(Ganancia<0.1)      
 378:main.c        ****             Ganancia=0.1;
 379:main.c        ****       
 380:main.c        ****          tmp=error*Ganancia;  // Control Proporcional.
 381:main.c        ****                
 382:main.c        ****          if(tmp>Setpoint)   // Anti Wind-UP      
 383:main.c        ****             tmp=Setpoint;
 384:main.c        ****                      
 385:main.c        ****          if(tmp<0.0)     // Anti Wind_DOWN    
 386:main.c        ****             tmp=0.0;
 387:main.c        ****          
 388:main.c        ****          // Tpulso(t)= Tciclo*(y(t)-ymin)/(ymax - ymin); calculo de ciclo util para control de resi
 389:main.c        ****          // Tpulso es float, hay que pasar ese ciclo a una salida de un puerto usando el TMR1.
 390:main.c        ****          Tpulso=(tmp/Setpoint)*Tciclo;  
 391:main.c        ****          
 392:main.c        ****          Tp=(Tpulso/0.005);
 393:main.c        ****          Tc=(Tciclo/0.005);
 394:main.c        ****          Controlando=1;       
 395:main.c        ****       }else{
 396:main.c        ****          CR1_Write(1);
 397:main.c        ****          CR2_Write(1);
 398:main.c        ****          CR3_Write(1);
 399:main.c        ****          CR4_Write(1);
 400:main.c        ****          error=desvio+Setpoint-Temperatura;      // Cálculo del error ******
 401:main.c        ****       
 402:main.c        ****          if(error>=20.0 && Aumento<=0.7){
 403:main.c        ****             derivativo_ant=Derivativo*4;
 404:main.c        ****             flag_ajuste=0;
 405:main.c        ****             flag_ajuste2=0;
 406:main.c        ****             Ajusto=10;
 407:main.c        ****             if(Potencia<90.0){
 408:main.c        ****                 if(TiempoControl>=derivativo_ant){
 409:main.c        ****                     TiempoControl=0;
 410:main.c        ****                     if(Aumento<-0.5){
 411:main.c        ****                         Ganancia+=Integral;//2
 412:main.c        ****                     }else{
 413:main.c        ****                         if(Aumento<-0.1)
 414:main.c        ****                             Ganancia+=Integral*0.5;//1
 415:main.c        ****                         else
 416:main.c        ****                             Ganancia+=Integral*0.3;//0.5
 417:main.c        ****                     }
 418:main.c        ****                 }
 419:main.c        ****             }
 420:main.c        ****          }else if(error>=6.0 && error<20 && Aumento<=0.5){
 421:main.c        ****             derivativo_ant=Derivativo*3;
 422:main.c        ****             flag_ajuste=0;
 423:main.c        ****             flag_ajuste2=0;
 424:main.c        ****             Ajusto=10;
 425:main.c        ****             if(Potencia<70.0){
ARM GAS  C:\Users\USUARIO\AppData\Local\Temp\ccUv4o23.s 			page 9


 426:main.c        ****                 if(TiempoControl>=derivativo_ant){//80
 427:main.c        ****                     TiempoControl=0;
 428:main.c        ****                     if(Aumento<-0.5){
 429:main.c        ****                         Ganancia+=Integral;//2
 430:main.c        ****                     }else{
 431:main.c        ****                         if(Aumento<-0.1)
 432:main.c        ****                             Ganancia+=Integral*0.3;//1
 433:main.c        ****                         else
 434:main.c        ****                             Ganancia+=Integral*0.1;//0.5
 435:main.c        ****                     }
 436:main.c        ****                 }
 437:main.c        ****             }
 438:main.c        ****          }else if(error>=desvio+0.5 && error<10 && Aumento<=0.3){
 439:main.c        ****             derivativo_ant=Derivativo*2;
 440:main.c        ****             flag_ajuste=0;
 441:main.c        ****             flag_ajuste2=0;
 442:main.c        ****             Ajusto=10;
 443:main.c        ****             if(Potencia<50.0){
 444:main.c        ****                 if(TiempoControl>=derivativo_ant){//80
 445:main.c        ****                     TiempoControl=0;
 446:main.c        ****                     if(Aumento<-0.5){
 447:main.c        ****                         Ganancia+=Integral;//2
 448:main.c        ****                     }else{
 449:main.c        ****                         if(Aumento<-0.1)
 450:main.c        ****                             Ganancia+=Integral*0.3;//1
 451:main.c        ****                         else
 452:main.c        ****                             Ganancia+=Integral*0.1;//0.5
 453:main.c        ****                     }
 454:main.c        ****                 }
 455:main.c        ****              }
 456:main.c        ****          }
 457:main.c        ****          
 458:main.c        ****          if(error<0.0){
 459:main.c        ****             Ganancia=GananciaR*(Setpoint/200);
 460:main.c        ****             //flag_ajuste=0;
 461:main.c        ****             //flag_ajuste2=0;
 462:main.c        ****          }
 463:main.c        ****          
 464:main.c        ****          if(Ganancia<0.1){
 465:main.c        ****             Ganancia=0.1;
 466:main.c        ****          }
 467:main.c        ****       
 468:main.c        ****          if(error<0.0)     // Anti Wind_DOWN     
 469:main.c        ****             error=0.0;
 470:main.c        ****          
 471:main.c        ****          //tmp=(Setpoint-Prom)*Ganancia;  // Control Proporcional.
 472:main.c        ****          tmp=error*Ganancia;  // Control Proporcional.
 473:main.c        ****                
 474:main.c        ****          if(tmp>Setpoint)   // Anti Wind-UP      
 475:main.c        ****             tmp=Setpoint;
 476:main.c        ****                      
 477:main.c        ****          if(tmp<0.0)     // Anti Wind_DOWN    
 478:main.c        ****             tmp=0.0;
 479:main.c        ****       
 480:main.c        ****          Tpulso=(tmp/Setpoint)*Tciclo; 
 481:main.c        ****          if(error<desvio+0.5 && error>0){
 482:main.c        ****             if(error<=desvio+0.1 && error>0){   
ARM GAS  C:\Users\USUARIO\AppData\Local\Temp\ccUv4o23.s 			page 10


 483:main.c        ****                 if(flag_ajuste==0){
 484:main.c        ****                     TpulsoMax=Tpulso;
 485:main.c        ****                     flag_ajuste=1;  
 486:main.c        ****                     Ajusto=5;
 487:main.c        ****                 }
 488:main.c        ****             }
 489:main.c        ****          
 490:main.c        ****             if(error<=desvio-0.4 && error>0){   
 491:main.c        ****                 if(flag_ajuste2==0){
 492:main.c        ****                     Tpulsomin=Tpulso;
 493:main.c        ****                     flag_ajuste2=1;           
 494:main.c        ****                     Ajusto=5;
 495:main.c        ****                 }
 496:main.c        ****             }
 497:main.c        ****          
 498:main.c        ****             if(flag_ajuste2==1){
 499:main.c        ****                 if(Tpulso<Tpulsomin)
 500:main.c        ****                     Tpulso=Tpulsomin;
 501:main.c        ****             }
 502:main.c        ****             if(flag_ajuste==1){   
 503:main.c        ****                 if(Tpulso>TpulsoMax)
 504:main.c        ****                     Tpulso=TpulsoMax;
 505:main.c        ****             }
 506:main.c        ****          }
 507:main.c        ****       }   
 508:main.c        ****    }
 509:main.c        ****    Tp=(Tpulso/0.002);
 510:main.c        ****    Tc=(Tciclo/0.002);
 511:main.c        ****    Control=1;     
 512:main.c        **** //-------------------------------------------------------------------------------------------------
 513:main.c        ****   
 514:main.c        **** }
 515:main.c        **** 
 516:main.c        **** void CuentaTiempo(){
 517:main.c        ****       if(tinicio>=60){
 518:main.c        ****          tinicio=0;
 519:main.c        ****          mEst+=1.0;
 520:main.c        ****          if(mEst>59){
 521:main.c        ****             mEst=0;
 522:main.c        ****             hEst+=1.0;
 523:main.c        ****          }
 524:main.c        ****       }
 525:main.c        **** }
 526:main.c        **** 
 527:main.c        **** void iniciaConteo(){
 528:main.c        ****    if(flagRampa && Pendiente!=0){
 529:main.c        ****       tiempo_esterilizacion=1;
 530:main.c        ****    }else if(flagRampa && Pendiente==0){
 531:main.c        ****       if(flagTemperatura)
 532:main.c        ****          tiempo_esterilizacion=1;
 533:main.c        ****       else
 534:main.c        ****          tiempo_esterilizacion=0;
 535:main.c        ****    }else{
 536:main.c        ****       if(!flagControlT && !flagControlH){
 537:main.c        ****          tiempo_esterilizacion=0;
 538:main.c        ****        }else if(flagControlT && !flagControlH){
 539:main.c        ****           if(flagTemperatura)
ARM GAS  C:\Users\USUARIO\AppData\Local\Temp\ccUv4o23.s 			page 11


 540:main.c        ****              tiempo_esterilizacion=1;
 541:main.c        ****           else
 542:main.c        ****              tiempo_esterilizacion=0;
 543:main.c        ****        }else if(!flagControlT && flagControlH){
 544:main.c        ****          if(flagHumedad)
 545:main.c        ****             tiempo_esterilizacion=1;
 546:main.c        ****          else
 547:main.c        ****             tiempo_esterilizacion=0;
 548:main.c        ****       }else if(flagControlT && flagControlH){
 549:main.c        ****          if(flagTemperatura && flagHumedad)
 550:main.c        ****             tiempo_esterilizacion=1;
 551:main.c        ****          else
 552:main.c        ****             tiempo_esterilizacion=0;
 553:main.c        ****       }
 554:main.c        ****    }
 555:main.c        **** }
 556:main.c        **** 
 557:main.c        **** void escribeDisplay1(char Buffer[30]){
 558:main.c        ****     UART_1_PutString(Buffer);
 559:main.c        ****     CyDelayUs(10);
 560:main.c        ****     UART_1_PutChar(0xFF);
 561:main.c        ****     CyDelayUs(10);
 562:main.c        ****     UART_1_PutChar(0xFF);
 563:main.c        ****     CyDelayUs(10);
 564:main.c        ****     UART_1_PutChar(0xFF);
 565:main.c        ****     CyDelayUs(10);
 566:main.c        **** }
 567:main.c        **** 
 568:main.c        **** void LeeDisplay(void){    
 569:main.c        ****     if(Dato_Exitoso==5){
 570:main.c        ****          Rx_Buffer[0]=Rx_Buffer2[0];
 571:main.c        ****          Rx_Buffer[1]=Rx_Buffer2[1];
 572:main.c        ****          Rx_Buffer[2]=Rx_Buffer2[2];
 573:main.c        ****          Rx_Buffer[3]=Rx_Buffer2[3];
 574:main.c        ****          Rx_Buffer[4]=Rx_Buffer2[4];
 575:main.c        ****          Rx_Buffer[5]=Rx_Buffer2[5];
 576:main.c        ****          Rx_Buffer[6]=Rx_Buffer2[6];
 577:main.c        ****          Rx_Buffer[7]=Rx_Buffer2[7];
 578:main.c        ****          Rx_Buffer[8]=Rx_Buffer2[8];
 579:main.c        ****          Rx_Buffer[9]=Rx_Buffer2[9];
 580:main.c        ****          
 581:main.c        ****       if(Rx_Buffer[3]==0x01){// Pregunta por la pagina en la que esta el display,01 es Contraseña 
 582:main.c        ****          Menu=0;
 583:main.c        ****          if(MenuAntt!=Menu)
 584:main.c        ****             MenuAntt=Menu;
 585:main.c        ****       }else if(Rx_Buffer[3]==0x02){//02 es Menu Principal con PantallaPriincipal=0, y con PantallaP
 586:main.c        ****          Menu=1;
 587:main.c        ****          if(MenuAntt!=Menu)
 588:main.c        ****             MenuAntt=Menu;
 589:main.c        ****       }else if(Rx_Buffer[3]==0x04){//03 es Tiempo Esterilizacion
 590:main.c        ****          Menu=2;
 591:main.c        ****          if(MenuAntt!=Menu)
 592:main.c        ****             MenuAntt=Menu;
 593:main.c        ****       }else if(Rx_Buffer[3]==0x05){//05 es Temperatura
 594:main.c        ****          Menu=3;
 595:main.c        ****          if(MenuAntt!=Menu)
 596:main.c        ****             MenuAntt=Menu;
ARM GAS  C:\Users\USUARIO\AppData\Local\Temp\ccUv4o23.s 			page 12


 597:main.c        ****       }else if(Rx_Buffer[3]==0x06){//06 es Humedad
 598:main.c        ****          Menu=4;
 599:main.c        ****          if(MenuAntt!=Menu)
 600:main.c        ****             MenuAntt=Menu;
 601:main.c        ****       }else if(Rx_Buffer[3]==0x07){//07 es Test de Componentes
 602:main.c        ****          Menu=6;
 603:main.c        ****          if(MenuAntt!=Menu)
 604:main.c        ****             MenuAntt=Menu;
 605:main.c        ****       }else if(Rx_Buffer[3]==0x08){//08 es Fecha y hora
 606:main.c        ****          Menu=7;
 607:main.c        ****          if(MenuAntt!=Menu)
 608:main.c        ****             MenuAntt=Menu;
 609:main.c        ****       }else if(Rx_Buffer[3]==0x09){//09 es Rampas
 610:main.c        ****          Menu=8;
 611:main.c        ****          if(MenuAntt!=Menu)
 612:main.c        ****             MenuAntt=Menu;
 613:main.c        ****       }else if(Rx_Buffer[3]==0x0a){//0a es Pulsos de Vacio
 614:main.c        ****          Menu=9;
 615:main.c        ****          if(MenuAntt!=Menu)
 616:main.c        ****             MenuAntt=Menu;
 617:main.c        ****       }else if(Rx_Buffer[3]==0x0f){//0f es Recibe caracteres de contraseña desde display
 618:main.c        ****          
 619:main.c        ****       }else if(Rx_Buffer[3]==0x1a){//1a es Menu de Funcionamiento
 620:main.c        ****          Menu=20;
 621:main.c        ****          if(MenuAntt!=Menu)
 622:main.c        ****             MenuAntt=Menu;
 623:main.c        ****       }else if(Rx_Buffer[3]==0x1b){//1b es Menu de clave correcta
 624:main.c        ****          Menu=15;
 625:main.c        ****          if(MenuAntt!=Menu)
 626:main.c        ****             MenuAntt=Menu;
 627:main.c        ****       }else if(Rx_Buffer[3]==0x1c){//1c es Menu de clave incorrecta
 628:main.c        ****          Menu=16;
 629:main.c        ****          if(MenuAntt!=Menu)
 630:main.c        ****             MenuAntt=Menu;
 631:main.c        ****       }else if(Rx_Buffer[3]==0x1d){//1d es Menu de Eliminado Programa
 632:main.c        ****          Menu=17;
 633:main.c        ****          if(MenuAntt!=Menu)
 634:main.c        ****             MenuAntt=Menu;
 635:main.c        ****       }else if(Rx_Buffer[3]==0x1e){//1d es Menu de Pregunta
 636:main.c        ****          Menu=18;
 637:main.c        ****          if(MenuAntt!=Menu)
 638:main.c        ****             MenuAntt=Menu;
 639:main.c        ****       }else if(Rx_Buffer[3]==0x2c){//2c es Menu de Configuracion de Parametros
 640:main.c        ****          Menu=100;
 641:main.c        ****          if(MenuAntt!=Menu)
 642:main.c        ****             MenuAntt=Menu;
 643:main.c        ****       }else if(Rx_Buffer[3]==0xcc){//cc es Menu de Bienvenida
 644:main.c        ****         if(controlT==0 && controlH==0 && controlR==0)
 645:main.c        ****             Menu=120;
 646:main.c        ****         else
 647:main.c        ****             Menu=20;
 648:main.c        ****          //if(MenuAntt!=120)
 649:main.c        ****             //reset_cpu();
 650:main.c        ****       }
 651:main.c        ****    }else{
 652:main.c        ****       for(z=0;z<RX_BUFFER_SIZE;z++){
 653:main.c        ****             //Rx_Buffer[z]=0;
ARM GAS  C:\Users\USUARIO\AppData\Local\Temp\ccUv4o23.s 			page 13


 654:main.c        ****             //Rx_Buffer2[z]=0;
 655:main.c        ****          }
 656:main.c        ****    }
 657:main.c        **** 
 658:main.c        ****        if(Dato_Exitoso2==5){
 659:main.c        ****          Rx_Buffer3[0]=Rx_Buffer4[0];
 660:main.c        ****          Rx_Buffer3[1]=Rx_Buffer4[1];
 661:main.c        ****          Rx_Buffer3[2]=Rx_Buffer4[2];
 662:main.c        ****          Rx_Buffer3[3]=Rx_Buffer4[3];
 663:main.c        ****          Rx_Buffer3[4]=Rx_Buffer4[4];
 664:main.c        ****          Rx_Buffer3[5]=Rx_Buffer4[5];
 665:main.c        ****          Rx_Buffer3[6]=Rx_Buffer4[6];
 666:main.c        ****          Rx_Buffer3[7]=Rx_Buffer4[7];
 667:main.c        ****          Rx_Buffer3[8]=Rx_Buffer4[8];
 668:main.c        ****          Rx_Buffer3[9]=Rx_Buffer4[9];
 669:main.c        ****          
 670:main.c        ****       if(Rx_Buffer3[3]==0x01){// Pregunta por la pagina en la que esta el display,01 es Contraseña
 671:main.c        ****          Menu2=0;
 672:main.c        ****          if(MenuAntt2!=Menu2)
 673:main.c        ****             MenuAntt2=Menu2;
 674:main.c        ****       }else if(Rx_Buffer3[3]==0x02){//02 es Menu Principal con PantallaPriincipal=0, y con Pantalla
 675:main.c        ****          Menu2=1;
 676:main.c        ****          if(MenuAntt2!=Menu2)
 677:main.c        ****             MenuAntt2=Menu2;
 678:main.c        ****       }else if(Rx_Buffer3[3]==0x04){//03 es Tiempo Esterilizacion
 679:main.c        ****          Menu2=2;
 680:main.c        ****          if(MenuAntt2!=Menu2)
 681:main.c        ****             MenuAntt2=Menu2;
 682:main.c        ****       }else if(Rx_Buffer3[3]==0x05){//05 es Temperatura
 683:main.c        ****          Menu2=3;
 684:main.c        ****          if(MenuAntt2!=Menu2)
 685:main.c        ****             MenuAntt2=Menu2;
 686:main.c        ****       }else if(Rx_Buffer3[3]==0x06){//06 es Nivel
 687:main.c        ****          Menu2=5;
 688:main.c        ****          if(MenuAntt2!=Menu2)
 689:main.c        ****             MenuAntt2=Menu2;
 690:main.c        ****       }else if(Rx_Buffer3[3]==0x07){//07 es Test de Componentes
 691:main.c        ****          Menu2=6;
 692:main.c        ****          if(MenuAntt2!=Menu2)
 693:main.c        ****             MenuAntt2=Menu2;
 694:main.c        ****       }else if(Rx_Buffer3[3]==0x08){//08 es Fecha y hora
 695:main.c        ****          Menu2=7;
 696:main.c        ****          if(MenuAntt2!=Menu2)
 697:main.c        ****             MenuAntt2=Menu2;
 698:main.c        ****       }else if(Rx_Buffer3[3]==0x09){//09 es Rampas
 699:main.c        ****          Menu2=8;
 700:main.c        ****          if(MenuAntt2!=Menu2)
 701:main.c        ****             MenuAntt2=Menu2;
 702:main.c        ****       }else if(Rx_Buffer3[3]==0x0a){//0a es Grafica
 703:main.c        ****          Menu2=9;
 704:main.c        ****          if(MenuAntt2!=Menu2)
 705:main.c        ****             MenuAntt2=Menu2;
 706:main.c        ****       }else if(Rx_Buffer3[3]==0x0f){//0f es Recibe caracteres de contraseña desde display
 707:main.c        ****          
 708:main.c        ****       }else if(Rx_Buffer3[3]==0x1a){//1a es Menu de Funcionamiento
 709:main.c        ****          Menu2=20;
 710:main.c        ****          if(MenuAntt2!=Menu2)
ARM GAS  C:\Users\USUARIO\AppData\Local\Temp\ccUv4o23.s 			page 14


 711:main.c        ****             MenuAntt2=Menu2;
 712:main.c        ****       }else if(Rx_Buffer3[3]==0x1b){//1b es Menu de clave correcta
 713:main.c        ****          Menu2=15;
 714:main.c        ****          if(MenuAntt2!=Menu2)
 715:main.c        ****             MenuAntt2=Menu2;
 716:main.c        ****       }else if(Rx_Buffer3[3]==0x1c){//1c es Menu de clave incorrecta
 717:main.c        ****          Menu2=16;
 718:main.c        ****          if(MenuAntt2!=Menu2)
 719:main.c        ****             MenuAntt2=Menu2;
 720:main.c        ****       }else if(Rx_Buffer3[3]==0x2c){//2c es Menu de Configuracion de Parametros
 721:main.c        ****          Menu2=100;
 722:main.c        ****          if(MenuAntt2!=Menu2)
 723:main.c        ****             MenuAntt2=Menu2;
 724:main.c        ****       }else if(Rx_Buffer3[3]==0xcc){//cc es Menu de Bienvenida
 725:main.c        ****          Menu2=120;
 726:main.c        ****          //if(MenuAntt!=120)
 727:main.c        ****             //reset_cpu();
 728:main.c        ****       }
 729:main.c        ****    }else{
 730:main.c        ****          for(z=0;z<RX_BUFFER_SIZE;z++){
 731:main.c        ****             //Rx_Buffer[z]=0;
 732:main.c        ****             //Rx_Buffer2[z]=0;
 733:main.c        ****          }
 734:main.c        ****    }
 735:main.c        **** }
 736:main.c        **** 
 737:main.c        **** void controlaRampa(){
 738:main.c        ****       if(Enfria==1){
 739:main.c        ****       if(Temperatura<=Setpoint+0.5 && Temperatura>=Setpoint-0.5){
 740:main.c        ****          if(Pendiente!=0){
 741:main.c        ****             escribeDisplay1("statusT.txt=\"Controlando\"");
 742:main.c        ****             flagTemperatura=ON;            
 743:main.c        ****          }
 744:main.c        ****          
 745:main.c        ****          if(Pendiente==0){
 746:main.c        ****             escribeDisplay1("statusT.txt=\"Meseta\"");
 747:main.c        ****             flagTemperatura=ON;
 748:main.c        ****          }
 749:main.c        ****          Controla();
 750:main.c        ****          flag_tiempocalentamiento=0;
 751:main.c        ****       }else if(Temperatura<Setpoint-0.5){
 752:main.c        ****          Enfria=0;
 753:main.c        ****          Ganancia=GananciaR*(Setpoint/200);
 754:main.c        ****          //Gananciamax=(0.21)*Setpoint;
 755:main.c        ****          SSR_Write(0);
 756:main.c        ****          Control=0;
 757:main.c        ****       }else if(Temperatura>Setpoint+0.6){
 758:main.c        ****          if(Pendiente!=0){
 759:main.c        ****             escribeDisplay1("statusT.txt=\"Rampa -\"");
 760:main.c        ****             flagTemperatura=ON;            
 761:main.c        ****          }
 762:main.c        ****          if(Pendiente==0){
 763:main.c        ****             escribeDisplay1("statusT.txt=\"Enfriando\"");
 764:main.c        ****             flagTemperatura=OFF;            
 765:main.c        ****          }
 766:main.c        ****          Controla();
 767:main.c        ****       }
ARM GAS  C:\Users\USUARIO\AppData\Local\Temp\ccUv4o23.s 			page 15


 768:main.c        ****    }else{  
 769:main.c        ****       if(Temperatura>=Setpoint-0.5 && Temperatura<=Setpoint+0.5){
 770:main.c        ****          if(Pendiente!=0){
 771:main.c        ****             escribeDisplay1("statusT.txt=\"Controlando\"");
 772:main.c        ****             flagTemperatura=ON;            
 773:main.c        ****          }
 774:main.c        ****          
 775:main.c        ****          if(Pendiente==0){
 776:main.c        ****             escribeDisplay1("statusT.txt=\"Meseta\"");
 777:main.c        ****             flagTemperatura=ON;
 778:main.c        ****          }
 779:main.c        ****          Controla();
 780:main.c        ****          flag_tiempocalentamiento=0;
 781:main.c        ****       }else if(Temperatura>Setpoint+0.5){
 782:main.c        ****          Enfria=1;
 783:main.c        ****          Ganancia=GananciaR*(Setpoint/200);
 784:main.c        ****          SSR_Write(0);
 785:main.c        ****          Control=0;
 786:main.c        ****       }else if(Temperatura<Setpoint-0.6){
 787:main.c        ****          if(Pendiente!=0){
 788:main.c        ****             escribeDisplay1("statusT.txt=\"Rampa +\"");
 789:main.c        ****             flagTemperatura=ON;            
 790:main.c        ****          }
 791:main.c        ****          if(Pendiente==0){
 792:main.c        ****             escribeDisplay1("statusT.txt=\"Calentando\"");
 793:main.c        ****             flagTemperatura=OFF;            
 794:main.c        ****          }
 795:main.c        ****          Controla();
 796:main.c        ****       }
 797:main.c        ****    }
 798:main.c        **** }
 799:main.c        **** 
 800:main.c        **** float leePt100(uint8 media){
 801:main.c        ****     float tmp2,ajp,ajn;
 802:main.c        ****     Prom=0.0;    
 803:main.c        ****     tmp2=0;
 804:main.c        ****     
 805:main.c        ****     /* Measure the voltage across reference resistance */
 806:main.c        ****     vRef = MeasureRefResVoltage();
 807:main.c        **** 	/* Find the RTD resistance */
 808:main.c        **** 	rtdRes[0] = GetRTDRes(vRef,0);
 809:main.c        **** 	/* Calculate RTD temperature from resistance */
 810:main.c        **** 	rtdTemp[0] = RTD_GetTemperature(rtdRes[0]);
 811:main.c        ****     /*Determine decimal portion of temperature by dividing temperature by 100*/
 812:main.c        ****     decTemp[0] = rtdTemp[0]/100;
 813:main.c        ****     /*Determine fraction portion of temperature by subtracting decimal portion from result*/
 814:main.c        ****     fracTemp[0] = rtdTemp[0] - (decTemp[0] * 100);
 815:main.c        ****     /*If fractional temperature is negative make it positive*/
 816:main.c        ****     if(fracTemp[0] < 0){
 817:main.c        ****         fracTemp[0] *= -1;
 818:main.c        ****     }
 819:main.c        ****     tmp2=(float)fracTemp[0];    
 820:main.c        ****     V0=(float)decTemp[0]+(tmp2/100.0);
 821:main.c        ****     
 822:main.c        ****     if(l>(media-1))
 823:main.c        ****          l=0;
 824:main.c        ****     
ARM GAS  C:\Users\USUARIO\AppData\Local\Temp\ccUv4o23.s 			page 16


 825:main.c        ****     promedioT1[l]=V0;l++;
 826:main.c        ****              
 827:main.c        ****     for(h=0;h<media;h++){
 828:main.c        ****         Prom+=promedioT1[h];
 829:main.c        ****     } 
 830:main.c        ****     
 831:main.c        ****     ajp=(float)Ajuste;
 832:main.c        ****     ajp=ajp/10.0;
 833:main.c        ****     ajn=(float)Ajusten;
 834:main.c        ****     ajn=ajn/10.0;
 835:main.c        ****     return (Prom/media)+ajp-ajn;   
 836:main.c        **** }
 837:main.c        **** 
 838:main.c        **** float leePt1002(uint8 media2){
 839:main.c        ****     float tmp3,ajp2,ajn2;
 840:main.c        ****     Prom2=0.0;
 841:main.c        ****     tmp3=0;
 842:main.c        ****     
 843:main.c        ****     /* Measure the voltage across reference resistance */
 844:main.c        ****     vRef = MeasureRefResVoltage();
 845:main.c        **** 	/* Find the RTD resistance */
 846:main.c        **** 	rtdRes[1] = GetRTDRes(vRef,1);
 847:main.c        **** 	/* Calculate RTD temperature from resistance */
 848:main.c        **** 	rtdTemp[1] = RTD_GetTemperature(rtdRes[1]);
 849:main.c        ****     /*Determine decimal portion of temperature by dividing temperature by 100*/
 850:main.c        ****     decTemp[1] = rtdTemp[1]/100;
 851:main.c        ****     /*Determine fraction portion of temperature by subtracting decimal portion from result*/
 852:main.c        ****     fracTemp[1] = rtdTemp[1] - (decTemp[1] * 100);
 853:main.c        ****     /*If fractional temperature is negative make it positive*/
 854:main.c        ****     if(fracTemp[1] < 0){
 855:main.c        ****         fracTemp[1] *= -1;
 856:main.c        ****     }
 857:main.c        ****     tmp3=(float)fracTemp[1];    
 858:main.c        ****     V1=(float)decTemp[1]+(tmp3/100.0);
 859:main.c        ****     
 860:main.c        ****     if(ll>(media2-1))
 861:main.c        ****         ll=0;
 862:main.c        **** 
 863:main.c        ****     promedioT2[ll]=V1;ll++;
 864:main.c        ****              
 865:main.c        ****     for(hh=0;hh<media2;hh++){
 866:main.c        ****         Prom2+=promedioT2[hh];
 867:main.c        ****     }
 868:main.c        ****     ajp2=(float)Ajuste2;
 869:main.c        ****     ajp2=ajp2/10.0;
 870:main.c        ****     ajn2=(float)Ajusten2;
 871:main.c        ****     ajn2=ajn2/10.0;
 872:main.c        ****     return (Prom2/media2)+ajp2-ajn2;
 873:main.c        **** }
 874:main.c        **** 
 875:main.c        **** int32 LowPassFilter(int32 input){
 876:main.c        ****     int32 k;
 877:main.c        ****     input <<= 8;
 878:main.c        ****     filt = filt + (((input-filt) >> 8) * 40);
 879:main.c        ****     k = (filt>>8) + ((filt & 0x00000080) >> 7);
 880:main.c        ****     return k;
 881:main.c        **** }
ARM GAS  C:\Users\USUARIO\AppData\Local\Temp\ccUv4o23.s 			page 17


 882:main.c        **** 
 883:main.c        **** int32 leeLM35(){ //Falta hacerle promedio
 884:main.c        ****     float Promlm35;
 885:main.c        ****     Promlm35=0.0;
 886:main.c        ****     ADC_SAR_IsEndConversion(ADC_SAR_WAIT_FOR_RESULT);
 887:main.c        ****     tmp=ADC_SAR_GetResult16(0u);
 888:main.c        ****     lm35=LowPassFilter(ADC_SAR_CountsTo_mVolts(tmp));
 889:main.c        ****     if(k>(4))
 890:main.c        ****       k=0;
 891:main.c        ****     promediolm35[k]=lm35;k++;
 892:main.c        ****          
 893:main.c        ****     for(kk=0;kk<5;kk++)
 894:main.c        ****       Promlm35+=promediolm35[kk]; 
 895:main.c        ****     Promlm35=Promlm35/5;
 896:main.c        ****     return Promlm35*10;
 897:main.c        **** }
 898:main.c        **** 
 899:main.c        **** float leeHumedad(int8 media){
 900:main.c        ****    float VH=0.0,RH=0.0,Ta=0.0,VT=0.0;
 901:main.c        ****    float PromH,PromTa;
 902:main.c        ****    PromH=0.0;
 903:main.c        ****    PromTa=0.0;
 904:main.c        ****    ADC_SAR_IsEndConversion(ADC_SAR_WAIT_FOR_RESULT);
 905:main.c        ****    //VH=ADC_SAR_CountsTo_Volts(LowPassFilter(tmp));
 906:main.c        ****    VH=ADC_SAR_CountsTo_Volts(ADC_SAR_GetResult16(1u));
 907:main.c        ****    VT=ADC_SAR_CountsTo_Volts(ADC_SAR_GetResult16(2u));
 908:main.c        ****    VH=VH*1000;
 909:main.c        ****    //VT=VT*1000;
 910:main.c        ****    Ta=(pow(VT,3)*aa)+(pow(VT,2)*bb)+(VT*cc)+dd;
 911:main.c        **** 
 912:main.c        ****    if(f>(media-1))
 913:main.c        ****       f=0;
 914:main.c        ****    promedioTa[f]=Ta;f++;
 915:main.c        ****          
 916:main.c        ****    for(h=0;h<media;h++)
 917:main.c        ****       PromTa+=promedioTa[h]; 
 918:main.c        ****    PromTa=PromTa/media;
 919:main.c        ****    
 920:main.c        ****    Tam=PromTa;
 921:main.c        ****    RH =((-0.0000000019206*pow(VH,3))+( 0.000014370*pow(VH,2))+( 0.0034210*VH)-12.4)/(1+(PromTa-23)*
 922:main.c        ****    if(RH<0)
 923:main.c        ****         RH=0.0;
 924:main.c        ****    if(RH>100.0)
 925:main.c        ****         RH=100.0;
 926:main.c        ****    //RH =((-0.0000000019206*pow(VH,3))+( 0.000014370*pow(VH,2))+( 0.0034210*VH)-12.4)/(1+(Temperatu
 927:main.c        ****    RH2 = 0.0375 * VH - 37.7; //Lineal sin compensacion de Temperatura
 928:main.c        ****    if(n>(media-1))
 929:main.c        ****       n=0;
 930:main.c        ****    promedioH[n]=RH;n++;
 931:main.c        ****          
 932:main.c        ****    for(h=0;h<media;h++)
 933:main.c        ****       PromH+=promedioH[h]; 
 934:main.c        ****    PromH=PromH/media;
 935:main.c        ****    return PromH;
 936:main.c        **** }
 937:main.c        **** 
 938:main.c        **** short esBisiesto(uint8 year) {
ARM GAS  C:\Users\USUARIO\AppData\Local\Temp\ccUv4o23.s 			page 18


 939:main.c        ****      return ((year % 4 == 0 && year % 100 != 0) || year % 400 == 0);
 940:main.c        **** }
 941:main.c        **** 
 942:main.c        **** void LimitaDia(){
 943:main.c        ****    if(MesTx>12)
 944:main.c        ****       MesTx=10;
 945:main.c        ****    if(DiaTx>31)
 946:main.c        ****       DiaTx=16;
 947:main.c        ****    if(YearTx>99)
 948:main.c        ****       YearTx=18;   
 949:main.c        ****    if(HoraTx>24)
 950:main.c        ****       HoraTx=11;      
 951:main.c        ****    if(MinutoTx>59)
 952:main.c        ****       MinutoTx=30;      
 953:main.c        ****    
 954:main.c        ****       if(MesTx==2){
 955:main.c        ****          if(esBisiesto(YearTx)){
 956:main.c        ****             if(DiaTx>29){
 957:main.c        ****                DiaTx=29;
 958:main.c        ****                //glcd_fillScreen(OFF);
 959:main.c        ****             }
 960:main.c        ****          }else{
 961:main.c        ****             if(DiaTx>28){
 962:main.c        ****                DiaTx=28;
 963:main.c        ****                //glcd_fillScreen(OFF);
 964:main.c        ****             }
 965:main.c        ****          }
 966:main.c        ****       }else{
 967:main.c        ****          if(MesTx<=7){
 968:main.c        ****             if(MesTx % 2 ==0){
 969:main.c        ****                if(DiaTx>30){
 970:main.c        ****                   DiaTx=30; 
 971:main.c        ****                   //glcd_fillScreen(OFF);
 972:main.c        ****                }
 973:main.c        ****             }
 974:main.c        ****          }else{
 975:main.c        ****             if(MesTx % 2 ==1){
 976:main.c        ****                if(DiaTx>30){
 977:main.c        ****                   DiaTx=30; 
 978:main.c        ****                   //glcd_fillScreen(OFF);
 979:main.c        ****                }
 980:main.c        ****             }
 981:main.c        ****          }
 982:main.c        ****       }
 983:main.c        **** }
 984:main.c        **** 
 985:main.c        **** void ApagaSalidas(){
 986:main.c        ****     BUZZER_Write(0);
 987:main.c        ****     CR1_Write(0);
 988:main.c        ****     CR2_Write(0);
 989:main.c        ****     CR3_Write(0);
 990:main.c        ****     CR4_Write(0);
 991:main.c        ****     CR5_Write(0);
 992:main.c        ****     CR6_Write(1);
 993:main.c        ****     CR7_Write(1);
 994:main.c        ****     CR8_Write(0);
 995:main.c        ****     SSR_Write(0);
ARM GAS  C:\Users\USUARIO\AppData\Local\Temp\ccUv4o23.s 			page 19


 996:main.c        **** }
 997:main.c        **** 
 998:main.c        **** void controlaHumedad(){
 999:main.c        ****    if(Humidificar){
1000:main.c        ****       dehumidificador=OFF;
1001:main.c        ****       tdehumidificador=0;
1002:main.c        ****       if(Humedad<SetpointH-3.0){
1003:main.c        ****          escribeDisplay1("statusH.txt=\"Humidificando\"");
1004:main.c        ****          humidificador=ON;
1005:main.c        ****          CR5_Write(0);//Dehumidificador_off;
1006:main.c        ****          if(LEVEL_Read()==0){
1007:main.c        ****             tllenado=0;
1008:main.c        ****             if(Humedad<SetpointH-10.0){
1009:main.c        ****                 CR7_Write(0);//Humidificador_on;
1010:main.c        ****             }else{
1011:main.c        ****                 if(thumidificador<=T1Humedad){
1012:main.c        ****                     CR7_Write(0);//Humidificador_on;
1013:main.c        ****                 }else if(thumidificador>T1Humedad && thumidificador<T2Humedad){
1014:main.c        ****                     CR7_Write(1);//Humidificador_off;    
1015:main.c        ****                 }else if(thumidificador>T2Humedad){
1016:main.c        ****                     thumidificador=0;   
1017:main.c        ****                 }
1018:main.c        ****             }
1019:main.c        ****          }else{
1020:main.c        ****             CR7_Write(1);//Humidificador_off;
1021:main.c        ****         }
1022:main.c        ****         if(Humedad<SetpointH-5.0)
1023:main.c        ****             flagHumedad=OFF;
1024:main.c        ****       }else if(Humedad<SetpointH-0.3 && Humedad>SetpointH-2.8){
1025:main.c        ****          escribeDisplay1("statusH.txt=\"Controlando\"");
1026:main.c        ****          humidificador=ON;
1027:main.c        ****          CR5_Write(0);//Dehumidificador_off;
1028:main.c        ****          if(LEVEL_Read()==0){
1029:main.c        ****             tllenado=0;
1030:main.c        ****             //CR7_Write(0);//Humidificador_on;
1031:main.c        ****             if(thumidificador<=T3Humedad){
1032:main.c        ****                 CR7_Write(0);//Humidificador_on;
1033:main.c        ****             }else if(thumidificador>T3Humedad && thumidificador<T2Humedad){
1034:main.c        ****                 CR7_Write(1);//Humidificador_off;    
1035:main.c        ****             }else if(thumidificador>T2Humedad){
1036:main.c        ****                 thumidificador=0;   
1037:main.c        ****             }
1038:main.c        ****          }else{
1039:main.c        ****             CR7_Write(1);//Humidificador_off;
1040:main.c        ****          }
1041:main.c        ****          if(!Infinito)   
1042:main.c        ****             flagHumedad=ON;
1043:main.c        ****          else
1044:main.c        ****             flagHumedad=OFF;
1045:main.c        ****       }else if(Humedad>SetpointH && Humedad<SetpointH+3.0){
1046:main.c        ****          CR7_Write(1);//Humidificador_off;
1047:main.c        ****          CR5_Write(0);//Dehumidificador_off;
1048:main.c        ****          humidificador=OFF;
1049:main.c        ****          thumidificador=0;
1050:main.c        ****          if(!Infinito)   
1051:main.c        ****             flagHumedad=ON;
1052:main.c        ****          else
ARM GAS  C:\Users\USUARIO\AppData\Local\Temp\ccUv4o23.s 			page 20


1053:main.c        ****             flagHumedad=OFF;
1054:main.c        ****       }else if(Humedad>SetpointH+3.0){
1055:main.c        ****          Humidificar=OFF; 
1056:main.c        ****       }
1057:main.c        ****    }else{
1058:main.c        ****         humidificador=OFF;
1059:main.c        ****         thumidificador=0;
1060:main.c        ****       if(Humedad>SetpointH+2.0){
1061:main.c        ****          escribeDisplay1("statusH.txt=\"Deshumidificando\"");
1062:main.c        ****          dehumidificador=ON;
1063:main.c        ****          if(tdehumidificador<300){
1064:main.c        ****             CR5_Write(1);//Dehumidificador_on;
1065:main.c        ****          }else if(tdehumidificador>=300 && tdehumidificador<360){
1066:main.c        ****             CR5_Write(0);//Dehumidificador_off;
1067:main.c        ****          }else if(tdehumidificador>=360){
1068:main.c        ****             tdehumidificador=0;
1069:main.c        ****          }
1070:main.c        ****          CR7_Write(1);//Humidificador_off;
1071:main.c        ****          if(Humedad>SetpointH+5.0)
1072:main.c        ****             flagHumedad=OFF;
1073:main.c        ****       }else if(Humedad>SetpointH && Humedad<SetpointH+2.8){
1074:main.c        ****          escribeDisplay1("statusH.txt=\"Controlando\"");
1075:main.c        ****          if(tdehumidificador<300){
1076:main.c        ****             CR5_Write(1);//Dehumidificador_on;
1077:main.c        ****          }else if(tdehumidificador>=300 && tdehumidificador<360){
1078:main.c        ****             CR5_Write(0);//Dehumidificador_off;
1079:main.c        ****          }else if(tdehumidificador>=360){
1080:main.c        ****             tdehumidificador=0;
1081:main.c        ****          }
1082:main.c        ****          CR7_Write(1);//Humidificador_off;
1083:main.c        ****          if(!Infinito)   
1084:main.c        ****             flagHumedad=ON;
1085:main.c        ****          else
1086:main.c        ****             flagHumedad=OFF;
1087:main.c        ****       }else if(Humedad<SetpointH-0.1 && Humedad>SetpointH-2.0){
1088:main.c        ****          dehumidificador=OFF;
1089:main.c        ****          tdehumidificador=0;
1090:main.c        ****          CR7_Write(1);//Humidificador_off;
1091:main.c        ****          CR5_Write(0);//Dehumidificador_off;
1092:main.c        ****          if(!Infinito)   
1093:main.c        ****             flagHumedad=ON;
1094:main.c        ****          else
1095:main.c        ****             flagHumedad=OFF;
1096:main.c        ****       }else if(Humedad<SetpointH-3.0){
1097:main.c        ****          Humidificar=ON; 
1098:main.c        ****       }
1099:main.c        ****    }
1100:main.c        **** }
1101:main.c        **** 
1102:main.c        **** void controlaTemperatura(){
1103:main.c        ****     if(TERM_Read()==1 || Temperatura>60){
1104:main.c        ****       escribeDisplay1("statusT.txt=\"!Termostato!\"");      
1105:main.c        ****       SSR_Write(0);
1106:main.c        ****       Control=0;
1107:main.c        ****       Ganancia=GananciaR*(Setpoint/200);
1108:main.c        ****       BUZZER_Write(1);
1109:main.c        ****       CyDelay(300);
ARM GAS  C:\Users\USUARIO\AppData\Local\Temp\ccUv4o23.s 			page 21


1110:main.c        ****       BUZZER_Write(0);
1111:main.c        ****       CyDelay(300);
1112:main.c        ****     }else{
1113:main.c        ****         if(Enfria==1){
1114:main.c        ****             if(Temperatura<=Setpoint+0.5 && Temperatura>=Setpoint-0.5){
1115:main.c        ****                 escribeDisplay1("statusT.txt=\"Controlando -\"");
1116:main.c        ****                 if(!Infinito)
1117:main.c        ****                     flagTemperatura=ON;
1118:main.c        ****                 //tiempo_esterilizacion=1;
1119:main.c        ****             else
1120:main.c        ****                 flagTemperatura=OFF;
1121:main.c        ****                 //tiempo_esterilizacion=0;
1122:main.c        ****                 Controla();
1123:main.c        ****                 flag_tiempocalentamiento=0;
1124:main.c        ****             }else if(Temperatura<Setpoint-0.5){
1125:main.c        ****                 Enfria=0;
1126:main.c        ****                 Ganancia=GananciaR*(Setpoint/200);
1127:main.c        ****                 //Gananciamax=(0.21)*Setpoint;
1128:main.c        ****                 SSR_Write(0);
1129:main.c        ****                 Control=0;
1130:main.c        ****             }else if(Temperatura>Setpoint+0.6){
1131:main.c        ****                 flag_tiempocalentamiento=0;
1132:main.c        ****                 escribeDisplay1("statusT.txt=\"Enfriando\"");
1133:main.c        ****                 //tiempo_esterilizacion=0;
1134:main.c        ****                 flagTemperatura=OFF;
1135:main.c        ****                 Controla();
1136:main.c        ****             }
1137:main.c        ****         }else{  
1138:main.c        ****             if(Temperatura>=Setpoint-0.5 && Temperatura<=Setpoint+0.5){
1139:main.c        ****                 escribeDisplay1("statusT.txt=\"Controlando +\"");
1140:main.c        ****                 if(!Infinito)
1141:main.c        ****                     //tiempo_esterilizacion=1;
1142:main.c        ****                     flagTemperatura=ON;
1143:main.c        ****                 else
1144:main.c        ****                     //tiempo_esterilizacion=0;   
1145:main.c        ****                     flagTemperatura=OFF;
1146:main.c        ****                 Controla();
1147:main.c        ****                 flag_tiempocalentamiento=0;
1148:main.c        ****             }else if(Temperatura>Setpoint+0.5){
1149:main.c        ****                 Enfria=1;
1150:main.c        ****                 Ganancia=GananciaR*(Setpoint/200);
1151:main.c        ****                 SSR_Write(0);
1152:main.c        ****                 Control=0;
1153:main.c        ****             }else if(Temperatura<Setpoint-0.6){
1154:main.c        ****                 flag_tiempocalentamiento=1;
1155:main.c        ****                 escribeDisplay1("statusT.txt=\"Calentando\"");
1156:main.c        ****                 //tiempo_esterilizacion=0;
1157:main.c        ****                 flagTemperatura=OFF;
1158:main.c        ****                 Controla();
1159:main.c        ****             }
1160:main.c        ****         }
1161:main.c        ****     }
1162:main.c        **** }
1163:main.c        **** 
1164:main.c        **** CY_ISR(Reloj2){ 
  32              		.loc 1 1164 0
  33              		.cfi_startproc
ARM GAS  C:\Users\USUARIO\AppData\Local\Temp\ccUv4o23.s 			page 22


  34              		@ args = 0, pretend = 0, frame = 0
  35              		@ frame_needed = 0, uses_anonymous_args = 0
  36 0000 08B5     		push	{r3, lr}
  37              		.cfi_def_cfa_offset 8
  38              		.cfi_offset 3, -8
  39              		.cfi_offset 14, -4
1165:main.c        ****     //CapSense_DisplayState();
1166:main.c        ****     tiempos++;
  40              		.loc 1 1166 0
  41 0002 564A     		ldr	r2, .L17
  42 0004 1388     		ldrh	r3, [r2]
  43 0006 0133     		adds	r3, r3, #1
  44 0008 1380     		strh	r3, [r2]	@ movhi
1167:main.c        ****     tiempos3++;
  45              		.loc 1 1167 0
  46 000a 554A     		ldr	r2, .L17+4
  47 000c 1388     		ldrh	r3, [r2]
  48 000e 0133     		adds	r3, r3, #1
  49 0010 1380     		strh	r3, [r2]	@ movhi
1168:main.c        ****     tiempoctrl++;
  50              		.loc 1 1168 0
  51 0012 544A     		ldr	r2, .L17+8
  52 0014 1388     		ldrh	r3, [r2]
  53 0016 0133     		adds	r3, r3, #1
  54 0018 9BB2     		uxth	r3, r3
  55 001a 1380     		strh	r3, [r2]	@ movhi
1169:main.c        ****     
1170:main.c        ****     if(Control==1){// && tcHotJnuVolt > BROKEN_TC_THRESHOLD){
  56              		.loc 1 1170 0
  57 001c 524A     		ldr	r2, .L17+12
  58 001e B2F90020 		ldrsh	r2, [r2]
  59 0022 012A     		cmp	r2, #1
  60 0024 14D1     		bne	.L2
1171:main.c        ****         if(tiempoctrl>=Tc) // Si el tiempo de control es mayor al tiempo de ciclo se reinicia tiemp
  61              		.loc 1 1171 0
  62 0026 514A     		ldr	r2, .L17+16
  63 0028 1288     		ldrh	r2, [r2]
  64 002a 9342     		cmp	r3, r2
  65 002c 02D3     		bcc	.L3
1172:main.c        ****             tiempoctrl=0;
  66              		.loc 1 1172 0
  67 002e 0022     		movs	r2, #0
  68 0030 4C4B     		ldr	r3, .L17+8
  69 0032 1A80     		strh	r2, [r3]	@ movhi
  70              	.L3:
1173:main.c        ****         // tiempoctrl incrementa una unidad cada 5ms, por eso se dividen los tiempos por 0.005.
1174:main.c        ****       
1175:main.c        ****         if(tiempoctrl<=Tp) // Si el tiempo es menor o igual al tiempo de control se enciende la res
  71              		.loc 1 1175 0
  72 0034 4B4B     		ldr	r3, .L17+8
  73 0036 1A88     		ldrh	r2, [r3]
  74 0038 4D4B     		ldr	r3, .L17+20
  75 003a 1B88     		ldrh	r3, [r3]
  76 003c 9A42     		cmp	r2, r3
  77 003e 03D8     		bhi	.L4
1176:main.c        ****             SSR_Write(1);
  78              		.loc 1 1176 0
ARM GAS  C:\Users\USUARIO\AppData\Local\Temp\ccUv4o23.s 			page 23


  79 0040 0120     		movs	r0, #1
  80 0042 FFF7FEFF 		bl	SSR_Write
  81              	.LVL0:
  82 0046 0AE0     		b	.L5
  83              	.L4:
1177:main.c        ****         else         
1178:main.c        ****             SSR_Write(0);
  84              		.loc 1 1178 0
  85 0048 0020     		movs	r0, #0
  86 004a FFF7FEFF 		bl	SSR_Write
  87              	.LVL1:
  88 004e 06E0     		b	.L5
  89              	.L2:
1179:main.c        ****     }else{
1180:main.c        ****         if(!Test)
  90              		.loc 1 1180 0
  91 0050 484B     		ldr	r3, .L17+24
  92 0052 B3F90030 		ldrsh	r3, [r3]
  93 0056 13B9     		cbnz	r3, .L5
1181:main.c        ****             SSR_Write(0);
  94              		.loc 1 1181 0
  95 0058 0020     		movs	r0, #0
  96 005a FFF7FEFF 		bl	SSR_Write
  97              	.LVL2:
  98              	.L5:
1182:main.c        ****     }
1183:main.c        **** 
1184:main.c        ****     if(tiempos3>=200){
  99              		.loc 1 1184 0
 100 005e 404B     		ldr	r3, .L17+4
 101 0060 1B88     		ldrh	r3, [r3]
 102 0062 C72B     		cmp	r3, #199
 103 0064 15D9     		bls	.L6
1185:main.c        ****         Lectura2=1;
 104              		.loc 1 1185 0
 105 0066 0122     		movs	r2, #1
 106 0068 434B     		ldr	r3, .L17+28
 107 006a 1A80     		strh	r2, [r3]	@ movhi
1186:main.c        ****         if(flagup)
 108              		.loc 1 1186 0
 109 006c 434B     		ldr	r3, .L17+32
 110 006e B3F90030 		ldrsh	r3, [r3]
 111 0072 1BB1     		cbz	r3, .L7
1187:main.c        ****             tiempoup++;
 112              		.loc 1 1187 0
 113 0074 424A     		ldr	r2, .L17+36
 114 0076 1388     		ldrh	r3, [r2]
 115 0078 0133     		adds	r3, r3, #1
 116 007a 1380     		strh	r3, [r2]	@ movhi
 117              	.L7:
1188:main.c        ****         if(flagdn)
 118              		.loc 1 1188 0
 119 007c 414B     		ldr	r3, .L17+40
 120 007e B3F90030 		ldrsh	r3, [r3]
 121 0082 1BB1     		cbz	r3, .L8
1189:main.c        ****             tiempodn++;   
 122              		.loc 1 1189 0
ARM GAS  C:\Users\USUARIO\AppData\Local\Temp\ccUv4o23.s 			page 24


 123 0084 404A     		ldr	r2, .L17+44
 124 0086 1388     		ldrh	r3, [r2]
 125 0088 0133     		adds	r3, r3, #1
 126 008a 1380     		strh	r3, [r2]	@ movhi
 127              	.L8:
1190:main.c        ****         tiempos3=0;
 128              		.loc 1 1190 0
 129 008c 0022     		movs	r2, #0
 130 008e 344B     		ldr	r3, .L17+4
 131 0090 1A80     		strh	r2, [r3]	@ movhi
 132              	.L6:
1191:main.c        ****     }
1192:main.c        ****     
1193:main.c        ****     if(tiempos>=500){  // Cuenta cada 2ms   
 133              		.loc 1 1193 0
 134 0092 324B     		ldr	r3, .L17
 135 0094 1B88     		ldrh	r3, [r3]
 136 0096 B3F5FA7F 		cmp	r3, #500
 137 009a 5ED3     		bcc	.L1
1194:main.c        ****         tiempos=0;Lectura=1;tiemporeset++;TiempoControl++;tiemporecta++;mensaje=!mensaje;envioUSB=1
 138              		.loc 1 1194 0
 139 009c 0022     		movs	r2, #0
 140 009e 2F4B     		ldr	r3, .L17
 141 00a0 1A80     		strh	r2, [r3]	@ movhi
 142 00a2 0122     		movs	r2, #1
 143 00a4 394B     		ldr	r3, .L17+48
 144 00a6 1A80     		strh	r2, [r3]	@ movhi
 145 00a8 3949     		ldr	r1, .L17+52
 146 00aa 0B88     		ldrh	r3, [r1]
 147 00ac 1344     		add	r3, r3, r2
 148 00ae 0B80     		strh	r3, [r1]	@ movhi
 149 00b0 3849     		ldr	r1, .L17+56
 150 00b2 0B88     		ldrh	r3, [r1]
 151 00b4 1344     		add	r3, r3, r2
 152 00b6 0B80     		strh	r3, [r1]	@ movhi
 153 00b8 3749     		ldr	r1, .L17+60
 154 00ba 0B88     		ldrh	r3, [r1]
 155 00bc 1344     		add	r3, r3, r2
 156 00be 0B80     		strh	r3, [r1]	@ movhi
 157 00c0 3649     		ldr	r1, .L17+64
 158 00c2 B1F90030 		ldrsh	r3, [r1]
 159 00c6 B3FA83F3 		clz	r3, r3
 160 00ca 5B09     		lsrs	r3, r3, #5
 161 00cc 0B80     		strh	r3, [r1]	@ movhi
 162 00ce 344B     		ldr	r3, .L17+68
 163 00d0 1A80     		strh	r2, [r3]	@ movhi
1195:main.c        ****         
1196:main.c        ****         if(LEVEL_Read()==1){
 164              		.loc 1 1196 0
 165 00d2 FFF7FEFF 		bl	LEVEL_Read
 166              	.LVL3:
 167 00d6 0128     		cmp	r0, #1
 168 00d8 07D1     		bne	.L10
1197:main.c        ****             if(tllenado<600)
 169              		.loc 1 1197 0
 170 00da 324B     		ldr	r3, .L17+72
 171 00dc 1B88     		ldrh	r3, [r3]
ARM GAS  C:\Users\USUARIO\AppData\Local\Temp\ccUv4o23.s 			page 25


 172 00de B3F5167F 		cmp	r3, #600
 173 00e2 02D2     		bcs	.L10
1198:main.c        ****                 tllenado++;
 174              		.loc 1 1198 0
 175 00e4 0133     		adds	r3, r3, #1
 176 00e6 2F4A     		ldr	r2, .L17+72
 177 00e8 1380     		strh	r3, [r2]	@ movhi
 178              	.L10:
1199:main.c        ****         }
1200:main.c        ****         
1201:main.c        ****         if(dehumidificador){
 179              		.loc 1 1201 0
 180 00ea 2F4B     		ldr	r3, .L17+76
 181 00ec B3F90030 		ldrsh	r3, [r3]
 182 00f0 1BB1     		cbz	r3, .L11
1202:main.c        ****             tdehumidificador++;   
 183              		.loc 1 1202 0
 184 00f2 2E4A     		ldr	r2, .L17+80
 185 00f4 1388     		ldrh	r3, [r2]
 186 00f6 0133     		adds	r3, r3, #1
 187 00f8 1380     		strh	r3, [r2]	@ movhi
 188              	.L11:
1203:main.c        ****         }
1204:main.c        ****         
1205:main.c        ****         if(humidificador){
 189              		.loc 1 1205 0
 190 00fa 2D4B     		ldr	r3, .L17+84
 191 00fc B3F90030 		ldrsh	r3, [r3]
 192 0100 1BB1     		cbz	r3, .L12
1206:main.c        ****             thumidificador++;   
 193              		.loc 1 1206 0
 194 0102 2C4A     		ldr	r2, .L17+88
 195 0104 1388     		ldrh	r3, [r2]
 196 0106 0133     		adds	r3, r3, #1
 197 0108 1380     		strh	r3, [r2]	@ movhi
 198              	.L12:
1207:main.c        ****         }
1208:main.c        ****         
1209:main.c        ****         if(conteoPregunta)tPregunta++;
 199              		.loc 1 1209 0
 200 010a 2B4B     		ldr	r3, .L17+92
 201 010c B3F90030 		ldrsh	r3, [r3]
 202 0110 1BB1     		cbz	r3, .L13
 203              		.loc 1 1209 0 is_stmt 0 discriminator 1
 204 0112 2A4A     		ldr	r2, .L17+96
 205 0114 1388     		ldrh	r3, [r2]
 206 0116 0133     		adds	r3, r3, #1
 207 0118 1380     		strh	r3, [r2]	@ movhi
 208              	.L13:
1210:main.c        ****         
1211:main.c        ****         if(flag_setpoint==1)
 209              		.loc 1 1211 0 is_stmt 1
 210 011a 294B     		ldr	r3, .L17+100
 211 011c B3F90030 		ldrsh	r3, [r3]
 212 0120 012B     		cmp	r3, #1
 213 0122 03D1     		bne	.L14
1212:main.c        ****             tiemposetpoint++;
ARM GAS  C:\Users\USUARIO\AppData\Local\Temp\ccUv4o23.s 			page 26


 214              		.loc 1 1212 0
 215 0124 274A     		ldr	r2, .L17+104
 216 0126 1388     		ldrh	r3, [r2]
 217 0128 0133     		adds	r3, r3, #1
 218 012a 1380     		strh	r3, [r2]	@ movhi
 219              	.L14:
1213:main.c        ****       
1214:main.c        ****         if(tiempo_esterilizacion==1 || tiempo_esterilizacion==2){               
 220              		.loc 1 1214 0
 221 012c 264B     		ldr	r3, .L17+108
 222 012e 1B78     		ldrb	r3, [r3]	@ zero_extendqisi2
 223 0130 013B     		subs	r3, r3, #1
 224 0132 DBB2     		uxtb	r3, r3
 225 0134 012B     		cmp	r3, #1
 226 0136 07D8     		bhi	.L15
1215:main.c        ****             tinicio++;
 227              		.loc 1 1215 0
 228 0138 244A     		ldr	r2, .L17+112
 229 013a 1388     		ldrh	r3, [r2]
 230 013c 0133     		adds	r3, r3, #1
 231 013e 1380     		strh	r3, [r2]	@ movhi
1216:main.c        ****             tGrafica++;
 232              		.loc 1 1216 0
 233 0140 234A     		ldr	r2, .L17+116
 234 0142 1368     		ldr	r3, [r2]
 235 0144 0133     		adds	r3, r3, #1
 236 0146 1360     		str	r3, [r2]
 237              	.L15:
1217:main.c        ****         }
1218:main.c        ****              
1219:main.c        ****         if(flag_tiempocalentamiento==1)
 238              		.loc 1 1219 0
 239 0148 224B     		ldr	r3, .L17+120
 240 014a B3F90030 		ldrsh	r3, [r3]
 241 014e 012B     		cmp	r3, #1
 242 0150 03D1     		bne	.L1
1220:main.c        ****             tiempocalentamiento++;
 243              		.loc 1 1220 0
 244 0152 214A     		ldr	r2, .L17+124
 245 0154 1388     		ldrh	r3, [r2]
 246 0156 0133     		adds	r3, r3, #1
 247 0158 1380     		strh	r3, [r2]	@ movhi
 248              	.L1:
 249 015a 08BD     		pop	{r3, pc}
 250              	.L18:
 251              		.align	2
 252              	.L17:
 253 015c 00000000 		.word	tiempos
 254 0160 00000000 		.word	tiempos3
 255 0164 00000000 		.word	tiempoctrl
 256 0168 00000000 		.word	Control
 257 016c 00000000 		.word	Tc
 258 0170 00000000 		.word	Tp
 259 0174 00000000 		.word	Test
 260 0178 00000000 		.word	Lectura2
 261 017c 00000000 		.word	flagup
 262 0180 00000000 		.word	tiempoup
ARM GAS  C:\Users\USUARIO\AppData\Local\Temp\ccUv4o23.s 			page 27


 263 0184 00000000 		.word	flagdn
 264 0188 00000000 		.word	tiempodn
 265 018c 00000000 		.word	Lectura
 266 0190 00000000 		.word	tiemporeset
 267 0194 00000000 		.word	TiempoControl
 268 0198 00000000 		.word	tiemporecta
 269 019c 00000000 		.word	mensaje
 270 01a0 00000000 		.word	envioUSB
 271 01a4 00000000 		.word	tllenado
 272 01a8 00000000 		.word	dehumidificador
 273 01ac 00000000 		.word	tdehumidificador
 274 01b0 00000000 		.word	humidificador
 275 01b4 00000000 		.word	thumidificador
 276 01b8 00000000 		.word	conteoPregunta
 277 01bc 00000000 		.word	tPregunta
 278 01c0 00000000 		.word	flag_setpoint
 279 01c4 00000000 		.word	tiemposetpoint
 280 01c8 00000000 		.word	tiempo_esterilizacion
 281 01cc 00000000 		.word	tinicio
 282 01d0 00000000 		.word	tGrafica
 283 01d4 00000000 		.word	flag_tiempocalentamiento
 284 01d8 00000000 		.word	tiempocalentamiento
 285              		.cfi_endproc
 286              	.LFE83:
 287              		.size	Reloj2, .-Reloj2
 288              		.section	.text.inteRX,"ax",%progbits
 289              		.align	2
 290              		.global	inteRX
 291              		.thumb
 292              		.thumb_func
 293              		.type	inteRX, %function
 294              	inteRX:
 295              	.LFB84:
1221:main.c        ****     }     
1222:main.c        **** }
1223:main.c        **** 
1224:main.c        **** CY_ISR(inteRX){
 296              		.loc 1 1224 0
 297              		.cfi_startproc
 298              		@ args = 0, pretend = 0, frame = 0
 299              		@ frame_needed = 0, uses_anonymous_args = 0
 300 0000 08B5     		push	{r3, lr}
 301              		.cfi_def_cfa_offset 8
 302              		.cfi_offset 3, -8
 303              		.cfi_offset 14, -4
1225:main.c        ****     Dato2=UART_1_GetByte();
 304              		.loc 1 1225 0
 305 0002 FFF7FEFF 		bl	UART_1_GetByte
 306              	.LVL4:
 307 0006 C0B2     		uxtb	r0, r0
 308 0008 1D4B     		ldr	r3, .L26
 309 000a 1870     		strb	r0, [r3]
1226:main.c        ****    if(Dato2==0x65){//Inicio Comunicacion
 310              		.loc 1 1226 0
 311 000c 6528     		cmp	r0, #101
 312 000e 05D1     		bne	.L20
1227:main.c        ****       Inicio=1;
ARM GAS  C:\Users\USUARIO\AppData\Local\Temp\ccUv4o23.s 			page 28


 313              		.loc 1 1227 0
 314 0010 0122     		movs	r2, #1
 315 0012 1C4B     		ldr	r3, .L26+4
 316 0014 1A80     		strh	r2, [r3]	@ movhi
1228:main.c        ****       RX_Wr_Index =0;
 317              		.loc 1 1228 0
 318 0016 0022     		movs	r2, #0
 319 0018 1B4B     		ldr	r3, .L26+8
 320 001a 1A70     		strb	r2, [r3]
 321              	.L20:
1229:main.c        ****    }
1230:main.c        ****    if(Inicio==1){
 322              		.loc 1 1230 0
 323 001c 194B     		ldr	r3, .L26+4
 324 001e B3F90030 		ldrsh	r3, [r3]
 325 0022 012B     		cmp	r3, #1
 326 0024 05D1     		bne	.L21
1231:main.c        ****       Rx_Buffer2[RX_Wr_Index] = Dato2;
 327              		.loc 1 1231 0
 328 0026 184A     		ldr	r2, .L26+8
 329 0028 1378     		ldrb	r3, [r2]	@ zero_extendqisi2
 330 002a 1849     		ldr	r1, .L26+12
 331 002c C854     		strb	r0, [r1, r3]
1232:main.c        ****       RX_Wr_Index++;
 332              		.loc 1 1232 0
 333 002e 0133     		adds	r3, r3, #1
 334 0030 1370     		strb	r3, [r2]
 335              	.L21:
1233:main.c        ****    }
1234:main.c        ****    if(RX_Wr_Index >= RX_BUFFER_SIZE){
 336              		.loc 1 1234 0
 337 0032 154B     		ldr	r3, .L26+8
 338 0034 1B78     		ldrb	r3, [r3]	@ zero_extendqisi2
 339 0036 092B     		cmp	r3, #9
 340 0038 04D9     		bls	.L22
1235:main.c        ****       RX_Wr_Index =0;
 341              		.loc 1 1235 0
 342 003a 0023     		movs	r3, #0
 343 003c 124A     		ldr	r2, .L26+8
 344 003e 1370     		strb	r3, [r2]
1236:main.c        ****       Inicio=0;
 345              		.loc 1 1236 0
 346 0040 104A     		ldr	r2, .L26+4
 347 0042 1380     		strh	r3, [r2]	@ movhi
 348              	.L22:
1237:main.c        ****    }
1238:main.c        ****    if(RX_Wr_Index==0){
 349              		.loc 1 1238 0
 350 0044 104B     		ldr	r3, .L26+8
 351 0046 1B78     		ldrb	r3, [r3]	@ zero_extendqisi2
 352 0048 CBB9     		cbnz	r3, .L19
1239:main.c        ****       if(Rx_Buffer2[0]==0x65 && Rx_Buffer2[1]==0xff && Rx_Buffer2[2]==0xff && Rx_Buffer2[8]==0x00 &
 353              		.loc 1 1239 0
 354 004a 104B     		ldr	r3, .L26+12
 355 004c 1B78     		ldrb	r3, [r3]	@ zero_extendqisi2
 356 004e 652B     		cmp	r3, #101
 357 0050 12D1     		bne	.L24
ARM GAS  C:\Users\USUARIO\AppData\Local\Temp\ccUv4o23.s 			page 29


 358              		.loc 1 1239 0 is_stmt 0 discriminator 1
 359 0052 0E4B     		ldr	r3, .L26+12
 360 0054 5B78     		ldrb	r3, [r3, #1]	@ zero_extendqisi2
 361 0056 FF2B     		cmp	r3, #255
 362 0058 0ED1     		bne	.L24
 363              		.loc 1 1239 0 discriminator 2
 364 005a 0C4B     		ldr	r3, .L26+12
 365 005c 9B78     		ldrb	r3, [r3, #2]	@ zero_extendqisi2
 366 005e FF2B     		cmp	r3, #255
 367 0060 0AD1     		bne	.L24
 368              		.loc 1 1239 0 discriminator 3
 369 0062 0A4B     		ldr	r3, .L26+12
 370 0064 1B7A     		ldrb	r3, [r3, #8]	@ zero_extendqisi2
 371 0066 3BB9     		cbnz	r3, .L24
 372              		.loc 1 1239 0 discriminator 4
 373 0068 084B     		ldr	r3, .L26+12
 374 006a 5B7A     		ldrb	r3, [r3, #9]	@ zero_extendqisi2
 375 006c FF2B     		cmp	r3, #255
 376 006e 03D1     		bne	.L24
1240:main.c        ****          Dato_Exitoso=5;
 377              		.loc 1 1240 0 is_stmt 1
 378 0070 0522     		movs	r2, #5
 379 0072 074B     		ldr	r3, .L26+16
 380 0074 1A70     		strb	r2, [r3]
 381 0076 08BD     		pop	{r3, pc}
 382              	.L24:
1241:main.c        ****       else
1242:main.c        ****          Dato_Exitoso=10;
 383              		.loc 1 1242 0
 384 0078 0A22     		movs	r2, #10
 385 007a 054B     		ldr	r3, .L26+16
 386 007c 1A70     		strb	r2, [r3]
 387              	.L19:
 388 007e 08BD     		pop	{r3, pc}
 389              	.L27:
 390              		.align	2
 391              	.L26:
 392 0080 00000000 		.word	Dato2
 393 0084 00000000 		.word	Inicio
 394 0088 00000000 		.word	.LANCHOR0
 395 008c 00000000 		.word	Rx_Buffer2
 396 0090 00000000 		.word	Dato_Exitoso
 397              		.cfi_endproc
 398              	.LFE84:
 399              		.size	inteRX, .-inteRX
 400              		.global	__aeabi_ui2f
 401              		.global	__aeabi_fdiv
 402              		.global	__aeabi_i2f
 403              		.global	__aeabi_fadd
 404              		.global	__aeabi_f2uiz
 405              		.global	__aeabi_fcmpgt
 406              		.global	__aeabi_f2d
 407              		.global	__aeabi_dcmplt
 408              		.section	.text.LeeEEPROM,"ax",%progbits
 409              		.align	2
 410              		.global	LeeEEPROM
 411              		.thumb
ARM GAS  C:\Users\USUARIO\AppData\Local\Temp\ccUv4o23.s 			page 30


 412              		.thumb_func
 413              		.type	LeeEEPROM, %function
 414              	LeeEEPROM:
 415              	.LFB64:
 120:main.c        ****    mEstp=EEPROM_ReadByte(0);CyDelay(5);  
 416              		.loc 1 120 0
 417              		.cfi_startproc
 418              		@ args = 0, pretend = 0, frame = 0
 419              		@ frame_needed = 0, uses_anonymous_args = 0
 420 0000 2DE9F843 		push	{r3, r4, r5, r6, r7, r8, r9, lr}
 421              		.cfi_def_cfa_offset 32
 422              		.cfi_offset 3, -32
 423              		.cfi_offset 4, -28
 424              		.cfi_offset 5, -24
 425              		.cfi_offset 6, -20
 426              		.cfi_offset 7, -16
 427              		.cfi_offset 8, -12
 428              		.cfi_offset 9, -8
 429              		.cfi_offset 14, -4
 121:main.c        ****    hEstp=EEPROM_ReadByte(1);CyDelay(5);  
 430              		.loc 1 121 0
 431 0004 0020     		movs	r0, #0
 432 0006 FFF7FEFF 		bl	EEPROM_ReadByte
 433              	.LVL5:
 434 000a C94B     		ldr	r3, .L38+8
 435 000c 1870     		strb	r0, [r3]
 436 000e 0520     		movs	r0, #5
 437 0010 FFF7FEFF 		bl	CyDelay
 438              	.LVL6:
 122:main.c        ****    
 439              		.loc 1 122 0
 440 0014 0120     		movs	r0, #1
 441 0016 FFF7FEFF 		bl	EEPROM_ReadByte
 442              	.LVL7:
 443 001a C64B     		ldr	r3, .L38+12
 444 001c 1870     		strb	r0, [r3]
 445 001e 0520     		movs	r0, #5
 446 0020 FFF7FEFF 		bl	CyDelay
 447              	.LVL8:
 124:main.c        ****    Temporal=EEPROM_ReadByte(81);CyDelay(5);  
 448              		.loc 1 124 0
 449 0024 5020     		movs	r0, #80
 450 0026 FFF7FEFF 		bl	EEPROM_ReadByte
 451              	.LVL9:
 452 002a C34E     		ldr	r6, .L38+16
 453 002c 3070     		strb	r0, [r6]
 454 002e 0520     		movs	r0, #5
 455 0030 FFF7FEFF 		bl	CyDelay
 456              	.LVL10:
 125:main.c        ****    Temporal=Temporal/10.0;
 457              		.loc 1 125 0
 458 0034 5120     		movs	r0, #81
 459 0036 FFF7FEFF 		bl	EEPROM_ReadByte
 460              	.LVL11:
 461 003a C04C     		ldr	r4, .L38+20
 462 003c FFF7FEFF 		bl	__aeabi_ui2f
 463              	.LVL12:
ARM GAS  C:\Users\USUARIO\AppData\Local\Temp\ccUv4o23.s 			page 31


 464 0040 2060     		str	r0, [r4]	@ float
 465 0042 0520     		movs	r0, #5
 466 0044 FFF7FEFF 		bl	CyDelay
 467              	.LVL13:
 126:main.c        ****    Setpoint=entero+Temporal;  
 468              		.loc 1 126 0
 469 0048 BD49     		ldr	r1, .L38+24
 470 004a 2068     		ldr	r0, [r4]	@ float
 471 004c FFF7FEFF 		bl	__aeabi_fdiv
 472              	.LVL14:
 473 0050 0546     		mov	r5, r0
 474 0052 2060     		str	r0, [r4]	@ float
 127:main.c        ****    
 475              		.loc 1 127 0
 476 0054 3078     		ldrb	r0, [r6]	@ zero_extendqisi2
 477 0056 FFF7FEFF 		bl	__aeabi_i2f
 478              	.LVL15:
 479 005a 2946     		mov	r1, r5
 480 005c FFF7FEFF 		bl	__aeabi_fadd
 481              	.LVL16:
 482 0060 B84B     		ldr	r3, .L38+28
 483 0062 1860     		str	r0, [r3]	@ float
 129:main.c        ****    CyDelay(5);   
 484              		.loc 1 129 0
 485 0064 5220     		movs	r0, #82
 486 0066 FFF7FEFF 		bl	EEPROM_ReadByte
 487              	.LVL17:
 488 006a B74B     		ldr	r3, .L38+32
 489 006c 1880     		strh	r0, [r3]	@ movhi
 130:main.c        **** 
 490              		.loc 1 130 0
 491 006e 0520     		movs	r0, #5
 492 0070 FFF7FEFF 		bl	CyDelay
 493              	.LVL18:
 132:main.c        ****    Password[1]=EEPROM_ReadByte(11);CyDelay(5);  
 494              		.loc 1 132 0
 495 0074 0A20     		movs	r0, #10
 496 0076 FFF7FEFF 		bl	EEPROM_ReadByte
 497              	.LVL19:
 498 007a B44C     		ldr	r4, .L38+36
 499 007c 2070     		strb	r0, [r4]
 500 007e 0520     		movs	r0, #5
 501 0080 FFF7FEFF 		bl	CyDelay
 502              	.LVL20:
 133:main.c        ****    Password[2]=EEPROM_ReadByte(12);CyDelay(5);  
 503              		.loc 1 133 0
 504 0084 0B20     		movs	r0, #11
 505 0086 FFF7FEFF 		bl	EEPROM_ReadByte
 506              	.LVL21:
 507 008a 6070     		strb	r0, [r4, #1]
 508 008c 0520     		movs	r0, #5
 509 008e FFF7FEFF 		bl	CyDelay
 510              	.LVL22:
 134:main.c        ****    Password[3]=EEPROM_ReadByte(13);CyDelay(5);  
 511              		.loc 1 134 0
 512 0092 0C20     		movs	r0, #12
 513 0094 FFF7FEFF 		bl	EEPROM_ReadByte
ARM GAS  C:\Users\USUARIO\AppData\Local\Temp\ccUv4o23.s 			page 32


 514              	.LVL23:
 515 0098 A070     		strb	r0, [r4, #2]
 516 009a 0520     		movs	r0, #5
 517 009c FFF7FEFF 		bl	CyDelay
 518              	.LVL24:
 135:main.c        ****    
 519              		.loc 1 135 0
 520 00a0 0D20     		movs	r0, #13
 521 00a2 FFF7FEFF 		bl	EEPROM_ReadByte
 522              	.LVL25:
 523 00a6 E070     		strb	r0, [r4, #3]
 524 00a8 0520     		movs	r0, #5
 525 00aa FFF7FEFF 		bl	CyDelay
 526              	.LVL26:
 137:main.c        ****    Derivativo=EEPROM_ReadByte(31);CyDelay(5);  
 527              		.loc 1 137 0
 528 00ae 1E20     		movs	r0, #30
 529 00b0 FFF7FEFF 		bl	EEPROM_ReadByte
 530              	.LVL27:
 531 00b4 A64C     		ldr	r4, .L38+40
 532 00b6 FFF7FEFF 		bl	__aeabi_ui2f
 533              	.LVL28:
 534 00ba 2060     		str	r0, [r4]	@ float
 535 00bc 0520     		movs	r0, #5
 536 00be FFF7FEFF 		bl	CyDelay
 537              	.LVL29:
 138:main.c        ****    Integral=EEPROM_ReadByte(32);CyDelay(5);  
 538              		.loc 1 138 0
 539 00c2 1F20     		movs	r0, #31
 540 00c4 FFF7FEFF 		bl	EEPROM_ReadByte
 541              	.LVL30:
 542 00c8 A24B     		ldr	r3, .L38+44
 543 00ca 1870     		strb	r0, [r3]
 544 00cc 0520     		movs	r0, #5
 545 00ce FFF7FEFF 		bl	CyDelay
 546              	.LVL31:
 139:main.c        ****    Tciclo=EEPROM_ReadByte(33);CyDelay(5);  
 547              		.loc 1 139 0
 548 00d2 2020     		movs	r0, #32
 549 00d4 FFF7FEFF 		bl	EEPROM_ReadByte
 550              	.LVL32:
 551 00d8 9F4B     		ldr	r3, .L38+48
 552 00da 1870     		strb	r0, [r3]
 553 00dc 0520     		movs	r0, #5
 554 00de FFF7FEFF 		bl	CyDelay
 555              	.LVL33:
 140:main.c        ****    Ajuste=EEPROM_ReadByte(34);CyDelay(5);  
 556              		.loc 1 140 0
 557 00e2 2120     		movs	r0, #33
 558 00e4 FFF7FEFF 		bl	EEPROM_ReadByte
 559              	.LVL34:
 560 00e8 9C4B     		ldr	r3, .L38+52
 561 00ea 1870     		strb	r0, [r3]
 562 00ec 0520     		movs	r0, #5
 563 00ee FFF7FEFF 		bl	CyDelay
 564              	.LVL35:
 141:main.c        ****    Ajusten=EEPROM_ReadByte(35);CyDelay(5);  
ARM GAS  C:\Users\USUARIO\AppData\Local\Temp\ccUv4o23.s 			page 33


 565              		.loc 1 141 0
 566 00f2 2220     		movs	r0, #34
 567 00f4 FFF7FEFF 		bl	EEPROM_ReadByte
 568              	.LVL36:
 569 00f8 994B     		ldr	r3, .L38+56
 570 00fa 1870     		strb	r0, [r3]
 571 00fc 0520     		movs	r0, #5
 572 00fe FFF7FEFF 		bl	CyDelay
 573              	.LVL37:
 142:main.c        ****    MediaMovil=EEPROM_ReadByte(36);CyDelay(5);  
 574              		.loc 1 142 0
 575 0102 2320     		movs	r0, #35
 576 0104 FFF7FEFF 		bl	EEPROM_ReadByte
 577              	.LVL38:
 578 0108 964B     		ldr	r3, .L38+60
 579 010a 1870     		strb	r0, [r3]
 580 010c 0520     		movs	r0, #5
 581 010e FFF7FEFF 		bl	CyDelay
 582              	.LVL39:
 143:main.c        ****    Ajuste2=EEPROM_ReadByte(37);CyDelay(5);
 583              		.loc 1 143 0
 584 0112 2420     		movs	r0, #36
 585 0114 FFF7FEFF 		bl	EEPROM_ReadByte
 586              	.LVL40:
 587 0118 934B     		ldr	r3, .L38+64
 588 011a 1870     		strb	r0, [r3]
 589 011c 0520     		movs	r0, #5
 590 011e FFF7FEFF 		bl	CyDelay
 591              	.LVL41:
 144:main.c        ****    Ajusten2=EEPROM_ReadByte(38);CyDelay(5);
 592              		.loc 1 144 0
 593 0122 2520     		movs	r0, #37
 594 0124 FFF7FEFF 		bl	EEPROM_ReadByte
 595              	.LVL42:
 596 0128 904B     		ldr	r3, .L38+68
 597 012a 1870     		strb	r0, [r3]
 598 012c 0520     		movs	r0, #5
 599 012e FFF7FEFF 		bl	CyDelay
 600              	.LVL43:
 145:main.c        ****    MediaMovil2=EEPROM_ReadByte(39);CyDelay(5);  
 601              		.loc 1 145 0
 602 0132 2620     		movs	r0, #38
 603 0134 FFF7FEFF 		bl	EEPROM_ReadByte
 604              	.LVL44:
 605 0138 8D4B     		ldr	r3, .L38+72
 606 013a 1870     		strb	r0, [r3]
 607 013c 0520     		movs	r0, #5
 608 013e FFF7FEFF 		bl	CyDelay
 609              	.LVL45:
 146:main.c        ****    tmuestreoUSB=EEPROM_ReadByte(40);CyDelay(5);
 610              		.loc 1 146 0
 611 0142 2720     		movs	r0, #39
 612 0144 FFF7FEFF 		bl	EEPROM_ReadByte
 613              	.LVL46:
 614 0148 8A4B     		ldr	r3, .L38+76
 615 014a 1870     		strb	r0, [r3]
 616 014c 0520     		movs	r0, #5
ARM GAS  C:\Users\USUARIO\AppData\Local\Temp\ccUv4o23.s 			page 34


 617 014e FFF7FEFF 		bl	CyDelay
 618              	.LVL47:
 147:main.c        ****    controlT=EEPROM_ReadByte(41);CyDelay(5);
 619              		.loc 1 147 0
 620 0152 2820     		movs	r0, #40
 621 0154 FFF7FEFF 		bl	EEPROM_ReadByte
 622              	.LVL48:
 623 0158 874B     		ldr	r3, .L38+80
 624 015a 1870     		strb	r0, [r3]
 625 015c 0520     		movs	r0, #5
 626 015e FFF7FEFF 		bl	CyDelay
 627              	.LVL49:
 148:main.c        ****    controlH=EEPROM_ReadByte(42);CyDelay(5);
 628              		.loc 1 148 0
 629 0162 2920     		movs	r0, #41
 630 0164 FFF7FEFF 		bl	EEPROM_ReadByte
 631              	.LVL50:
 632 0168 844B     		ldr	r3, .L38+84
 633 016a 1870     		strb	r0, [r3]
 634 016c 0520     		movs	r0, #5
 635 016e FFF7FEFF 		bl	CyDelay
 636              	.LVL51:
 149:main.c        ****    controlR=EEPROM_ReadByte(43);CyDelay(5);
 637              		.loc 1 149 0
 638 0172 2A20     		movs	r0, #42
 639 0174 FFF7FEFF 		bl	EEPROM_ReadByte
 640              	.LVL52:
 641 0178 814B     		ldr	r3, .L38+88
 642 017a 1870     		strb	r0, [r3]
 643 017c 0520     		movs	r0, #5
 644 017e FFF7FEFF 		bl	CyDelay
 645              	.LVL53:
 150:main.c        ****    T1Humedad=EEPROM_ReadByte(44);CyDelay(5);
 646              		.loc 1 150 0
 647 0182 2B20     		movs	r0, #43
 648 0184 FFF7FEFF 		bl	EEPROM_ReadByte
 649              	.LVL54:
 650 0188 7E4B     		ldr	r3, .L38+92
 651 018a 1870     		strb	r0, [r3]
 652 018c 0520     		movs	r0, #5
 653 018e FFF7FEFF 		bl	CyDelay
 654              	.LVL55:
 151:main.c        ****    T2Humedad=EEPROM_ReadByte(45);CyDelay(5);
 655              		.loc 1 151 0
 656 0192 2C20     		movs	r0, #44
 657 0194 FFF7FEFF 		bl	EEPROM_ReadByte
 658              	.LVL56:
 659 0198 7B4B     		ldr	r3, .L38+96
 660 019a 1870     		strb	r0, [r3]
 661 019c 0520     		movs	r0, #5
 662 019e FFF7FEFF 		bl	CyDelay
 663              	.LVL57:
 152:main.c        ****    T3Humedad=EEPROM_ReadByte(46);CyDelay(5);
 664              		.loc 1 152 0
 665 01a2 2D20     		movs	r0, #45
 666 01a4 FFF7FEFF 		bl	EEPROM_ReadByte
 667              	.LVL58:
ARM GAS  C:\Users\USUARIO\AppData\Local\Temp\ccUv4o23.s 			page 35


 668 01a8 784B     		ldr	r3, .L38+100
 669 01aa 1870     		strb	r0, [r3]
 670 01ac 0520     		movs	r0, #5
 671 01ae FFF7FEFF 		bl	CyDelay
 672              	.LVL59:
 153:main.c        ****    //Coeficiente=EEPROM_ReadByte(37);CyDelay(5);  
 673              		.loc 1 153 0
 674 01b2 2E20     		movs	r0, #46
 675 01b4 FFF7FEFF 		bl	EEPROM_ReadByte
 676              	.LVL60:
 677 01b8 754B     		ldr	r3, .L38+104
 678 01ba 1870     		strb	r0, [r3]
 679 01bc 0520     		movs	r0, #5
 680 01be FFF7FEFF 		bl	CyDelay
 681              	.LVL61:
 156:main.c        ****    
 682              		.loc 1 156 0
 683 01c2 2068     		ldr	r0, [r4]	@ float
 684 01c4 FFF7FEFF 		bl	__aeabi_f2uiz
 685              	.LVL62:
 686 01c8 724B     		ldr	r3, .L38+108
 687 01ca 1870     		strb	r0, [r3]
 158:main.c        ****       rampas[i].TemperaturaInt=EEPROM_ReadByte(100+(i*6)); 
 688              		.loc 1 158 0
 689 01cc 0022     		movs	r2, #0
 690 01ce 724B     		ldr	r3, .L38+112
 691 01d0 1A70     		strb	r2, [r3]
 692 01d2 A2E0     		b	.L29
 693              	.L36:
 159:main.c        ****       rampas[i].TemperaturaDec=EEPROM_ReadByte(101+(i*6)); 
 694              		.loc 1 159 0
 695 01d4 04EB4403 		add	r3, r4, r4, lsl #1
 696 01d8 5800     		lsls	r0, r3, #1
 697 01da 6430     		adds	r0, r0, #100
 698 01dc 80B2     		uxth	r0, r0
 699 01de FFF7FEFF 		bl	EEPROM_ReadByte
 700              	.LVL63:
 701 01e2 6E4D     		ldr	r5, .L38+116
 702 01e4 04EB4404 		add	r4, r4, r4, lsl #1
 703 01e8 A300     		lsls	r3, r4, #2
 704 01ea 2B44     		add	r3, r3, r5
 705 01ec 5870     		strb	r0, [r3, #1]
 160:main.c        ****       rampas[i].Humedad=EEPROM_ReadByte(102+(i*6)); 
 706              		.loc 1 160 0
 707 01ee 6A4E     		ldr	r6, .L38+112
 708 01f0 3478     		ldrb	r4, [r6]	@ zero_extendqisi2
 709 01f2 04EB4403 		add	r3, r4, r4, lsl #1
 710 01f6 5800     		lsls	r0, r3, #1
 711 01f8 6530     		adds	r0, r0, #101
 712 01fa 80B2     		uxth	r0, r0
 713 01fc FFF7FEFF 		bl	EEPROM_ReadByte
 714              	.LVL64:
 715 0200 04EB4404 		add	r4, r4, r4, lsl #1
 716 0204 A300     		lsls	r3, r4, #2
 717 0206 E854     		strb	r0, [r5, r3]
 161:main.c        ****       rampas[i].Horas=EEPROM_ReadByte(103+(i*6)); 
 718              		.loc 1 161 0
ARM GAS  C:\Users\USUARIO\AppData\Local\Temp\ccUv4o23.s 			page 36


 719 0208 3478     		ldrb	r4, [r6]	@ zero_extendqisi2
 720 020a 04EB4403 		add	r3, r4, r4, lsl #1
 721 020e 5800     		lsls	r0, r3, #1
 722 0210 6630     		adds	r0, r0, #102
 723 0212 80B2     		uxth	r0, r0
 724 0214 FFF7FEFF 		bl	EEPROM_ReadByte
 725              	.LVL65:
 726 0218 04EB4404 		add	r4, r4, r4, lsl #1
 727 021c A300     		lsls	r3, r4, #2
 728 021e 2B44     		add	r3, r3, r5
 729 0220 1871     		strb	r0, [r3, #4]
 162:main.c        ****       rampas[i].Minutos=EEPROM_ReadByte(104+(i*6)); 
 730              		.loc 1 162 0
 731 0222 3478     		ldrb	r4, [r6]	@ zero_extendqisi2
 732 0224 04EB4403 		add	r3, r4, r4, lsl #1
 733 0228 5800     		lsls	r0, r3, #1
 734 022a 6730     		adds	r0, r0, #103
 735 022c 80B2     		uxth	r0, r0
 736 022e FFF7FEFF 		bl	EEPROM_ReadByte
 737              	.LVL66:
 738 0232 04EB4404 		add	r4, r4, r4, lsl #1
 739 0236 A300     		lsls	r3, r4, #2
 740 0238 2B44     		add	r3, r3, r5
 741 023a 9870     		strb	r0, [r3, #2]
 163:main.c        ****       
 742              		.loc 1 163 0
 743 023c 3478     		ldrb	r4, [r6]	@ zero_extendqisi2
 744 023e 04EB4403 		add	r3, r4, r4, lsl #1
 745 0242 5800     		lsls	r0, r3, #1
 746 0244 6830     		adds	r0, r0, #104
 747 0246 80B2     		uxth	r0, r0
 748 0248 FFF7FEFF 		bl	EEPROM_ReadByte
 749              	.LVL67:
 750 024c 04EB4404 		add	r4, r4, r4, lsl #1
 751 0250 A300     		lsls	r3, r4, #2
 752 0252 2B44     		add	r3, r3, r5
 753 0254 D870     		strb	r0, [r3, #3]
 165:main.c        ****       if(rampas[i].Temperatura>60.0 || rampas[i].Temperatura<0.1)rampas[i].Temperatura=30.0;
 754              		.loc 1 165 0
 755 0256 3478     		ldrb	r4, [r6]	@ zero_extendqisi2
 756 0258 6700     		lsls	r7, r4, #1
 757 025a 3A19     		adds	r2, r7, r4
 758 025c 9300     		lsls	r3, r2, #2
 759 025e EA18     		adds	r2, r5, r3
 760 0260 92F80190 		ldrb	r9, [r2, #1]	@ zero_extendqisi2
 761 0264 E85C     		ldrb	r0, [r5, r3]	@ zero_extendqisi2
 762 0266 FFF7FEFF 		bl	inttofloat
 763              	.LVL68:
 764 026a 8046     		mov	r8, r0
 765 026c 4846     		mov	r0, r9
 766 026e FFF7FEFF 		bl	__aeabi_i2f
 767              	.LVL69:
 768 0272 4146     		mov	r1, r8
 769 0274 FFF7FEFF 		bl	__aeabi_fadd
 770              	.LVL70:
 771 0278 3C44     		add	r4, r4, r7
 772 027a A300     		lsls	r3, r4, #2
ARM GAS  C:\Users\USUARIO\AppData\Local\Temp\ccUv4o23.s 			page 37


 773 027c 2B44     		add	r3, r3, r5
 774 027e 9860     		str	r0, [r3, #8]	@ float
 166:main.c        ****       if(rampas[i].Humedad>95 || rampas[i].Humedad<10)rampas[i].Humedad=60.0;
 775              		.loc 1 166 0
 776 0280 3478     		ldrb	r4, [r6]	@ zero_extendqisi2
 777 0282 04EB4402 		add	r2, r4, r4, lsl #1
 778 0286 9300     		lsls	r3, r2, #2
 779 0288 1D44     		add	r5, r5, r3
 780 028a AD68     		ldr	r5, [r5, #8]	@ float
 781 028c 4449     		ldr	r1, .L38+120
 782 028e 2846     		mov	r0, r5
 783 0290 FFF7FEFF 		bl	__aeabi_fcmpgt
 784              	.LVL71:
 785 0294 40B9     		cbnz	r0, .L30
 166:main.c        ****       if(rampas[i].Humedad>95 || rampas[i].Humedad<10)rampas[i].Humedad=60.0;
 786              		.loc 1 166 0 is_stmt 0 discriminator 2
 787 0296 2846     		mov	r0, r5
 788 0298 FFF7FEFF 		bl	__aeabi_f2d
 789              	.LVL72:
 790 029c 22A3     		adr	r3, .L38
 791 029e D3E90023 		ldrd	r2, [r3]
 792 02a2 FFF7FEFF 		bl	__aeabi_dcmplt
 793              	.LVL73:
 794 02a6 30B1     		cbz	r0, .L31
 795              	.L30:
 166:main.c        ****       if(rampas[i].Humedad>95 || rampas[i].Humedad<10)rampas[i].Humedad=60.0;
 796              		.loc 1 166 0 discriminator 3
 797 02a8 04EB4402 		add	r2, r4, r4, lsl #1
 798 02ac 9300     		lsls	r3, r2, #2
 799 02ae 3B4A     		ldr	r2, .L38+116
 800 02b0 1344     		add	r3, r3, r2
 801 02b2 3C4A     		ldr	r2, .L38+124
 802 02b4 9A60     		str	r2, [r3, #8]	@ float
 803              	.L31:
 167:main.c        ****       if(rampas[i].Horas>99)rampas[i].Horas=10;
 804              		.loc 1 167 0 is_stmt 1
 805 02b6 04EB4402 		add	r2, r4, r4, lsl #1
 806 02ba 9300     		lsls	r3, r2, #2
 807 02bc 374A     		ldr	r2, .L38+116
 808 02be 1344     		add	r3, r3, r2
 809 02c0 1B79     		ldrb	r3, [r3, #4]	@ zero_extendqisi2
 810 02c2 0A3B     		subs	r3, r3, #10
 811 02c4 DBB2     		uxtb	r3, r3
 812 02c6 552B     		cmp	r3, #85
 813 02c8 06D9     		bls	.L33
 167:main.c        ****       if(rampas[i].Horas>99)rampas[i].Horas=10;
 814              		.loc 1 167 0 is_stmt 0 discriminator 1
 815 02ca 04EB4402 		add	r2, r4, r4, lsl #1
 816 02ce 9300     		lsls	r3, r2, #2
 817 02d0 324A     		ldr	r2, .L38+116
 818 02d2 1344     		add	r3, r3, r2
 819 02d4 3C22     		movs	r2, #60
 820 02d6 1A71     		strb	r2, [r3, #4]
 821              	.L33:
 168:main.c        ****       if(rampas[i].Minutos>59)rampas[i].Minutos=10;
 822              		.loc 1 168 0 is_stmt 1
 823 02d8 04EB4402 		add	r2, r4, r4, lsl #1
ARM GAS  C:\Users\USUARIO\AppData\Local\Temp\ccUv4o23.s 			page 38


 824 02dc 9300     		lsls	r3, r2, #2
 825 02de 2F4A     		ldr	r2, .L38+116
 826 02e0 1344     		add	r3, r3, r2
 827 02e2 9B78     		ldrb	r3, [r3, #2]	@ zero_extendqisi2
 828 02e4 632B     		cmp	r3, #99
 829 02e6 06D9     		bls	.L34
 168:main.c        ****       if(rampas[i].Minutos>59)rampas[i].Minutos=10;
 830              		.loc 1 168 0 is_stmt 0 discriminator 1
 831 02e8 04EB4402 		add	r2, r4, r4, lsl #1
 832 02ec 9300     		lsls	r3, r2, #2
 833 02ee 2B4A     		ldr	r2, .L38+116
 834 02f0 1344     		add	r3, r3, r2
 835 02f2 0A22     		movs	r2, #10
 836 02f4 9A70     		strb	r2, [r3, #2]
 837              	.L34:
 169:main.c        ****    }
 838              		.loc 1 169 0 is_stmt 1
 839 02f6 04EB4402 		add	r2, r4, r4, lsl #1
 840 02fa 9300     		lsls	r3, r2, #2
 841 02fc 274A     		ldr	r2, .L38+116
 842 02fe 1344     		add	r3, r3, r2
 843 0300 DB78     		ldrb	r3, [r3, #3]	@ zero_extendqisi2
 844 0302 3B2B     		cmp	r3, #59
 845 0304 06D9     		bls	.L35
 169:main.c        ****    }
 846              		.loc 1 169 0 is_stmt 0 discriminator 1
 847 0306 04EB4402 		add	r2, r4, r4, lsl #1
 848 030a 9300     		lsls	r3, r2, #2
 849 030c 234A     		ldr	r2, .L38+116
 850 030e 1344     		add	r3, r3, r2
 851 0310 0A22     		movs	r2, #10
 852 0312 DA70     		strb	r2, [r3, #3]
 853              	.L35:
 158:main.c        ****       rampas[i].TemperaturaInt=EEPROM_ReadByte(100+(i*6)); 
 854              		.loc 1 158 0 is_stmt 1 discriminator 2
 855 0314 0134     		adds	r4, r4, #1
 856 0316 204B     		ldr	r3, .L38+112
 857 0318 1C70     		strb	r4, [r3]
 858              	.L29:
 158:main.c        ****       rampas[i].TemperaturaInt=EEPROM_ReadByte(100+(i*6)); 
 859              		.loc 1 158 0 is_stmt 0 discriminator 1
 860 031a 1F4B     		ldr	r3, .L38+112
 861 031c 1C78     		ldrb	r4, [r3]	@ zero_extendqisi2
 862 031e 132C     		cmp	r4, #19
 863 0320 7FF658AF 		bls	.L36
 171:main.c        **** 
 864              		.loc 1 171 0 is_stmt 1
 865 0324 BDE8F883 		pop	{r3, r4, r5, r6, r7, r8, r9, pc}
 866              	.L39:
 867              		.align	3
 868              	.L38:
 869 0328 9A999999 		.word	-1717986918
 870 032c 9999B93F 		.word	1069128089
 871 0330 00000000 		.word	mEstp
 872 0334 00000000 		.word	hEstp
 873 0338 00000000 		.word	entero
 874 033c 00000000 		.word	Temporal
ARM GAS  C:\Users\USUARIO\AppData\Local\Temp\ccUv4o23.s 			page 39


 875 0340 00002041 		.word	1092616192
 876 0344 00000000 		.word	Setpoint
 877 0348 00000000 		.word	SetpointH
 878 034c 00000000 		.word	Password
 879 0350 00000000 		.word	Ganancia
 880 0354 00000000 		.word	Derivativo
 881 0358 00000000 		.word	Integral
 882 035c 00000000 		.word	Tciclo
 883 0360 00000000 		.word	Ajuste
 884 0364 00000000 		.word	Ajusten
 885 0368 00000000 		.word	MediaMovil
 886 036c 00000000 		.word	Ajuste2
 887 0370 00000000 		.word	Ajusten2
 888 0374 00000000 		.word	MediaMovil2
 889 0378 00000000 		.word	tmuestreoUSB
 890 037c 00000000 		.word	controlT
 891 0380 00000000 		.word	controlH
 892 0384 00000000 		.word	controlR
 893 0388 00000000 		.word	T1Humedad
 894 038c 00000000 		.word	T2Humedad
 895 0390 00000000 		.word	T3Humedad
 896 0394 00000000 		.word	GananciaR
 897 0398 00000000 		.word	i
 898 039c 00000000 		.word	rampas
 899 03a0 00007042 		.word	1114636288
 900 03a4 0000F041 		.word	1106247680
 901              		.cfi_endproc
 902              	.LFE64:
 903              		.size	LeeEEPROM, .-LeeEEPROM
 904              		.global	__aeabi_fcmplt
 905              		.section	.text.LimitaValores,"ax",%progbits
 906              		.align	2
 907              		.global	LimitaValores
 908              		.thumb
 909              		.thumb_func
 910              		.type	LimitaValores, %function
 911              	LimitaValores:
 912              	.LFB65:
 173:main.c        ****    if(mEstp>59){
 913              		.loc 1 173 0
 914              		.cfi_startproc
 915              		@ args = 0, pretend = 0, frame = 0
 916              		@ frame_needed = 0, uses_anonymous_args = 0
 917 0000 10B5     		push	{r4, lr}
 918              		.cfi_def_cfa_offset 8
 919              		.cfi_offset 4, -8
 920              		.cfi_offset 14, -4
 174:main.c        ****       mEstp=10;EEPROM_WriteByte(10,0);CyDelay(20);
 921              		.loc 1 174 0
 922 0002 B34B     		ldr	r3, .L70
 923 0004 1B78     		ldrb	r3, [r3]	@ zero_extendqisi2
 924 0006 3B2B     		cmp	r3, #59
 925 0008 08D9     		bls	.L41
 175:main.c        ****    }
 926              		.loc 1 175 0
 927 000a 0A20     		movs	r0, #10
 928 000c B04B     		ldr	r3, .L70
ARM GAS  C:\Users\USUARIO\AppData\Local\Temp\ccUv4o23.s 			page 40


 929 000e 1870     		strb	r0, [r3]
 930 0010 0021     		movs	r1, #0
 931 0012 FFF7FEFF 		bl	EEPROM_WriteByte
 932              	.LVL74:
 933 0016 1420     		movs	r0, #20
 934 0018 FFF7FEFF 		bl	CyDelay
 935              	.LVL75:
 936              	.L41:
 177:main.c        ****       hEstp=10;EEPROM_WriteByte(10,1);CyDelay(20);
 937              		.loc 1 177 0
 938 001c AD4B     		ldr	r3, .L70+4
 939 001e 1B78     		ldrb	r3, [r3]	@ zero_extendqisi2
 940 0020 632B     		cmp	r3, #99
 941 0022 08D9     		bls	.L42
 178:main.c        ****    }
 942              		.loc 1 178 0
 943 0024 0A20     		movs	r0, #10
 944 0026 AB4B     		ldr	r3, .L70+4
 945 0028 1870     		strb	r0, [r3]
 946 002a 0121     		movs	r1, #1
 947 002c FFF7FEFF 		bl	EEPROM_WriteByte
 948              	.LVL76:
 949 0030 1420     		movs	r0, #20
 950 0032 FFF7FEFF 		bl	CyDelay
 951              	.LVL77:
 952              	.L42:
 180:main.c        ****       Password[0]=0;EEPROM_WriteByte(0,10);CyDelay(20);
 953              		.loc 1 180 0
 954 0036 A84B     		ldr	r3, .L70+8
 955 0038 1B78     		ldrb	r3, [r3]	@ zero_extendqisi2
 956 003a 092B     		cmp	r3, #9
 957 003c 08D9     		bls	.L43
 181:main.c        ****    }
 958              		.loc 1 181 0
 959 003e 0020     		movs	r0, #0
 960 0040 A54B     		ldr	r3, .L70+8
 961 0042 1870     		strb	r0, [r3]
 962 0044 0A21     		movs	r1, #10
 963 0046 FFF7FEFF 		bl	EEPROM_WriteByte
 964              	.LVL78:
 965 004a 1420     		movs	r0, #20
 966 004c FFF7FEFF 		bl	CyDelay
 967              	.LVL79:
 968              	.L43:
 183:main.c        ****       Password[1]=0;EEPROM_WriteByte(0,11);CyDelay(20);
 969              		.loc 1 183 0
 970 0050 A14B     		ldr	r3, .L70+8
 971 0052 5B78     		ldrb	r3, [r3, #1]	@ zero_extendqisi2
 972 0054 092B     		cmp	r3, #9
 973 0056 08D9     		bls	.L44
 184:main.c        ****    }
 974              		.loc 1 184 0
 975 0058 0020     		movs	r0, #0
 976 005a 9F4B     		ldr	r3, .L70+8
 977 005c 5870     		strb	r0, [r3, #1]
 978 005e 0B21     		movs	r1, #11
 979 0060 FFF7FEFF 		bl	EEPROM_WriteByte
ARM GAS  C:\Users\USUARIO\AppData\Local\Temp\ccUv4o23.s 			page 41


 980              	.LVL80:
 981 0064 1420     		movs	r0, #20
 982 0066 FFF7FEFF 		bl	CyDelay
 983              	.LVL81:
 984              	.L44:
 186:main.c        ****       Password[2]=0;EEPROM_WriteByte(0,12);CyDelay(20);
 985              		.loc 1 186 0
 986 006a 9B4B     		ldr	r3, .L70+8
 987 006c 9B78     		ldrb	r3, [r3, #2]	@ zero_extendqisi2
 988 006e 092B     		cmp	r3, #9
 989 0070 08D9     		bls	.L45
 187:main.c        ****    }
 990              		.loc 1 187 0
 991 0072 0020     		movs	r0, #0
 992 0074 984B     		ldr	r3, .L70+8
 993 0076 9870     		strb	r0, [r3, #2]
 994 0078 0C21     		movs	r1, #12
 995 007a FFF7FEFF 		bl	EEPROM_WriteByte
 996              	.LVL82:
 997 007e 1420     		movs	r0, #20
 998 0080 FFF7FEFF 		bl	CyDelay
 999              	.LVL83:
 1000              	.L45:
 189:main.c        ****       Password[3]=0;EEPROM_WriteByte(0,13);CyDelay(20);
 1001              		.loc 1 189 0
 1002 0084 944B     		ldr	r3, .L70+8
 1003 0086 DB78     		ldrb	r3, [r3, #3]	@ zero_extendqisi2
 1004 0088 092B     		cmp	r3, #9
 1005 008a 08D9     		bls	.L46
 190:main.c        ****    }
 1006              		.loc 1 190 0
 1007 008c 0020     		movs	r0, #0
 1008 008e 924B     		ldr	r3, .L70+8
 1009 0090 D870     		strb	r0, [r3, #3]
 1010 0092 0D21     		movs	r1, #13
 1011 0094 FFF7FEFF 		bl	EEPROM_WriteByte
 1012              	.LVL84:
 1013 0098 1420     		movs	r0, #20
 1014 009a FFF7FEFF 		bl	CyDelay
 1015              	.LVL85:
 1016              	.L46:
 192:main.c        ****       Setpoint=30.0;EEPROM_WriteByte(100,80);CyDelay(20);EEPROM_WriteByte(0,81);CyDelay(20);
 1017              		.loc 1 192 0
 1018 009e 8F4B     		ldr	r3, .L70+12
 1019 00a0 1C68     		ldr	r4, [r3]	@ float
 1020 00a2 8F49     		ldr	r1, .L70+16
 1021 00a4 2046     		mov	r0, r4
 1022 00a6 FFF7FEFF 		bl	__aeabi_fcmpgt
 1023              	.LVL86:
 1024 00aa 20B9     		cbnz	r0, .L47
 192:main.c        ****       Setpoint=30.0;EEPROM_WriteByte(100,80);CyDelay(20);EEPROM_WriteByte(0,81);CyDelay(20);
 1025              		.loc 1 192 0 is_stmt 0 discriminator 1
 1026 00ac 0021     		movs	r1, #0
 1027 00ae 2046     		mov	r0, r4
 1028 00b0 FFF7FEFF 		bl	__aeabi_fcmplt
 1029              	.LVL87:
 1030 00b4 80B1     		cbz	r0, .L48
ARM GAS  C:\Users\USUARIO\AppData\Local\Temp\ccUv4o23.s 			page 42


 1031              	.L47:
 193:main.c        ****    }
 1032              		.loc 1 193 0 is_stmt 1
 1033 00b6 8B4A     		ldr	r2, .L70+20
 1034 00b8 884B     		ldr	r3, .L70+12
 1035 00ba 1A60     		str	r2, [r3]	@ float
 1036 00bc 5021     		movs	r1, #80
 1037 00be 6420     		movs	r0, #100
 1038 00c0 FFF7FEFF 		bl	EEPROM_WriteByte
 1039              	.LVL88:
 1040 00c4 1420     		movs	r0, #20
 1041 00c6 FFF7FEFF 		bl	CyDelay
 1042              	.LVL89:
 1043 00ca 5121     		movs	r1, #81
 1044 00cc 0020     		movs	r0, #0
 1045 00ce FFF7FEFF 		bl	EEPROM_WriteByte
 1046              	.LVL90:
 1047 00d2 1420     		movs	r0, #20
 1048 00d4 FFF7FEFF 		bl	CyDelay
 1049              	.LVL91:
 1050              	.L48:
 195:main.c        ****       SetpointH=60.0;EEPROM_WriteByte(60,82);CyDelay(20);
 1051              		.loc 1 195 0
 1052 00d8 834B     		ldr	r3, .L70+24
 1053 00da 1B88     		ldrh	r3, [r3]
 1054 00dc 0A3B     		subs	r3, r3, #10
 1055 00de 9BB2     		uxth	r3, r3
 1056 00e0 552B     		cmp	r3, #85
 1057 00e2 08D9     		bls	.L50
 196:main.c        ****    }
 1058              		.loc 1 196 0
 1059 00e4 3C20     		movs	r0, #60
 1060 00e6 804B     		ldr	r3, .L70+24
 1061 00e8 1880     		strh	r0, [r3]	@ movhi
 1062 00ea 5221     		movs	r1, #82
 1063 00ec FFF7FEFF 		bl	EEPROM_WriteByte
 1064              	.LVL92:
 1065 00f0 1420     		movs	r0, #20
 1066 00f2 FFF7FEFF 		bl	CyDelay
 1067              	.LVL93:
 1068              	.L50:
 198:main.c        ****       Ganancia=2;EEPROM_WriteByte(2,30);CyDelay(20);
 1069              		.loc 1 198 0
 1070 00f6 7D4B     		ldr	r3, .L70+28
 1071 00f8 1C68     		ldr	r4, [r3]	@ float
 1072 00fa 7D49     		ldr	r1, .L70+32
 1073 00fc 2046     		mov	r0, r4
 1074 00fe FFF7FEFF 		bl	__aeabi_fcmpgt
 1075              	.LVL94:
 1076 0102 28B9     		cbnz	r0, .L51
 198:main.c        ****       Ganancia=2;EEPROM_WriteByte(2,30);CyDelay(20);
 1077              		.loc 1 198 0 is_stmt 0 discriminator 1
 1078 0104 4FF07E51 		mov	r1, #1065353216
 1079 0108 2046     		mov	r0, r4
 1080 010a FFF7FEFF 		bl	__aeabi_fcmplt
 1081              	.LVL95:
 1082 010e 50B1     		cbz	r0, .L52
ARM GAS  C:\Users\USUARIO\AppData\Local\Temp\ccUv4o23.s 			page 43


 1083              	.L51:
 199:main.c        ****    }
 1084              		.loc 1 199 0 is_stmt 1
 1085 0110 4FF08042 		mov	r2, #1073741824
 1086 0114 754B     		ldr	r3, .L70+28
 1087 0116 1A60     		str	r2, [r3]	@ float
 1088 0118 1E21     		movs	r1, #30
 1089 011a 0220     		movs	r0, #2
 1090 011c FFF7FEFF 		bl	EEPROM_WriteByte
 1091              	.LVL96:
 1092 0120 1420     		movs	r0, #20
 1093 0122 FFF7FEFF 		bl	CyDelay
 1094              	.LVL97:
 1095              	.L52:
 201:main.c        ****       Derivativo=80;EEPROM_WriteByte(80,31);CyDelay(20);
 1096              		.loc 1 201 0
 1097 0126 734B     		ldr	r3, .L70+36
 1098 0128 1B78     		ldrb	r3, [r3]	@ zero_extendqisi2
 1099 012a 053B     		subs	r3, r3, #5
 1100 012c DBB2     		uxtb	r3, r3
 1101 012e 4B2B     		cmp	r3, #75
 1102 0130 08D9     		bls	.L54
 202:main.c        ****    }
 1103              		.loc 1 202 0
 1104 0132 5020     		movs	r0, #80
 1105 0134 6F4B     		ldr	r3, .L70+36
 1106 0136 1870     		strb	r0, [r3]
 1107 0138 1F21     		movs	r1, #31
 1108 013a FFF7FEFF 		bl	EEPROM_WriteByte
 1109              	.LVL98:
 1110 013e 1420     		movs	r0, #20
 1111 0140 FFF7FEFF 		bl	CyDelay
 1112              	.LVL99:
 1113              	.L54:
 204:main.c        ****       Integral=1;EEPROM_WriteByte(1,32);CyDelay(20);
 1114              		.loc 1 204 0
 1115 0144 6C4B     		ldr	r3, .L70+40
 1116 0146 1B78     		ldrb	r3, [r3]	@ zero_extendqisi2
 1117 0148 013B     		subs	r3, r3, #1
 1118 014a DBB2     		uxtb	r3, r3
 1119 014c 032B     		cmp	r3, #3
 1120 014e 08D9     		bls	.L55
 205:main.c        ****    }
 1121              		.loc 1 205 0
 1122 0150 0120     		movs	r0, #1
 1123 0152 694B     		ldr	r3, .L70+40
 1124 0154 1870     		strb	r0, [r3]
 1125 0156 2021     		movs	r1, #32
 1126 0158 FFF7FEFF 		bl	EEPROM_WriteByte
 1127              	.LVL100:
 1128 015c 1420     		movs	r0, #20
 1129 015e FFF7FEFF 		bl	CyDelay
 1130              	.LVL101:
 1131              	.L55:
 207:main.c        ****       Tciclo=5;EEPROM_WriteByte(5,33);CyDelay(20);
 1132              		.loc 1 207 0
 1133 0162 664B     		ldr	r3, .L70+44
ARM GAS  C:\Users\USUARIO\AppData\Local\Temp\ccUv4o23.s 			page 44


 1134 0164 1B78     		ldrb	r3, [r3]	@ zero_extendqisi2
 1135 0166 053B     		subs	r3, r3, #5
 1136 0168 DBB2     		uxtb	r3, r3
 1137 016a 0F2B     		cmp	r3, #15
 1138 016c 08D9     		bls	.L56
 208:main.c        ****    }
 1139              		.loc 1 208 0
 1140 016e 0520     		movs	r0, #5
 1141 0170 624B     		ldr	r3, .L70+44
 1142 0172 1870     		strb	r0, [r3]
 1143 0174 2121     		movs	r1, #33
 1144 0176 FFF7FEFF 		bl	EEPROM_WriteByte
 1145              	.LVL102:
 1146 017a 1420     		movs	r0, #20
 1147 017c FFF7FEFF 		bl	CyDelay
 1148              	.LVL103:
 1149              	.L56:
 210:main.c        ****       Ajuste=0;EEPROM_WriteByte(0,34);CyDelay(20);
 1150              		.loc 1 210 0
 1151 0180 5F4B     		ldr	r3, .L70+48
 1152 0182 1B78     		ldrb	r3, [r3]	@ zero_extendqisi2
 1153 0184 642B     		cmp	r3, #100
 1154 0186 08D9     		bls	.L57
 211:main.c        ****    }
 1155              		.loc 1 211 0
 1156 0188 0020     		movs	r0, #0
 1157 018a 5D4B     		ldr	r3, .L70+48
 1158 018c 1870     		strb	r0, [r3]
 1159 018e 2221     		movs	r1, #34
 1160 0190 FFF7FEFF 		bl	EEPROM_WriteByte
 1161              	.LVL104:
 1162 0194 1420     		movs	r0, #20
 1163 0196 FFF7FEFF 		bl	CyDelay
 1164              	.LVL105:
 1165              	.L57:
 213:main.c        ****       Ajusten=0;EEPROM_WriteByte(0,35);CyDelay(20);
 1166              		.loc 1 213 0
 1167 019a 5A4B     		ldr	r3, .L70+52
 1168 019c 1B78     		ldrb	r3, [r3]	@ zero_extendqisi2
 1169 019e 642B     		cmp	r3, #100
 1170 01a0 08D9     		bls	.L58
 214:main.c        ****    }
 1171              		.loc 1 214 0
 1172 01a2 0020     		movs	r0, #0
 1173 01a4 574B     		ldr	r3, .L70+52
 1174 01a6 1870     		strb	r0, [r3]
 1175 01a8 2321     		movs	r1, #35
 1176 01aa FFF7FEFF 		bl	EEPROM_WriteByte
 1177              	.LVL106:
 1178 01ae 1420     		movs	r0, #20
 1179 01b0 FFF7FEFF 		bl	CyDelay
 1180              	.LVL107:
 1181              	.L58:
 216:main.c        ****       MediaMovil=80;EEPROM_WriteByte(80,36);CyDelay(20);
 1182              		.loc 1 216 0
 1183 01b4 544B     		ldr	r3, .L70+56
 1184 01b6 1B78     		ldrb	r3, [r3]	@ zero_extendqisi2
ARM GAS  C:\Users\USUARIO\AppData\Local\Temp\ccUv4o23.s 			page 45


 1185 01b8 0A3B     		subs	r3, r3, #10
 1186 01ba DBB2     		uxtb	r3, r3
 1187 01bc 462B     		cmp	r3, #70
 1188 01be 08D9     		bls	.L59
 217:main.c        ****    }
 1189              		.loc 1 217 0
 1190 01c0 5020     		movs	r0, #80
 1191 01c2 514B     		ldr	r3, .L70+56
 1192 01c4 1870     		strb	r0, [r3]
 1193 01c6 2421     		movs	r1, #36
 1194 01c8 FFF7FEFF 		bl	EEPROM_WriteByte
 1195              	.LVL108:
 1196 01cc 1420     		movs	r0, #20
 1197 01ce FFF7FEFF 		bl	CyDelay
 1198              	.LVL109:
 1199              	.L59:
 219:main.c        ****       Ajuste2=0;EEPROM_WriteByte(0,37);CyDelay(20);
 1200              		.loc 1 219 0
 1201 01d2 4E4B     		ldr	r3, .L70+60
 1202 01d4 1B78     		ldrb	r3, [r3]	@ zero_extendqisi2
 1203 01d6 642B     		cmp	r3, #100
 1204 01d8 08D9     		bls	.L60
 220:main.c        ****    }
 1205              		.loc 1 220 0
 1206 01da 0020     		movs	r0, #0
 1207 01dc 4B4B     		ldr	r3, .L70+60
 1208 01de 1870     		strb	r0, [r3]
 1209 01e0 2521     		movs	r1, #37
 1210 01e2 FFF7FEFF 		bl	EEPROM_WriteByte
 1211              	.LVL110:
 1212 01e6 1420     		movs	r0, #20
 1213 01e8 FFF7FEFF 		bl	CyDelay
 1214              	.LVL111:
 1215              	.L60:
 222:main.c        ****       Ajusten2=0;EEPROM_WriteByte(0,38);CyDelay(20);
 1216              		.loc 1 222 0
 1217 01ec 484B     		ldr	r3, .L70+64
 1218 01ee 1B78     		ldrb	r3, [r3]	@ zero_extendqisi2
 1219 01f0 642B     		cmp	r3, #100
 1220 01f2 08D9     		bls	.L61
 223:main.c        ****    }
 1221              		.loc 1 223 0
 1222 01f4 0020     		movs	r0, #0
 1223 01f6 464B     		ldr	r3, .L70+64
 1224 01f8 1870     		strb	r0, [r3]
 1225 01fa 2621     		movs	r1, #38
 1226 01fc FFF7FEFF 		bl	EEPROM_WriteByte
 1227              	.LVL112:
 1228 0200 1420     		movs	r0, #20
 1229 0202 FFF7FEFF 		bl	CyDelay
 1230              	.LVL113:
 1231              	.L61:
 225:main.c        ****       MediaMovil2=40;EEPROM_WriteByte(40,39);CyDelay(20);
 1232              		.loc 1 225 0
 1233 0206 434B     		ldr	r3, .L70+68
 1234 0208 1B78     		ldrb	r3, [r3]	@ zero_extendqisi2
 1235 020a 0A3B     		subs	r3, r3, #10
ARM GAS  C:\Users\USUARIO\AppData\Local\Temp\ccUv4o23.s 			page 46


 1236 020c DBB2     		uxtb	r3, r3
 1237 020e 462B     		cmp	r3, #70
 1238 0210 08D9     		bls	.L62
 226:main.c        ****    }
 1239              		.loc 1 226 0
 1240 0212 2820     		movs	r0, #40
 1241 0214 3F4B     		ldr	r3, .L70+68
 1242 0216 1870     		strb	r0, [r3]
 1243 0218 2721     		movs	r1, #39
 1244 021a FFF7FEFF 		bl	EEPROM_WriteByte
 1245              	.LVL114:
 1246 021e 1420     		movs	r0, #20
 1247 0220 FFF7FEFF 		bl	CyDelay
 1248              	.LVL115:
 1249              	.L62:
 228:main.c        ****       controlT=0;EEPROM_WriteByte(0,41);CyDelay(20);
 1250              		.loc 1 228 0
 1251 0224 3C4B     		ldr	r3, .L70+72
 1252 0226 1B78     		ldrb	r3, [r3]	@ zero_extendqisi2
 1253 0228 012B     		cmp	r3, #1
 1254 022a 08D9     		bls	.L63
 229:main.c        ****    }
 1255              		.loc 1 229 0
 1256 022c 0020     		movs	r0, #0
 1257 022e 3A4B     		ldr	r3, .L70+72
 1258 0230 1870     		strb	r0, [r3]
 1259 0232 2921     		movs	r1, #41
 1260 0234 FFF7FEFF 		bl	EEPROM_WriteByte
 1261              	.LVL116:
 1262 0238 1420     		movs	r0, #20
 1263 023a FFF7FEFF 		bl	CyDelay
 1264              	.LVL117:
 1265              	.L63:
 231:main.c        ****       controlH=0;EEPROM_WriteByte(0,42);CyDelay(20);
 1266              		.loc 1 231 0
 1267 023e 374B     		ldr	r3, .L70+76
 1268 0240 1B78     		ldrb	r3, [r3]	@ zero_extendqisi2
 1269 0242 012B     		cmp	r3, #1
 1270 0244 08D9     		bls	.L64
 232:main.c        ****    }
 1271              		.loc 1 232 0
 1272 0246 0020     		movs	r0, #0
 1273 0248 344B     		ldr	r3, .L70+76
 1274 024a 1870     		strb	r0, [r3]
 1275 024c 2A21     		movs	r1, #42
 1276 024e FFF7FEFF 		bl	EEPROM_WriteByte
 1277              	.LVL118:
 1278 0252 1420     		movs	r0, #20
 1279 0254 FFF7FEFF 		bl	CyDelay
 1280              	.LVL119:
 1281              	.L64:
 234:main.c        ****       controlR=0;EEPROM_WriteByte(0,43);CyDelay(20);
 1282              		.loc 1 234 0
 1283 0258 314B     		ldr	r3, .L70+80
 1284 025a 1B78     		ldrb	r3, [r3]	@ zero_extendqisi2
 1285 025c 012B     		cmp	r3, #1
 1286 025e 08D9     		bls	.L65
ARM GAS  C:\Users\USUARIO\AppData\Local\Temp\ccUv4o23.s 			page 47


 235:main.c        ****    }
 1287              		.loc 1 235 0
 1288 0260 0020     		movs	r0, #0
 1289 0262 2F4B     		ldr	r3, .L70+80
 1290 0264 1870     		strb	r0, [r3]
 1291 0266 2B21     		movs	r1, #43
 1292 0268 FFF7FEFF 		bl	EEPROM_WriteByte
 1293              	.LVL120:
 1294 026c 1420     		movs	r0, #20
 1295 026e FFF7FEFF 		bl	CyDelay
 1296              	.LVL121:
 1297              	.L65:
 237:main.c        ****       T1Humedad=10;EEPROM_WriteByte(10,44);CyDelay(20);
 1298              		.loc 1 237 0
 1299 0272 2C4B     		ldr	r3, .L70+84
 1300 0274 1B78     		ldrb	r3, [r3]	@ zero_extendqisi2
 1301 0276 043B     		subs	r3, r3, #4
 1302 0278 DBB2     		uxtb	r3, r3
 1303 027a 382B     		cmp	r3, #56
 1304 027c 08D9     		bls	.L66
 238:main.c        ****    }
 1305              		.loc 1 238 0
 1306 027e 0A20     		movs	r0, #10
 1307 0280 284B     		ldr	r3, .L70+84
 1308 0282 1870     		strb	r0, [r3]
 1309 0284 2C21     		movs	r1, #44
 1310 0286 FFF7FEFF 		bl	EEPROM_WriteByte
 1311              	.LVL122:
 1312 028a 1420     		movs	r0, #20
 1313 028c FFF7FEFF 		bl	CyDelay
 1314              	.LVL123:
 1315              	.L66:
 240:main.c        ****       T2Humedad=30;EEPROM_WriteByte(30,45);CyDelay(20);
 1316              		.loc 1 240 0
 1317 0290 254B     		ldr	r3, .L70+88
 1318 0292 1B78     		ldrb	r3, [r3]	@ zero_extendqisi2
 1319 0294 043B     		subs	r3, r3, #4
 1320 0296 DBB2     		uxtb	r3, r3
 1321 0298 382B     		cmp	r3, #56
 1322 029a 08D9     		bls	.L67
 241:main.c        ****    }
 1323              		.loc 1 241 0
 1324 029c 1E20     		movs	r0, #30
 1325 029e 224B     		ldr	r3, .L70+88
 1326 02a0 1870     		strb	r0, [r3]
 1327 02a2 2D21     		movs	r1, #45
 1328 02a4 FFF7FEFF 		bl	EEPROM_WriteByte
 1329              	.LVL124:
 1330 02a8 1420     		movs	r0, #20
 1331 02aa FFF7FEFF 		bl	CyDelay
 1332              	.LVL125:
 1333              	.L67:
 243:main.c        ****       T3Humedad=6;EEPROM_WriteByte(6,46);CyDelay(20);
 1334              		.loc 1 243 0
 1335 02ae 1F4B     		ldr	r3, .L70+92
 1336 02b0 1B78     		ldrb	r3, [r3]	@ zero_extendqisi2
 1337 02b2 043B     		subs	r3, r3, #4
ARM GAS  C:\Users\USUARIO\AppData\Local\Temp\ccUv4o23.s 			page 48


 1338 02b4 DBB2     		uxtb	r3, r3
 1339 02b6 382B     		cmp	r3, #56
 1340 02b8 08D9     		bls	.L40
 244:main.c        ****    }
 1341              		.loc 1 244 0
 1342 02ba 0620     		movs	r0, #6
 1343 02bc 1B4B     		ldr	r3, .L70+92
 1344 02be 1870     		strb	r0, [r3]
 1345 02c0 2E21     		movs	r1, #46
 1346 02c2 FFF7FEFF 		bl	EEPROM_WriteByte
 1347              	.LVL126:
 1348 02c6 1420     		movs	r0, #20
 1349 02c8 FFF7FEFF 		bl	CyDelay
 1350              	.LVL127:
 1351              	.L40:
 1352 02cc 10BD     		pop	{r4, pc}
 1353              	.L71:
 1354 02ce 00BF     		.align	2
 1355              	.L70:
 1356 02d0 00000000 		.word	mEstp
 1357 02d4 00000000 		.word	hEstp
 1358 02d8 00000000 		.word	Password
 1359 02dc 00000000 		.word	Setpoint
 1360 02e0 00007042 		.word	1114636288
 1361 02e4 0000F041 		.word	1106247680
 1362 02e8 00000000 		.word	SetpointH
 1363 02ec 00000000 		.word	Ganancia
 1364 02f0 0000A041 		.word	1101004800
 1365 02f4 00000000 		.word	Derivativo
 1366 02f8 00000000 		.word	Integral
 1367 02fc 00000000 		.word	Tciclo
 1368 0300 00000000 		.word	Ajuste
 1369 0304 00000000 		.word	Ajusten
 1370 0308 00000000 		.word	MediaMovil
 1371 030c 00000000 		.word	Ajuste2
 1372 0310 00000000 		.word	Ajusten2
 1373 0314 00000000 		.word	MediaMovil2
 1374 0318 00000000 		.word	controlT
 1375 031c 00000000 		.word	controlH
 1376 0320 00000000 		.word	controlR
 1377 0324 00000000 		.word	T1Humedad
 1378 0328 00000000 		.word	T2Humedad
 1379 032c 00000000 		.word	T3Humedad
 1380              		.cfi_endproc
 1381              	.LFE65:
 1382              		.size	LimitaValores, .-LimitaValores
 1383              		.global	__aeabi_fsub
 1384              		.global	__aeabi_fmul
 1385              		.section	.text.ActualizaRecta,"ax",%progbits
 1386              		.align	2
 1387              		.global	ActualizaRecta
 1388              		.thumb
 1389              		.thumb_func
 1390              		.type	ActualizaRecta, %function
 1391              	ActualizaRecta:
 1392              	.LFB66:
 248:main.c        ****    X[y]=Temperatura;
ARM GAS  C:\Users\USUARIO\AppData\Local\Temp\ccUv4o23.s 			page 49


 1393              		.loc 1 248 0
 1394              		.cfi_startproc
 1395              		@ args = 0, pretend = 0, frame = 0
 1396              		@ frame_needed = 0, uses_anonymous_args = 0
 1397 0000 70B5     		push	{r4, r5, r6, lr}
 1398              		.cfi_def_cfa_offset 16
 1399              		.cfi_offset 4, -16
 1400              		.cfi_offset 5, -12
 1401              		.cfi_offset 6, -8
 1402              		.cfi_offset 14, -4
 249:main.c        ****    y++;
 1403              		.loc 1 249 0
 1404 0002 2649     		ldr	r1, .L75
 1405 0004 0B78     		ldrb	r3, [r1]	@ zero_extendqisi2
 1406 0006 264A     		ldr	r2, .L75+4
 1407 0008 1468     		ldr	r4, [r2]	@ float
 1408 000a 264A     		ldr	r2, .L75+8
 1409 000c 02EB8302 		add	r2, r2, r3, lsl #2
 1410 0010 5460     		str	r4, [r2, #4]	@ float
 250:main.c        ****    if(y>=2){
 1411              		.loc 1 250 0
 1412 0012 0133     		adds	r3, r3, #1
 1413 0014 DBB2     		uxtb	r3, r3
 1414 0016 0B70     		strb	r3, [r1]
 251:main.c        ****       y=0;
 1415              		.loc 1 251 0
 1416 0018 012B     		cmp	r3, #1
 1417 001a 3DD9     		bls	.L72
 252:main.c        ****       Aumento=X[1]-X[0];
 1418              		.loc 1 252 0
 1419 001c 0022     		movs	r2, #0
 1420 001e 0A70     		strb	r2, [r1]
 253:main.c        ****       HorasActual=hEst;
 1421              		.loc 1 253 0
 1422 0020 204B     		ldr	r3, .L75+8
 1423 0022 5968     		ldr	r1, [r3, #4]	@ float
 1424 0024 9868     		ldr	r0, [r3, #8]	@ float
 1425 0026 FFF7FEFF 		bl	__aeabi_fsub
 1426              	.LVL128:
 1427 002a 0546     		mov	r5, r0
 1428 002c 1E4B     		ldr	r3, .L75+12
 1429 002e 1860     		str	r0, [r3]	@ float
 254:main.c        ****       MinutosActual=mEst;
 1430              		.loc 1 254 0
 1431 0030 1E4B     		ldr	r3, .L75+16
 1432 0032 1A78     		ldrb	r2, [r3]	@ zero_extendqisi2
 1433 0034 1E4B     		ldr	r3, .L75+20
 1434 0036 1A80     		strh	r2, [r3]	@ movhi
 255:main.c        ****       TiempoActual=Tiempo-((HorasActual*3600)+(MinutosActual*60)+tinicio);
 1435              		.loc 1 255 0
 1436 0038 1E4B     		ldr	r3, .L75+24
 1437 003a 1B78     		ldrb	r3, [r3]	@ zero_extendqisi2
 1438 003c 1E49     		ldr	r1, .L75+28
 1439 003e 0B80     		strh	r3, [r1]	@ movhi
 256:main.c        ****       PendienteActual=((Setpoint-Temperatura)/TiempoActual);
 1440              		.loc 1 256 0
 1441 0040 C2EB0212 		rsb	r2, r2, r2, lsl #4
ARM GAS  C:\Users\USUARIO\AppData\Local\Temp\ccUv4o23.s 			page 50


 1442 0044 C2EB0212 		rsb	r2, r2, r2, lsl #4
 1443 0048 C3EB0313 		rsb	r3, r3, r3, lsl #4
 1444 004c 9B00     		lsls	r3, r3, #2
 1445 004e 03EB0213 		add	r3, r3, r2, lsl #4
 1446 0052 1A4A     		ldr	r2, .L75+32
 1447 0054 1688     		ldrh	r6, [r2]
 1448 0056 1E44     		add	r6, r6, r3
 1449 0058 194B     		ldr	r3, .L75+36
 1450 005a 1A88     		ldrh	r2, [r3]
 1451 005c 961B     		subs	r6, r2, r6
 1452 005e B6B2     		uxth	r6, r6
 1453 0060 184B     		ldr	r3, .L75+40
 1454 0062 1E80     		strh	r6, [r3]	@ movhi
 257:main.c        ****       DifPendiente=(PendienteActual*20)-Aumento;
 1455              		.loc 1 257 0
 1456 0064 2146     		mov	r1, r4
 1457 0066 184B     		ldr	r3, .L75+44
 1458 0068 1868     		ldr	r0, [r3]	@ float
 1459 006a FFF7FEFF 		bl	__aeabi_fsub
 1460              	.LVL129:
 1461 006e 0446     		mov	r4, r0
 1462 0070 3046     		mov	r0, r6
 1463 0072 FFF7FEFF 		bl	__aeabi_i2f
 1464              	.LVL130:
 1465 0076 0146     		mov	r1, r0
 1466 0078 2046     		mov	r0, r4
 1467 007a FFF7FEFF 		bl	__aeabi_fdiv
 1468              	.LVL131:
 1469 007e 134B     		ldr	r3, .L75+48
 1470 0080 1860     		str	r0, [r3]	@ float
 258:main.c        ****       DifPendiente=DifPendiente*5;
 1471              		.loc 1 258 0
 1472 0082 1349     		ldr	r1, .L75+52
 1473 0084 FFF7FEFF 		bl	__aeabi_fmul
 1474              	.LVL132:
 1475 0088 2946     		mov	r1, r5
 1476 008a FFF7FEFF 		bl	__aeabi_fsub
 1477              	.LVL133:
 259:main.c        ****    }
 1478              		.loc 1 259 0
 1479 008e 1149     		ldr	r1, .L75+56
 1480 0090 FFF7FEFF 		bl	__aeabi_fmul
 1481              	.LVL134:
 1482 0094 104B     		ldr	r3, .L75+60
 1483 0096 1860     		str	r0, [r3]	@ float
 1484              	.L72:
 1485 0098 70BD     		pop	{r4, r5, r6, pc}
 1486              	.L76:
 1487 009a 00BF     		.align	2
 1488              	.L75:
 1489 009c 00000000 		.word	y
 1490 00a0 00000000 		.word	Temperatura
 1491 00a4 00000000 		.word	.LANCHOR0
 1492 00a8 00000000 		.word	Aumento
 1493 00ac 00000000 		.word	hEst
 1494 00b0 00000000 		.word	HorasActual
 1495 00b4 00000000 		.word	mEst
ARM GAS  C:\Users\USUARIO\AppData\Local\Temp\ccUv4o23.s 			page 51


 1496 00b8 00000000 		.word	MinutosActual
 1497 00bc 00000000 		.word	tinicio
 1498 00c0 00000000 		.word	Tiempo
 1499 00c4 00000000 		.word	TiempoActual
 1500 00c8 00000000 		.word	Setpoint
 1501 00cc 00000000 		.word	PendienteActual
 1502 00d0 0000A041 		.word	1101004800
 1503 00d4 0000A040 		.word	1084227584
 1504 00d8 00000000 		.word	DifPendiente
 1505              		.cfi_endproc
 1506              	.LFE66:
 1507              		.size	ActualizaRecta, .-ActualizaRecta
 1508              		.global	__aeabi_fcmpeq
 1509              		.global	__aeabi_dsub
 1510              		.global	__aeabi_d2f
 1511              		.global	__aeabi_dcmpgt
 1512              		.global	__aeabi_i2d
 1513              		.global	__aeabi_dadd
 1514              		.global	__aeabi_ddiv
 1515              		.global	__aeabi_d2uiz
 1516              		.global	__aeabi_fcmpge
 1517              		.global	__aeabi_dcmple
 1518              		.global	__aeabi_dmul
 1519              		.global	__aeabi_fcmple
 1520              		.section	.text.Controla,"ax",%progbits
 1521              		.align	2
 1522              		.global	Controla
 1523              		.thumb
 1524              		.thumb_func
 1525              		.type	Controla, %function
 1526              	Controla:
 1527              	.LFB67:
 263:main.c        **** //-------------------------------Control de Calentamiento------------------------------------------
 1528              		.loc 1 263 0
 1529              		.cfi_startproc
 1530              		@ args = 0, pretend = 0, frame = 0
 1531              		@ frame_needed = 0, uses_anonymous_args = 0
 1532 0000 2DE9F843 		push	{r3, r4, r5, r6, r7, r8, r9, lr}
 1533              		.cfi_def_cfa_offset 32
 1534              		.cfi_offset 3, -32
 1535              		.cfi_offset 4, -28
 1536              		.cfi_offset 5, -24
 1537              		.cfi_offset 6, -20
 1538              		.cfi_offset 7, -16
 1539              		.cfi_offset 8, -12
 1540              		.cfi_offset 9, -8
 1541              		.cfi_offset 14, -4
 1542              	.LVL135:
 266:main.c        ****         if(tiemporecta>=Derivativo){
 1543              		.loc 1 266 0
 1544 0004 974B     		ldr	r3, .L221
 1545 0006 B3F90030 		ldrsh	r3, [r3]
 1546 000a 5BB9     		cbnz	r3, .L78
 267:main.c        ****             ActualizaRecta();
 1547              		.loc 1 267 0
 1548 000c 964B     		ldr	r3, .L221+4
 1549 000e 1A78     		ldrb	r2, [r3]	@ zero_extendqisi2
ARM GAS  C:\Users\USUARIO\AppData\Local\Temp\ccUv4o23.s 			page 52


 1550 0010 964B     		ldr	r3, .L221+8
 1551 0012 1B88     		ldrh	r3, [r3]
 1552 0014 9A42     		cmp	r2, r3
 1553 0016 0ED8     		bhi	.L79
 268:main.c        ****             tiemporecta=0;
 1554              		.loc 1 268 0
 1555 0018 FFF7FEFF 		bl	ActualizaRecta
 1556              	.LVL136:
 269:main.c        ****         } 
 1557              		.loc 1 269 0
 1558 001c 0022     		movs	r2, #0
 1559 001e 934B     		ldr	r3, .L221+8
 1560 0020 1A80     		strh	r2, [r3]	@ movhi
 1561 0022 08E0     		b	.L79
 1562              	.L78:
 272:main.c        ****             ActualizaRecta();
 1563              		.loc 1 272 0
 1564 0024 914B     		ldr	r3, .L221+8
 1565 0026 1B88     		ldrh	r3, [r3]
 1566 0028 092B     		cmp	r3, #9
 1567 002a 04D9     		bls	.L79
 273:main.c        ****             tiemporecta=0;
 1568              		.loc 1 273 0
 1569 002c FFF7FEFF 		bl	ActualizaRecta
 1570              	.LVL137:
 274:main.c        ****         }
 1571              		.loc 1 274 0
 1572 0030 0022     		movs	r2, #0
 1573 0032 8E4B     		ldr	r3, .L221+8
 1574 0034 1A80     		strh	r2, [r3]	@ movhi
 1575              	.L79:
 278:main.c        ****     
 1576              		.loc 1 278 0
 1577 0036 0020     		movs	r0, #0
 1578 0038 FFF7FEFF 		bl	CR6_Write
 1579              	.LVL138:
 280:main.c        ****       if(Segmento==0){
 1580              		.loc 1 280 0
 1581 003c 894B     		ldr	r3, .L221
 1582 003e B3F90050 		ldrsh	r5, [r3]
 1583 0042 002D     		cmp	r5, #0
 1584 0044 00F09280 		beq	.L80
 281:main.c        ****          if(flag_calcula==0){
 1585              		.loc 1 281 0
 1586 0048 894B     		ldr	r3, .L221+12
 1587 004a 1B78     		ldrb	r3, [r3]	@ zero_extendqisi2
 1588 004c 002B     		cmp	r3, #0
 1589 004e 45D1     		bne	.L81
 282:main.c        ****             Tiempo=(rampas[0].Horas*3600)+(rampas[0].Minutos*60);         
 1590              		.loc 1 282 0
 1591 0050 884A     		ldr	r2, .L221+16
 1592 0052 B2F90020 		ldrsh	r2, [r2]
 1593 0056 002A     		cmp	r2, #0
 1594 0058 40F08880 		bne	.L80
 283:main.c        ****             Setpoint=rampas[0].Temperatura;
 1595              		.loc 1 283 0
 1596 005c 8648     		ldr	r0, .L221+20
ARM GAS  C:\Users\USUARIO\AppData\Local\Temp\ccUv4o23.s 			page 53


 1597 005e 8678     		ldrb	r6, [r0, #2]	@ zero_extendqisi2
 1598 0060 C478     		ldrb	r4, [r0, #3]	@ zero_extendqisi2
 1599 0062 C6EB0612 		rsb	r2, r6, r6, lsl #4
 1600 0066 C2EB0212 		rsb	r2, r2, r2, lsl #4
 1601 006a 1701     		lsls	r7, r2, #4
 1602 006c C4EB0412 		rsb	r2, r4, r4, lsl #4
 1603 0070 9100     		lsls	r1, r2, #2
 1604 0072 3944     		add	r1, r1, r7
 1605 0074 8FB2     		uxth	r7, r1
 1606 0076 814A     		ldr	r2, .L221+24
 1607 0078 1780     		strh	r7, [r2]	@ movhi
 284:main.c        ****             SetpointH=rampas[Segmento].Humedad;
 1608              		.loc 1 284 0
 1609 007a D0F80880 		ldr	r8, [r0, #8]	@ float
 1610 007e 804A     		ldr	r2, .L221+28
 1611 0080 C2F80080 		str	r8, [r2]	@ float
 285:main.c        ****             Pendiente=(((float)Setpoint-TempeInicial)/(float)Tiempo);
 1612              		.loc 1 285 0
 1613 0084 03EB4303 		add	r3, r3, r3, lsl #1
 1614 0088 9A00     		lsls	r2, r3, #2
 1615 008a 0244     		add	r2, r2, r0
 1616 008c 1279     		ldrb	r2, [r2, #4]	@ zero_extendqisi2
 1617 008e 7D4B     		ldr	r3, .L221+32
 1618 0090 1A80     		strh	r2, [r3]	@ movhi
 286:main.c        ****             hEstp=rampas[0].Horas;
 1619              		.loc 1 286 0
 1620 0092 7D4B     		ldr	r3, .L221+36
 1621 0094 1968     		ldr	r1, [r3]	@ float
 1622 0096 4046     		mov	r0, r8
 1623 0098 FFF7FEFF 		bl	__aeabi_fsub
 1624              	.LVL139:
 1625 009c 8146     		mov	r9, r0
 1626 009e 3846     		mov	r0, r7
 1627 00a0 FFF7FEFF 		bl	__aeabi_ui2f
 1628              	.LVL140:
 1629 00a4 0146     		mov	r1, r0
 1630 00a6 4846     		mov	r0, r9
 1631 00a8 FFF7FEFF 		bl	__aeabi_fdiv
 1632              	.LVL141:
 1633 00ac 774B     		ldr	r3, .L221+40
 1634 00ae 1860     		str	r0, [r3]	@ float
 287:main.c        ****             mEstp=rampas[0].Minutos;
 1635              		.loc 1 287 0
 1636 00b0 774B     		ldr	r3, .L221+44
 1637 00b2 1E70     		strb	r6, [r3]
 288:main.c        ****             flag_calcula=1;
 1638              		.loc 1 288 0
 1639 00b4 774B     		ldr	r3, .L221+48
 1640 00b6 1C70     		strb	r4, [r3]
 289:main.c        ****             Ganancia=GananciaR*(Setpoint/200);
 1641              		.loc 1 289 0
 1642 00b8 0122     		movs	r2, #1
 1643 00ba 6E4B     		ldr	r3, .L221+16
 1644 00bc 1A80     		strh	r2, [r3]	@ movhi
 290:main.c        ****          }
 1645              		.loc 1 290 0
 1646 00be 7649     		ldr	r1, .L221+52
ARM GAS  C:\Users\USUARIO\AppData\Local\Temp\ccUv4o23.s 			page 54


 1647 00c0 4046     		mov	r0, r8
 1648 00c2 FFF7FEFF 		bl	__aeabi_fdiv
 1649              	.LVL142:
 1650 00c6 0446     		mov	r4, r0
 1651 00c8 744B     		ldr	r3, .L221+56
 1652 00ca 1878     		ldrb	r0, [r3]	@ zero_extendqisi2
 1653 00cc FFF7FEFF 		bl	__aeabi_i2f
 1654              	.LVL143:
 1655 00d0 2146     		mov	r1, r4
 1656 00d2 FFF7FEFF 		bl	__aeabi_fmul
 1657              	.LVL144:
 1658 00d6 724B     		ldr	r3, .L221+60
 1659 00d8 1860     		str	r0, [r3]	@ float
 1660 00da 47E0     		b	.L80
 1661              	.L81:
 293:main.c        ****             Tiempo=(rampas[Segmento].Horas*3600)+(rampas[Segmento].Minutos*60);         
 1662              		.loc 1 293 0
 1663 00dc 654A     		ldr	r2, .L221+16
 1664 00de B2F90020 		ldrsh	r2, [r2]
 1665 00e2 002A     		cmp	r2, #0
 1666 00e4 42D1     		bne	.L80
 294:main.c        ****             Setpoint=rampas[Segmento].Temperatura;
 1667              		.loc 1 294 0
 1668 00e6 6448     		ldr	r0, .L221+20
 1669 00e8 5900     		lsls	r1, r3, #1
 1670 00ea 1944     		add	r1, r1, r3
 1671 00ec 8A00     		lsls	r2, r1, #2
 1672 00ee 0244     		add	r2, r2, r0
 1673 00f0 92F80280 		ldrb	r8, [r2, #2]	@ zero_extendqisi2
 1674 00f4 D778     		ldrb	r7, [r2, #3]	@ zero_extendqisi2
 1675 00f6 C8EB0811 		rsb	r1, r8, r8, lsl #4
 1676 00fa C1EB0111 		rsb	r1, r1, r1, lsl #4
 1677 00fe 0C01     		lsls	r4, r1, #4
 1678 0100 C7EB0716 		rsb	r6, r7, r7, lsl #4
 1679 0104 B100     		lsls	r1, r6, #2
 1680 0106 0C44     		add	r4, r4, r1
 1681 0108 A4B2     		uxth	r4, r4
 1682 010a 5C49     		ldr	r1, .L221+24
 1683 010c 0C80     		strh	r4, [r1]	@ movhi
 295:main.c        ****             SetpointH=rampas[Segmento].Humedad;
 1684              		.loc 1 295 0
 1685 010e 9668     		ldr	r6, [r2, #8]	@ float
 1686 0110 5B49     		ldr	r1, .L221+28
 1687 0112 0E60     		str	r6, [r1]	@ float
 296:main.c        ****             Pendiente=(((float)rampas[Segmento].Temperatura-(float)rampas[Segmento-1].Temperatura)/
 1688              		.loc 1 296 0
 1689 0114 1179     		ldrb	r1, [r2, #4]	@ zero_extendqisi2
 1690 0116 5B4A     		ldr	r2, .L221+32
 1691 0118 1180     		strh	r1, [r2]	@ movhi
 297:main.c        ****             hEstp=rampas[Segmento].Horas;
 1692              		.loc 1 297 0
 1693 011a 013B     		subs	r3, r3, #1
 1694 011c 03EB4303 		add	r3, r3, r3, lsl #1
 1695 0120 9A00     		lsls	r2, r3, #2
 1696 0122 0244     		add	r2, r2, r0
 1697 0124 9168     		ldr	r1, [r2, #8]	@ float
 1698 0126 3046     		mov	r0, r6
ARM GAS  C:\Users\USUARIO\AppData\Local\Temp\ccUv4o23.s 			page 55


 1699 0128 FFF7FEFF 		bl	__aeabi_fsub
 1700              	.LVL145:
 1701 012c 8146     		mov	r9, r0
 1702 012e 2046     		mov	r0, r4
 1703 0130 FFF7FEFF 		bl	__aeabi_ui2f
 1704              	.LVL146:
 1705 0134 0146     		mov	r1, r0
 1706 0136 4846     		mov	r0, r9
 1707 0138 FFF7FEFF 		bl	__aeabi_fdiv
 1708              	.LVL147:
 1709 013c 534B     		ldr	r3, .L221+40
 1710 013e 1860     		str	r0, [r3]	@ float
 298:main.c        ****             mEstp=rampas[Segmento].Minutos;
 1711              		.loc 1 298 0
 1712 0140 534B     		ldr	r3, .L221+44
 1713 0142 83F80080 		strb	r8, [r3]
 299:main.c        ****             flag_calcula=1;
 1714              		.loc 1 299 0
 1715 0146 534B     		ldr	r3, .L221+48
 1716 0148 1F70     		strb	r7, [r3]
 300:main.c        ****             Ganancia=GananciaR*(Setpoint/200);
 1717              		.loc 1 300 0
 1718 014a 0122     		movs	r2, #1
 1719 014c 494B     		ldr	r3, .L221+16
 1720 014e 1A80     		strh	r2, [r3]	@ movhi
 301:main.c        ****          }
 1721              		.loc 1 301 0
 1722 0150 5149     		ldr	r1, .L221+52
 1723 0152 3046     		mov	r0, r6
 1724 0154 FFF7FEFF 		bl	__aeabi_fdiv
 1725              	.LVL148:
 1726 0158 0446     		mov	r4, r0
 1727 015a 504B     		ldr	r3, .L221+56
 1728 015c 1878     		ldrb	r0, [r3]	@ zero_extendqisi2
 1729 015e FFF7FEFF 		bl	__aeabi_i2f
 1730              	.LVL149:
 1731 0162 2146     		mov	r1, r4
 1732 0164 FFF7FEFF 		bl	__aeabi_fmul
 1733              	.LVL150:
 1734 0168 4D4B     		ldr	r3, .L221+60
 1735 016a 1860     		str	r0, [r3]	@ float
 1736              	.L80:
 307:main.c        ****       
 1737              		.loc 1 307 0
 1738 016c 474B     		ldr	r3, .L221+40
 1739 016e 1C68     		ldr	r4, [r3]	@ float
 1740 0170 0021     		movs	r1, #0
 1741 0172 2046     		mov	r0, r4
 1742 0174 FFF7FEFF 		bl	__aeabi_fcmpeq
 1743              	.LVL151:
 1744 0178 0028     		cmp	r0, #0
 1745 017a 40F0E480 		bne	.L82
 307:main.c        ****       
 1746              		.loc 1 307 0 is_stmt 0 discriminator 1
 1747 017e 002D     		cmp	r5, #0
 1748 0180 00F0E180 		beq	.L82
 309:main.c        ****       if(Segmento==0){
ARM GAS  C:\Users\USUARIO\AppData\Local\Temp\ccUv4o23.s 			page 56


 1749              		.loc 1 309 0 is_stmt 1
 1750 0184 474B     		ldr	r3, .L221+64
 1751 0186 1B78     		ldrb	r3, [r3]	@ zero_extendqisi2
 1752 0188 C3EB0313 		rsb	r3, r3, r3, lsl #4
 1753 018c C3EB0313 		rsb	r3, r3, r3, lsl #4
 1754 0190 1801     		lsls	r0, r3, #4
 1755 0192 454B     		ldr	r3, .L221+68
 1756 0194 1B78     		ldrb	r3, [r3]	@ zero_extendqisi2
 1757 0196 C3EB0313 		rsb	r3, r3, r3, lsl #4
 1758 019a 9A00     		lsls	r2, r3, #2
 1759 019c 1044     		add	r0, r0, r2
 1760 019e 434B     		ldr	r3, .L221+72
 1761 01a0 1B88     		ldrh	r3, [r3]
 1762 01a2 1844     		add	r0, r0, r3
 1763 01a4 80B2     		uxth	r0, r0
 1764 01a6 424B     		ldr	r3, .L221+76
 1765 01a8 1880     		strh	r0, [r3]	@ movhi
 310:main.c        ****          TemperaturaIdeal=(Pendiente*TiempoRampa)+TempeInicial;
 1766              		.loc 1 310 0
 1767 01aa 314B     		ldr	r3, .L221+12
 1768 01ac 1D78     		ldrb	r5, [r3]	@ zero_extendqisi2
 1769 01ae 5DB9     		cbnz	r5, .L84
 311:main.c        ****       }else{
 1770              		.loc 1 311 0
 1771 01b0 FFF7FEFF 		bl	__aeabi_i2f
 1772              	.LVL152:
 1773 01b4 2146     		mov	r1, r4
 1774 01b6 FFF7FEFF 		bl	__aeabi_fmul
 1775              	.LVL153:
 1776 01ba 334B     		ldr	r3, .L221+36
 1777 01bc 1968     		ldr	r1, [r3]	@ float
 1778 01be FFF7FEFF 		bl	__aeabi_fadd
 1779              	.LVL154:
 1780 01c2 3C4B     		ldr	r3, .L221+80
 1781 01c4 1860     		str	r0, [r3]	@ float
 1782 01c6 0FE0     		b	.L85
 1783              	.L84:
 313:main.c        ****       }
 1784              		.loc 1 313 0
 1785 01c8 FFF7FEFF 		bl	__aeabi_i2f
 1786              	.LVL155:
 1787 01cc 2146     		mov	r1, r4
 1788 01ce FFF7FEFF 		bl	__aeabi_fmul
 1789              	.LVL156:
 1790 01d2 013D     		subs	r5, r5, #1
 1791 01d4 05EB4505 		add	r5, r5, r5, lsl #1
 1792 01d8 AB00     		lsls	r3, r5, #2
 1793 01da 274A     		ldr	r2, .L221+20
 1794 01dc 1344     		add	r3, r3, r2
 1795 01de 9968     		ldr	r1, [r3, #8]	@ float
 1796 01e0 FFF7FEFF 		bl	__aeabi_fadd
 1797              	.LVL157:
 1798 01e4 334B     		ldr	r3, .L221+80
 1799 01e6 1860     		str	r0, [r3]	@ float
 1800              	.L85:
 315:main.c        **** // Pendiente determinar si el comportamiento de la mufla es lineal 10°C/min o si tiene un comporta
 1801              		.loc 1 315 0
ARM GAS  C:\Users\USUARIO\AppData\Local\Temp\ccUv4o23.s 			page 57


 1802 01e8 334B     		ldr	r3, .L221+84
 1803 01ea 1968     		ldr	r1, [r3]	@ float
 1804 01ec 314B     		ldr	r3, .L221+80
 1805 01ee 1868     		ldr	r0, [r3]	@ float
 1806 01f0 FFF7FEFF 		bl	__aeabi_fsub
 1807              	.LVL158:
 1808 01f4 3149     		ldr	r1, .L221+88
 1809 01f6 FFF7FEFF 		bl	__aeabi_fmul
 1810              	.LVL159:
 1811 01fa 314B     		ldr	r3, .L221+92
 1812 01fc 1968     		ldr	r1, [r3]	@ float
 1813 01fe FFF7FEFF 		bl	__aeabi_fdiv
 1814              	.LVL160:
 1815 0202 0546     		mov	r5, r0
 1816 0204 2F4B     		ldr	r3, .L221+96
 1817 0206 1860     		str	r0, [r3]	@ float
 317:main.c        ****          if(PotenciaEntregada<0 && PotenciaEntregada>-100.0){
 1818              		.loc 1 317 0
 1819 0208 0021     		movs	r1, #0
 1820 020a 2046     		mov	r0, r4
 1821 020c FFF7FEFF 		bl	__aeabi_fcmplt
 1822              	.LVL161:
 1823 0210 0028     		cmp	r0, #0
 1824 0212 5BD0     		beq	.L210
 318:main.c        ****             if(PotenciaEntregada<0)
 1825              		.loc 1 318 0
 1826 0214 0021     		movs	r1, #0
 1827 0216 2846     		mov	r0, r5
 1828 0218 FFF7FEFF 		bl	__aeabi_fcmplt
 1829              	.LVL162:
 1830 021c 78B1     		cbz	r0, .L88
 318:main.c        ****             if(PotenciaEntregada<0)
 1831              		.loc 1 318 0 is_stmt 0 discriminator 1
 1832 021e 2A49     		ldr	r1, .L221+100
 1833 0220 2846     		mov	r0, r5
 1834 0222 FFF7FEFF 		bl	__aeabi_fcmpgt
 1835              	.LVL163:
 1836 0226 50B1     		cbz	r0, .L88
 319:main.c        ****                 PotenciaEntregada=PotenciaEntregada*-1;
 1837              		.loc 1 319 0 is_stmt 1
 1838 0228 0021     		movs	r1, #0
 1839 022a 2846     		mov	r0, r5
 1840 022c FFF7FEFF 		bl	__aeabi_fcmplt
 1841              	.LVL164:
 1842 0230 0028     		cmp	r0, #0
 1843 0232 5CD0     		beq	.L91
 320:main.c        ****          }else if(PotenciaEntregada<-100.0){
 1844              		.loc 1 320 0
 1845 0234 05F10045 		add	r5, r5, #-2147483648
 1846 0238 224B     		ldr	r3, .L221+96
 1847 023a 1D60     		str	r5, [r3]	@ float
 1848 023c 57E0     		b	.L91
 1849              	.L88:
 321:main.c        ****             PotenciaEntregada=100.0;
 1850              		.loc 1 321 0
 1851 023e 2249     		ldr	r1, .L221+100
 1852 0240 2846     		mov	r0, r5
ARM GAS  C:\Users\USUARIO\AppData\Local\Temp\ccUv4o23.s 			page 58


 1853 0242 FFF7FEFF 		bl	__aeabi_fcmplt
 1854              	.LVL165:
 1855 0246 18B1     		cbz	r0, .L211
 322:main.c        ****          }else if(PotenciaEntregada>0){
 1856              		.loc 1 322 0
 1857 0248 1C4A     		ldr	r2, .L221+88
 1858 024a 1E4B     		ldr	r3, .L221+96
 1859 024c 1A60     		str	r2, [r3]	@ float
 1860 024e 4EE0     		b	.L91
 1861              	.L211:
 323:main.c        ****             PotenciaEntregada=0; 
 1862              		.loc 1 323 0
 1863 0250 0021     		movs	r1, #0
 1864 0252 2846     		mov	r0, r5
 1865 0254 FFF7FEFF 		bl	__aeabi_fcmpgt
 1866              	.LVL166:
 1867 0258 0028     		cmp	r0, #0
 1868 025a 48D0     		beq	.L91
 324:main.c        ****          }
 1869              		.loc 1 324 0
 1870 025c 0022     		movs	r2, #0
 1871 025e 194B     		ldr	r3, .L221+96
 1872 0260 1A60     		str	r2, [r3]	@ float
 1873 0262 44E0     		b	.L91
 1874              	.L222:
 1875              		.align	2
 1876              	.L221:
 1877 0264 00000000 		.word	flagRampa
 1878 0268 00000000 		.word	Derivativo
 1879 026c 00000000 		.word	tiemporecta
 1880 0270 00000000 		.word	Segmento
 1881 0274 00000000 		.word	flag_calcula
 1882 0278 00000000 		.word	rampas
 1883 027c 00000000 		.word	Tiempo
 1884 0280 00000000 		.word	Setpoint
 1885 0284 00000000 		.word	SetpointH
 1886 0288 00000000 		.word	TempeInicial
 1887 028c 00000000 		.word	Pendiente
 1888 0290 00000000 		.word	hEstp
 1889 0294 00000000 		.word	mEstp
 1890 0298 00004843 		.word	1128792064
 1891 029c 00000000 		.word	GananciaR
 1892 02a0 00000000 		.word	Ganancia
 1893 02a4 00000000 		.word	hEst
 1894 02a8 00000000 		.word	mEst
 1895 02ac 00000000 		.word	tinicio
 1896 02b0 00000000 		.word	TiempoRampa
 1897 02b4 00000000 		.word	TemperaturaIdeal
 1898 02b8 00000000 		.word	Temperatura
 1899 02bc 0000C842 		.word	1120403456
 1900 02c0 00000000 		.word	.LANCHOR1
 1901 02c4 00000000 		.word	PotenciaEntregada
 1902 02c8 0000C8C2 		.word	-1027080192
 1903              	.L210:
 327:main.c        ****             PotenciaEntregada=100.0;
 1904              		.loc 1 327 0
 1905 02cc 9649     		ldr	r1, .L223+48
ARM GAS  C:\Users\USUARIO\AppData\Local\Temp\ccUv4o23.s 			page 59


 1906 02ce 2846     		mov	r0, r5
 1907 02d0 FFF7FEFF 		bl	__aeabi_fcmpgt
 1908              	.LVL167:
 1909 02d4 10B1     		cbz	r0, .L96
 328:main.c        ****      
 1910              		.loc 1 328 0
 1911 02d6 944A     		ldr	r2, .L223+48
 1912 02d8 944B     		ldr	r3, .L223+52
 1913 02da 1A60     		str	r2, [r3]	@ float
 1914              	.L96:
 330:main.c        ****             PotenciaEntregada=0; 
 1915              		.loc 1 330 0
 1916 02dc 0021     		movs	r1, #0
 1917 02de 934B     		ldr	r3, .L223+52
 1918 02e0 1868     		ldr	r0, [r3]	@ float
 1919 02e2 FFF7FEFF 		bl	__aeabi_fcmplt
 1920              	.LVL168:
 1921 02e6 10B1     		cbz	r0, .L91
 331:main.c        ****       }
 1922              		.loc 1 331 0
 1923 02e8 0022     		movs	r2, #0
 1924 02ea 904B     		ldr	r3, .L223+52
 1925 02ec 1A60     		str	r2, [r3]	@ float
 1926              	.L91:
 334:main.c        ****          CR1_Write(0);
 1927              		.loc 1 334 0
 1928 02ee 904B     		ldr	r3, .L223+56
 1929 02f0 B3F90030 		ldrsh	r3, [r3]
 1930 02f4 012B     		cmp	r3, #1
 1931 02f6 0CD1     		bne	.L99
 335:main.c        ****          CR2_Write(0);
 1932              		.loc 1 335 0
 1933 02f8 0020     		movs	r0, #0
 1934 02fa FFF7FEFF 		bl	CR1_Write
 1935              	.LVL169:
 336:main.c        ****          CR3_Write(0);
 1936              		.loc 1 336 0
 1937 02fe 0020     		movs	r0, #0
 1938 0300 FFF7FEFF 		bl	CR2_Write
 1939              	.LVL170:
 337:main.c        ****          CR4_Write(0);
 1940              		.loc 1 337 0
 1941 0304 0020     		movs	r0, #0
 1942 0306 FFF7FEFF 		bl	CR3_Write
 1943              	.LVL171:
 338:main.c        ****       }else{
 1944              		.loc 1 338 0
 1945 030a 0020     		movs	r0, #0
 1946 030c FFF7FEFF 		bl	CR4_Write
 1947              	.LVL172:
 1948 0310 0BE0     		b	.L100
 1949              	.L99:
 340:main.c        ****          CR2_Write(1);
 1950              		.loc 1 340 0
 1951 0312 0120     		movs	r0, #1
 1952 0314 FFF7FEFF 		bl	CR1_Write
 1953              	.LVL173:
ARM GAS  C:\Users\USUARIO\AppData\Local\Temp\ccUv4o23.s 			page 60


 341:main.c        ****          CR3_Write(1);
 1954              		.loc 1 341 0
 1955 0318 0120     		movs	r0, #1
 1956 031a FFF7FEFF 		bl	CR2_Write
 1957              	.LVL174:
 342:main.c        ****          CR4_Write(1);
 1958              		.loc 1 342 0
 1959 031e 0120     		movs	r0, #1
 1960 0320 FFF7FEFF 		bl	CR3_Write
 1961              	.LVL175:
 343:main.c        ****       }
 1962              		.loc 1 343 0
 1963 0324 0120     		movs	r0, #1
 1964 0326 FFF7FEFF 		bl	CR4_Write
 1965              	.LVL176:
 1966              	.L100:
 345:main.c        ****    }else{
 1967              		.loc 1 345 0
 1968 032a 824B     		ldr	r3, .L223+60
 1969 032c 1878     		ldrb	r0, [r3]	@ zero_extendqisi2
 1970 032e FFF7FEFF 		bl	__aeabi_i2f
 1971              	.LVL177:
 1972 0332 7E4B     		ldr	r3, .L223+52
 1973 0334 1968     		ldr	r1, [r3]	@ float
 1974 0336 FFF7FEFF 		bl	__aeabi_fmul
 1975              	.LVL178:
 1976 033a 7B49     		ldr	r1, .L223+48
 1977 033c FFF7FEFF 		bl	__aeabi_fdiv
 1978              	.LVL179:
 1979 0340 7D4B     		ldr	r3, .L223+64
 1980 0342 1860     		str	r0, [r3]	@ float
 1981 0344 B0E3     		b	.L101
 1982              	.L82:
 348:main.c        ****          CR1_Write(0);
 1983              		.loc 1 348 0
 1984 0346 7A4B     		ldr	r3, .L223+56
 1985 0348 B3F90030 		ldrsh	r3, [r3]
 1986 034c 012B     		cmp	r3, #1
 1987 034e 40F00F81 		bne	.L102
 349:main.c        ****          CR2_Write(0);
 1988              		.loc 1 349 0
 1989 0352 0020     		movs	r0, #0
 1990 0354 FFF7FEFF 		bl	CR1_Write
 1991              	.LVL180:
 350:main.c        ****          CR3_Write(0);
 1992              		.loc 1 350 0
 1993 0358 0020     		movs	r0, #0
 1994 035a FFF7FEFF 		bl	CR2_Write
 1995              	.LVL181:
 351:main.c        ****          CR4_Write(0);
 1996              		.loc 1 351 0
 1997 035e 0020     		movs	r0, #0
 1998 0360 FFF7FEFF 		bl	CR3_Write
 1999              	.LVL182:
 352:main.c        ****          error=Setpoint-desvio-Temperatura;      // Cálculo del error ******
 2000              		.loc 1 352 0
 2001 0364 0020     		movs	r0, #0
ARM GAS  C:\Users\USUARIO\AppData\Local\Temp\ccUv4o23.s 			page 61


 2002 0366 FFF7FEFF 		bl	CR4_Write
 2003              	.LVL183:
 353:main.c        ****          
 2004              		.loc 1 353 0
 2005 036a 744B     		ldr	r3, .L223+68
 2006 036c 1D68     		ldr	r5, [r3]	@ float
 2007 036e 2846     		mov	r0, r5
 2008 0370 FFF7FEFF 		bl	__aeabi_f2d
 2009              	.LVL184:
 2010 0374 0022     		movs	r2, #0
 2011 0376 724B     		ldr	r3, .L223+72
 2012 0378 FFF7FEFF 		bl	__aeabi_dsub
 2013              	.LVL185:
 2014 037c 0646     		mov	r6, r0
 2015 037e 0F46     		mov	r7, r1
 2016 0380 704B     		ldr	r3, .L223+76
 2017 0382 1868     		ldr	r0, [r3]	@ float
 2018 0384 FFF7FEFF 		bl	__aeabi_f2d
 2019              	.LVL186:
 2020 0388 0246     		mov	r2, r0
 2021 038a 0B46     		mov	r3, r1
 2022 038c 3046     		mov	r0, r6
 2023 038e 3946     		mov	r1, r7
 2024 0390 FFF7FEFF 		bl	__aeabi_dsub
 2025              	.LVL187:
 2026 0394 FFF7FEFF 		bl	__aeabi_d2f
 2027              	.LVL188:
 2028 0398 0446     		mov	r4, r0
 2029 039a 6B4B     		ldr	r3, .L223+80
 2030 039c 1860     		str	r0, [r3]	@ float
 355:main.c        ****             if(Potencia<90.0){
 2031              		.loc 1 355 0
 2032 039e FFF7FEFF 		bl	__aeabi_f2d
 2033              	.LVL189:
 2034 03a2 55A3     		adr	r3, .L223
 2035 03a4 D3E90023 		ldrd	r2, [r3]
 2036 03a8 FFF7FEFF 		bl	__aeabi_dcmplt
 2037              	.LVL190:
 2038 03ac 0028     		cmp	r0, #0
 2039 03ae 62D0     		beq	.L103
 355:main.c        ****             if(Potencia<90.0){
 2040              		.loc 1 355 0 is_stmt 0 discriminator 1
 2041 03b0 664B     		ldr	r3, .L223+84
 2042 03b2 1E68     		ldr	r6, [r3]	@ float
 2043 03b4 3046     		mov	r0, r6
 2044 03b6 FFF7FEFF 		bl	__aeabi_f2d
 2045              	.LVL191:
 2046 03ba 8046     		mov	r8, r0
 2047 03bc 8946     		mov	r9, r1
 2048 03be 50A3     		adr	r3, .L223+8
 2049 03c0 D3E90023 		ldrd	r2, [r3]
 2050 03c4 FFF7FEFF 		bl	__aeabi_dcmpgt
 2051              	.LVL192:
 2052 03c8 0028     		cmp	r0, #0
 2053 03ca 54D0     		beq	.L103
 356:main.c        ****                if(TiempoControl>=Derivativo*2){
 2054              		.loc 1 356 0 is_stmt 1
ARM GAS  C:\Users\USUARIO\AppData\Local\Temp\ccUv4o23.s 			page 62


 2055 03cc 6049     		ldr	r1, .L223+88
 2056 03ce 614B     		ldr	r3, .L223+92
 2057 03d0 1868     		ldr	r0, [r3]	@ float
 2058 03d2 FFF7FEFF 		bl	__aeabi_fcmplt
 2059              	.LVL193:
 2060 03d6 0028     		cmp	r0, #0
 2061 03d8 4DD0     		beq	.L103
 357:main.c        ****                   TiempoControl=0;
 2062              		.loc 1 357 0
 2063 03da 5F4B     		ldr	r3, .L223+96
 2064 03dc 1B88     		ldrh	r3, [r3]
 2065 03de 5F4A     		ldr	r2, .L223+100
 2066 03e0 1278     		ldrb	r2, [r2]	@ zero_extendqisi2
 2067 03e2 B3EB420F 		cmp	r3, r2, lsl #1
 2068 03e6 46DB     		blt	.L103
 358:main.c        ****                   if(Aumento>0.2){
 2069              		.loc 1 358 0
 2070 03e8 0022     		movs	r2, #0
 2071 03ea 5B4B     		ldr	r3, .L223+96
 2072 03ec 1A80     		strh	r2, [r3]	@ movhi
 359:main.c        ****                      Ganancia+=Integral;
 2073              		.loc 1 359 0
 2074 03ee 46A3     		adr	r3, .L223+16
 2075 03f0 D3E90023 		ldrd	r2, [r3]
 2076 03f4 4046     		mov	r0, r8
 2077 03f6 4946     		mov	r1, r9
 2078 03f8 FFF7FEFF 		bl	__aeabi_dcmpgt
 2079              	.LVL194:
 2080 03fc 48B1     		cbz	r0, .L212
 360:main.c        ****                   }else{
 2081              		.loc 1 360 0
 2082 03fe 584E     		ldr	r6, .L223+104
 2083 0400 584B     		ldr	r3, .L223+108
 2084 0402 1878     		ldrb	r0, [r3]	@ zero_extendqisi2
 2085 0404 FFF7FEFF 		bl	__aeabi_i2f
 2086              	.LVL195:
 2087 0408 3168     		ldr	r1, [r6]	@ float
 2088 040a FFF7FEFF 		bl	__aeabi_fadd
 2089              	.LVL196:
 2090 040e 3060     		str	r0, [r6]	@ float
 2091 0410 31E0     		b	.L103
 2092              	.L212:
 362:main.c        ****                         Ganancia+=Integral-0.4;
 2093              		.loc 1 362 0
 2094 0412 0021     		movs	r1, #0
 2095 0414 3046     		mov	r0, r6
 2096 0416 FFF7FEFF 		bl	__aeabi_fcmpgt
 2097              	.LVL197:
 2098 041a B0B1     		cbz	r0, .L213
 363:main.c        ****                      }else{
 2099              		.loc 1 363 0
 2100 041c 514B     		ldr	r3, .L223+108
 2101 041e 1878     		ldrb	r0, [r3]	@ zero_extendqisi2
 2102 0420 FFF7FEFF 		bl	__aeabi_i2d
 2103              	.LVL198:
 2104 0424 3AA3     		adr	r3, .L223+24
 2105 0426 D3E90023 		ldrd	r2, [r3]
ARM GAS  C:\Users\USUARIO\AppData\Local\Temp\ccUv4o23.s 			page 63


 2106 042a FFF7FEFF 		bl	__aeabi_dsub
 2107              	.LVL199:
 2108 042e 8046     		mov	r8, r0
 2109 0430 8946     		mov	r9, r1
 2110 0432 4B4E     		ldr	r6, .L223+104
 2111 0434 3068     		ldr	r0, [r6]	@ float
 2112 0436 FFF7FEFF 		bl	__aeabi_f2d
 2113              	.LVL200:
 2114 043a 4246     		mov	r2, r8
 2115 043c 4B46     		mov	r3, r9
 2116 043e FFF7FEFF 		bl	__aeabi_dadd
 2117              	.LVL201:
 2118 0442 FFF7FEFF 		bl	__aeabi_d2f
 2119              	.LVL202:
 2120 0446 3060     		str	r0, [r6]	@ float
 2121 0448 15E0     		b	.L103
 2122              	.L213:
 365:main.c        ****                      }
 2123              		.loc 1 365 0
 2124 044a 464B     		ldr	r3, .L223+108
 2125 044c 1878     		ldrb	r0, [r3]	@ zero_extendqisi2
 2126 044e FFF7FEFF 		bl	__aeabi_i2d
 2127              	.LVL203:
 2128 0452 31A3     		adr	r3, .L223+32
 2129 0454 D3E90023 		ldrd	r2, [r3]
 2130 0458 FFF7FEFF 		bl	__aeabi_dsub
 2131              	.LVL204:
 2132 045c 8046     		mov	r8, r0
 2133 045e 8946     		mov	r9, r1
 2134 0460 3F4E     		ldr	r6, .L223+104
 2135 0462 3068     		ldr	r0, [r6]	@ float
 2136 0464 FFF7FEFF 		bl	__aeabi_f2d
 2137              	.LVL205:
 2138 0468 4246     		mov	r2, r8
 2139 046a 4B46     		mov	r3, r9
 2140 046c FFF7FEFF 		bl	__aeabi_dadd
 2141              	.LVL206:
 2142 0470 FFF7FEFF 		bl	__aeabi_d2f
 2143              	.LVL207:
 2144 0474 3060     		str	r0, [r6]	@ float
 2145              	.L103:
 372:main.c        ****             error=0.0;
 2146              		.loc 1 372 0
 2147 0476 0021     		movs	r1, #0
 2148 0478 2046     		mov	r0, r4
 2149 047a FFF7FEFF 		bl	__aeabi_fcmpgt
 2150              	.LVL208:
 2151 047e 10B1     		cbz	r0, .L111
 373:main.c        ****          
 2152              		.loc 1 373 0
 2153 0480 0022     		movs	r2, #0
 2154 0482 314B     		ldr	r3, .L223+80
 2155 0484 1A60     		str	r2, [r3]	@ float
 2156              	.L111:
 375:main.c        ****          
 2157              		.loc 1 375 0
 2158 0486 304B     		ldr	r3, .L223+80
ARM GAS  C:\Users\USUARIO\AppData\Local\Temp\ccUv4o23.s 			page 64


 2159 0488 1C68     		ldr	r4, [r3]
 2160 048a 04F10044 		add	r4, r4, #-2147483648
 2161 048e 1C60     		str	r4, [r3]	@ float
 377:main.c        ****             Ganancia=0.1;
 2162              		.loc 1 377 0
 2163 0490 334B     		ldr	r3, .L223+104
 2164 0492 1868     		ldr	r0, [r3]	@ float
 2165 0494 FFF7FEFF 		bl	__aeabi_f2d
 2166              	.LVL209:
 2167 0498 21A3     		adr	r3, .L223+40
 2168 049a D3E90023 		ldrd	r2, [r3]
 2169 049e FFF7FEFF 		bl	__aeabi_dcmplt
 2170              	.LVL210:
 2171 04a2 10B1     		cbz	r0, .L113
 378:main.c        ****       
 2172              		.loc 1 378 0
 2173 04a4 304A     		ldr	r2, .L223+112
 2174 04a6 2E4B     		ldr	r3, .L223+104
 2175 04a8 1A60     		str	r2, [r3]	@ float
 2176              	.L113:
 380:main.c        ****                
 2177              		.loc 1 380 0
 2178 04aa 2D4B     		ldr	r3, .L223+104
 2179 04ac 1968     		ldr	r1, [r3]	@ float
 2180 04ae 2046     		mov	r0, r4
 2181 04b0 FFF7FEFF 		bl	__aeabi_fmul
 2182              	.LVL211:
 2183 04b4 0446     		mov	r4, r0
 2184              	.LVL212:
 382:main.c        ****             tmp=Setpoint;
 2185              		.loc 1 382 0
 2186 04b6 0146     		mov	r1, r0
 2187 04b8 2846     		mov	r0, r5
 2188              	.LVL213:
 2189 04ba FFF7FEFF 		bl	__aeabi_fcmplt
 2190              	.LVL214:
 2191 04be 00B1     		cbz	r0, .L115
 383:main.c        ****                      
 2192              		.loc 1 383 0
 2193 04c0 2C46     		mov	r4, r5
 2194              	.LVL215:
 2195              	.L115:
 385:main.c        ****             tmp=0.0;
 2196              		.loc 1 385 0
 2197 04c2 0021     		movs	r1, #0
 2198 04c4 2046     		mov	r0, r4
 2199 04c6 FFF7FEFF 		bl	__aeabi_fcmplt
 2200              	.LVL216:
 2201 04ca 00B1     		cbz	r0, .L116
 386:main.c        ****          
 2202              		.loc 1 386 0
 2203 04cc 0024     		movs	r4, #0
 2204              	.LVL217:
 2205              	.L116:
 390:main.c        ****          
 2206              		.loc 1 390 0
 2207 04ce 2946     		mov	r1, r5
ARM GAS  C:\Users\USUARIO\AppData\Local\Temp\ccUv4o23.s 			page 65


 2208 04d0 2046     		mov	r0, r4
 2209 04d2 FFF7FEFF 		bl	__aeabi_fdiv
 2210              	.LVL218:
 2211 04d6 0546     		mov	r5, r0
 2212 04d8 164B     		ldr	r3, .L223+60
 2213 04da 1C78     		ldrb	r4, [r3]	@ zero_extendqisi2
 2214              	.LVL219:
 2215 04dc 2046     		mov	r0, r4
 2216 04de FFF7FEFF 		bl	__aeabi_i2f
 2217              	.LVL220:
 2218 04e2 2946     		mov	r1, r5
 2219 04e4 FFF7FEFF 		bl	__aeabi_fmul
 2220              	.LVL221:
 2221 04e8 134B     		ldr	r3, .L223+64
 2222 04ea 1860     		str	r0, [r3]	@ float
 394:main.c        ****       }else{
 2223              		.loc 1 394 0
 2224 04ec 0122     		movs	r2, #1
 2225 04ee 1F4B     		ldr	r3, .L223+116
 2226 04f0 1A80     		strh	r2, [r3]	@ movhi
 2227 04f2 D9E2     		b	.L101
 2228              	.L224:
 2229 04f4 AFF30080 		.align	3
 2230              	.L223:
 2231 04f8 9A999999 		.word	-1717986918
 2232 04fc 9999D9BF 		.word	-1076258407
 2233 0500 9A999999 		.word	-1717986918
 2234 0504 9999C9BF 		.word	-1077306983
 2235 0508 9A999999 		.word	-1717986918
 2236 050c 9999C93F 		.word	1070176665
 2237 0510 9A999999 		.word	-1717986918
 2238 0514 9999D93F 		.word	1071225241
 2239 0518 66666666 		.word	1717986918
 2240 051c 6666E63F 		.word	1072064102
 2241 0520 9A999999 		.word	-1717986918
 2242 0524 9999B93F 		.word	1069128089
 2243 0528 0000C842 		.word	1120403456
 2244 052c 00000000 		.word	PotenciaEntregada
 2245 0530 00000000 		.word	Enfria
 2246 0534 00000000 		.word	Tciclo
 2247 0538 00000000 		.word	Tpulso
 2248 053c 00000000 		.word	Setpoint
 2249 0540 0000E03F 		.word	1071644672
 2250 0544 00000000 		.word	Temperatura
 2251 0548 00000000 		.word	error
 2252 054c 00000000 		.word	Aumento
 2253 0550 0000B442 		.word	1119092736
 2254 0554 00000000 		.word	Potencia
 2255 0558 00000000 		.word	TiempoControl
 2256 055c 00000000 		.word	Derivativo
 2257 0560 00000000 		.word	Ganancia
 2258 0564 00000000 		.word	Integral
 2259 0568 CDCCCC3D 		.word	1036831949
 2260 056c 00000000 		.word	Controlando
 2261              	.LVL222:
 2262              	.L102:
 396:main.c        ****          CR2_Write(1);
ARM GAS  C:\Users\USUARIO\AppData\Local\Temp\ccUv4o23.s 			page 66


 2263              		.loc 1 396 0
 2264 0570 0120     		movs	r0, #1
 2265 0572 FFF7FEFF 		bl	CR1_Write
 2266              	.LVL223:
 397:main.c        ****          CR3_Write(1);
 2267              		.loc 1 397 0
 2268 0576 0120     		movs	r0, #1
 2269 0578 FFF7FEFF 		bl	CR2_Write
 2270              	.LVL224:
 398:main.c        ****          CR4_Write(1);
 2271              		.loc 1 398 0
 2272 057c 0120     		movs	r0, #1
 2273 057e FFF7FEFF 		bl	CR3_Write
 2274              	.LVL225:
 399:main.c        ****          error=desvio+Setpoint-Temperatura;      // Cálculo del error ******
 2275              		.loc 1 399 0
 2276 0582 0120     		movs	r0, #1
 2277 0584 FFF7FEFF 		bl	CR4_Write
 2278              	.LVL226:
 400:main.c        ****       
 2279              		.loc 1 400 0
 2280 0588 8F4B     		ldr	r3, .L225+32
 2281 058a 1D68     		ldr	r5, [r3]	@ float
 2282 058c 2846     		mov	r0, r5
 2283 058e FFF7FEFF 		bl	__aeabi_f2d
 2284              	.LVL227:
 2285 0592 0022     		movs	r2, #0
 2286 0594 8D4B     		ldr	r3, .L225+36
 2287 0596 FFF7FEFF 		bl	__aeabi_dadd
 2288              	.LVL228:
 2289 059a 0646     		mov	r6, r0
 2290 059c 0F46     		mov	r7, r1
 2291 059e 8C4B     		ldr	r3, .L225+40
 2292 05a0 1868     		ldr	r0, [r3]	@ float
 2293 05a2 FFF7FEFF 		bl	__aeabi_f2d
 2294              	.LVL229:
 2295 05a6 0246     		mov	r2, r0
 2296 05a8 0B46     		mov	r3, r1
 2297 05aa 3046     		mov	r0, r6
 2298 05ac 3946     		mov	r1, r7
 2299 05ae FFF7FEFF 		bl	__aeabi_dsub
 2300              	.LVL230:
 2301 05b2 FFF7FEFF 		bl	__aeabi_d2f
 2302              	.LVL231:
 2303 05b6 0446     		mov	r4, r0
 2304 05b8 864B     		ldr	r3, .L225+44
 2305 05ba 1860     		str	r0, [r3]	@ float
 402:main.c        ****             derivativo_ant=Derivativo*4;
 2306              		.loc 1 402 0
 2307 05bc 8649     		ldr	r1, .L225+48
 2308 05be FFF7FEFF 		bl	__aeabi_fcmpge
 2309              	.LVL232:
 2310 05c2 0028     		cmp	r0, #0
 2311 05c4 73D0     		beq	.L117
 402:main.c        ****             derivativo_ant=Derivativo*4;
 2312              		.loc 1 402 0 is_stmt 0 discriminator 1
 2313 05c6 854B     		ldr	r3, .L225+52
ARM GAS  C:\Users\USUARIO\AppData\Local\Temp\ccUv4o23.s 			page 67


 2314 05c8 D3F80090 		ldr	r9, [r3]	@ float
 2315 05cc 4846     		mov	r0, r9
 2316 05ce FFF7FEFF 		bl	__aeabi_f2d
 2317              	.LVL233:
 2318 05d2 0646     		mov	r6, r0
 2319 05d4 0F46     		mov	r7, r1
 2320 05d6 74A3     		adr	r3, .L225
 2321 05d8 D3E90023 		ldrd	r2, [r3]
 2322 05dc FFF7FEFF 		bl	__aeabi_dcmple
 2323              	.LVL234:
 2324 05e0 0028     		cmp	r0, #0
 2325 05e2 64D0     		beq	.L117
 403:main.c        ****             flag_ajuste=0;
 2326              		.loc 1 403 0 is_stmt 1
 2327 05e4 7E4B     		ldr	r3, .L225+56
 2328 05e6 93F80080 		ldrb	r8, [r3]	@ zero_extendqisi2
 2329 05ea 4FEA8808 		lsl	r8, r8, #2
 2330 05ee 7D4B     		ldr	r3, .L225+60
 2331 05f0 A3F80080 		strh	r8, [r3]	@ movhi
 404:main.c        ****             flag_ajuste2=0;
 2332              		.loc 1 404 0
 2333 05f4 0023     		movs	r3, #0
 2334 05f6 7C4A     		ldr	r2, .L225+64
 2335 05f8 1380     		strh	r3, [r2]	@ movhi
 405:main.c        ****             Ajusto=10;
 2336              		.loc 1 405 0
 2337 05fa 7C4A     		ldr	r2, .L225+68
 2338 05fc 1380     		strh	r3, [r2]	@ movhi
 406:main.c        ****             if(Potencia<90.0){
 2339              		.loc 1 406 0
 2340 05fe 0A22     		movs	r2, #10
 2341 0600 7B4B     		ldr	r3, .L225+72
 2342 0602 1A70     		strb	r2, [r3]
 407:main.c        ****                 if(TiempoControl>=derivativo_ant){
 2343              		.loc 1 407 0
 2344 0604 7B49     		ldr	r1, .L225+76
 2345 0606 7C4B     		ldr	r3, .L225+80
 2346 0608 1868     		ldr	r0, [r3]	@ float
 2347 060a FFF7FEFF 		bl	__aeabi_fcmplt
 2348              	.LVL235:
 2349 060e 0028     		cmp	r0, #0
 2350 0610 00F0A081 		beq	.L120
 408:main.c        ****                     TiempoControl=0;
 2351              		.loc 1 408 0
 2352 0614 794B     		ldr	r3, .L225+84
 2353 0616 1B88     		ldrh	r3, [r3]
 2354 0618 9845     		cmp	r8, r3
 2355 061a 00F29B81 		bhi	.L120
 409:main.c        ****                     if(Aumento<-0.5){
 2356              		.loc 1 409 0
 2357 061e 0022     		movs	r2, #0
 2358 0620 764B     		ldr	r3, .L225+84
 2359 0622 1A80     		strh	r2, [r3]	@ movhi
 410:main.c        ****                         Ganancia+=Integral;//2
 2360              		.loc 1 410 0
 2361 0624 4FF03F41 		mov	r1, #-1090519040
 2362 0628 4846     		mov	r0, r9
ARM GAS  C:\Users\USUARIO\AppData\Local\Temp\ccUv4o23.s 			page 68


 2363 062a FFF7FEFF 		bl	__aeabi_fcmplt
 2364              	.LVL236:
 2365 062e 48B1     		cbz	r0, .L214
 411:main.c        ****                     }else{
 2366              		.loc 1 411 0
 2367 0630 734E     		ldr	r6, .L225+88
 2368 0632 744B     		ldr	r3, .L225+92
 2369 0634 1878     		ldrb	r0, [r3]	@ zero_extendqisi2
 2370 0636 FFF7FEFF 		bl	__aeabi_i2f
 2371              	.LVL237:
 2372 063a 3168     		ldr	r1, [r6]	@ float
 2373 063c FFF7FEFF 		bl	__aeabi_fadd
 2374              	.LVL238:
 2375 0640 3060     		str	r0, [r6]	@ float
 2376 0642 87E1     		b	.L120
 2377              	.L214:
 413:main.c        ****                             Ganancia+=Integral*0.5;//1
 2378              		.loc 1 413 0
 2379 0644 5AA3     		adr	r3, .L225+8
 2380 0646 D3E90023 		ldrd	r2, [r3]
 2381 064a 3046     		mov	r0, r6
 2382 064c 3946     		mov	r1, r7
 2383 064e FFF7FEFF 		bl	__aeabi_dcmplt
 2384              	.LVL239:
 2385 0652 A8B1     		cbz	r0, .L215
 414:main.c        ****                         else
 2386              		.loc 1 414 0
 2387 0654 6B4B     		ldr	r3, .L225+92
 2388 0656 1878     		ldrb	r0, [r3]	@ zero_extendqisi2
 2389 0658 FFF7FEFF 		bl	__aeabi_i2d
 2390              	.LVL240:
 2391 065c 0022     		movs	r2, #0
 2392 065e 5B4B     		ldr	r3, .L225+36
 2393 0660 FFF7FEFF 		bl	__aeabi_dmul
 2394              	.LVL241:
 2395 0664 8046     		mov	r8, r0
 2396 0666 8946     		mov	r9, r1
 2397 0668 654E     		ldr	r6, .L225+88
 2398 066a 3068     		ldr	r0, [r6]	@ float
 2399 066c FFF7FEFF 		bl	__aeabi_f2d
 2400              	.LVL242:
 2401 0670 4246     		mov	r2, r8
 2402 0672 4B46     		mov	r3, r9
 2403 0674 FFF7FEFF 		bl	__aeabi_dadd
 2404              	.LVL243:
 2405 0678 FFF7FEFF 		bl	__aeabi_d2f
 2406              	.LVL244:
 2407 067c 3060     		str	r0, [r6]	@ float
 2408 067e 69E1     		b	.L120
 2409              	.L215:
 416:main.c        ****                     }
 2410              		.loc 1 416 0
 2411 0680 604B     		ldr	r3, .L225+92
 2412 0682 1878     		ldrb	r0, [r3]	@ zero_extendqisi2
 2413 0684 FFF7FEFF 		bl	__aeabi_i2d
 2414              	.LVL245:
 2415 0688 4BA3     		adr	r3, .L225+16
ARM GAS  C:\Users\USUARIO\AppData\Local\Temp\ccUv4o23.s 			page 69


 2416 068a D3E90023 		ldrd	r2, [r3]
 2417 068e FFF7FEFF 		bl	__aeabi_dmul
 2418              	.LVL246:
 2419 0692 8046     		mov	r8, r0
 2420 0694 8946     		mov	r9, r1
 2421 0696 5A4E     		ldr	r6, .L225+88
 2422 0698 3068     		ldr	r0, [r6]	@ float
 2423 069a FFF7FEFF 		bl	__aeabi_f2d
 2424              	.LVL247:
 2425 069e 4246     		mov	r2, r8
 2426 06a0 4B46     		mov	r3, r9
 2427 06a2 FFF7FEFF 		bl	__aeabi_dadd
 2428              	.LVL248:
 2429 06a6 FFF7FEFF 		bl	__aeabi_d2f
 2430              	.LVL249:
 2431 06aa 3060     		str	r0, [r6]	@ float
 2432 06ac 52E1     		b	.L120
 2433              	.L117:
 420:main.c        ****             derivativo_ant=Derivativo*3;
 2434              		.loc 1 420 0
 2435 06ae 5649     		ldr	r1, .L225+96
 2436 06b0 2046     		mov	r0, r4
 2437 06b2 FFF7FEFF 		bl	__aeabi_fcmpge
 2438              	.LVL250:
 2439 06b6 0028     		cmp	r0, #0
 2440 06b8 00F0AA80 		beq	.L126
 420:main.c        ****             derivativo_ant=Derivativo*3;
 2441              		.loc 1 420 0 is_stmt 0 discriminator 1
 2442 06bc 4649     		ldr	r1, .L225+48
 2443 06be 2046     		mov	r0, r4
 2444 06c0 FFF7FEFF 		bl	__aeabi_fcmplt
 2445              	.LVL251:
 2446 06c4 0028     		cmp	r0, #0
 2447 06c6 00F0A380 		beq	.L126
 420:main.c        ****             derivativo_ant=Derivativo*3;
 2448              		.loc 1 420 0 discriminator 2
 2449 06ca 444B     		ldr	r3, .L225+52
 2450 06cc 1F68     		ldr	r7, [r3]	@ float
 2451 06ce 4FF07C51 		mov	r1, #1056964608
 2452 06d2 3846     		mov	r0, r7
 2453 06d4 FFF7FEFF 		bl	__aeabi_fcmple
 2454              	.LVL252:
 2455 06d8 0028     		cmp	r0, #0
 2456 06da 00F09980 		beq	.L126
 421:main.c        ****             flag_ajuste=0;
 2457              		.loc 1 421 0 is_stmt 1
 2458 06de 404B     		ldr	r3, .L225+56
 2459 06e0 1B78     		ldrb	r3, [r3]	@ zero_extendqisi2
 2460 06e2 03EB4306 		add	r6, r3, r3, lsl #1
 2461 06e6 3F4B     		ldr	r3, .L225+60
 2462 06e8 1E80     		strh	r6, [r3]	@ movhi
 422:main.c        ****             flag_ajuste2=0;
 2463              		.loc 1 422 0
 2464 06ea 0023     		movs	r3, #0
 2465 06ec 3E4A     		ldr	r2, .L225+64
 2466 06ee 1380     		strh	r3, [r2]	@ movhi
 423:main.c        ****             Ajusto=10;
ARM GAS  C:\Users\USUARIO\AppData\Local\Temp\ccUv4o23.s 			page 70


 2467              		.loc 1 423 0
 2468 06f0 3E4A     		ldr	r2, .L225+68
 2469 06f2 1380     		strh	r3, [r2]	@ movhi
 424:main.c        ****             if(Potencia<70.0){
 2470              		.loc 1 424 0
 2471 06f4 0A22     		movs	r2, #10
 2472 06f6 3E4B     		ldr	r3, .L225+72
 2473 06f8 1A70     		strb	r2, [r3]
 425:main.c        ****                 if(TiempoControl>=derivativo_ant){//80
 2474              		.loc 1 425 0
 2475 06fa 4449     		ldr	r1, .L225+100
 2476 06fc 3E4B     		ldr	r3, .L225+80
 2477 06fe 1868     		ldr	r0, [r3]	@ float
 2478 0700 FFF7FEFF 		bl	__aeabi_fcmplt
 2479              	.LVL253:
 2480 0704 0028     		cmp	r0, #0
 2481 0706 00F02581 		beq	.L120
 426:main.c        ****                     TiempoControl=0;
 2482              		.loc 1 426 0
 2483 070a 3C4B     		ldr	r3, .L225+84
 2484 070c 1B88     		ldrh	r3, [r3]
 2485 070e 9E42     		cmp	r6, r3
 2486 0710 00F22081 		bhi	.L120
 427:main.c        ****                     if(Aumento<-0.5){
 2487              		.loc 1 427 0
 2488 0714 0022     		movs	r2, #0
 2489 0716 394B     		ldr	r3, .L225+84
 2490 0718 1A80     		strh	r2, [r3]	@ movhi
 428:main.c        ****                         Ganancia+=Integral;//2
 2491              		.loc 1 428 0
 2492 071a 4FF03F41 		mov	r1, #-1090519040
 2493 071e 3846     		mov	r0, r7
 2494 0720 FFF7FEFF 		bl	__aeabi_fcmplt
 2495              	.LVL254:
 2496 0724 48B1     		cbz	r0, .L216
 429:main.c        ****                     }else{
 2497              		.loc 1 429 0
 2498 0726 364E     		ldr	r6, .L225+88
 2499 0728 364B     		ldr	r3, .L225+92
 2500 072a 1878     		ldrb	r0, [r3]	@ zero_extendqisi2
 2501 072c FFF7FEFF 		bl	__aeabi_i2f
 2502              	.LVL255:
 2503 0730 3168     		ldr	r1, [r6]	@ float
 2504 0732 FFF7FEFF 		bl	__aeabi_fadd
 2505              	.LVL256:
 2506 0736 3060     		str	r0, [r6]	@ float
 2507 0738 0CE1     		b	.L120
 2508              	.L216:
 431:main.c        ****                             Ganancia+=Integral*0.3;//1
 2509              		.loc 1 431 0
 2510 073a 3846     		mov	r0, r7
 2511 073c FFF7FEFF 		bl	__aeabi_f2d
 2512              	.LVL257:
 2513 0740 1BA3     		adr	r3, .L225+8
 2514 0742 D3E90023 		ldrd	r2, [r3]
 2515 0746 FFF7FEFF 		bl	__aeabi_dcmplt
 2516              	.LVL258:
ARM GAS  C:\Users\USUARIO\AppData\Local\Temp\ccUv4o23.s 			page 71


 2517 074a B0B1     		cbz	r0, .L217
 432:main.c        ****                         else
 2518              		.loc 1 432 0
 2519 074c 2D4B     		ldr	r3, .L225+92
 2520 074e 1878     		ldrb	r0, [r3]	@ zero_extendqisi2
 2521 0750 FFF7FEFF 		bl	__aeabi_i2d
 2522              	.LVL259:
 2523 0754 18A3     		adr	r3, .L225+16
 2524 0756 D3E90023 		ldrd	r2, [r3]
 2525 075a FFF7FEFF 		bl	__aeabi_dmul
 2526              	.LVL260:
 2527 075e 8046     		mov	r8, r0
 2528 0760 8946     		mov	r9, r1
 2529 0762 274E     		ldr	r6, .L225+88
 2530 0764 3068     		ldr	r0, [r6]	@ float
 2531 0766 FFF7FEFF 		bl	__aeabi_f2d
 2532              	.LVL261:
 2533 076a 4246     		mov	r2, r8
 2534 076c 4B46     		mov	r3, r9
 2535 076e FFF7FEFF 		bl	__aeabi_dadd
 2536              	.LVL262:
 2537 0772 FFF7FEFF 		bl	__aeabi_d2f
 2538              	.LVL263:
 2539 0776 3060     		str	r0, [r6]	@ float
 2540 0778 ECE0     		b	.L120
 2541              	.L217:
 434:main.c        ****                     }
 2542              		.loc 1 434 0
 2543 077a 224B     		ldr	r3, .L225+92
 2544 077c 1878     		ldrb	r0, [r3]	@ zero_extendqisi2
 2545 077e FFF7FEFF 		bl	__aeabi_i2d
 2546              	.LVL264:
 2547 0782 0FA3     		adr	r3, .L225+24
 2548 0784 D3E90023 		ldrd	r2, [r3]
 2549 0788 FFF7FEFF 		bl	__aeabi_dmul
 2550              	.LVL265:
 2551 078c 8046     		mov	r8, r0
 2552 078e 8946     		mov	r9, r1
 2553 0790 1B4E     		ldr	r6, .L225+88
 2554 0792 3068     		ldr	r0, [r6]	@ float
 2555 0794 FFF7FEFF 		bl	__aeabi_f2d
 2556              	.LVL266:
 2557 0798 4246     		mov	r2, r8
 2558 079a 4B46     		mov	r3, r9
 2559 079c FFF7FEFF 		bl	__aeabi_dadd
 2560              	.LVL267:
 2561 07a0 FFF7FEFF 		bl	__aeabi_d2f
 2562              	.LVL268:
 2563 07a4 3060     		str	r0, [r6]	@ float
 2564 07a6 D5E0     		b	.L120
 2565              	.L226:
 2566              		.align	3
 2567              	.L225:
 2568 07a8 66666666 		.word	1717986918
 2569 07ac 6666E63F 		.word	1072064102
 2570 07b0 9A999999 		.word	-1717986918
 2571 07b4 9999B9BF 		.word	-1078355559
ARM GAS  C:\Users\USUARIO\AppData\Local\Temp\ccUv4o23.s 			page 72


 2572 07b8 33333333 		.word	858993459
 2573 07bc 3333D33F 		.word	1070805811
 2574 07c0 9A999999 		.word	-1717986918
 2575 07c4 9999B93F 		.word	1069128089
 2576 07c8 00000000 		.word	Setpoint
 2577 07cc 0000E03F 		.word	1071644672
 2578 07d0 00000000 		.word	Temperatura
 2579 07d4 00000000 		.word	error
 2580 07d8 0000A041 		.word	1101004800
 2581 07dc 00000000 		.word	Aumento
 2582 07e0 00000000 		.word	Derivativo
 2583 07e4 00000000 		.word	derivativo_ant
 2584 07e8 00000000 		.word	flag_ajuste
 2585 07ec 00000000 		.word	flag_ajuste2
 2586 07f0 00000000 		.word	Ajusto
 2587 07f4 0000B442 		.word	1119092736
 2588 07f8 00000000 		.word	Potencia
 2589 07fc 00000000 		.word	TiempoControl
 2590 0800 00000000 		.word	Ganancia
 2591 0804 00000000 		.word	Integral
 2592 0808 0000C040 		.word	1086324736
 2593 080c 00008C42 		.word	1116471296
 2594              	.L126:
 438:main.c        ****             derivativo_ant=Derivativo*2;
 2595              		.loc 1 438 0
 2596 0810 4FF07E51 		mov	r1, #1065353216
 2597 0814 2046     		mov	r0, r4
 2598 0816 FFF7FEFF 		bl	__aeabi_fcmpge
 2599              	.LVL269:
 2600 081a 0028     		cmp	r0, #0
 2601 081c 00F09A80 		beq	.L120
 438:main.c        ****             derivativo_ant=Derivativo*2;
 2602              		.loc 1 438 0 is_stmt 0 discriminator 1
 2603 0820 3549     		ldr	r1, .L227+16
 2604 0822 2046     		mov	r0, r4
 2605 0824 FFF7FEFF 		bl	__aeabi_fcmplt
 2606              	.LVL270:
 2607 0828 0028     		cmp	r0, #0
 2608 082a 00F09380 		beq	.L120
 438:main.c        ****             derivativo_ant=Derivativo*2;
 2609              		.loc 1 438 0 discriminator 2
 2610 082e 334B     		ldr	r3, .L227+20
 2611 0830 1F68     		ldr	r7, [r3]	@ float
 2612 0832 3846     		mov	r0, r7
 2613 0834 FFF7FEFF 		bl	__aeabi_f2d
 2614              	.LVL271:
 2615 0838 8046     		mov	r8, r0
 2616 083a 8946     		mov	r9, r1
 2617 083c 2AA3     		adr	r3, .L227
 2618 083e D3E90023 		ldrd	r2, [r3]
 2619 0842 FFF7FEFF 		bl	__aeabi_dcmple
 2620              	.LVL272:
 2621 0846 0028     		cmp	r0, #0
 2622 0848 00F08480 		beq	.L120
 439:main.c        ****             flag_ajuste=0;
 2623              		.loc 1 439 0 is_stmt 1
 2624 084c 2C4B     		ldr	r3, .L227+24
ARM GAS  C:\Users\USUARIO\AppData\Local\Temp\ccUv4o23.s 			page 73


 2625 084e 1E78     		ldrb	r6, [r3]	@ zero_extendqisi2
 2626 0850 7600     		lsls	r6, r6, #1
 2627 0852 2C4B     		ldr	r3, .L227+28
 2628 0854 1E80     		strh	r6, [r3]	@ movhi
 440:main.c        ****             flag_ajuste2=0;
 2629              		.loc 1 440 0
 2630 0856 0023     		movs	r3, #0
 2631 0858 2B4A     		ldr	r2, .L227+32
 2632 085a 1380     		strh	r3, [r2]	@ movhi
 441:main.c        ****             Ajusto=10;
 2633              		.loc 1 441 0
 2634 085c 2B4A     		ldr	r2, .L227+36
 2635 085e 1380     		strh	r3, [r2]	@ movhi
 442:main.c        ****             if(Potencia<50.0){
 2636              		.loc 1 442 0
 2637 0860 0A22     		movs	r2, #10
 2638 0862 2B4B     		ldr	r3, .L227+40
 2639 0864 1A70     		strb	r2, [r3]
 443:main.c        ****                 if(TiempoControl>=derivativo_ant){//80
 2640              		.loc 1 443 0
 2641 0866 2B49     		ldr	r1, .L227+44
 2642 0868 2B4B     		ldr	r3, .L227+48
 2643 086a 1868     		ldr	r0, [r3]	@ float
 2644 086c FFF7FEFF 		bl	__aeabi_fcmplt
 2645              	.LVL273:
 2646 0870 0028     		cmp	r0, #0
 2647 0872 6FD0     		beq	.L120
 444:main.c        ****                     TiempoControl=0;
 2648              		.loc 1 444 0
 2649 0874 294B     		ldr	r3, .L227+52
 2650 0876 1B88     		ldrh	r3, [r3]
 2651 0878 9E42     		cmp	r6, r3
 2652 087a 6BD8     		bhi	.L120
 445:main.c        ****                     if(Aumento<-0.5){
 2653              		.loc 1 445 0
 2654 087c 0022     		movs	r2, #0
 2655 087e 274B     		ldr	r3, .L227+52
 2656 0880 1A80     		strh	r2, [r3]	@ movhi
 446:main.c        ****                         Ganancia+=Integral;//2
 2657              		.loc 1 446 0
 2658 0882 4FF03F41 		mov	r1, #-1090519040
 2659 0886 3846     		mov	r0, r7
 2660 0888 FFF7FEFF 		bl	__aeabi_fcmplt
 2661              	.LVL274:
 2662 088c 48B1     		cbz	r0, .L218
 447:main.c        ****                     }else{
 2663              		.loc 1 447 0
 2664 088e 244E     		ldr	r6, .L227+56
 2665 0890 244B     		ldr	r3, .L227+60
 2666 0892 1878     		ldrb	r0, [r3]	@ zero_extendqisi2
 2667 0894 FFF7FEFF 		bl	__aeabi_i2f
 2668              	.LVL275:
 2669 0898 3168     		ldr	r1, [r6]	@ float
 2670 089a FFF7FEFF 		bl	__aeabi_fadd
 2671              	.LVL276:
 2672 089e 3060     		str	r0, [r6]	@ float
 2673 08a0 58E0     		b	.L120
ARM GAS  C:\Users\USUARIO\AppData\Local\Temp\ccUv4o23.s 			page 74


 2674              	.L218:
 449:main.c        ****                             Ganancia+=Integral*0.3;//1
 2675              		.loc 1 449 0
 2676 08a2 13A3     		adr	r3, .L227+8
 2677 08a4 D3E90023 		ldrd	r2, [r3]
 2678 08a8 4046     		mov	r0, r8
 2679 08aa 4946     		mov	r1, r9
 2680 08ac FFF7FEFF 		bl	__aeabi_dcmplt
 2681              	.LVL277:
 2682 08b0 0028     		cmp	r0, #0
 2683 08b2 39D0     		beq	.L219
 450:main.c        ****                         else
 2684              		.loc 1 450 0
 2685 08b4 1B4B     		ldr	r3, .L227+60
 2686 08b6 1878     		ldrb	r0, [r3]	@ zero_extendqisi2
 2687 08b8 FFF7FEFF 		bl	__aeabi_i2d
 2688              	.LVL278:
 2689 08bc 0AA3     		adr	r3, .L227
 2690 08be D3E90023 		ldrd	r2, [r3]
 2691 08c2 FFF7FEFF 		bl	__aeabi_dmul
 2692              	.LVL279:
 2693 08c6 8046     		mov	r8, r0
 2694 08c8 8946     		mov	r9, r1
 2695 08ca 154E     		ldr	r6, .L227+56
 2696 08cc 3068     		ldr	r0, [r6]	@ float
 2697 08ce FFF7FEFF 		bl	__aeabi_f2d
 2698              	.LVL280:
 2699 08d2 4246     		mov	r2, r8
 2700 08d4 4B46     		mov	r3, r9
 2701 08d6 FFF7FEFF 		bl	__aeabi_dadd
 2702              	.LVL281:
 2703 08da FFF7FEFF 		bl	__aeabi_d2f
 2704              	.LVL282:
 2705 08de 3060     		str	r0, [r6]	@ float
 2706 08e0 38E0     		b	.L120
 2707              	.L228:
 2708 08e2 00BFAFF3 		.align	3
 2708      0080
 2709              	.L227:
 2710 08e8 33333333 		.word	858993459
 2711 08ec 3333D33F 		.word	1070805811
 2712 08f0 9A999999 		.word	-1717986918
 2713 08f4 9999B9BF 		.word	-1078355559
 2714 08f8 00002041 		.word	1092616192
 2715 08fc 00000000 		.word	Aumento
 2716 0900 00000000 		.word	Derivativo
 2717 0904 00000000 		.word	derivativo_ant
 2718 0908 00000000 		.word	flag_ajuste
 2719 090c 00000000 		.word	flag_ajuste2
 2720 0910 00000000 		.word	Ajusto
 2721 0914 00004842 		.word	1112014848
 2722 0918 00000000 		.word	Potencia
 2723 091c 00000000 		.word	TiempoControl
 2724 0920 00000000 		.word	Ganancia
 2725 0924 00000000 		.word	Integral
 2726              	.L219:
 452:main.c        ****                     }
ARM GAS  C:\Users\USUARIO\AppData\Local\Temp\ccUv4o23.s 			page 75


 2727              		.loc 1 452 0
 2728 0928 774B     		ldr	r3, .L229+32
 2729 092a 1878     		ldrb	r0, [r3]	@ zero_extendqisi2
 2730 092c FFF7FEFF 		bl	__aeabi_i2d
 2731              	.LVL283:
 2732 0930 6DA3     		adr	r3, .L229
 2733 0932 D3E90023 		ldrd	r2, [r3]
 2734 0936 FFF7FEFF 		bl	__aeabi_dmul
 2735              	.LVL284:
 2736 093a 8046     		mov	r8, r0
 2737 093c 8946     		mov	r9, r1
 2738 093e 734E     		ldr	r6, .L229+36
 2739 0940 3068     		ldr	r0, [r6]	@ float
 2740 0942 FFF7FEFF 		bl	__aeabi_f2d
 2741              	.LVL285:
 2742 0946 4246     		mov	r2, r8
 2743 0948 4B46     		mov	r3, r9
 2744 094a FFF7FEFF 		bl	__aeabi_dadd
 2745              	.LVL286:
 2746 094e FFF7FEFF 		bl	__aeabi_d2f
 2747              	.LVL287:
 2748 0952 3060     		str	r0, [r6]	@ float
 2749              	.L120:
 458:main.c        ****             Ganancia=GananciaR*(Setpoint/200);
 2750              		.loc 1 458 0
 2751 0954 0021     		movs	r1, #0
 2752 0956 2046     		mov	r0, r4
 2753 0958 FFF7FEFF 		bl	__aeabi_fcmplt
 2754              	.LVL288:
 2755 095c 68B1     		cbz	r0, .L143
 459:main.c        ****             //flag_ajuste=0;
 2756              		.loc 1 459 0
 2757 095e 6C49     		ldr	r1, .L229+40
 2758 0960 2846     		mov	r0, r5
 2759 0962 FFF7FEFF 		bl	__aeabi_fdiv
 2760              	.LVL289:
 2761 0966 0646     		mov	r6, r0
 2762 0968 6A4B     		ldr	r3, .L229+44
 2763 096a 1878     		ldrb	r0, [r3]	@ zero_extendqisi2
 2764 096c FFF7FEFF 		bl	__aeabi_i2f
 2765              	.LVL290:
 2766 0970 3146     		mov	r1, r6
 2767 0972 FFF7FEFF 		bl	__aeabi_fmul
 2768              	.LVL291:
 2769 0976 654B     		ldr	r3, .L229+36
 2770 0978 1860     		str	r0, [r3]	@ float
 2771              	.L143:
 464:main.c        ****             Ganancia=0.1;
 2772              		.loc 1 464 0
 2773 097a 644B     		ldr	r3, .L229+36
 2774 097c 1868     		ldr	r0, [r3]	@ float
 2775 097e FFF7FEFF 		bl	__aeabi_f2d
 2776              	.LVL292:
 2777 0982 59A3     		adr	r3, .L229
 2778 0984 D3E90023 		ldrd	r2, [r3]
 2779 0988 FFF7FEFF 		bl	__aeabi_dcmplt
 2780              	.LVL293:
ARM GAS  C:\Users\USUARIO\AppData\Local\Temp\ccUv4o23.s 			page 76


 2781 098c 10B1     		cbz	r0, .L145
 465:main.c        ****          }
 2782              		.loc 1 465 0
 2783 098e 624A     		ldr	r2, .L229+48
 2784 0990 5E4B     		ldr	r3, .L229+36
 2785 0992 1A60     		str	r2, [r3]	@ float
 2786              	.L145:
 468:main.c        ****             error=0.0;
 2787              		.loc 1 468 0
 2788 0994 0021     		movs	r1, #0
 2789 0996 2046     		mov	r0, r4
 2790 0998 FFF7FEFF 		bl	__aeabi_fcmplt
 2791              	.LVL294:
 2792 099c 10B1     		cbz	r0, .L147
 469:main.c        ****          
 2793              		.loc 1 469 0
 2794 099e 0022     		movs	r2, #0
 2795 09a0 5E4B     		ldr	r3, .L229+52
 2796 09a2 1A60     		str	r2, [r3]	@ float
 2797              	.L147:
 472:main.c        ****                
 2798              		.loc 1 472 0
 2799 09a4 5D4B     		ldr	r3, .L229+52
 2800 09a6 1E68     		ldr	r6, [r3]	@ float
 2801 09a8 584B     		ldr	r3, .L229+36
 2802 09aa 1968     		ldr	r1, [r3]	@ float
 2803 09ac 3046     		mov	r0, r6
 2804 09ae FFF7FEFF 		bl	__aeabi_fmul
 2805              	.LVL295:
 2806 09b2 0446     		mov	r4, r0
 2807              	.LVL296:
 474:main.c        ****             tmp=Setpoint;
 2808              		.loc 1 474 0
 2809 09b4 0146     		mov	r1, r0
 2810 09b6 2846     		mov	r0, r5
 2811              	.LVL297:
 2812 09b8 FFF7FEFF 		bl	__aeabi_fcmplt
 2813              	.LVL298:
 2814 09bc 00B1     		cbz	r0, .L149
 475:main.c        ****                      
 2815              		.loc 1 475 0
 2816 09be 2C46     		mov	r4, r5
 2817              	.LVL299:
 2818              	.L149:
 477:main.c        ****             tmp=0.0;
 2819              		.loc 1 477 0
 2820 09c0 0021     		movs	r1, #0
 2821 09c2 2046     		mov	r0, r4
 2822 09c4 FFF7FEFF 		bl	__aeabi_fcmplt
 2823              	.LVL300:
 2824 09c8 00B1     		cbz	r0, .L150
 478:main.c        ****       
 2825              		.loc 1 478 0
 2826 09ca 0024     		movs	r4, #0
 2827              	.LVL301:
 2828              	.L150:
 480:main.c        ****          if(error<desvio+0.5 && error>0){
ARM GAS  C:\Users\USUARIO\AppData\Local\Temp\ccUv4o23.s 			page 77


 2829              		.loc 1 480 0
 2830 09cc 2946     		mov	r1, r5
 2831 09ce 2046     		mov	r0, r4
 2832 09d0 FFF7FEFF 		bl	__aeabi_fdiv
 2833              	.LVL302:
 2834 09d4 0446     		mov	r4, r0
 2835              	.LVL303:
 2836 09d6 524B     		ldr	r3, .L229+56
 2837 09d8 1878     		ldrb	r0, [r3]	@ zero_extendqisi2
 2838 09da FFF7FEFF 		bl	__aeabi_i2f
 2839              	.LVL304:
 2840 09de 2146     		mov	r1, r4
 2841 09e0 FFF7FEFF 		bl	__aeabi_fmul
 2842              	.LVL305:
 2843 09e4 0446     		mov	r4, r0
 2844 09e6 4F4B     		ldr	r3, .L229+60
 2845 09e8 1860     		str	r0, [r3]	@ float
 481:main.c        ****             if(error<=desvio+0.1 && error>0){   
 2846              		.loc 1 481 0
 2847 09ea 4FF07E51 		mov	r1, #1065353216
 2848 09ee 3046     		mov	r0, r6
 2849 09f0 FFF7FEFF 		bl	__aeabi_fcmplt
 2850              	.LVL306:
 2851 09f4 0028     		cmp	r0, #0
 2852 09f6 57D0     		beq	.L101
 481:main.c        ****             if(error<=desvio+0.1 && error>0){   
 2853              		.loc 1 481 0 is_stmt 0 discriminator 1
 2854 09f8 0021     		movs	r1, #0
 2855 09fa 3046     		mov	r0, r6
 2856 09fc FFF7FEFF 		bl	__aeabi_fcmpgt
 2857              	.LVL307:
 2858 0a00 0028     		cmp	r0, #0
 2859 0a02 51D0     		beq	.L101
 482:main.c        ****                 if(flag_ajuste==0){
 2860              		.loc 1 482 0 is_stmt 1
 2861 0a04 3046     		mov	r0, r6
 2862 0a06 FFF7FEFF 		bl	__aeabi_f2d
 2863              	.LVL308:
 2864 0a0a 8046     		mov	r8, r0
 2865 0a0c 8946     		mov	r9, r1
 2866 0a0e 38A3     		adr	r3, .L229+8
 2867 0a10 D3E90023 		ldrd	r2, [r3]
 2868 0a14 FFF7FEFF 		bl	__aeabi_dcmple
 2869              	.LVL309:
 2870 0a18 80B1     		cbz	r0, .L153
 482:main.c        ****                 if(flag_ajuste==0){
 2871              		.loc 1 482 0 is_stmt 0 discriminator 1
 2872 0a1a 0021     		movs	r1, #0
 2873 0a1c 3046     		mov	r0, r6
 2874 0a1e FFF7FEFF 		bl	__aeabi_fcmpgt
 2875              	.LVL310:
 2876 0a22 58B1     		cbz	r0, .L153
 483:main.c        ****                     TpulsoMax=Tpulso;
 2877              		.loc 1 483 0 is_stmt 1
 2878 0a24 404B     		ldr	r3, .L229+64
 2879 0a26 B3F90030 		ldrsh	r3, [r3]
 2880 0a2a 3BB9     		cbnz	r3, .L153
ARM GAS  C:\Users\USUARIO\AppData\Local\Temp\ccUv4o23.s 			page 78


 484:main.c        ****                     flag_ajuste=1;  
 2881              		.loc 1 484 0
 2882 0a2c 3F4B     		ldr	r3, .L229+68
 2883 0a2e 1C60     		str	r4, [r3]	@ float
 485:main.c        ****                     Ajusto=5;
 2884              		.loc 1 485 0
 2885 0a30 0122     		movs	r2, #1
 2886 0a32 3D4B     		ldr	r3, .L229+64
 2887 0a34 1A80     		strh	r2, [r3]	@ movhi
 486:main.c        ****                 }
 2888              		.loc 1 486 0
 2889 0a36 0522     		movs	r2, #5
 2890 0a38 3D4B     		ldr	r3, .L229+72
 2891 0a3a 1A70     		strb	r2, [r3]
 2892              	.L153:
 490:main.c        ****                 if(flag_ajuste2==0){
 2893              		.loc 1 490 0
 2894 0a3c 2EA3     		adr	r3, .L229+16
 2895 0a3e D3E90023 		ldrd	r2, [r3]
 2896 0a42 4046     		mov	r0, r8
 2897 0a44 4946     		mov	r1, r9
 2898 0a46 FFF7FEFF 		bl	__aeabi_dcmple
 2899              	.LVL311:
 2900 0a4a 80B1     		cbz	r0, .L156
 490:main.c        ****                 if(flag_ajuste2==0){
 2901              		.loc 1 490 0 is_stmt 0 discriminator 1
 2902 0a4c 0021     		movs	r1, #0
 2903 0a4e 3046     		mov	r0, r6
 2904 0a50 FFF7FEFF 		bl	__aeabi_fcmpgt
 2905              	.LVL312:
 2906 0a54 58B1     		cbz	r0, .L156
 491:main.c        ****                     Tpulsomin=Tpulso;
 2907              		.loc 1 491 0 is_stmt 1
 2908 0a56 374B     		ldr	r3, .L229+76
 2909 0a58 B3F90030 		ldrsh	r3, [r3]
 2910 0a5c 3BB9     		cbnz	r3, .L156
 492:main.c        ****                     flag_ajuste2=1;           
 2911              		.loc 1 492 0
 2912 0a5e 364B     		ldr	r3, .L229+80
 2913 0a60 1C60     		str	r4, [r3]	@ float
 493:main.c        ****                     Ajusto=5;
 2914              		.loc 1 493 0
 2915 0a62 0122     		movs	r2, #1
 2916 0a64 334B     		ldr	r3, .L229+76
 2917 0a66 1A80     		strh	r2, [r3]	@ movhi
 494:main.c        ****                 }
 2918              		.loc 1 494 0
 2919 0a68 0522     		movs	r2, #5
 2920 0a6a 314B     		ldr	r3, .L229+72
 2921 0a6c 1A70     		strb	r2, [r3]
 2922              	.L156:
 498:main.c        ****                 if(Tpulso<Tpulsomin)
 2923              		.loc 1 498 0
 2924 0a6e 314B     		ldr	r3, .L229+76
 2925 0a70 B3F90030 		ldrsh	r3, [r3]
 2926 0a74 012B     		cmp	r3, #1
 2927 0a76 08D1     		bne	.L159
ARM GAS  C:\Users\USUARIO\AppData\Local\Temp\ccUv4o23.s 			page 79


 499:main.c        ****                     Tpulso=Tpulsomin;
 2928              		.loc 1 499 0
 2929 0a78 2F4B     		ldr	r3, .L229+80
 2930 0a7a 1D68     		ldr	r5, [r3]	@ float
 2931 0a7c 2946     		mov	r1, r5
 2932 0a7e 2046     		mov	r0, r4
 2933 0a80 FFF7FEFF 		bl	__aeabi_fcmplt
 2934              	.LVL313:
 2935 0a84 08B1     		cbz	r0, .L159
 500:main.c        ****             }
 2936              		.loc 1 500 0
 2937 0a86 274B     		ldr	r3, .L229+60
 2938 0a88 1D60     		str	r5, [r3]	@ float
 2939              	.L159:
 502:main.c        ****                 if(Tpulso>TpulsoMax)
 2940              		.loc 1 502 0
 2941 0a8a 274B     		ldr	r3, .L229+64
 2942 0a8c B3F90030 		ldrsh	r3, [r3]
 2943 0a90 012B     		cmp	r3, #1
 2944 0a92 09D1     		bne	.L101
 503:main.c        ****                     Tpulso=TpulsoMax;
 2945              		.loc 1 503 0
 2946 0a94 254B     		ldr	r3, .L229+68
 2947 0a96 1C68     		ldr	r4, [r3]	@ float
 2948 0a98 2146     		mov	r1, r4
 2949 0a9a 224B     		ldr	r3, .L229+60
 2950 0a9c 1868     		ldr	r0, [r3]	@ float
 2951 0a9e FFF7FEFF 		bl	__aeabi_fcmpgt
 2952              	.LVL314:
 2953 0aa2 08B1     		cbz	r0, .L101
 504:main.c        ****             }
 2954              		.loc 1 504 0
 2955 0aa4 1F4B     		ldr	r3, .L229+60
 2956 0aa6 1C60     		str	r4, [r3]	@ float
 2957              	.L101:
 509:main.c        ****    Tc=(Tciclo/0.002);
 2958              		.loc 1 509 0
 2959 0aa8 1E4B     		ldr	r3, .L229+60
 2960 0aaa 1868     		ldr	r0, [r3]	@ float
 2961 0aac FFF7FEFF 		bl	__aeabi_f2d
 2962              	.LVL315:
 2963 0ab0 13A3     		adr	r3, .L229+24
 2964 0ab2 D3E90023 		ldrd	r2, [r3]
 2965 0ab6 FFF7FEFF 		bl	__aeabi_ddiv
 2966              	.LVL316:
 2967 0aba FFF7FEFF 		bl	__aeabi_d2uiz
 2968              	.LVL317:
 2969 0abe 1F4B     		ldr	r3, .L229+84
 2970 0ac0 1880     		strh	r0, [r3]	@ movhi
 510:main.c        ****    Control=1;     
 2971              		.loc 1 510 0
 2972 0ac2 174B     		ldr	r3, .L229+56
 2973 0ac4 1878     		ldrb	r0, [r3]	@ zero_extendqisi2
 2974 0ac6 FFF7FEFF 		bl	__aeabi_i2d
 2975              	.LVL318:
 2976 0aca 0DA3     		adr	r3, .L229+24
 2977 0acc D3E90023 		ldrd	r2, [r3]
ARM GAS  C:\Users\USUARIO\AppData\Local\Temp\ccUv4o23.s 			page 80


 2978 0ad0 FFF7FEFF 		bl	__aeabi_ddiv
 2979              	.LVL319:
 2980 0ad4 FFF7FEFF 		bl	__aeabi_d2uiz
 2981              	.LVL320:
 2982 0ad8 194B     		ldr	r3, .L229+88
 2983 0ada 1880     		strh	r0, [r3]	@ movhi
 511:main.c        **** //-------------------------------------------------------------------------------------------------
 2984              		.loc 1 511 0
 2985 0adc 0122     		movs	r2, #1
 2986 0ade 194B     		ldr	r3, .L229+92
 2987 0ae0 1A80     		strh	r2, [r3]	@ movhi
 2988 0ae2 BDE8F883 		pop	{r3, r4, r5, r6, r7, r8, r9, pc}
 2989              	.L230:
 2990 0ae6 00BF     		.align	3
 2991              	.L229:
 2992 0ae8 9A999999 		.word	-1717986918
 2993 0aec 9999B93F 		.word	1069128089
 2994 0af0 33333333 		.word	858993459
 2995 0af4 3333E33F 		.word	1071854387
 2996 0af8 98999999 		.word	-1717986920
 2997 0afc 9999B93F 		.word	1069128089
 2998 0b00 FCA9F1D2 		.word	-755914244
 2999 0b04 4D62603F 		.word	1063281229
 3000 0b08 00000000 		.word	Integral
 3001 0b0c 00000000 		.word	Ganancia
 3002 0b10 00004843 		.word	1128792064
 3003 0b14 00000000 		.word	GananciaR
 3004 0b18 CDCCCC3D 		.word	1036831949
 3005 0b1c 00000000 		.word	error
 3006 0b20 00000000 		.word	Tciclo
 3007 0b24 00000000 		.word	Tpulso
 3008 0b28 00000000 		.word	flag_ajuste
 3009 0b2c 00000000 		.word	TpulsoMax
 3010 0b30 00000000 		.word	Ajusto
 3011 0b34 00000000 		.word	flag_ajuste2
 3012 0b38 00000000 		.word	Tpulsomin
 3013 0b3c 00000000 		.word	Tp
 3014 0b40 00000000 		.word	Tc
 3015 0b44 00000000 		.word	Control
 3016              		.cfi_endproc
 3017              	.LFE67:
 3018              		.size	Controla, .-Controla
 3019              		.section	.text.CuentaTiempo,"ax",%progbits
 3020              		.align	2
 3021              		.global	CuentaTiempo
 3022              		.thumb
 3023              		.thumb_func
 3024              		.type	CuentaTiempo, %function
 3025              	CuentaTiempo:
 3026              	.LFB68:
 516:main.c        ****       if(tinicio>=60){
 3027              		.loc 1 516 0
 3028              		.cfi_startproc
 3029              		@ args = 0, pretend = 0, frame = 0
 3030              		@ frame_needed = 0, uses_anonymous_args = 0
 517:main.c        ****          tinicio=0;
 3031              		.loc 1 517 0
ARM GAS  C:\Users\USUARIO\AppData\Local\Temp\ccUv4o23.s 			page 81


 3032 0000 124B     		ldr	r3, .L235
 3033 0002 1B88     		ldrh	r3, [r3]
 3034 0004 3B2B     		cmp	r3, #59
 3035 0006 1FD9     		bls	.L234
 516:main.c        ****       if(tinicio>=60){
 3036              		.loc 1 516 0
 3037 0008 10B5     		push	{r4, lr}
 3038              		.cfi_def_cfa_offset 8
 3039              		.cfi_offset 4, -8
 3040              		.cfi_offset 14, -4
 518:main.c        ****          mEst+=1.0;
 3041              		.loc 1 518 0
 3042 000a 0022     		movs	r2, #0
 3043 000c 0F4B     		ldr	r3, .L235
 3044 000e 1A80     		strh	r2, [r3]	@ movhi
 519:main.c        ****          if(mEst>59){
 3045              		.loc 1 519 0
 3046 0010 0F4C     		ldr	r4, .L235+4
 3047 0012 2078     		ldrb	r0, [r4]	@ zero_extendqisi2
 3048 0014 FFF7FEFF 		bl	__aeabi_i2d
 3049              	.LVL321:
 3050 0018 0022     		movs	r2, #0
 3051 001a 0E4B     		ldr	r3, .L235+8
 3052 001c FFF7FEFF 		bl	__aeabi_dadd
 3053              	.LVL322:
 3054 0020 FFF7FEFF 		bl	__aeabi_d2uiz
 3055              	.LVL323:
 3056 0024 C0B2     		uxtb	r0, r0
 3057 0026 2070     		strb	r0, [r4]
 520:main.c        ****             mEst=0;
 3058              		.loc 1 520 0
 3059 0028 3B28     		cmp	r0, #59
 3060 002a 0CD9     		bls	.L231
 521:main.c        ****             hEst+=1.0;
 3061              		.loc 1 521 0
 3062 002c 0022     		movs	r2, #0
 3063 002e 2270     		strb	r2, [r4]
 522:main.c        ****          }
 3064              		.loc 1 522 0
 3065 0030 094C     		ldr	r4, .L235+12
 3066 0032 2078     		ldrb	r0, [r4]	@ zero_extendqisi2
 3067 0034 FFF7FEFF 		bl	__aeabi_i2d
 3068              	.LVL324:
 3069 0038 0022     		movs	r2, #0
 3070 003a 064B     		ldr	r3, .L235+8
 3071 003c FFF7FEFF 		bl	__aeabi_dadd
 3072              	.LVL325:
 3073 0040 FFF7FEFF 		bl	__aeabi_d2uiz
 3074              	.LVL326:
 3075 0044 2070     		strb	r0, [r4]
 3076              	.L231:
 3077 0046 10BD     		pop	{r4, pc}
 3078              	.L234:
 3079              		.cfi_def_cfa_offset 0
 3080              		.cfi_restore 4
 3081              		.cfi_restore 14
 3082 0048 7047     		bx	lr
ARM GAS  C:\Users\USUARIO\AppData\Local\Temp\ccUv4o23.s 			page 82


 3083              	.L236:
 3084 004a 00BF     		.align	2
 3085              	.L235:
 3086 004c 00000000 		.word	tinicio
 3087 0050 00000000 		.word	mEst
 3088 0054 0000F03F 		.word	1072693248
 3089 0058 00000000 		.word	hEst
 3090              		.cfi_endproc
 3091              	.LFE68:
 3092              		.size	CuentaTiempo, .-CuentaTiempo
 3093              		.section	.text.iniciaConteo,"ax",%progbits
 3094              		.align	2
 3095              		.global	iniciaConteo
 3096              		.thumb
 3097              		.thumb_func
 3098              		.type	iniciaConteo, %function
 3099              	iniciaConteo:
 3100              	.LFB69:
 527:main.c        ****    if(flagRampa && Pendiente!=0){
 3101              		.loc 1 527 0
 3102              		.cfi_startproc
 3103              		@ args = 0, pretend = 0, frame = 0
 3104              		@ frame_needed = 0, uses_anonymous_args = 0
 3105 0000 10B5     		push	{r4, lr}
 3106              		.cfi_def_cfa_offset 8
 3107              		.cfi_offset 4, -8
 3108              		.cfi_offset 14, -4
 528:main.c        ****       tiempo_esterilizacion=1;
 3109              		.loc 1 528 0
 3110 0002 314B     		ldr	r3, .L253
 3111 0004 B3F90040 		ldrsh	r4, [r3]
 3112 0008 4CB1     		cbz	r4, .L238
 528:main.c        ****       tiempo_esterilizacion=1;
 3113              		.loc 1 528 0 is_stmt 0 discriminator 1
 3114 000a 0021     		movs	r1, #0
 3115 000c 2F4B     		ldr	r3, .L253+4
 3116 000e 1868     		ldr	r0, [r3]	@ float
 3117 0010 FFF7FEFF 		bl	__aeabi_fcmpeq
 3118              	.LVL327:
 3119 0014 18B9     		cbnz	r0, .L238
 529:main.c        ****    }else if(flagRampa && Pendiente==0){
 3120              		.loc 1 529 0 is_stmt 1
 3121 0016 0122     		movs	r2, #1
 3122 0018 2D4B     		ldr	r3, .L253+8
 3123 001a 1A70     		strb	r2, [r3]
 3124 001c 10BD     		pop	{r4, pc}
 3125              	.L238:
 530:main.c        ****       if(flagTemperatura)
 3126              		.loc 1 530 0
 3127 001e 8CB1     		cbz	r4, .L241
 530:main.c        ****       if(flagTemperatura)
 3128              		.loc 1 530 0 is_stmt 0 discriminator 1
 3129 0020 0021     		movs	r1, #0
 3130 0022 2A4B     		ldr	r3, .L253+4
 3131 0024 1868     		ldr	r0, [r3]	@ float
 3132 0026 FFF7FEFF 		bl	__aeabi_fcmpeq
 3133              	.LVL328:
ARM GAS  C:\Users\USUARIO\AppData\Local\Temp\ccUv4o23.s 			page 83


 3134 002a 58B1     		cbz	r0, .L241
 531:main.c        ****          tiempo_esterilizacion=1;
 3135              		.loc 1 531 0 is_stmt 1
 3136 002c 294B     		ldr	r3, .L253+12
 3137 002e B3F90030 		ldrsh	r3, [r3]
 3138 0032 1BB1     		cbz	r3, .L243
 532:main.c        ****       else
 3139              		.loc 1 532 0
 3140 0034 0122     		movs	r2, #1
 3141 0036 264B     		ldr	r3, .L253+8
 3142 0038 1A70     		strb	r2, [r3]
 3143 003a 10BD     		pop	{r4, pc}
 3144              	.L243:
 534:main.c        ****    }else{
 3145              		.loc 1 534 0
 3146 003c 0022     		movs	r2, #0
 3147 003e 244B     		ldr	r3, .L253+8
 3148 0040 1A70     		strb	r2, [r3]
 3149 0042 10BD     		pop	{r4, pc}
 3150              	.L241:
 536:main.c        ****          tiempo_esterilizacion=0;
 3151              		.loc 1 536 0
 3152 0044 244B     		ldr	r3, .L253+16
 3153 0046 B3F90030 		ldrsh	r3, [r3]
 3154 004a 33B9     		cbnz	r3, .L244
 536:main.c        ****          tiempo_esterilizacion=0;
 3155              		.loc 1 536 0 is_stmt 0 discriminator 1
 3156 004c 234A     		ldr	r2, .L253+20
 3157 004e B2F90020 		ldrsh	r2, [r2]
 3158 0052 12B9     		cbnz	r2, .L244
 537:main.c        ****        }else if(flagControlT && !flagControlH){
 3159              		.loc 1 537 0 is_stmt 1
 3160 0054 1E4B     		ldr	r3, .L253+8
 3161 0056 1A70     		strb	r2, [r3]
 3162 0058 10BD     		pop	{r4, pc}
 3163              	.L244:
 538:main.c        ****           if(flagTemperatura)
 3164              		.loc 1 538 0
 3165 005a 7BB1     		cbz	r3, .L245
 538:main.c        ****           if(flagTemperatura)
 3166              		.loc 1 538 0 is_stmt 0 discriminator 1
 3167 005c 1F4A     		ldr	r2, .L253+20
 3168 005e B2F90020 		ldrsh	r2, [r2]
 3169 0062 5AB9     		cbnz	r2, .L245
 539:main.c        ****              tiempo_esterilizacion=1;
 3170              		.loc 1 539 0 is_stmt 1
 3171 0064 1B4B     		ldr	r3, .L253+12
 3172 0066 B3F90030 		ldrsh	r3, [r3]
 3173 006a 1BB1     		cbz	r3, .L246
 540:main.c        ****           else
 3174              		.loc 1 540 0
 3175 006c 0122     		movs	r2, #1
 3176 006e 184B     		ldr	r3, .L253+8
 3177 0070 1A70     		strb	r2, [r3]
 3178 0072 10BD     		pop	{r4, pc}
 3179              	.L246:
 542:main.c        ****        }else if(!flagControlT && flagControlH){
ARM GAS  C:\Users\USUARIO\AppData\Local\Temp\ccUv4o23.s 			page 84


 3180              		.loc 1 542 0
 3181 0074 0022     		movs	r2, #0
 3182 0076 164B     		ldr	r3, .L253+8
 3183 0078 1A70     		strb	r2, [r3]
 3184 007a 10BD     		pop	{r4, pc}
 3185              	.L245:
 543:main.c        ****          if(flagHumedad)
 3186              		.loc 1 543 0
 3187 007c 7BB9     		cbnz	r3, .L247
 543:main.c        ****          if(flagHumedad)
 3188              		.loc 1 543 0 is_stmt 0 discriminator 1
 3189 007e 174A     		ldr	r2, .L253+20
 3190 0080 B2F90020 		ldrsh	r2, [r2]
 3191 0084 5AB1     		cbz	r2, .L247
 544:main.c        ****             tiempo_esterilizacion=1;
 3192              		.loc 1 544 0 is_stmt 1
 3193 0086 164B     		ldr	r3, .L253+24
 3194 0088 B3F90030 		ldrsh	r3, [r3]
 3195 008c 1BB1     		cbz	r3, .L248
 545:main.c        ****          else
 3196              		.loc 1 545 0
 3197 008e 0122     		movs	r2, #1
 3198 0090 0F4B     		ldr	r3, .L253+8
 3199 0092 1A70     		strb	r2, [r3]
 3200 0094 10BD     		pop	{r4, pc}
 3201              	.L248:
 547:main.c        ****       }else if(flagControlT && flagControlH){
 3202              		.loc 1 547 0
 3203 0096 0022     		movs	r2, #0
 3204 0098 0D4B     		ldr	r3, .L253+8
 3205 009a 1A70     		strb	r2, [r3]
 3206 009c 10BD     		pop	{r4, pc}
 3207              	.L247:
 548:main.c        ****          if(flagTemperatura && flagHumedad)
 3208              		.loc 1 548 0
 3209 009e 93B1     		cbz	r3, .L237
 548:main.c        ****          if(flagTemperatura && flagHumedad)
 3210              		.loc 1 548 0 is_stmt 0 discriminator 1
 3211 00a0 0E4B     		ldr	r3, .L253+20
 3212 00a2 B3F90030 		ldrsh	r3, [r3]
 3213 00a6 73B1     		cbz	r3, .L237
 549:main.c        ****             tiempo_esterilizacion=1;
 3214              		.loc 1 549 0 is_stmt 1
 3215 00a8 0A4B     		ldr	r3, .L253+12
 3216 00aa B3F90030 		ldrsh	r3, [r3]
 3217 00ae 3BB1     		cbz	r3, .L249
 549:main.c        ****             tiempo_esterilizacion=1;
 3218              		.loc 1 549 0 is_stmt 0 discriminator 1
 3219 00b0 0B4B     		ldr	r3, .L253+24
 3220 00b2 B3F90030 		ldrsh	r3, [r3]
 3221 00b6 1BB1     		cbz	r3, .L249
 550:main.c        ****          else
 3222              		.loc 1 550 0 is_stmt 1
 3223 00b8 0122     		movs	r2, #1
 3224 00ba 054B     		ldr	r3, .L253+8
 3225 00bc 1A70     		strb	r2, [r3]
 3226 00be 10BD     		pop	{r4, pc}
ARM GAS  C:\Users\USUARIO\AppData\Local\Temp\ccUv4o23.s 			page 85


 3227              	.L249:
 552:main.c        ****       }
 3228              		.loc 1 552 0
 3229 00c0 0022     		movs	r2, #0
 3230 00c2 034B     		ldr	r3, .L253+8
 3231 00c4 1A70     		strb	r2, [r3]
 3232              	.L237:
 3233 00c6 10BD     		pop	{r4, pc}
 3234              	.L254:
 3235              		.align	2
 3236              	.L253:
 3237 00c8 00000000 		.word	flagRampa
 3238 00cc 00000000 		.word	Pendiente
 3239 00d0 00000000 		.word	tiempo_esterilizacion
 3240 00d4 00000000 		.word	flagTemperatura
 3241 00d8 00000000 		.word	flagControlT
 3242 00dc 00000000 		.word	flagControlH
 3243 00e0 00000000 		.word	flagHumedad
 3244              		.cfi_endproc
 3245              	.LFE69:
 3246              		.size	iniciaConteo, .-iniciaConteo
 3247              		.section	.text.escribeDisplay1,"ax",%progbits
 3248              		.align	2
 3249              		.global	escribeDisplay1
 3250              		.thumb
 3251              		.thumb_func
 3252              		.type	escribeDisplay1, %function
 3253              	escribeDisplay1:
 3254              	.LFB70:
 557:main.c        ****     UART_1_PutString(Buffer);
 3255              		.loc 1 557 0
 3256              		.cfi_startproc
 3257              		@ args = 0, pretend = 0, frame = 0
 3258              		@ frame_needed = 0, uses_anonymous_args = 0
 3259              	.LVL329:
 3260 0000 08B5     		push	{r3, lr}
 3261              		.cfi_def_cfa_offset 8
 3262              		.cfi_offset 3, -8
 3263              		.cfi_offset 14, -4
 558:main.c        ****     CyDelayUs(10);
 3264              		.loc 1 558 0
 3265 0002 FFF7FEFF 		bl	UART_1_PutString
 3266              	.LVL330:
 559:main.c        ****     UART_1_PutChar(0xFF);
 3267              		.loc 1 559 0
 3268 0006 0A20     		movs	r0, #10
 3269 0008 FFF7FEFF 		bl	CyDelayUs
 3270              	.LVL331:
 560:main.c        ****     CyDelayUs(10);
 3271              		.loc 1 560 0
 3272 000c FF20     		movs	r0, #255
 3273 000e FFF7FEFF 		bl	UART_1_PutChar
 3274              	.LVL332:
 561:main.c        ****     UART_1_PutChar(0xFF);
 3275              		.loc 1 561 0
 3276 0012 0A20     		movs	r0, #10
 3277 0014 FFF7FEFF 		bl	CyDelayUs
ARM GAS  C:\Users\USUARIO\AppData\Local\Temp\ccUv4o23.s 			page 86


 3278              	.LVL333:
 562:main.c        ****     CyDelayUs(10);
 3279              		.loc 1 562 0
 3280 0018 FF20     		movs	r0, #255
 3281 001a FFF7FEFF 		bl	UART_1_PutChar
 3282              	.LVL334:
 563:main.c        ****     UART_1_PutChar(0xFF);
 3283              		.loc 1 563 0
 3284 001e 0A20     		movs	r0, #10
 3285 0020 FFF7FEFF 		bl	CyDelayUs
 3286              	.LVL335:
 564:main.c        ****     CyDelayUs(10);
 3287              		.loc 1 564 0
 3288 0024 FF20     		movs	r0, #255
 3289 0026 FFF7FEFF 		bl	UART_1_PutChar
 3290              	.LVL336:
 565:main.c        **** }
 3291              		.loc 1 565 0
 3292 002a 0A20     		movs	r0, #10
 3293 002c FFF7FEFF 		bl	CyDelayUs
 3294              	.LVL337:
 3295 0030 08BD     		pop	{r3, pc}
 3296              		.cfi_endproc
 3297              	.LFE70:
 3298              		.size	escribeDisplay1, .-escribeDisplay1
 3299 0032 00BF     		.section	.text.LeeDisplay,"ax",%progbits
 3300              		.align	2
 3301              		.global	LeeDisplay
 3302              		.thumb
 3303              		.thumb_func
 3304              		.type	LeeDisplay, %function
 3305              	LeeDisplay:
 3306              	.LFB71:
 568:main.c        ****     if(Dato_Exitoso==5){
 3307              		.loc 1 568 0
 3308              		.cfi_startproc
 3309              		@ args = 0, pretend = 0, frame = 0
 3310              		@ frame_needed = 0, uses_anonymous_args = 0
 3311              		@ link register save eliminated.
 569:main.c        ****          Rx_Buffer[0]=Rx_Buffer2[0];
 3312              		.loc 1 569 0
 3313 0000 A24B     		ldr	r3, .L295
 3314 0002 1B78     		ldrb	r3, [r3]	@ zero_extendqisi2
 3315 0004 052B     		cmp	r3, #5
 3316 0006 40F0E680 		bne	.L258
 570:main.c        ****          Rx_Buffer[1]=Rx_Buffer2[1];
 3317              		.loc 1 570 0
 3318 000a A14A     		ldr	r2, .L295+4
 3319 000c 1178     		ldrb	r1, [r2]	@ zero_extendqisi2
 3320 000e A14B     		ldr	r3, .L295+8
 3321 0010 1970     		strb	r1, [r3]
 571:main.c        ****          Rx_Buffer[2]=Rx_Buffer2[2];
 3322              		.loc 1 571 0
 3323 0012 5178     		ldrb	r1, [r2, #1]	@ zero_extendqisi2
 3324 0014 5970     		strb	r1, [r3, #1]
 572:main.c        ****          Rx_Buffer[3]=Rx_Buffer2[3];
 3325              		.loc 1 572 0
ARM GAS  C:\Users\USUARIO\AppData\Local\Temp\ccUv4o23.s 			page 87


 3326 0016 9178     		ldrb	r1, [r2, #2]	@ zero_extendqisi2
 3327 0018 9970     		strb	r1, [r3, #2]
 573:main.c        ****          Rx_Buffer[4]=Rx_Buffer2[4];
 3328              		.loc 1 573 0
 3329 001a D178     		ldrb	r1, [r2, #3]	@ zero_extendqisi2
 3330 001c D970     		strb	r1, [r3, #3]
 574:main.c        ****          Rx_Buffer[5]=Rx_Buffer2[5];
 3331              		.loc 1 574 0
 3332 001e 1079     		ldrb	r0, [r2, #4]	@ zero_extendqisi2
 3333 0020 1871     		strb	r0, [r3, #4]
 575:main.c        ****          Rx_Buffer[6]=Rx_Buffer2[6];
 3334              		.loc 1 575 0
 3335 0022 5079     		ldrb	r0, [r2, #5]	@ zero_extendqisi2
 3336 0024 5871     		strb	r0, [r3, #5]
 576:main.c        ****          Rx_Buffer[7]=Rx_Buffer2[7];
 3337              		.loc 1 576 0
 3338 0026 9079     		ldrb	r0, [r2, #6]	@ zero_extendqisi2
 3339 0028 9871     		strb	r0, [r3, #6]
 577:main.c        ****          Rx_Buffer[8]=Rx_Buffer2[8];
 3340              		.loc 1 577 0
 3341 002a D079     		ldrb	r0, [r2, #7]	@ zero_extendqisi2
 3342 002c D871     		strb	r0, [r3, #7]
 578:main.c        ****          Rx_Buffer[9]=Rx_Buffer2[9];
 3343              		.loc 1 578 0
 3344 002e 107A     		ldrb	r0, [r2, #8]	@ zero_extendqisi2
 3345 0030 1872     		strb	r0, [r3, #8]
 579:main.c        ****          
 3346              		.loc 1 579 0
 3347 0032 527A     		ldrb	r2, [r2, #9]	@ zero_extendqisi2
 3348 0034 5A72     		strb	r2, [r3, #9]
 581:main.c        ****          Menu=0;
 3349              		.loc 1 581 0
 3350 0036 0129     		cmp	r1, #1
 3351 0038 0AD1     		bne	.L259
 582:main.c        ****          if(MenuAntt!=Menu)
 3352              		.loc 1 582 0
 3353 003a 0022     		movs	r2, #0
 3354 003c 964B     		ldr	r3, .L295+12
 3355 003e 1A70     		strb	r2, [r3]
 583:main.c        ****             MenuAntt=Menu;
 3356              		.loc 1 583 0
 3357 0040 964B     		ldr	r3, .L295+16
 3358 0042 1B78     		ldrb	r3, [r3]	@ zero_extendqisi2
 3359 0044 002B     		cmp	r3, #0
 3360 0046 00F0D180 		beq	.L260
 584:main.c        ****       }else if(Rx_Buffer[3]==0x02){//02 es Menu Principal con PantallaPriincipal=0, y con PantallaP
 3361              		.loc 1 584 0
 3362 004a 944B     		ldr	r3, .L295+16
 3363 004c 1A70     		strb	r2, [r3]
 3364 004e CDE0     		b	.L260
 3365              	.L259:
 585:main.c        ****          Menu=1;
 3366              		.loc 1 585 0
 3367 0050 0229     		cmp	r1, #2
 3368 0052 0AD1     		bne	.L261
 586:main.c        ****          if(MenuAntt!=Menu)
 3369              		.loc 1 586 0
ARM GAS  C:\Users\USUARIO\AppData\Local\Temp\ccUv4o23.s 			page 88


 3370 0054 0122     		movs	r2, #1
 3371 0056 904B     		ldr	r3, .L295+12
 3372 0058 1A70     		strb	r2, [r3]
 587:main.c        ****             MenuAntt=Menu;
 3373              		.loc 1 587 0
 3374 005a 904B     		ldr	r3, .L295+16
 3375 005c 1B78     		ldrb	r3, [r3]	@ zero_extendqisi2
 3376 005e 9342     		cmp	r3, r2
 3377 0060 00F0C480 		beq	.L260
 588:main.c        ****       }else if(Rx_Buffer[3]==0x04){//03 es Tiempo Esterilizacion
 3378              		.loc 1 588 0
 3379 0064 8D4B     		ldr	r3, .L295+16
 3380 0066 1A70     		strb	r2, [r3]
 3381 0068 C0E0     		b	.L260
 3382              	.L261:
 589:main.c        ****          Menu=2;
 3383              		.loc 1 589 0
 3384 006a 0429     		cmp	r1, #4
 3385 006c 0AD1     		bne	.L262
 590:main.c        ****          if(MenuAntt!=Menu)
 3386              		.loc 1 590 0
 3387 006e 0222     		movs	r2, #2
 3388 0070 894B     		ldr	r3, .L295+12
 3389 0072 1A70     		strb	r2, [r3]
 591:main.c        ****             MenuAntt=Menu;
 3390              		.loc 1 591 0
 3391 0074 894B     		ldr	r3, .L295+16
 3392 0076 1B78     		ldrb	r3, [r3]	@ zero_extendqisi2
 3393 0078 9342     		cmp	r3, r2
 3394 007a 00F0B780 		beq	.L260
 592:main.c        ****       }else if(Rx_Buffer[3]==0x05){//05 es Temperatura
 3395              		.loc 1 592 0
 3396 007e 874B     		ldr	r3, .L295+16
 3397 0080 1A70     		strb	r2, [r3]
 3398 0082 B3E0     		b	.L260
 3399              	.L262:
 593:main.c        ****          Menu=3;
 3400              		.loc 1 593 0
 3401 0084 0529     		cmp	r1, #5
 3402 0086 0AD1     		bne	.L263
 594:main.c        ****          if(MenuAntt!=Menu)
 3403              		.loc 1 594 0
 3404 0088 0322     		movs	r2, #3
 3405 008a 834B     		ldr	r3, .L295+12
 3406 008c 1A70     		strb	r2, [r3]
 595:main.c        ****             MenuAntt=Menu;
 3407              		.loc 1 595 0
 3408 008e 834B     		ldr	r3, .L295+16
 3409 0090 1B78     		ldrb	r3, [r3]	@ zero_extendqisi2
 3410 0092 9342     		cmp	r3, r2
 3411 0094 00F0AA80 		beq	.L260
 596:main.c        ****       }else if(Rx_Buffer[3]==0x06){//06 es Humedad
 3412              		.loc 1 596 0
 3413 0098 804B     		ldr	r3, .L295+16
 3414 009a 1A70     		strb	r2, [r3]
 3415 009c A6E0     		b	.L260
 3416              	.L263:
ARM GAS  C:\Users\USUARIO\AppData\Local\Temp\ccUv4o23.s 			page 89


 597:main.c        ****          Menu=4;
 3417              		.loc 1 597 0
 3418 009e 0629     		cmp	r1, #6
 3419 00a0 0AD1     		bne	.L264
 598:main.c        ****          if(MenuAntt!=Menu)
 3420              		.loc 1 598 0
 3421 00a2 0422     		movs	r2, #4
 3422 00a4 7C4B     		ldr	r3, .L295+12
 3423 00a6 1A70     		strb	r2, [r3]
 599:main.c        ****             MenuAntt=Menu;
 3424              		.loc 1 599 0
 3425 00a8 7C4B     		ldr	r3, .L295+16
 3426 00aa 1B78     		ldrb	r3, [r3]	@ zero_extendqisi2
 3427 00ac 9342     		cmp	r3, r2
 3428 00ae 00F09D80 		beq	.L260
 600:main.c        ****       }else if(Rx_Buffer[3]==0x07){//07 es Test de Componentes
 3429              		.loc 1 600 0
 3430 00b2 7A4B     		ldr	r3, .L295+16
 3431 00b4 1A70     		strb	r2, [r3]
 3432 00b6 99E0     		b	.L260
 3433              	.L264:
 601:main.c        ****          Menu=6;
 3434              		.loc 1 601 0
 3435 00b8 0729     		cmp	r1, #7
 3436 00ba 0AD1     		bne	.L265
 602:main.c        ****          if(MenuAntt!=Menu)
 3437              		.loc 1 602 0
 3438 00bc 0622     		movs	r2, #6
 3439 00be 764B     		ldr	r3, .L295+12
 3440 00c0 1A70     		strb	r2, [r3]
 603:main.c        ****             MenuAntt=Menu;
 3441              		.loc 1 603 0
 3442 00c2 764B     		ldr	r3, .L295+16
 3443 00c4 1B78     		ldrb	r3, [r3]	@ zero_extendqisi2
 3444 00c6 9342     		cmp	r3, r2
 3445 00c8 00F09080 		beq	.L260
 604:main.c        ****       }else if(Rx_Buffer[3]==0x08){//08 es Fecha y hora
 3446              		.loc 1 604 0
 3447 00cc 734B     		ldr	r3, .L295+16
 3448 00ce 1A70     		strb	r2, [r3]
 3449 00d0 8CE0     		b	.L260
 3450              	.L265:
 605:main.c        ****          Menu=7;
 3451              		.loc 1 605 0
 3452 00d2 0829     		cmp	r1, #8
 3453 00d4 0AD1     		bne	.L266
 606:main.c        ****          if(MenuAntt!=Menu)
 3454              		.loc 1 606 0
 3455 00d6 0722     		movs	r2, #7
 3456 00d8 6F4B     		ldr	r3, .L295+12
 3457 00da 1A70     		strb	r2, [r3]
 607:main.c        ****             MenuAntt=Menu;
 3458              		.loc 1 607 0
 3459 00dc 6F4B     		ldr	r3, .L295+16
 3460 00de 1B78     		ldrb	r3, [r3]	@ zero_extendqisi2
 3461 00e0 9342     		cmp	r3, r2
 3462 00e2 00F08380 		beq	.L260
ARM GAS  C:\Users\USUARIO\AppData\Local\Temp\ccUv4o23.s 			page 90


 608:main.c        ****       }else if(Rx_Buffer[3]==0x09){//09 es Rampas
 3463              		.loc 1 608 0
 3464 00e6 6D4B     		ldr	r3, .L295+16
 3465 00e8 1A70     		strb	r2, [r3]
 3466 00ea 7FE0     		b	.L260
 3467              	.L266:
 609:main.c        ****          Menu=8;
 3468              		.loc 1 609 0
 3469 00ec 0929     		cmp	r1, #9
 3470 00ee 09D1     		bne	.L267
 610:main.c        ****          if(MenuAntt!=Menu)
 3471              		.loc 1 610 0
 3472 00f0 0822     		movs	r2, #8
 3473 00f2 694B     		ldr	r3, .L295+12
 3474 00f4 1A70     		strb	r2, [r3]
 611:main.c        ****             MenuAntt=Menu;
 3475              		.loc 1 611 0
 3476 00f6 694B     		ldr	r3, .L295+16
 3477 00f8 1B78     		ldrb	r3, [r3]	@ zero_extendqisi2
 3478 00fa 9342     		cmp	r3, r2
 3479 00fc 76D0     		beq	.L260
 612:main.c        ****       }else if(Rx_Buffer[3]==0x0a){//0a es Pulsos de Vacio
 3480              		.loc 1 612 0
 3481 00fe 674B     		ldr	r3, .L295+16
 3482 0100 1A70     		strb	r2, [r3]
 3483 0102 73E0     		b	.L260
 3484              	.L267:
 613:main.c        ****          Menu=9;
 3485              		.loc 1 613 0
 3486 0104 0A29     		cmp	r1, #10
 3487 0106 09D1     		bne	.L268
 614:main.c        ****          if(MenuAntt!=Menu)
 3488              		.loc 1 614 0
 3489 0108 0922     		movs	r2, #9
 3490 010a 634B     		ldr	r3, .L295+12
 3491 010c 1A70     		strb	r2, [r3]
 615:main.c        ****             MenuAntt=Menu;
 3492              		.loc 1 615 0
 3493 010e 634B     		ldr	r3, .L295+16
 3494 0110 1B78     		ldrb	r3, [r3]	@ zero_extendqisi2
 3495 0112 9342     		cmp	r3, r2
 3496 0114 6AD0     		beq	.L260
 616:main.c        ****       }else if(Rx_Buffer[3]==0x0f){//0f es Recibe caracteres de contraseña desde display
 3497              		.loc 1 616 0
 3498 0116 614B     		ldr	r3, .L295+16
 3499 0118 1A70     		strb	r2, [r3]
 3500 011a 67E0     		b	.L260
 3501              	.L268:
 617:main.c        ****          
 3502              		.loc 1 617 0
 3503 011c 0F29     		cmp	r1, #15
 3504 011e 65D0     		beq	.L260
 619:main.c        ****          Menu=20;
 3505              		.loc 1 619 0
 3506 0120 1A29     		cmp	r1, #26
 3507 0122 09D1     		bne	.L269
 620:main.c        ****          if(MenuAntt!=Menu)
ARM GAS  C:\Users\USUARIO\AppData\Local\Temp\ccUv4o23.s 			page 91


 3508              		.loc 1 620 0
 3509 0124 1422     		movs	r2, #20
 3510 0126 5C4B     		ldr	r3, .L295+12
 3511 0128 1A70     		strb	r2, [r3]
 621:main.c        ****             MenuAntt=Menu;
 3512              		.loc 1 621 0
 3513 012a 5C4B     		ldr	r3, .L295+16
 3514 012c 1B78     		ldrb	r3, [r3]	@ zero_extendqisi2
 3515 012e 9342     		cmp	r3, r2
 3516 0130 5CD0     		beq	.L260
 622:main.c        ****       }else if(Rx_Buffer[3]==0x1b){//1b es Menu de clave correcta
 3517              		.loc 1 622 0
 3518 0132 5A4B     		ldr	r3, .L295+16
 3519 0134 1A70     		strb	r2, [r3]
 3520 0136 59E0     		b	.L260
 3521              	.L269:
 623:main.c        ****          Menu=15;
 3522              		.loc 1 623 0
 3523 0138 1B29     		cmp	r1, #27
 3524 013a 09D1     		bne	.L270
 624:main.c        ****          if(MenuAntt!=Menu)
 3525              		.loc 1 624 0
 3526 013c 0F22     		movs	r2, #15
 3527 013e 564B     		ldr	r3, .L295+12
 3528 0140 1A70     		strb	r2, [r3]
 625:main.c        ****             MenuAntt=Menu;
 3529              		.loc 1 625 0
 3530 0142 564B     		ldr	r3, .L295+16
 3531 0144 1B78     		ldrb	r3, [r3]	@ zero_extendqisi2
 3532 0146 9342     		cmp	r3, r2
 3533 0148 50D0     		beq	.L260
 626:main.c        ****       }else if(Rx_Buffer[3]==0x1c){//1c es Menu de clave incorrecta
 3534              		.loc 1 626 0
 3535 014a 544B     		ldr	r3, .L295+16
 3536 014c 1A70     		strb	r2, [r3]
 3537 014e 4DE0     		b	.L260
 3538              	.L270:
 627:main.c        ****          Menu=16;
 3539              		.loc 1 627 0
 3540 0150 1C29     		cmp	r1, #28
 3541 0152 09D1     		bne	.L271
 628:main.c        ****          if(MenuAntt!=Menu)
 3542              		.loc 1 628 0
 3543 0154 1022     		movs	r2, #16
 3544 0156 504B     		ldr	r3, .L295+12
 3545 0158 1A70     		strb	r2, [r3]
 629:main.c        ****             MenuAntt=Menu;
 3546              		.loc 1 629 0
 3547 015a 504B     		ldr	r3, .L295+16
 3548 015c 1B78     		ldrb	r3, [r3]	@ zero_extendqisi2
 3549 015e 9342     		cmp	r3, r2
 3550 0160 44D0     		beq	.L260
 630:main.c        ****       }else if(Rx_Buffer[3]==0x1d){//1d es Menu de Eliminado Programa
 3551              		.loc 1 630 0
 3552 0162 4E4B     		ldr	r3, .L295+16
 3553 0164 1A70     		strb	r2, [r3]
 3554 0166 41E0     		b	.L260
ARM GAS  C:\Users\USUARIO\AppData\Local\Temp\ccUv4o23.s 			page 92


 3555              	.L271:
 631:main.c        ****          Menu=17;
 3556              		.loc 1 631 0
 3557 0168 1D29     		cmp	r1, #29
 3558 016a 09D1     		bne	.L272
 632:main.c        ****          if(MenuAntt!=Menu)
 3559              		.loc 1 632 0
 3560 016c 1122     		movs	r2, #17
 3561 016e 4A4B     		ldr	r3, .L295+12
 3562 0170 1A70     		strb	r2, [r3]
 633:main.c        ****             MenuAntt=Menu;
 3563              		.loc 1 633 0
 3564 0172 4A4B     		ldr	r3, .L295+16
 3565 0174 1B78     		ldrb	r3, [r3]	@ zero_extendqisi2
 3566 0176 9342     		cmp	r3, r2
 3567 0178 38D0     		beq	.L260
 634:main.c        ****       }else if(Rx_Buffer[3]==0x1e){//1d es Menu de Pregunta
 3568              		.loc 1 634 0
 3569 017a 484B     		ldr	r3, .L295+16
 3570 017c 1A70     		strb	r2, [r3]
 3571 017e 35E0     		b	.L260
 3572              	.L272:
 635:main.c        ****          Menu=18;
 3573              		.loc 1 635 0
 3574 0180 1E29     		cmp	r1, #30
 3575 0182 09D1     		bne	.L273
 636:main.c        ****          if(MenuAntt!=Menu)
 3576              		.loc 1 636 0
 3577 0184 1222     		movs	r2, #18
 3578 0186 444B     		ldr	r3, .L295+12
 3579 0188 1A70     		strb	r2, [r3]
 637:main.c        ****             MenuAntt=Menu;
 3580              		.loc 1 637 0
 3581 018a 444B     		ldr	r3, .L295+16
 3582 018c 1B78     		ldrb	r3, [r3]	@ zero_extendqisi2
 3583 018e 9342     		cmp	r3, r2
 3584 0190 2CD0     		beq	.L260
 638:main.c        ****       }else if(Rx_Buffer[3]==0x2c){//2c es Menu de Configuracion de Parametros
 3585              		.loc 1 638 0
 3586 0192 424B     		ldr	r3, .L295+16
 3587 0194 1A70     		strb	r2, [r3]
 3588 0196 29E0     		b	.L260
 3589              	.L273:
 639:main.c        ****          Menu=100;
 3590              		.loc 1 639 0
 3591 0198 2C29     		cmp	r1, #44
 3592 019a 09D1     		bne	.L274
 640:main.c        ****          if(MenuAntt!=Menu)
 3593              		.loc 1 640 0
 3594 019c 6422     		movs	r2, #100
 3595 019e 3E4B     		ldr	r3, .L295+12
 3596 01a0 1A70     		strb	r2, [r3]
 641:main.c        ****             MenuAntt=Menu;
 3597              		.loc 1 641 0
 3598 01a2 3E4B     		ldr	r3, .L295+16
 3599 01a4 1B78     		ldrb	r3, [r3]	@ zero_extendqisi2
 3600 01a6 9342     		cmp	r3, r2
ARM GAS  C:\Users\USUARIO\AppData\Local\Temp\ccUv4o23.s 			page 93


 3601 01a8 20D0     		beq	.L260
 642:main.c        ****       }else if(Rx_Buffer[3]==0xcc){//cc es Menu de Bienvenida
 3602              		.loc 1 642 0
 3603 01aa 3C4B     		ldr	r3, .L295+16
 3604 01ac 1A70     		strb	r2, [r3]
 3605 01ae 1DE0     		b	.L260
 3606              	.L274:
 643:main.c        ****         if(controlT==0 && controlH==0 && controlR==0)
 3607              		.loc 1 643 0
 3608 01b0 CC29     		cmp	r1, #204
 3609 01b2 1BD1     		bne	.L260
 644:main.c        ****             Menu=120;
 3610              		.loc 1 644 0
 3611 01b4 3A4B     		ldr	r3, .L295+20
 3612 01b6 1B78     		ldrb	r3, [r3]	@ zero_extendqisi2
 3613 01b8 4BB9     		cbnz	r3, .L275
 644:main.c        ****             Menu=120;
 3614              		.loc 1 644 0 is_stmt 0 discriminator 1
 3615 01ba 3A4B     		ldr	r3, .L295+24
 3616 01bc 1B78     		ldrb	r3, [r3]	@ zero_extendqisi2
 3617 01be 33B9     		cbnz	r3, .L275
 644:main.c        ****             Menu=120;
 3618              		.loc 1 644 0 discriminator 2
 3619 01c0 394B     		ldr	r3, .L295+28
 3620 01c2 1B78     		ldrb	r3, [r3]	@ zero_extendqisi2
 3621 01c4 1BB9     		cbnz	r3, .L275
 645:main.c        ****         else
 3622              		.loc 1 645 0 is_stmt 1
 3623 01c6 7822     		movs	r2, #120
 3624 01c8 334B     		ldr	r3, .L295+12
 3625 01ca 1A70     		strb	r2, [r3]
 3626 01cc 0EE0     		b	.L260
 3627              	.L275:
 647:main.c        ****          //if(MenuAntt!=120)
 3628              		.loc 1 647 0
 3629 01ce 1422     		movs	r2, #20
 3630 01d0 314B     		ldr	r3, .L295+12
 3631 01d2 1A70     		strb	r2, [r3]
 3632 01d4 0AE0     		b	.L260
 3633              	.L258:
 652:main.c        ****             //Rx_Buffer[z]=0;
 3634              		.loc 1 652 0
 3635 01d6 0022     		movs	r2, #0
 3636 01d8 344B     		ldr	r3, .L295+32
 3637 01da 1A70     		strb	r2, [r3]
 3638 01dc 02E0     		b	.L276
 3639              	.L277:
 652:main.c        ****             //Rx_Buffer[z]=0;
 3640              		.loc 1 652 0 is_stmt 0 discriminator 3
 3641 01de 0133     		adds	r3, r3, #1
 3642 01e0 324A     		ldr	r2, .L295+32
 3643 01e2 1370     		strb	r3, [r2]
 3644              	.L276:
 652:main.c        ****             //Rx_Buffer[z]=0;
 3645              		.loc 1 652 0 discriminator 1
 3646 01e4 314B     		ldr	r3, .L295+32
 3647 01e6 1B78     		ldrb	r3, [r3]	@ zero_extendqisi2
ARM GAS  C:\Users\USUARIO\AppData\Local\Temp\ccUv4o23.s 			page 94


 3648 01e8 092B     		cmp	r3, #9
 3649 01ea F8D9     		bls	.L277
 3650              	.L260:
 658:main.c        ****          Rx_Buffer3[0]=Rx_Buffer4[0];
 3651              		.loc 1 658 0 is_stmt 1
 3652 01ec 304B     		ldr	r3, .L295+36
 3653 01ee 1B78     		ldrb	r3, [r3]	@ zero_extendqisi2
 3654 01f0 052B     		cmp	r3, #5
 3655 01f2 40F0DB80 		bne	.L278
 659:main.c        ****          Rx_Buffer3[1]=Rx_Buffer4[1];
 3656              		.loc 1 659 0
 3657 01f6 2F4A     		ldr	r2, .L295+40
 3658 01f8 1178     		ldrb	r1, [r2]	@ zero_extendqisi2
 3659 01fa 2F4B     		ldr	r3, .L295+44
 3660 01fc 1970     		strb	r1, [r3]
 660:main.c        ****          Rx_Buffer3[2]=Rx_Buffer4[2];
 3661              		.loc 1 660 0
 3662 01fe 5178     		ldrb	r1, [r2, #1]	@ zero_extendqisi2
 3663 0200 5970     		strb	r1, [r3, #1]
 661:main.c        ****          Rx_Buffer3[3]=Rx_Buffer4[3];
 3664              		.loc 1 661 0
 3665 0202 9178     		ldrb	r1, [r2, #2]	@ zero_extendqisi2
 3666 0204 9970     		strb	r1, [r3, #2]
 662:main.c        ****          Rx_Buffer3[4]=Rx_Buffer4[4];
 3667              		.loc 1 662 0
 3668 0206 D178     		ldrb	r1, [r2, #3]	@ zero_extendqisi2
 3669 0208 D970     		strb	r1, [r3, #3]
 663:main.c        ****          Rx_Buffer3[5]=Rx_Buffer4[5];
 3670              		.loc 1 663 0
 3671 020a 1079     		ldrb	r0, [r2, #4]	@ zero_extendqisi2
 3672 020c 1871     		strb	r0, [r3, #4]
 664:main.c        ****          Rx_Buffer3[6]=Rx_Buffer4[6];
 3673              		.loc 1 664 0
 3674 020e 5079     		ldrb	r0, [r2, #5]	@ zero_extendqisi2
 3675 0210 5871     		strb	r0, [r3, #5]
 665:main.c        ****          Rx_Buffer3[7]=Rx_Buffer4[7];
 3676              		.loc 1 665 0
 3677 0212 9079     		ldrb	r0, [r2, #6]	@ zero_extendqisi2
 3678 0214 9871     		strb	r0, [r3, #6]
 666:main.c        ****          Rx_Buffer3[8]=Rx_Buffer4[8];
 3679              		.loc 1 666 0
 3680 0216 D079     		ldrb	r0, [r2, #7]	@ zero_extendqisi2
 3681 0218 D871     		strb	r0, [r3, #7]
 667:main.c        ****          Rx_Buffer3[9]=Rx_Buffer4[9];
 3682              		.loc 1 667 0
 3683 021a 107A     		ldrb	r0, [r2, #8]	@ zero_extendqisi2
 3684 021c 1872     		strb	r0, [r3, #8]
 668:main.c        ****          
 3685              		.loc 1 668 0
 3686 021e 527A     		ldrb	r2, [r2, #9]	@ zero_extendqisi2
 3687 0220 5A72     		strb	r2, [r3, #9]
 670:main.c        ****          Menu2=0;
 3688              		.loc 1 670 0
 3689 0222 0129     		cmp	r1, #1
 3690 0224 0AD1     		bne	.L279
 671:main.c        ****          if(MenuAntt2!=Menu2)
 3691              		.loc 1 671 0
ARM GAS  C:\Users\USUARIO\AppData\Local\Temp\ccUv4o23.s 			page 95


 3692 0226 0022     		movs	r2, #0
 3693 0228 244B     		ldr	r3, .L295+48
 3694 022a 1A70     		strb	r2, [r3]
 672:main.c        ****             MenuAntt2=Menu2;
 3695              		.loc 1 672 0
 3696 022c 244B     		ldr	r3, .L295+52
 3697 022e 1B78     		ldrb	r3, [r3]	@ zero_extendqisi2
 3698 0230 002B     		cmp	r3, #0
 3699 0232 00F0C680 		beq	.L257
 673:main.c        ****       }else if(Rx_Buffer3[3]==0x02){//02 es Menu Principal con PantallaPriincipal=0, y con Pantalla
 3700              		.loc 1 673 0
 3701 0236 224B     		ldr	r3, .L295+52
 3702 0238 1A70     		strb	r2, [r3]
 3703 023a 7047     		bx	lr
 3704              	.L279:
 674:main.c        ****          Menu2=1;
 3705              		.loc 1 674 0
 3706 023c 0229     		cmp	r1, #2
 3707 023e 0AD1     		bne	.L281
 675:main.c        ****          if(MenuAntt2!=Menu2)
 3708              		.loc 1 675 0
 3709 0240 0122     		movs	r2, #1
 3710 0242 1E4B     		ldr	r3, .L295+48
 3711 0244 1A70     		strb	r2, [r3]
 676:main.c        ****             MenuAntt2=Menu2;
 3712              		.loc 1 676 0
 3713 0246 1E4B     		ldr	r3, .L295+52
 3714 0248 1B78     		ldrb	r3, [r3]	@ zero_extendqisi2
 3715 024a 9342     		cmp	r3, r2
 3716 024c 00F0B980 		beq	.L257
 677:main.c        ****       }else if(Rx_Buffer3[3]==0x04){//03 es Tiempo Esterilizacion
 3717              		.loc 1 677 0
 3718 0250 1B4B     		ldr	r3, .L295+52
 3719 0252 1A70     		strb	r2, [r3]
 3720 0254 7047     		bx	lr
 3721              	.L281:
 678:main.c        ****          Menu2=2;
 3722              		.loc 1 678 0
 3723 0256 0429     		cmp	r1, #4
 3724 0258 0AD1     		bne	.L282
 679:main.c        ****          if(MenuAntt2!=Menu2)
 3725              		.loc 1 679 0
 3726 025a 0222     		movs	r2, #2
 3727 025c 174B     		ldr	r3, .L295+48
 3728 025e 1A70     		strb	r2, [r3]
 680:main.c        ****             MenuAntt2=Menu2;
 3729              		.loc 1 680 0
 3730 0260 174B     		ldr	r3, .L295+52
 3731 0262 1B78     		ldrb	r3, [r3]	@ zero_extendqisi2
 3732 0264 9342     		cmp	r3, r2
 3733 0266 00F0AC80 		beq	.L257
 681:main.c        ****       }else if(Rx_Buffer3[3]==0x05){//05 es Temperatura
 3734              		.loc 1 681 0
 3735 026a 154B     		ldr	r3, .L295+52
 3736 026c 1A70     		strb	r2, [r3]
 3737 026e 7047     		bx	lr
 3738              	.L282:
ARM GAS  C:\Users\USUARIO\AppData\Local\Temp\ccUv4o23.s 			page 96


 682:main.c        ****          Menu2=3;
 3739              		.loc 1 682 0
 3740 0270 0529     		cmp	r1, #5
 3741 0272 27D1     		bne	.L283
 683:main.c        ****          if(MenuAntt2!=Menu2)
 3742              		.loc 1 683 0
 3743 0274 0322     		movs	r2, #3
 3744 0276 114B     		ldr	r3, .L295+48
 3745 0278 1A70     		strb	r2, [r3]
 684:main.c        ****             MenuAntt2=Menu2;
 3746              		.loc 1 684 0
 3747 027a 114B     		ldr	r3, .L295+52
 3748 027c 1B78     		ldrb	r3, [r3]	@ zero_extendqisi2
 3749 027e 9342     		cmp	r3, r2
 3750 0280 00F09F80 		beq	.L257
 685:main.c        ****       }else if(Rx_Buffer3[3]==0x06){//06 es Nivel
 3751              		.loc 1 685 0
 3752 0284 0E4B     		ldr	r3, .L295+52
 3753 0286 1A70     		strb	r2, [r3]
 3754 0288 7047     		bx	lr
 3755              	.L296:
 3756 028a 00BF     		.align	2
 3757              	.L295:
 3758 028c 00000000 		.word	Dato_Exitoso
 3759 0290 00000000 		.word	Rx_Buffer2
 3760 0294 00000000 		.word	Rx_Buffer
 3761 0298 00000000 		.word	Menu
 3762 029c 00000000 		.word	MenuAntt
 3763 02a0 00000000 		.word	controlT
 3764 02a4 00000000 		.word	controlH
 3765 02a8 00000000 		.word	controlR
 3766 02ac 00000000 		.word	z
 3767 02b0 00000000 		.word	Dato_Exitoso2
 3768 02b4 00000000 		.word	Rx_Buffer4
 3769 02b8 00000000 		.word	Rx_Buffer3
 3770 02bc 00000000 		.word	Menu2
 3771 02c0 00000000 		.word	MenuAntt2
 3772              	.L283:
 686:main.c        ****          Menu2=5;
 3773              		.loc 1 686 0
 3774 02c4 0629     		cmp	r1, #6
 3775 02c6 09D1     		bne	.L284
 687:main.c        ****          if(MenuAntt2!=Menu2)
 3776              		.loc 1 687 0
 3777 02c8 0522     		movs	r2, #5
 3778 02ca 3E4B     		ldr	r3, .L297
 3779 02cc 1A70     		strb	r2, [r3]
 688:main.c        ****             MenuAntt2=Menu2;
 3780              		.loc 1 688 0
 3781 02ce 3E4B     		ldr	r3, .L297+4
 3782 02d0 1B78     		ldrb	r3, [r3]	@ zero_extendqisi2
 3783 02d2 9342     		cmp	r3, r2
 3784 02d4 75D0     		beq	.L257
 689:main.c        ****       }else if(Rx_Buffer3[3]==0x07){//07 es Test de Componentes
 3785              		.loc 1 689 0
 3786 02d6 3C4B     		ldr	r3, .L297+4
 3787 02d8 1A70     		strb	r2, [r3]
ARM GAS  C:\Users\USUARIO\AppData\Local\Temp\ccUv4o23.s 			page 97


 3788 02da 7047     		bx	lr
 3789              	.L284:
 690:main.c        ****          Menu2=6;
 3790              		.loc 1 690 0
 3791 02dc 0729     		cmp	r1, #7
 3792 02de 09D1     		bne	.L285
 691:main.c        ****          if(MenuAntt2!=Menu2)
 3793              		.loc 1 691 0
 3794 02e0 0622     		movs	r2, #6
 3795 02e2 384B     		ldr	r3, .L297
 3796 02e4 1A70     		strb	r2, [r3]
 692:main.c        ****             MenuAntt2=Menu2;
 3797              		.loc 1 692 0
 3798 02e6 384B     		ldr	r3, .L297+4
 3799 02e8 1B78     		ldrb	r3, [r3]	@ zero_extendqisi2
 3800 02ea 9342     		cmp	r3, r2
 3801 02ec 69D0     		beq	.L257
 693:main.c        ****       }else if(Rx_Buffer3[3]==0x08){//08 es Fecha y hora
 3802              		.loc 1 693 0
 3803 02ee 364B     		ldr	r3, .L297+4
 3804 02f0 1A70     		strb	r2, [r3]
 3805 02f2 7047     		bx	lr
 3806              	.L285:
 694:main.c        ****          Menu2=7;
 3807              		.loc 1 694 0
 3808 02f4 0829     		cmp	r1, #8
 3809 02f6 09D1     		bne	.L286
 695:main.c        ****          if(MenuAntt2!=Menu2)
 3810              		.loc 1 695 0
 3811 02f8 0722     		movs	r2, #7
 3812 02fa 324B     		ldr	r3, .L297
 3813 02fc 1A70     		strb	r2, [r3]
 696:main.c        ****             MenuAntt2=Menu2;
 3814              		.loc 1 696 0
 3815 02fe 324B     		ldr	r3, .L297+4
 3816 0300 1B78     		ldrb	r3, [r3]	@ zero_extendqisi2
 3817 0302 9342     		cmp	r3, r2
 3818 0304 5DD0     		beq	.L257
 697:main.c        ****       }else if(Rx_Buffer3[3]==0x09){//09 es Rampas
 3819              		.loc 1 697 0
 3820 0306 304B     		ldr	r3, .L297+4
 3821 0308 1A70     		strb	r2, [r3]
 3822 030a 7047     		bx	lr
 3823              	.L286:
 698:main.c        ****          Menu2=8;
 3824              		.loc 1 698 0
 3825 030c 0929     		cmp	r1, #9
 3826 030e 09D1     		bne	.L287
 699:main.c        ****          if(MenuAntt2!=Menu2)
 3827              		.loc 1 699 0
 3828 0310 0822     		movs	r2, #8
 3829 0312 2C4B     		ldr	r3, .L297
 3830 0314 1A70     		strb	r2, [r3]
 700:main.c        ****             MenuAntt2=Menu2;
 3831              		.loc 1 700 0
 3832 0316 2C4B     		ldr	r3, .L297+4
 3833 0318 1B78     		ldrb	r3, [r3]	@ zero_extendqisi2
ARM GAS  C:\Users\USUARIO\AppData\Local\Temp\ccUv4o23.s 			page 98


 3834 031a 9342     		cmp	r3, r2
 3835 031c 51D0     		beq	.L257
 701:main.c        ****       }else if(Rx_Buffer3[3]==0x0a){//0a es Grafica
 3836              		.loc 1 701 0
 3837 031e 2A4B     		ldr	r3, .L297+4
 3838 0320 1A70     		strb	r2, [r3]
 3839 0322 7047     		bx	lr
 3840              	.L287:
 702:main.c        ****          Menu2=9;
 3841              		.loc 1 702 0
 3842 0324 0A29     		cmp	r1, #10
 3843 0326 09D1     		bne	.L288
 703:main.c        ****          if(MenuAntt2!=Menu2)
 3844              		.loc 1 703 0
 3845 0328 0922     		movs	r2, #9
 3846 032a 264B     		ldr	r3, .L297
 3847 032c 1A70     		strb	r2, [r3]
 704:main.c        ****             MenuAntt2=Menu2;
 3848              		.loc 1 704 0
 3849 032e 264B     		ldr	r3, .L297+4
 3850 0330 1B78     		ldrb	r3, [r3]	@ zero_extendqisi2
 3851 0332 9342     		cmp	r3, r2
 3852 0334 45D0     		beq	.L257
 705:main.c        ****       }else if(Rx_Buffer3[3]==0x0f){//0f es Recibe caracteres de contraseña desde display
 3853              		.loc 1 705 0
 3854 0336 244B     		ldr	r3, .L297+4
 3855 0338 1A70     		strb	r2, [r3]
 3856 033a 7047     		bx	lr
 3857              	.L288:
 706:main.c        ****          
 3858              		.loc 1 706 0
 3859 033c 0F29     		cmp	r1, #15
 3860 033e 40D0     		beq	.L257
 708:main.c        ****          Menu2=20;
 3861              		.loc 1 708 0
 3862 0340 1A29     		cmp	r1, #26
 3863 0342 09D1     		bne	.L289
 709:main.c        ****          if(MenuAntt2!=Menu2)
 3864              		.loc 1 709 0
 3865 0344 1422     		movs	r2, #20
 3866 0346 1F4B     		ldr	r3, .L297
 3867 0348 1A70     		strb	r2, [r3]
 710:main.c        ****             MenuAntt2=Menu2;
 3868              		.loc 1 710 0
 3869 034a 1F4B     		ldr	r3, .L297+4
 3870 034c 1B78     		ldrb	r3, [r3]	@ zero_extendqisi2
 3871 034e 9342     		cmp	r3, r2
 3872 0350 37D0     		beq	.L257
 711:main.c        ****       }else if(Rx_Buffer3[3]==0x1b){//1b es Menu de clave correcta
 3873              		.loc 1 711 0
 3874 0352 1D4B     		ldr	r3, .L297+4
 3875 0354 1A70     		strb	r2, [r3]
 3876 0356 7047     		bx	lr
 3877              	.L289:
 712:main.c        ****          Menu2=15;
 3878              		.loc 1 712 0
 3879 0358 1B29     		cmp	r1, #27
ARM GAS  C:\Users\USUARIO\AppData\Local\Temp\ccUv4o23.s 			page 99


 3880 035a 09D1     		bne	.L290
 713:main.c        ****          if(MenuAntt2!=Menu2)
 3881              		.loc 1 713 0
 3882 035c 0F22     		movs	r2, #15
 3883 035e 194B     		ldr	r3, .L297
 3884 0360 1A70     		strb	r2, [r3]
 714:main.c        ****             MenuAntt2=Menu2;
 3885              		.loc 1 714 0
 3886 0362 194B     		ldr	r3, .L297+4
 3887 0364 1B78     		ldrb	r3, [r3]	@ zero_extendqisi2
 3888 0366 9342     		cmp	r3, r2
 3889 0368 2BD0     		beq	.L257
 715:main.c        ****       }else if(Rx_Buffer3[3]==0x1c){//1c es Menu de clave incorrecta
 3890              		.loc 1 715 0
 3891 036a 174B     		ldr	r3, .L297+4
 3892 036c 1A70     		strb	r2, [r3]
 3893 036e 7047     		bx	lr
 3894              	.L290:
 716:main.c        ****          Menu2=16;
 3895              		.loc 1 716 0
 3896 0370 1C29     		cmp	r1, #28
 3897 0372 09D1     		bne	.L291
 717:main.c        ****          if(MenuAntt2!=Menu2)
 3898              		.loc 1 717 0
 3899 0374 1022     		movs	r2, #16
 3900 0376 134B     		ldr	r3, .L297
 3901 0378 1A70     		strb	r2, [r3]
 718:main.c        ****             MenuAntt2=Menu2;
 3902              		.loc 1 718 0
 3903 037a 134B     		ldr	r3, .L297+4
 3904 037c 1B78     		ldrb	r3, [r3]	@ zero_extendqisi2
 3905 037e 9342     		cmp	r3, r2
 3906 0380 1FD0     		beq	.L257
 719:main.c        ****       }else if(Rx_Buffer3[3]==0x2c){//2c es Menu de Configuracion de Parametros
 3907              		.loc 1 719 0
 3908 0382 114B     		ldr	r3, .L297+4
 3909 0384 1A70     		strb	r2, [r3]
 3910 0386 7047     		bx	lr
 3911              	.L291:
 720:main.c        ****          Menu2=100;
 3912              		.loc 1 720 0
 3913 0388 2C29     		cmp	r1, #44
 3914 038a 09D1     		bne	.L292
 721:main.c        ****          if(MenuAntt2!=Menu2)
 3915              		.loc 1 721 0
 3916 038c 6422     		movs	r2, #100
 3917 038e 0D4B     		ldr	r3, .L297
 3918 0390 1A70     		strb	r2, [r3]
 722:main.c        ****             MenuAntt2=Menu2;
 3919              		.loc 1 722 0
 3920 0392 0D4B     		ldr	r3, .L297+4
 3921 0394 1B78     		ldrb	r3, [r3]	@ zero_extendqisi2
 3922 0396 9342     		cmp	r3, r2
 3923 0398 13D0     		beq	.L257
 723:main.c        ****       }else if(Rx_Buffer3[3]==0xcc){//cc es Menu de Bienvenida
 3924              		.loc 1 723 0
 3925 039a 0B4B     		ldr	r3, .L297+4
ARM GAS  C:\Users\USUARIO\AppData\Local\Temp\ccUv4o23.s 			page 100


 3926 039c 1A70     		strb	r2, [r3]
 3927 039e 7047     		bx	lr
 3928              	.L292:
 724:main.c        ****          Menu2=120;
 3929              		.loc 1 724 0
 3930 03a0 CC29     		cmp	r1, #204
 3931 03a2 0ED1     		bne	.L257
 725:main.c        ****          //if(MenuAntt!=120)
 3932              		.loc 1 725 0
 3933 03a4 7822     		movs	r2, #120
 3934 03a6 074B     		ldr	r3, .L297
 3935 03a8 1A70     		strb	r2, [r3]
 3936 03aa 7047     		bx	lr
 3937              	.L278:
 730:main.c        ****             //Rx_Buffer[z]=0;
 3938              		.loc 1 730 0
 3939 03ac 0022     		movs	r2, #0
 3940 03ae 074B     		ldr	r3, .L297+8
 3941 03b0 1A70     		strb	r2, [r3]
 3942 03b2 02E0     		b	.L293
 3943              	.L294:
 730:main.c        ****             //Rx_Buffer[z]=0;
 3944              		.loc 1 730 0 is_stmt 0 discriminator 3
 3945 03b4 0133     		adds	r3, r3, #1
 3946 03b6 054A     		ldr	r2, .L297+8
 3947 03b8 1370     		strb	r3, [r2]
 3948              	.L293:
 730:main.c        ****             //Rx_Buffer[z]=0;
 3949              		.loc 1 730 0 discriminator 1
 3950 03ba 044B     		ldr	r3, .L297+8
 3951 03bc 1B78     		ldrb	r3, [r3]	@ zero_extendqisi2
 3952 03be 092B     		cmp	r3, #9
 3953 03c0 F8D9     		bls	.L294
 3954              	.L257:
 3955 03c2 7047     		bx	lr
 3956              	.L298:
 3957              		.align	2
 3958              	.L297:
 3959 03c4 00000000 		.word	Menu2
 3960 03c8 00000000 		.word	MenuAntt2
 3961 03cc 00000000 		.word	z
 3962              		.cfi_endproc
 3963              	.LFE71:
 3964              		.size	LeeDisplay, .-LeeDisplay
 3965              		.global	__aeabi_dcmpge
 3966              		.section	.text.controlaRampa,"ax",%progbits
 3967              		.align	2
 3968              		.global	controlaRampa
 3969              		.thumb
 3970              		.thumb_func
 3971              		.type	controlaRampa, %function
 3972              	controlaRampa:
 3973              	.LFB72:
 737:main.c        ****       if(Enfria==1){
 3974              		.loc 1 737 0 is_stmt 1
 3975              		.cfi_startproc
 3976              		@ args = 0, pretend = 0, frame = 0
ARM GAS  C:\Users\USUARIO\AppData\Local\Temp\ccUv4o23.s 			page 101


 3977              		@ frame_needed = 0, uses_anonymous_args = 0
 3978 0000 2DE9F041 		push	{r4, r5, r6, r7, r8, lr}
 3979              		.cfi_def_cfa_offset 24
 3980              		.cfi_offset 4, -24
 3981              		.cfi_offset 5, -20
 3982              		.cfi_offset 6, -16
 3983              		.cfi_offset 7, -12
 3984              		.cfi_offset 8, -8
 3985              		.cfi_offset 14, -4
 738:main.c        ****       if(Temperatura<=Setpoint+0.5 && Temperatura>=Setpoint-0.5){
 3986              		.loc 1 738 0
 3987 0004 9A4B     		ldr	r3, .L349+8
 3988 0006 B3F90030 		ldrsh	r3, [r3]
 3989 000a 012B     		cmp	r3, #1
 3990 000c 40F09680 		bne	.L300
 739:main.c        ****          if(Pendiente!=0){
 3991              		.loc 1 739 0
 3992 0010 984B     		ldr	r3, .L349+12
 3993 0012 1868     		ldr	r0, [r3]	@ float
 3994 0014 FFF7FEFF 		bl	__aeabi_f2d
 3995              	.LVL338:
 3996 0018 0446     		mov	r4, r0
 3997 001a 0D46     		mov	r5, r1
 3998 001c 964B     		ldr	r3, .L349+16
 3999 001e D3F80080 		ldr	r8, [r3]	@ float
 4000 0022 4046     		mov	r0, r8
 4001 0024 FFF7FEFF 		bl	__aeabi_f2d
 4002              	.LVL339:
 4003 0028 0646     		mov	r6, r0
 4004 002a 0F46     		mov	r7, r1
 4005 002c 0022     		movs	r2, #0
 4006 002e 934B     		ldr	r3, .L349+20
 4007 0030 FFF7FEFF 		bl	__aeabi_dadd
 4008              	.LVL340:
 4009 0034 0246     		mov	r2, r0
 4010 0036 0B46     		mov	r3, r1
 4011 0038 2046     		mov	r0, r4
 4012 003a 2946     		mov	r1, r5
 4013 003c FFF7FEFF 		bl	__aeabi_dcmple
 4014              	.LVL341:
 4015 0040 58B3     		cbz	r0, .L301
 739:main.c        ****          if(Pendiente!=0){
 4016              		.loc 1 739 0 is_stmt 0 discriminator 1
 4017 0042 0022     		movs	r2, #0
 4018 0044 8D4B     		ldr	r3, .L349+20
 4019 0046 3046     		mov	r0, r6
 4020 0048 3946     		mov	r1, r7
 4021 004a FFF7FEFF 		bl	__aeabi_dsub
 4022              	.LVL342:
 4023 004e 0246     		mov	r2, r0
 4024 0050 0B46     		mov	r3, r1
 4025 0052 2046     		mov	r0, r4
 4026 0054 2946     		mov	r1, r5
 4027 0056 FFF7FEFF 		bl	__aeabi_dcmpge
 4028              	.LVL343:
 4029 005a F0B1     		cbz	r0, .L301
 740:main.c        ****             escribeDisplay1("statusT.txt=\"Controlando\"");
ARM GAS  C:\Users\USUARIO\AppData\Local\Temp\ccUv4o23.s 			page 102


 4030              		.loc 1 740 0 is_stmt 1
 4031 005c 0021     		movs	r1, #0
 4032 005e 884B     		ldr	r3, .L349+24
 4033 0060 1868     		ldr	r0, [r3]	@ float
 4034 0062 FFF7FEFF 		bl	__aeabi_fcmpeq
 4035              	.LVL344:
 4036 0066 28B9     		cbnz	r0, .L304
 741:main.c        ****             flagTemperatura=ON;            
 4037              		.loc 1 741 0
 4038 0068 8648     		ldr	r0, .L349+28
 4039 006a FFF7FEFF 		bl	escribeDisplay1
 4040              	.LVL345:
 742:main.c        ****          }
 4041              		.loc 1 742 0
 4042 006e 0122     		movs	r2, #1
 4043 0070 854B     		ldr	r3, .L349+32
 4044 0072 1A80     		strh	r2, [r3]	@ movhi
 4045              	.L304:
 745:main.c        ****             escribeDisplay1("statusT.txt=\"Meseta\"");
 4046              		.loc 1 745 0
 4047 0074 0021     		movs	r1, #0
 4048 0076 824B     		ldr	r3, .L349+24
 4049 0078 1868     		ldr	r0, [r3]	@ float
 4050 007a FFF7FEFF 		bl	__aeabi_fcmpeq
