CCS PCH C Compiler, Version 4.104, 5967               28-nov.-19 16:34

               Filename: D:\Laboratorio\Camara Climatica\Camara Climatica 260L Avantika #004588016\Firmware V1.2\Horno.lst

               ROM used: 54328 bytes (55%)
                         Largest free fragment is 32768
               RAM used: 1986 (60%) at main() level
                         2090 (63%) worst case
               Stack:    7 worst case (6 in main + 1 for interrupts)

*
00000:  GOTO   74EA
*
00008:  GOTO   00AE
0000C:  NOP   
0000E:  NOP   
00010:  NOP   
00012:  NOP   
00014:  NOP   
00016:  NOP   
00018:  MOVWF  04
0001A:  MOVFF  FD8,05
0001E:  MOVFF  FE0,06
00022:  MOVLB  0
00024:  MOVFF  FE9,0C
00028:  MOVFF  FEA,07
0002C:  MOVFF  FE1,08
00030:  MOVFF  FE2,09
00034:  MOVFF  FD9,0A
00038:  MOVFF  FDA,0B
0003C:  MOVFF  FF3,12
00040:  MOVFF  FF4,13
00044:  MOVFF  FFA,14
00048:  MOVFF  FFB,15
0004C:  MOVFF  00,0E
00050:  MOVFF  01,0F
00054:  MOVFF  02,10
00058:  MOVFF  03,11
0005C:  BTFSS  F9D.0
0005E:  GOTO   0068
00062:  BTFSC  F9E.0
00064:  GOTO   033C
00068:  MOVFF  0E,00
0006C:  MOVFF  0F,01
00070:  MOVFF  10,02
00074:  MOVFF  11,03
00078:  MOVFF  0C,FE9
0007C:  MOVFF  07,FEA
00080:  BSF    07.7
00082:  MOVFF  08,FE1
00086:  MOVFF  09,FE2
0008A:  MOVFF  0A,FD9
0008E:  MOVFF  0B,FDA
00092:  MOVFF  12,FF3
00096:  MOVFF  13,FF4
0009A:  MOVFF  14,FFA
0009E:  MOVFF  15,FFB
000A2:  MOVF   04,W
000A4:  MOVFF  06,FE0
000A8:  MOVFF  05,FD8
000AC:  RETFIE 0
000AE:  MOVWF  17
000B0:  MOVFF  FD8,18
000B4:  MOVFF  FE0,19
000B8:  MOVLB  0
000BA:  MOVFF  FE9,1F
000BE:  MOVFF  FEA,1A
000C2:  MOVFF  FE1,1B
000C6:  MOVFF  FE2,1C
000CA:  MOVFF  FD9,1D
000CE:  MOVFF  FDA,1E
000D2:  MOVFF  FF3,25
000D6:  MOVFF  FF4,26
000DA:  MOVFF  FFA,27
000DE:  MOVFF  FFB,28
000E2:  MOVFF  00,21
000E6:  MOVFF  01,22
000EA:  MOVFF  02,23
000EE:  MOVFF  03,24
000F2:  BTFSS  F9D.5
000F4:  GOTO   00FE
000F8:  BTFSC  F9E.5
000FA:  GOTO   02D8
000FE:  MOVFF  21,00
00102:  MOVFF  22,01
00106:  MOVFF  23,02
0010A:  MOVFF  24,03
0010E:  MOVFF  1F,FE9
00112:  MOVFF  1A,FEA
00116:  BSF    1A.7
00118:  MOVFF  1B,FE1
0011C:  MOVFF  1C,FE2
00120:  MOVFF  1D,FD9
00124:  MOVFF  1E,FDA
00128:  MOVFF  25,FF3
0012C:  MOVFF  26,FF4
00130:  MOVFF  27,FFA
00134:  MOVFF  28,FFB
00138:  MOVF   17,W
0013A:  MOVFF  19,FE0
0013E:  MOVFF  18,FD8
00142:  RETFIE 0
.................... #include <18F4685.h> 
.................... //////// Standard Header file for the PIC18F4685 device //////////////// 
.................... #device PIC18F4685 
.................... #list 
....................  
.................... #device adc=10 
.................... #device HIGH_INTS=TRUE //Activamos niveles de prioridad 
.................... #fuses HS,WDT8192,NOPROTECT,NOLVP,NODEBUG,NOSTVREN,NOPUT,NOCPD,NOWRT,NOIESO,NOFCMEN,NOPBADEN,NOWRTC,NOWRTB,NOEBTR,NOEBTRB,NOCPB,NOXINST,NOLPT1OSC,NOMCLR 
.................... #use delay(clock=20000000) 
*
01110:  MOVLW  07
01112:  MOVWF  FEA
01114:  MOVLW  E8
01116:  MOVWF  FE9
01118:  MOVF   FEF,W
0111A:  BZ    1136
0111C:  MOVLW  06
0111E:  MOVWF  01
01120:  CLRF   00
01122:  DECFSZ 00,F
01124:  BRA    1122
01126:  DECFSZ 01,F
01128:  BRA    1120
0112A:  MOVLW  7B
0112C:  MOVWF  00
0112E:  DECFSZ 00,F
01130:  BRA    112E
01132:  DECFSZ FEF,F
01134:  BRA    111C
01136:  RETLW  00
.................... #use rs232(baud=9600, xmit=PIN_C6, rcv=PIN_C7, bits=8, parity=N) 
*
027A4:  BTFSS  F9E.4
027A6:  BRA    27A4
027A8:  MOVWF  FAD
027AA:  RETLW  00
.................... #include <DS1302.c> 
.................... ////////////////////////////////////////////////////////////////////////// 
.................... ////                               DS1302.C                           //// 
.................... ////                     Driver for Real Time Clock                   //// 
.................... ////                                                                  //// 
.................... ////  rtc_init()                                   Call after power up//// 
.................... ////                                                                  //// 
.................... ////  rtc_set_datetime(day,mth,year,dow,hour,min)  Set the date/time  //// 
.................... ////                                                                  //// 
.................... ////  rtc_get_date(day,mth,year,dow)               Get the date       //// 
.................... ////                                                                  //// 
.................... ////  rtc_get_time(hr,min,sec)                     Get the time       //// 
.................... ////                                                                  //// 
.................... ////  rtc_write_nvr(address,data)                  Write to NVR       //// 
.................... ////                                                                  //// 
.................... ////  data = rtc_read_nvr(address)                 Read from NVR      //// 
.................... ////                                                                  //// 
.................... ////  get_bcd(data)                              Convert data to BCD  //// 
.................... ////                                                                  //// 
.................... ////  rm_bcd(data)                               Convert data to int  //// 
.................... ////                                                                  //// 
.................... ////////////////////////////////////////////////////////////////////////// 
.................... ////        (C) Copyright 1996,2003 Custom Computer Services          //// 
.................... //// This source code may only be used by licensed users of the CCS C //// 
.................... //// compiler.  This source code may only be distributed to other     //// 
.................... //// licensed users of the CCS C compiler.  No other use, reproduction//// 
.................... //// or distribution is permitted without written permission.         //// 
.................... //// Derivative programs created using this software in object code   //// 
.................... //// form are not restricted in any way.                              //// 
.................... ////////////////////////////////////////////////////////////////////////// 
....................  
.................... //#ifndef RTC_SCLK 
....................  
.................... #define RTC_SCLK PIN_D4 
.................... #define RTC_IO   PIN_D5 
.................... #define RTC_RST  PIN_D6 
....................  
.................... //#endif 
....................  
.................... void write_ds1302_byte(BYTE cmd) { 
....................    BYTE i; 
....................  
....................    for(i=0;i<=7;++i) { 
*
02694:  MOVLB  7
02696:  CLRF   xC4
02698:  MOVF   xC4,W
0269A:  SUBLW  07
0269C:  BNC   26B8
....................       output_bit(RTC_IO, shift_right(&cmd,1,0) ); 
0269E:  BCF    FD8.0
026A0:  RRCF   xC3,F
026A2:  BC    26A8
026A4:  BCF    F8C.5
026A6:  BRA    26AA
026A8:  BSF    F8C.5
026AA:  BCF    F95.5
....................       output_high(RTC_SCLK); 
026AC:  BCF    F95.4
026AE:  BSF    F8C.4
....................       output_low(RTC_SCLK); 
026B0:  BCF    F95.4
026B2:  BCF    F8C.4
....................    } 
026B4:  INCF   xC4,F
026B6:  BRA    2698
.................... } 
026B8:  MOVLB  0
026BA:  RETLW  00
....................  
.................... void write_ds1302(BYTE cmd, BYTE data) { 
....................  
....................    output_high(RTC_RST); 
026BC:  BCF    F95.6
026BE:  BSF    F8C.6
....................    write_ds1302_byte(cmd); 
026C0:  MOVFF  7C1,7C3
026C4:  RCALL  2694
....................    write_ds1302_byte(data); 
026C6:  MOVFF  7C2,7C3
026CA:  RCALL  2694
....................    output_low(RTC_RST); 
026CC:  BCF    F95.6
026CE:  BCF    F8C.6
.................... } 
026D0:  RETLW  00
....................  
.................... BYTE read_ds1302(BYTE cmd) { 
....................    BYTE i,data; 
....................  
....................    output_high(RTC_RST); 
026D2:  BCF    F95.6
026D4:  BSF    F8C.6
....................    write_ds1302_byte(cmd); 
026D6:  MOVFF  7BE,7C3
026DA:  RCALL  2694
....................     
....................    input(RTC_IO); 
026DC:  BSF    F95.5
....................    delay_us(10); 
026DE:  MOVLW  10
026E0:  MOVWF  00
026E2:  DECFSZ 00,F
026E4:  BRA    26E2
026E6:  NOP   
....................           
....................    for(i=0;i<=7;++i) { 
026E8:  MOVLB  7
026EA:  CLRF   xBF
026EC:  MOVF   xBF,W
026EE:  SUBLW  07
026F0:  BNC   271C
....................       shift_right(&data,1,input(RTC_IO)); 
026F2:  BSF    F95.5
026F4:  BTFSC  F83.5
026F6:  BRA    26FC
026F8:  BCF    FD8.0
026FA:  BRA    26FE
026FC:  BSF    FD8.0
026FE:  RRCF   xC0,F
....................       output_high(RTC_SCLK); 
02700:  BCF    F95.4
02702:  BSF    F8C.4
....................       delay_us(20); 
02704:  MOVLW  21
02706:  MOVWF  00
02708:  DECFSZ 00,F
0270A:  BRA    2708
....................       output_low(RTC_SCLK); 
0270C:  BCF    F95.4
0270E:  BCF    F8C.4
....................       delay_us(20); 
02710:  MOVLW  21
02712:  MOVWF  00
02714:  DECFSZ 00,F
02716:  BRA    2714
....................    } 
02718:  INCF   xBF,F
0271A:  BRA    26EC
....................    output_low(RTC_RST); 
0271C:  BCF    F95.6
0271E:  BCF    F8C.6
....................  
....................    return(data); 
02720:  MOVFF  7C0,01
.................... } 
02724:  MOVLB  0
02726:  RETLW  00
....................  
.................... void rtc_init() { 
....................    BYTE x; 
....................    output_low(RTC_RST); 
02728:  BCF    F95.6
0272A:  BCF    F8C.6
....................    delay_us(20); 
0272C:  MOVLW  21
0272E:  MOVWF  00
02730:  DECFSZ 00,F
02732:  BRA    2730
....................    output_low(RTC_SCLK); 
02734:  BCF    F95.4
02736:  BCF    F8C.4
....................    write_ds1302(0x8e,0); 
02738:  MOVLW  8E
0273A:  MOVLB  7
0273C:  MOVWF  xC1
0273E:  CLRF   xC2
02740:  MOVLB  0
02742:  RCALL  26BC
....................    write_ds1302(0x90,0xa4); 
02744:  MOVLW  90
02746:  MOVLB  7
02748:  MOVWF  xC1
0274A:  MOVLW  A4
0274C:  MOVWF  xC2
0274E:  MOVLB  0
02750:  RCALL  26BC
....................    x=read_ds1302(0x81); 
02752:  MOVLW  81
02754:  MOVLB  7
02756:  MOVWF  xBE
02758:  MOVLB  0
0275A:  RCALL  26D2
0275C:  MOVFF  01,7BA
....................    if((x & 0x80)!=0) 
02760:  MOVLB  7
02762:  MOVF   xBA,W
02764:  ANDLW  80
02766:  BZ    2774
....................      write_ds1302(0x80,0); 
02768:  MOVLW  80
0276A:  MOVWF  xC1
0276C:  CLRF   xC2
0276E:  MOVLB  0
02770:  RCALL  26BC
02772:  MOVLB  7
.................... } 
02774:  MOVLB  0
02776:  GOTO   7AEE (RETURN)
....................  
.................... byte get_bcd(BYTE data) 
.................... { 
....................    byte nibh; 
....................    byte nibl; 
....................  
....................    nibh=data/10; 
*
04C24:  MOVFF  7C0,7C3
04C28:  MOVLW  0A
04C2A:  MOVLB  7
04C2C:  MOVWF  xC4
04C2E:  MOVLB  0
04C30:  RCALL  47AE
04C32:  MOVFF  01,7C1
....................    nibl=data-(nibh*10); 
04C36:  MOVLB  7
04C38:  MOVF   xC1,W
04C3A:  MULLW  0A
04C3C:  MOVF   FF3,W
04C3E:  SUBWF  xC0,W
04C40:  MOVWF  xC2
....................  
....................    return((nibh<<4)|nibl); 
04C42:  SWAPF  xC1,W
04C44:  MOVWF  00
04C46:  MOVLW  F0
04C48:  ANDWF  00,F
04C4A:  MOVF   00,W
04C4C:  IORWF  xC2,W
04C4E:  MOVWF  01
.................... } 
04C50:  MOVLB  0
04C52:  RETLW  00
....................  
.................... byte rm_bcd(BYTE data) 
.................... { 
....................    byte i; 
....................  
....................    i=data; 
*
045B0:  MOVFF  7BF,7C0
....................    data=(i>>4)*10; 
045B4:  MOVLB  7
045B6:  SWAPF  xC0,W
045B8:  MOVWF  00
045BA:  MOVLW  0F
045BC:  ANDWF  00,F
045BE:  MOVF   00,W
045C0:  MULLW  0A
045C2:  MOVFF  FF3,7BF
....................    data=data+(i<<4>>4); 
045C6:  SWAPF  xC0,W
045C8:  MOVWF  00
045CA:  MOVLW  F0
045CC:  ANDWF  00,F
045CE:  MOVF   00,W
045D0:  SWAPF  00,F
045D2:  MOVLW  0F
045D4:  ANDWF  00,F
045D6:  MOVF   00,W
045D8:  ADDWF  xBF,F
....................  
....................    return data; 
045DA:  MOVFF  7BF,01
.................... } 
045DE:  MOVLB  0
045E0:  RETLW  00
....................  
.................... void rtc_set_datetime(BYTE day, BYTE mth, BYTE year, BYTE dow, BYTE hr, BYTE min) { 
....................  
....................    write_ds1302(0x86,get_bcd(day)); 
*
04C54:  MOVFF  7BA,7C0
04C58:  RCALL  4C24
04C5A:  MOVFF  01,7C0
04C5E:  MOVLW  86
04C60:  MOVLB  7
04C62:  MOVWF  xC1
04C64:  MOVFF  01,7C2
04C68:  MOVLB  0
04C6A:  CALL   26BC
....................    write_ds1302(0x88,get_bcd(mth)); 
04C6E:  MOVFF  7BB,7C0
04C72:  RCALL  4C24
04C74:  MOVFF  01,7C0
04C78:  MOVLW  88
04C7A:  MOVLB  7
04C7C:  MOVWF  xC1
04C7E:  MOVFF  01,7C2
04C82:  MOVLB  0
04C84:  CALL   26BC
....................    write_ds1302(0x8c,get_bcd(year)); 
04C88:  MOVFF  7BC,7C0
04C8C:  RCALL  4C24
04C8E:  MOVFF  01,7C0
04C92:  MOVLW  8C
04C94:  MOVLB  7
04C96:  MOVWF  xC1
04C98:  MOVFF  01,7C2
04C9C:  MOVLB  0
04C9E:  CALL   26BC
....................    write_ds1302(0x8a,get_bcd(dow)); 
04CA2:  MOVFF  7BD,7C0
04CA6:  RCALL  4C24
04CA8:  MOVFF  01,7C0
04CAC:  MOVLW  8A
04CAE:  MOVLB  7
04CB0:  MOVWF  xC1
04CB2:  MOVFF  01,7C2
04CB6:  MOVLB  0
04CB8:  CALL   26BC
....................    write_ds1302(0x84,get_bcd(hr)); 
04CBC:  MOVFF  7BE,7C0
04CC0:  RCALL  4C24
04CC2:  MOVFF  01,7C0
04CC6:  MOVLW  84
04CC8:  MOVLB  7
04CCA:  MOVWF  xC1
04CCC:  MOVFF  01,7C2
04CD0:  MOVLB  0
04CD2:  CALL   26BC
....................    write_ds1302(0x82,get_bcd(min)); 
04CD6:  MOVFF  7BF,7C0
04CDA:  RCALL  4C24
04CDC:  MOVFF  01,7C0
04CE0:  MOVLW  82
04CE2:  MOVLB  7
04CE4:  MOVWF  xC1
04CE6:  MOVFF  01,7C2
04CEA:  MOVLB  0
04CEC:  CALL   26BC
....................    write_ds1302(0x80,get_bcd(0)); 
04CF0:  MOVLB  7
04CF2:  CLRF   xC0
04CF4:  MOVLB  0
04CF6:  RCALL  4C24
04CF8:  MOVFF  01,7C0
04CFC:  MOVLW  80
04CFE:  MOVLB  7
04D00:  MOVWF  xC1
04D02:  MOVFF  01,7C2
04D06:  MOVLB  0
04D08:  CALL   26BC
.................... } 
04D0C:  GOTO   AFA8 (RETURN)
....................  
.................... void rtc_get_date(BYTE& day, BYTE& mth, BYTE& year, BYTE& dow) { 
....................    day = rm_bcd(read_ds1302(0x87)); 
*
07E44:  MOVLW  87
07E46:  MOVLB  7
07E48:  MOVWF  xBE
07E4A:  MOVLB  0
07E4C:  CALL   26D2
07E50:  MOVFF  01,7BA
07E54:  MOVFF  01,7BF
07E58:  CALL   45B0
07E5C:  MOVFF  01,682
....................    mth = rm_bcd(read_ds1302(0x89)); 
07E60:  MOVLW  89
07E62:  MOVLB  7
07E64:  MOVWF  xBE
07E66:  MOVLB  0
07E68:  CALL   26D2
07E6C:  MOVFF  01,7BA
07E70:  MOVFF  01,7BF
07E74:  CALL   45B0
07E78:  MOVFF  01,681
....................    year = rm_bcd(read_ds1302(0x8d)); 
07E7C:  MOVLW  8D
07E7E:  MOVLB  7
07E80:  MOVWF  xBE
07E82:  MOVLB  0
07E84:  CALL   26D2
07E88:  MOVFF  01,7BA
07E8C:  MOVFF  01,7BF
07E90:  CALL   45B0
07E94:  MOVFF  01,680
....................    dow = rm_bcd(read_ds1302(0x8b)); 
07E98:  MOVLW  8B
07E9A:  MOVLB  7
07E9C:  MOVWF  xBE
07E9E:  MOVLB  0
07EA0:  CALL   26D2
07EA4:  MOVFF  01,7BA
07EA8:  MOVFF  01,7BF
07EAC:  CALL   45B0
07EB0:  MOVFF  01,686
.................... } 
....................  
.................... void rtc_get_time(BYTE& hr, BYTE& min, BYTE& sec) { 
....................    hr = rm_bcd(read_ds1302(0x85)); 
07EB4:  MOVLW  85
07EB6:  MOVLB  7
07EB8:  MOVWF  xBE
07EBA:  MOVLB  0
07EBC:  CALL   26D2
07EC0:  MOVFF  01,7BA
07EC4:  MOVFF  01,7BF
07EC8:  CALL   45B0
07ECC:  MOVFF  01,683
....................    min = rm_bcd(read_ds1302(0x83)); 
07ED0:  MOVLW  83
07ED2:  MOVLB  7
07ED4:  MOVWF  xBE
07ED6:  MOVLB  0
07ED8:  CALL   26D2
07EDC:  MOVFF  01,7BA
07EE0:  MOVFF  01,7BF
07EE4:  CALL   45B0
07EE8:  MOVFF  01,684
....................    sec = rm_bcd(read_ds1302(0x81)); 
07EEC:  MOVLW  81
07EEE:  MOVLB  7
07EF0:  MOVWF  xBE
07EF2:  MOVLB  0
07EF4:  CALL   26D2
07EF8:  MOVFF  01,7BA
07EFC:  MOVFF  01,7BF
07F00:  CALL   45B0
07F04:  MOVFF  01,685
.................... } 
....................  
.................... void rtc_write_nvr(BYTE address, BYTE data) { 
....................    write_ds1302(address|0xc0,data); 
.................... } 
....................  
.................... BYTE rtc_read_nvr(BYTE address) { 
....................     return(read_ds1302(address|0xc1)); 
.................... } 
....................  
.................... #include <math.h> 
.................... //////////////////////////////////////////////////////////////////////////// 
.................... ////        (C) Copyright 1996,2011 Custom Computer Services            //// 
.................... //// This source code may only be used by licensed users of the CCS C   //// 
.................... //// compiler.  This source code may only be distributed to other       //// 
.................... //// licensed users of the CCS C compiler.  No other use, reproduction  //// 
.................... //// or distribution is permitted without written permission.           //// 
.................... //// Derivative programs created using this software in object code     //// 
.................... //// form are not restricted in any way.                                //// 
.................... //////////////////////////////////////////////////////////////////////////// 
.................... ////                                                                    //// 
.................... //// History:                                                           //// 
.................... ////  * 9/20/2001 :  Improvments are made to sin/cos code.              //// 
.................... ////                 The code now is small, much faster,                //// 
.................... ////                 and more accurate.                                 //// 
.................... ////  * 2/21/2007 :  Compiler handles & operator differently and does   //// 
.................... ////                 not return generic (int8 *) so type cast is done   //// 
.................... ////  * 6/19/2010 :  Divisions by constants converted to multiplication //// 
.................... ////                 by its inverse to improve computation speed        //// 
.................... ////  * 1/21/2011 :  Constants used for double precision math updated   //// 
.................... ////                 Updated routines include 64 bit versions of cos,   //// 
.................... ////                 asin,atan,exp,log and dependant functions          //// 
.................... ////  * 1/31/2011 :  Optimized current 32-bit float routines for cos    //// 
.................... ////                 and log function                                   //// 
.................... ////  * 6/13/2011 :  Fixed PCD overload CEIL_FLOOR functions for values //// 
.................... ////                 greater then 10000000 and less then -10000000      //// 
.................... ////                                                                    //// 
.................... //////////////////////////////////////////////////////////////////////////// 
....................  
.................... #ifndef MATH_H 
.................... #define MATH_H 
....................  
.................... #ifdef PI 
.................... #undef  PI 
.................... #endif 
.................... #define PI     3.1415926535897932 
....................  
....................  
.................... #define SQRT2  1.4142135623730950 
....................  
.................... //float const ps[4] = {5.9304945, 21.125224, 8.9403076, 0.29730279}; 
.................... //float const qs[4] = {1.0000000, 15.035723, 17.764134, 2.4934718}; 
....................  
.................... ///////////////////////////// Round Functions ////////////////////////////// 
....................  
.................... float32 CEIL_FLOOR(float32 x, unsigned int8 n) 
.................... { 
....................    float32 y, res; 
....................    unsigned int16 l; 
....................    int1 s; 
....................  
....................    s = 0; 
*
02D0E:  MOVLB  8
02D10:  BCF    x12.0
....................    y = x; 
02D12:  MOVFF  806,80B
02D16:  MOVFF  805,80A
02D1A:  MOVFF  804,809
02D1E:  MOVFF  803,808
....................  
....................    if (x < 0) 
02D22:  MOVFF  806,816
02D26:  MOVFF  805,815
02D2A:  MOVFF  804,814
02D2E:  MOVFF  803,813
02D32:  CLRF   x1A
02D34:  CLRF   x19
02D36:  CLRF   x18
02D38:  CLRF   x17
02D3A:  MOVLB  0
02D3C:  CALL   1572
02D40:  BNC   2D4C
....................    { 
....................       s = 1; 
02D42:  MOVLB  8
02D44:  BSF    x12.0
....................       y = -y; 
02D46:  MOVF   x09,W
02D48:  XORLW  80
02D4A:  MOVWF  x09
....................    } 
....................  
....................    if (y <= 32768.0) 
02D4C:  MOVFF  80B,816
02D50:  MOVFF  80A,815
02D54:  MOVFF  809,814
02D58:  MOVFF  808,813
02D5C:  MOVLB  8
02D5E:  CLRF   x1A
02D60:  CLRF   x19
02D62:  CLRF   x18
02D64:  MOVLW  8E
02D66:  MOVWF  x17
02D68:  MOVLB  0
02D6A:  CALL   1572
02D6E:  BC    2D72
02D70:  BNZ   2DA2
....................       res = (float32)(unsigned int16)y; 
02D72:  MOVFF  80B,816
02D76:  MOVFF  80A,815
02D7A:  MOVFF  809,814
02D7E:  MOVFF  808,813
02D82:  RCALL  2CD2
02D84:  MOVFF  02,818
02D88:  MOVFF  01,817
02D8C:  CALL   10DA
02D90:  MOVFF  03,80F
02D94:  MOVFF  02,80E
02D98:  MOVFF  01,80D
02D9C:  MOVFF  00,80C
....................  
....................  else if (y < 10000000.0) 
02DA0:  BRA    2F3C
02DA2:  MOVFF  80B,816
02DA6:  MOVFF  80A,815
02DAA:  MOVFF  809,814
02DAE:  MOVFF  808,813
02DB2:  MOVLW  80
02DB4:  MOVLB  8
02DB6:  MOVWF  x1A
02DB8:  MOVLW  96
02DBA:  MOVWF  x19
02DBC:  MOVLW  18
02DBE:  MOVWF  x18
02DC0:  MOVLW  96
02DC2:  MOVWF  x17
02DC4:  MOVLB  0
02DC6:  CALL   1572
02DCA:  BTFSS  FD8.0
02DCC:  BRA    2F2C
....................    {  
....................       l = (unsigned int16)(y*0.000030517578125); 
02DCE:  MOVFF  80B,816
02DD2:  MOVFF  80A,815
02DD6:  MOVFF  809,814
02DDA:  MOVFF  808,813
02DDE:  MOVLB  8
02DE0:  CLRF   x1A
02DE2:  CLRF   x19
02DE4:  CLRF   x18
02DE6:  MOVLW  70
02DE8:  MOVWF  x17
02DEA:  MOVLB  0
02DEC:  RCALL  283A
02DEE:  MOVFF  03,816
02DF2:  MOVFF  02,815
02DF6:  MOVFF  01,814
02DFA:  MOVFF  00,813
02DFE:  RCALL  2CD2
02E00:  MOVFF  02,811
02E04:  MOVFF  01,810
....................       y = 32768.0*(y*0.000030517578125 - (float32)l); 
02E08:  MOVFF  80B,816
02E0C:  MOVFF  80A,815
02E10:  MOVFF  809,814
02E14:  MOVFF  808,813
02E18:  MOVLB  8
02E1A:  CLRF   x1A
02E1C:  CLRF   x19
02E1E:  CLRF   x18
02E20:  MOVLW  70
02E22:  MOVWF  x17
02E24:  MOVLB  0
02E26:  RCALL  283A
02E28:  MOVFF  00,813
02E2C:  MOVFF  01,814
02E30:  MOVFF  02,815
02E34:  MOVFF  03,816
02E38:  MOVFF  811,818
02E3C:  MOVFF  810,817
02E40:  CALL   10DA
02E44:  BSF    FD8.1
02E46:  MOVFF  816,81A
02E4A:  MOVFF  815,819
02E4E:  MOVFF  814,818
02E52:  MOVFF  813,817
02E56:  MOVFF  03,81E
02E5A:  MOVFF  02,81D
02E5E:  MOVFF  01,81C
02E62:  MOVFF  00,81B
02E66:  CALL   1296
02E6A:  MOVLB  8
02E6C:  CLRF   x16
02E6E:  CLRF   x15
02E70:  CLRF   x14
02E72:  MOVLW  8E
02E74:  MOVWF  x13
02E76:  MOVFF  03,81A
02E7A:  MOVFF  02,819
02E7E:  MOVFF  01,818
02E82:  MOVFF  00,817
02E86:  MOVLB  0
02E88:  RCALL  283A
02E8A:  MOVFF  03,80B
02E8E:  MOVFF  02,80A
02E92:  MOVFF  01,809
02E96:  MOVFF  00,808
....................       res = 32768.0*(float32)l; 
02E9A:  MOVFF  811,818
02E9E:  MOVFF  810,817
02EA2:  CALL   10DA
02EA6:  MOVLB  8
02EA8:  CLRF   x16
02EAA:  CLRF   x15
02EAC:  CLRF   x14
02EAE:  MOVLW  8E
02EB0:  MOVWF  x13
02EB2:  MOVFF  03,81A
02EB6:  MOVFF  02,819
02EBA:  MOVFF  01,818
02EBE:  MOVFF  00,817
02EC2:  MOVLB  0
02EC4:  RCALL  283A
02EC6:  MOVFF  03,80F
02ECA:  MOVFF  02,80E
02ECE:  MOVFF  01,80D
02ED2:  MOVFF  00,80C
....................       res += (float32)(unsigned int16)y; 
02ED6:  MOVFF  80B,816
02EDA:  MOVFF  80A,815
02EDE:  MOVFF  809,814
02EE2:  MOVFF  808,813
02EE6:  RCALL  2CD2
02EE8:  MOVFF  02,818
02EEC:  MOVFF  01,817
02EF0:  CALL   10DA
02EF4:  BCF    FD8.1
02EF6:  MOVFF  80F,81A
02EFA:  MOVFF  80E,819
02EFE:  MOVFF  80D,818
02F02:  MOVFF  80C,817
02F06:  MOVFF  03,81E
02F0A:  MOVFF  02,81D
02F0E:  MOVFF  01,81C
02F12:  MOVFF  00,81B
02F16:  CALL   1296
02F1A:  MOVFF  03,80F
02F1E:  MOVFF  02,80E
02F22:  MOVFF  01,80D
02F26:  MOVFF  00,80C
....................    } 
....................  
....................  else 
02F2A:  BRA    2F3C
....................   res = y; 
02F2C:  MOVFF  80B,80F
02F30:  MOVFF  80A,80E
02F34:  MOVFF  809,80D
02F38:  MOVFF  808,80C
....................  
....................  y = y - (float32)(unsigned int16)y; 
02F3C:  MOVFF  80B,816
02F40:  MOVFF  80A,815
02F44:  MOVFF  809,814
02F48:  MOVFF  808,813
02F4C:  RCALL  2CD2
02F4E:  MOVFF  02,818
02F52:  MOVFF  01,817
02F56:  CALL   10DA
02F5A:  BSF    FD8.1
02F5C:  MOVFF  80B,81A
02F60:  MOVFF  80A,819
02F64:  MOVFF  809,818
02F68:  MOVFF  808,817
02F6C:  MOVFF  03,81E
02F70:  MOVFF  02,81D
02F74:  MOVFF  01,81C
02F78:  MOVFF  00,81B
02F7C:  CALL   1296
02F80:  MOVFF  03,80B
02F84:  MOVFF  02,80A
02F88:  MOVFF  01,809
02F8C:  MOVFF  00,808
....................  
....................  if (s) 
02F90:  MOVLB  8
02F92:  BTFSS  x12.0
02F94:  BRA    2F9C
....................   res = -res; 
02F96:  MOVF   x0D,W
02F98:  XORLW  80
02F9A:  MOVWF  x0D
....................  
....................  if (y != 0) 
02F9C:  MOVFF  80B,816
02FA0:  MOVFF  80A,815
02FA4:  MOVFF  809,814
02FA8:  MOVFF  808,813
02FAC:  CLRF   x1A
02FAE:  CLRF   x19
02FB0:  CLRF   x18
02FB2:  CLRF   x17
02FB4:  MOVLB  0
02FB6:  CALL   1572
02FBA:  BZ    3034
....................  { 
....................   if (s == 1 && n == 0) 
02FBC:  MOVLB  8
02FBE:  BTFSS  x12.0
02FC0:  BRA    2FFA
02FC2:  MOVF   x07,F
02FC4:  BNZ   2FFA
....................    res -= 1.0; 
02FC6:  BSF    FD8.1
02FC8:  MOVFF  80F,81A
02FCC:  MOVFF  80E,819
02FD0:  MOVFF  80D,818
02FD4:  MOVFF  80C,817
02FD8:  CLRF   x1E
02FDA:  CLRF   x1D
02FDC:  CLRF   x1C
02FDE:  MOVLW  7F
02FE0:  MOVWF  x1B
02FE2:  MOVLB  0
02FE4:  CALL   1296
02FE8:  MOVFF  03,80F
02FEC:  MOVFF  02,80E
02FF0:  MOVFF  01,80D
02FF4:  MOVFF  00,80C
02FF8:  MOVLB  8
....................  
....................   if (s == 0 && n == 1) 
02FFA:  BTFSC  x12.0
02FFC:  BRA    3036
02FFE:  DECFSZ x07,W
03000:  BRA    3036
....................    res += 1.0; 
03002:  BCF    FD8.1
03004:  MOVFF  80F,81A
03008:  MOVFF  80E,819
0300C:  MOVFF  80D,818
03010:  MOVFF  80C,817
03014:  CLRF   x1E
03016:  CLRF   x1D
03018:  CLRF   x1C
0301A:  MOVLW  7F
0301C:  MOVWF  x1B
0301E:  MOVLB  0
03020:  CALL   1296
03024:  MOVFF  03,80F
03028:  MOVFF  02,80E
0302C:  MOVFF  01,80D
03030:  MOVFF  00,80C
03034:  MOVLB  8
....................  } 
....................  if (x == 0) 
03036:  MOVFF  806,816
0303A:  MOVFF  805,815
0303E:  MOVFF  804,814
03042:  MOVFF  803,813
03046:  CLRF   x1A
03048:  CLRF   x19
0304A:  CLRF   x18
0304C:  CLRF   x17
0304E:  MOVLB  0
03050:  CALL   1572
03054:  BNZ   3062
....................     res = 0; 
03056:  MOVLB  8
03058:  CLRF   x0F
0305A:  CLRF   x0E
0305C:  CLRF   x0D
0305E:  CLRF   x0C
03060:  MOVLB  0
....................  
....................  return (res); 
03062:  MOVFF  80C,00
03066:  MOVFF  80D,01
0306A:  MOVFF  80E,02
0306E:  MOVFF  80F,03
.................... } 
03072:  RETLW  00
....................  
.................... // Overloaded Functions to take care for new Data types in PCD 
.................... // Overloaded function CEIL_FLOOR() for data type - Float48 
.................... #if defined(__PCD__) 
.................... float48 CEIL_FLOOR(float48 x, unsigned int8 n) 
.................... { 
....................    float48 y, res; 
....................    unsigned int32 l; 
....................    int1 s; 
....................  
....................    s = 0; 
....................    y = x; 
....................  
....................    if (x < 0) 
....................    { 
....................       s = 1; 
....................       y = -y; 
....................    } 
....................  
....................    if (y <= 32768.0) 
....................       res = (float48)(unsigned int16)y; 
....................  
....................    else if (y < 549755813888.0) 
....................    { 
....................       l = (unsigned int32)(y*0.000030517578125); 
....................       y = 32768.0*(y*0.000030517578125 - (float48)l); 
....................       res = 32768.0*(float48)l; 
....................       res += (float48)(unsigned int16)y; 
....................    } 
....................    else 
....................    {   
....................       res = y; 
....................       y = 0.0; 
....................    } 
....................     
....................    if(y != 0) 
....................       y = y - (float48)(unsigned int16)y; 
....................  
....................    if (s) 
....................       res = -res; 
....................  
....................    if (y != 0) 
....................    { 
....................       if (s == 1 && n == 0) 
....................          res -= 1.0; 
....................  
....................       if (s == 0 && n == 1) 
....................          res += 1.0; 
....................    } 
....................    if (x == 0) 
....................       res = 0; 
....................  
....................    return (res); 
.................... } 
....................  
....................  
.................... // Overloaded function CEIL_FLOOR() for data type - Float64 
.................... float64 CEIL_FLOOR(float64 x, unsigned int8 n) 
.................... { 
....................    float64 y, res; 
....................    int64 l; 
....................    int1 s; 
....................  
....................    s = 0; 
....................    y = x; 
....................  
....................    if (x < 0) 
....................    { 
....................       s = 1; 
....................       y = -y; 
....................    } 
....................  
....................    if (y <= 32768.0) 
....................       res = (float64)(unsigned int16)y; 
....................    else if (y < 4503599627370496.0) 
....................    { 
....................       l = (int64)(y*0.000030517578125); 
....................       y = 32768.0*(y*0.000030517578125 - (float64)l); 
....................       res = 32768.0*(float64)l; 
....................       res += (float64)(unsigned int16)y; 
....................    } 
....................    else 
....................    { 
....................       res = y; 
....................       y = 0.0; 
....................    } 
....................     
....................    if(y != 0) 
....................       y = y - (float64)(unsigned int16)y; 
....................  
....................    if (s) 
....................       res = -res; 
....................  
....................    if (y != 0) 
....................    { 
....................       if (s == 1 && n == 0) 
....................          res -= 1.0; 
....................  
....................       if (s == 0 && n == 1) 
....................          res += 1.0; 
....................    } 
....................     
....................    if (x == 0) 
....................       res = 0; 
....................  
....................    return (res); 
.................... } 
.................... #endif 
....................  
.................... //////////////////////////////////////////////////////////////////////////// 
.................... //   float floor(float x) 
.................... //////////////////////////////////////////////////////////////////////////// 
.................... // Description : rounds down the number x. 
.................... // Date : N/A 
.................... // 
.................... float32 floor(float32 x) 
.................... { 
....................    return CEIL_FLOOR(x,0); 
*
03092:  MOVFF  802,806
03096:  MOVFF  801,805
0309A:  MOVFF  800,804
0309E:  MOVFF  7FF,803
030A2:  MOVLB  8
030A4:  CLRF   x07
030A6:  MOVLB  0
030A8:  RCALL  2D0E
.................... } 
030AA:  GOTO   31B6 (RETURN)
.................... // Following 2 functions are overloaded functions of floor() for PCD 
.................... // Overloaded function floor() for data type - Float48 
.................... #if defined(__PCD__) 
.................... float48 floor(float48 x) 
.................... { 
....................    return CEIL_FLOOR(x, 0); 
.................... } 
....................  
.................... // Overloaded function floor() for data type - Float64 
.................... float64 floor(float64 x) 
.................... { 
....................    return CEIL_FLOOR(x, 0); 
.................... } 
.................... #endif 
....................  
....................  
.................... //////////////////////////////////////////////////////////////////////////// 
.................... //   float ceil(float x) 
.................... //////////////////////////////////////////////////////////////////////////// 
.................... // Description : rounds up the number x. 
.................... // Date : N/A 
.................... // 
.................... float32 ceil(float32 x) 
.................... { 
....................    return CEIL_FLOOR(x, 1); 
*
03074:  MOVFF  802,806
03078:  MOVFF  801,805
0307C:  MOVFF  800,804
03080:  MOVFF  7FF,803
03084:  MOVLW  01
03086:  MOVLB  8
03088:  MOVWF  x07
0308A:  MOVLB  0
0308C:  RCALL  2D0E
.................... } 
0308E:  GOTO   316E (RETURN)
.................... // Following 2 functions are overloaded functions of ceil() for PCD 
.................... // Overloaded function ceil() for data type - Float48 
.................... #if defined(__PCD__) 
.................... float48 ceil(float48 x) 
.................... { 
....................    return CEIL_FLOOR(x, 1); 
.................... } 
....................  
.................... // Overloaded function ceil() for data type - Float64 
.................... float64 ceil(float64 x) 
.................... { 
....................    return CEIL_FLOOR(x, 1); 
.................... } 
.................... #endif 
....................  
....................  //////////////////////////////////////////////////////////////////////////// 
.................... //   float fabs(float x) 
.................... //////////////////////////////////////////////////////////////////////////// 
.................... // Description : Computes the absolute value of floating point number x 
.................... // Returns : returns the absolute value of x 
.................... // Date : N/A 
.................... // 
.................... #define fabs abs 
....................  
.................... //////////////////////////////////////////////////////////////////////////// 
.................... //   float fmod(float x) 
.................... //////////////////////////////////////////////////////////////////////////// 
.................... // Description : Computes the floating point remainder of x/y 
.................... // Returns : returns the value of x= i*y, for some integer i such that, if y 
.................... // is non zero, the result has the same isgn of x na dmagnitude less than the 
.................... // magnitude of y. If y is zero then a domain error occurs. 
.................... // Date : N/A 
.................... // 
....................  
.................... float fmod(float32 x,float32 y) 
.................... { 
....................    float32 i; 
....................    if (y!=0.0) 
*
030AE:  MOVFF  7F6,816
030B2:  MOVFF  7F5,815
030B6:  MOVFF  7F4,814
030BA:  MOVFF  7F3,813
030BE:  MOVLB  8
030C0:  CLRF   x1A
030C2:  CLRF   x19
030C4:  CLRF   x18
030C6:  CLRF   x17
030C8:  MOVLB  0
030CA:  CALL   1572
030CE:  BTFSC  FD8.2
030D0:  BRA    3214
....................    { 
....................       i=(x/y < 0.0)? ceil(x/y): floor(x/y); 
030D2:  MOVFF  7F2,80F
030D6:  MOVFF  7F1,80E
030DA:  MOVFF  7F0,80D
030DE:  MOVFF  7EF,80C
030E2:  MOVFF  7F6,813
030E6:  MOVFF  7F5,812
030EA:  MOVFF  7F4,811
030EE:  MOVFF  7F3,810
030F2:  CALL   1138
030F6:  MOVFF  00,7FB
030FA:  MOVFF  01,7FC
030FE:  MOVFF  02,7FD
03102:  MOVFF  03,7FE
03106:  MOVFF  03,816
0310A:  MOVFF  02,815
0310E:  MOVFF  01,814
03112:  MOVFF  00,813
03116:  MOVLB  8
03118:  CLRF   x1A
0311A:  CLRF   x19
0311C:  CLRF   x18
0311E:  CLRF   x17
03120:  MOVLB  0
03122:  CALL   1572
03126:  BNC   3170
03128:  MOVFF  7F2,80F
0312C:  MOVFF  7F1,80E
03130:  MOVFF  7F0,80D
03134:  MOVFF  7EF,80C
03138:  MOVFF  7F6,813
0313C:  MOVFF  7F5,812
03140:  MOVFF  7F4,811
03144:  MOVFF  7F3,810
03148:  CALL   1138
0314C:  MOVFF  00,7FB
03150:  MOVFF  01,7FC
03154:  MOVFF  02,7FD
03158:  MOVFF  03,7FE
0315C:  MOVFF  03,802
03160:  MOVFF  02,801
03164:  MOVFF  01,800
03168:  MOVFF  00,7FF
0316C:  BRA    3074
0316E:  BRA    31B6
03170:  MOVFF  7F2,80F
03174:  MOVFF  7F1,80E
03178:  MOVFF  7F0,80D
0317C:  MOVFF  7EF,80C
03180:  MOVFF  7F6,813
03184:  MOVFF  7F5,812
03188:  MOVFF  7F4,811
0318C:  MOVFF  7F3,810
03190:  CALL   1138
03194:  MOVFF  00,7FB
03198:  MOVFF  01,7FC
0319C:  MOVFF  02,7FD
031A0:  MOVFF  03,7FE
031A4:  MOVFF  03,802
031A8:  MOVFF  02,801
031AC:  MOVFF  01,800
031B0:  MOVFF  00,7FF
031B4:  BRA    3092
031B6:  MOVFF  03,7FA
031BA:  MOVFF  02,7F9
031BE:  MOVFF  01,7F8
031C2:  MOVFF  00,7F7
....................       return(x-(i*y)); 
031C6:  MOVFF  7FA,816
031CA:  MOVFF  7F9,815
031CE:  MOVFF  7F8,814
031D2:  MOVFF  7F7,813
031D6:  MOVFF  7F6,81A
031DA:  MOVFF  7F5,819
031DE:  MOVFF  7F4,818
031E2:  MOVFF  7F3,817
031E6:  CALL   283A
031EA:  BSF    FD8.1
031EC:  MOVFF  7F2,81A
031F0:  MOVFF  7F1,819
031F4:  MOVFF  7F0,818
031F8:  MOVFF  7EF,817
031FC:  MOVFF  03,81E
03200:  MOVFF  02,81D
03204:  MOVFF  01,81C
03208:  MOVFF  00,81B
0320C:  CALL   1296
03210:  BRA    3214
....................    } 
....................    else 
03212:  BRA    3214
....................    { 
....................    #ifdef _ERRNO 
....................    { 
....................       errno=EDOM; 
....................    } 
....................    #endif 
....................    } 
.................... } 
03214:  RETLW  00
.................... //Overloaded function for fmod() for PCD 
.................... // Overloaded function fmod() for data type - Float48 
.................... #if defined(__PCD__) 
.................... float48 fmod(float48 x,float48 y) 
.................... { 
....................    float48 i; 
....................    if (y!=0.0) 
....................    { 
....................       i=(x/y < 0.0)? ceil(x/y): floor(x/y); 
....................       return(x-(i*y)); 
....................    } 
....................    else 
....................    { 
....................    #ifdef _ERRNO 
....................    { 
....................       errno=EDOM; 
....................    } 
....................    #endif 
....................    } 
.................... } 
.................... // Overloaded function fmod() for data type - Float64 
.................... float64 fmod(float64 x,float64 y) 
.................... { 
....................    float64 i; 
....................    if (y!=0.0) 
....................    { 
....................       i=(x/y < 0.0)? ceil(x/y): floor(x/y); 
....................       return(x-(i*y)); 
....................    } 
....................    else 
....................    { 
....................    #ifdef _ERRNO 
....................    { 
....................       errno=EDOM; 
....................    } 
....................    #endif 
....................    } 
.................... } 
.................... #endif 
.................... //////////////////// Exponential and logarithmic functions //////////////////// 
.................... //////////////////////////////////////////////////////////////////////////// 
.................... //   float exp(float x) 
.................... //////////////////////////////////////////////////////////////////////////// 
.................... // Description : returns the value (e^x) 
.................... // Date : N/A 
.................... // 
.................... #define LN2 0.6931471805599453 
.................... #define LN2_INV 1.4426950408889634073 
....................  
.................... float const pe[6] = {0.000207455774, 0.00127100575, 0.00965065093, 
....................                      0.0554965651,  0.240227138,  0.693147172}; 
....................  
....................  
.................... float32 exp(float32 x) 
.................... { 
....................    float32 y, res, r; 
....................    #if defined(__PCD__) 
....................    int8 data1; 
....................    #endif 
....................    signed int8 n; 
....................    int1 s; 
....................    #ifdef _ERRNO 
....................    if(x > 88.722838) 
....................    { 
....................       errno=ERANGE; 
....................       return(0); 
....................    } 
....................    #endif 
....................    n = (signed int16)(x*LN2_INV); 
*
035F8:  MOVFF  7F6,816
035FC:  MOVFF  7F5,815
03600:  MOVFF  7F4,814
03604:  MOVFF  7F3,813
03608:  MOVLW  3B
0360A:  MOVLB  8
0360C:  MOVWF  x1A
0360E:  MOVLW  AA
03610:  MOVWF  x19
03612:  MOVLW  38
03614:  MOVWF  x18
03616:  MOVLW  7F
03618:  MOVWF  x17
0361A:  MOVLB  0
0361C:  CALL   283A
03620:  MOVFF  03,816
03624:  MOVFF  02,815
03628:  MOVFF  01,814
0362C:  MOVFF  00,813
03630:  CALL   2CD2
03634:  MOVFF  01,803
....................    s = 0; 
03638:  MOVLB  8
0363A:  BCF    x04.0
....................    y = x; 
0363C:  MOVFF  7F6,7FA
03640:  MOVFF  7F5,7F9
03644:  MOVFF  7F4,7F8
03648:  MOVFF  7F3,7F7
....................  
....................    if (x < 0) 
0364C:  MOVFF  7F6,816
03650:  MOVFF  7F5,815
03654:  MOVFF  7F4,814
03658:  MOVFF  7F3,813
0365C:  CLRF   x1A
0365E:  CLRF   x19
03660:  CLRF   x18
03662:  CLRF   x17
03664:  MOVLB  0
03666:  CALL   1572
0366A:  BNC   367A
....................    { 
....................       s = 1; 
0366C:  MOVLB  8
0366E:  BSF    x04.0
....................       n = -n; 
03670:  NEGF   x03
....................       y = -y; 
03672:  MOVLB  7
03674:  MOVF   xF8,W
03676:  XORLW  80
03678:  MOVWF  xF8
....................    } 
....................  
....................    res = 0.0; 
0367A:  MOVLB  7
0367C:  CLRF   xFE
0367E:  CLRF   xFD
03680:  CLRF   xFC
03682:  CLRF   xFB
.................... #if !defined(__PCD__) 
....................    *((unsigned int8 *)(&res)) = n + 0x7F; 
03684:  MOVLW  07
03686:  MOVLB  8
03688:  MOVWF  x06
0368A:  MOVLW  FB
0368C:  MOVWF  FE9
0368E:  MOVFF  806,FEA
03692:  MOVLW  7F
03694:  ADDWF  x03,W
03696:  MOVWF  FEF
.................... #endif 
....................  
.................... #if defined(__PCD__)  // Takes care of IEEE format for PCD 
....................    data1 = n+0x7F; 
....................    if(bit_test(data1,0)) 
....................    bit_set(*(((unsigned int8 *)(&res)+2)),7); 
....................    rotate_right(&data1,1); 
....................    bit_clear(data1,7); 
....................    *(((unsigned int8 *)(&res)+3)) = data1; 
.................... #endif 
....................  
....................    y = y*LN2_INV - (float32)n; 
03698:  MOVFF  7FA,816
0369C:  MOVFF  7F9,815
036A0:  MOVFF  7F8,814
036A4:  MOVFF  7F7,813
036A8:  MOVLW  3B
036AA:  MOVWF  x1A
036AC:  MOVLW  AA
036AE:  MOVWF  x19
036B0:  MOVLW  38
036B2:  MOVWF  x18
036B4:  MOVLW  7F
036B6:  MOVWF  x17
036B8:  MOVLB  0
036BA:  CALL   283A
036BE:  MOVFF  00,805
036C2:  MOVFF  01,806
036C6:  MOVFF  02,807
036CA:  MOVFF  03,808
036CE:  MOVLB  8
036D0:  CLRF   x0A
036D2:  MOVFF  803,809
036D6:  BTFSC  x09.7
036D8:  DECF   x0A,F
036DA:  MOVLB  0
036DC:  RCALL  3216
036DE:  BSF    FD8.1
036E0:  MOVFF  808,81A
036E4:  MOVFF  807,819
036E8:  MOVFF  806,818
036EC:  MOVFF  805,817
036F0:  MOVFF  03,81E
036F4:  MOVFF  02,81D
036F8:  MOVFF  01,81C
036FC:  MOVFF  00,81B
03700:  CALL   1296
03704:  MOVFF  03,7FA
03708:  MOVFF  02,7F9
0370C:  MOVFF  01,7F8
03710:  MOVFF  00,7F7
....................  
....................    r = pe[0]*y + pe[1]; 
03714:  MOVLW  7C
03716:  MOVLB  8
03718:  MOVWF  x16
0371A:  MOVLW  88
0371C:  MOVWF  x15
0371E:  MOVLW  59
03720:  MOVWF  x14
03722:  MOVLW  72
03724:  MOVWF  x13
03726:  MOVFF  7FA,81A
0372A:  MOVFF  7F9,819
0372E:  MOVFF  7F8,818
03732:  MOVFF  7F7,817
03736:  MOVLB  0
03738:  CALL   283A
0373C:  MOVFF  00,805
03740:  MOVFF  01,806
03744:  MOVFF  02,807
03748:  MOVFF  03,808
0374C:  BCF    FD8.1
0374E:  MOVFF  03,81A
03752:  MOVFF  02,819
03756:  MOVFF  01,818
0375A:  MOVFF  00,817
0375E:  MOVLW  E0
03760:  MOVLB  8
03762:  MOVWF  x1E
03764:  MOVLW  97
03766:  MOVWF  x1D
03768:  MOVLW  26
0376A:  MOVWF  x1C
0376C:  MOVLW  75
0376E:  MOVWF  x1B
03770:  MOVLB  0
03772:  CALL   1296
03776:  MOVFF  03,802
0377A:  MOVFF  02,801
0377E:  MOVFF  01,800
03782:  MOVFF  00,7FF
....................    r = r*y + pe[2]; 
03786:  MOVFF  802,816
0378A:  MOVFF  801,815
0378E:  MOVFF  800,814
03792:  MOVFF  7FF,813
03796:  MOVFF  7FA,81A
0379A:  MOVFF  7F9,819
0379E:  MOVFF  7F8,818
037A2:  MOVFF  7F7,817
037A6:  CALL   283A
037AA:  MOVFF  00,805
037AE:  MOVFF  01,806
037B2:  MOVFF  02,807
037B6:  MOVFF  03,808
037BA:  BCF    FD8.1
037BC:  MOVFF  03,81A
037C0:  MOVFF  02,819
037C4:  MOVFF  01,818
037C8:  MOVFF  00,817
037CC:  MOVLW  C4
037CE:  MOVLB  8
037D0:  MOVWF  x1E
037D2:  MOVLW  1D
037D4:  MOVWF  x1D
037D6:  MOVLW  1E
037D8:  MOVWF  x1C
037DA:  MOVLW  78
037DC:  MOVWF  x1B
037DE:  MOVLB  0
037E0:  CALL   1296
037E4:  MOVFF  03,802
037E8:  MOVFF  02,801
037EC:  MOVFF  01,800
037F0:  MOVFF  00,7FF
....................    r = r*y + pe[3]; 
037F4:  MOVFF  802,816
037F8:  MOVFF  801,815
037FC:  MOVFF  800,814
03800:  MOVFF  7FF,813
03804:  MOVFF  7FA,81A
03808:  MOVFF  7F9,819
0380C:  MOVFF  7F8,818
03810:  MOVFF  7F7,817
03814:  CALL   283A
03818:  MOVFF  00,805
0381C:  MOVFF  01,806
03820:  MOVFF  02,807
03824:  MOVFF  03,808
03828:  BCF    FD8.1
0382A:  MOVFF  03,81A
0382E:  MOVFF  02,819
03832:  MOVFF  01,818
03836:  MOVFF  00,817
0383A:  MOVLW  5E
0383C:  MOVLB  8
0383E:  MOVWF  x1E
03840:  MOVLW  50
03842:  MOVWF  x1D
03844:  MOVLW  63
03846:  MOVWF  x1C
03848:  MOVLW  7A
0384A:  MOVWF  x1B
0384C:  MOVLB  0
0384E:  CALL   1296
03852:  MOVFF  03,802
03856:  MOVFF  02,801
0385A:  MOVFF  01,800
0385E:  MOVFF  00,7FF
....................    r = r*y + pe[4]; 
03862:  MOVFF  802,816
03866:  MOVFF  801,815
0386A:  MOVFF  800,814
0386E:  MOVFF  7FF,813
03872:  MOVFF  7FA,81A
03876:  MOVFF  7F9,819
0387A:  MOVFF  7F8,818
0387E:  MOVFF  7F7,817
03882:  CALL   283A
03886:  MOVFF  00,805
0388A:  MOVFF  01,806
0388E:  MOVFF  02,807
03892:  MOVFF  03,808
03896:  BCF    FD8.1
03898:  MOVFF  03,81A
0389C:  MOVFF  02,819
038A0:  MOVFF  01,818
038A4:  MOVFF  00,817
038A8:  MOVLW  1A
038AA:  MOVLB  8
038AC:  MOVWF  x1E
038AE:  MOVLW  FE
038B0:  MOVWF  x1D
038B2:  MOVLW  75
038B4:  MOVWF  x1C
038B6:  MOVLW  7C
038B8:  MOVWF  x1B
038BA:  MOVLB  0
038BC:  CALL   1296
038C0:  MOVFF  03,802
038C4:  MOVFF  02,801
038C8:  MOVFF  01,800
038CC:  MOVFF  00,7FF
....................    r = r*y + pe[5]; 
038D0:  MOVFF  802,816
038D4:  MOVFF  801,815
038D8:  MOVFF  800,814
038DC:  MOVFF  7FF,813
038E0:  MOVFF  7FA,81A
038E4:  MOVFF  7F9,819
038E8:  MOVFF  7F8,818
038EC:  MOVFF  7F7,817
038F0:  CALL   283A
038F4:  MOVFF  00,805
038F8:  MOVFF  01,806
038FC:  MOVFF  02,807
03900:  MOVFF  03,808
03904:  BCF    FD8.1
03906:  MOVFF  03,81A
0390A:  MOVFF  02,819
0390E:  MOVFF  01,818
03912:  MOVFF  00,817
03916:  MOVLW  18
03918:  MOVLB  8
0391A:  MOVWF  x1E
0391C:  MOVLW  72
0391E:  MOVWF  x1D
03920:  MOVLW  31
03922:  MOVWF  x1C
03924:  MOVLW  7E
03926:  MOVWF  x1B
03928:  MOVLB  0
0392A:  CALL   1296
0392E:  MOVFF  03,802
03932:  MOVFF  02,801
03936:  MOVFF  01,800
0393A:  MOVFF  00,7FF
....................  
....................    res = res*(1.0 + y*r); 
0393E:  MOVFF  7FA,816
03942:  MOVFF  7F9,815
03946:  MOVFF  7F8,814
0394A:  MOVFF  7F7,813
0394E:  MOVFF  802,81A
03952:  MOVFF  801,819
03956:  MOVFF  800,818
0395A:  MOVFF  7FF,817
0395E:  CALL   283A
03962:  BCF    FD8.1
03964:  MOVLB  8
03966:  CLRF   x1A
03968:  CLRF   x19
0396A:  CLRF   x18
0396C:  MOVLW  7F
0396E:  MOVWF  x17
03970:  MOVFF  03,81E
03974:  MOVFF  02,81D
03978:  MOVFF  01,81C
0397C:  MOVFF  00,81B
03980:  MOVLB  0
03982:  CALL   1296
03986:  MOVFF  7FE,816
0398A:  MOVFF  7FD,815
0398E:  MOVFF  7FC,814
03992:  MOVFF  7FB,813
03996:  MOVFF  03,81A
0399A:  MOVFF  02,819
0399E:  MOVFF  01,818
039A2:  MOVFF  00,817
039A6:  CALL   283A
039AA:  MOVFF  03,7FE
039AE:  MOVFF  02,7FD
039B2:  MOVFF  01,7FC
039B6:  MOVFF  00,7FB
....................  
....................    if (s) 
039BA:  MOVLB  8
039BC:  BTFSS  x04.0
039BE:  BRA    39F2
....................       res = 1.0/res; 
039C0:  CLRF   x0F
039C2:  CLRF   x0E
039C4:  CLRF   x0D
039C6:  MOVLW  7F
039C8:  MOVWF  x0C
039CA:  MOVFF  7FE,813
039CE:  MOVFF  7FD,812
039D2:  MOVFF  7FC,811
039D6:  MOVFF  7FB,810
039DA:  MOVLB  0
039DC:  CALL   1138
039E0:  MOVFF  03,7FE
039E4:  MOVFF  02,7FD
039E8:  MOVFF  01,7FC
039EC:  MOVFF  00,7FB
039F0:  MOVLB  8
....................    return(res); 
039F2:  MOVFF  7FB,00
039F6:  MOVFF  7FC,01
039FA:  MOVFF  7FD,02
039FE:  MOVFF  7FE,03
.................... } 
03A02:  MOVLB  0
03A04:  RETLW  00
....................  
....................  
.................... //Overloaded function for exp() for PCD 
.................... // Overloaded function exp() for data type - Float48 
.................... #if defined(__PCD__) 
.................... float48 exp(float48 x) 
.................... { 
....................    float48 y, res, r; 
....................    int8 data1; 
....................    signed int8 n; 
....................    int1 s; 
....................    #ifdef _ERRNO 
....................    if(x > 88.722838) 
....................    { 
....................       errno=ERANGE; 
....................       return(0); 
....................    } 
....................    #endif 
....................    n = (signed int16)(x*LN2_INV); 
....................    s = 0; 
....................    y = x; 
....................  
....................    if (x < 0) 
....................    { 
....................       s = 1; 
....................       n = -n; 
....................       y = -y; 
....................    } 
....................  
....................    res = 0.0; 
....................  
....................    data1 = n+0x7F; 
....................    if(bit_test(data1,0)) 
....................    bit_set(*(((unsigned int8 *)(&res)+4)),7); 
....................    rotate_right(&data1,1); 
....................    bit_clear(data1,7); 
....................    *(((unsigned int8 *)(&res)+5)) = data1; 
....................  
....................    y = y*LN2_INV - (float48)n; 
....................  
....................    r = pe[0]*y + pe[1]; 
....................    r = r*y + pe[2]; 
....................    r = r*y + pe[3]; 
....................    r = r*y + pe[4]; 
....................    r = r*y + pe[5]; 
....................  
....................    res = res*(1.0 + y*r); 
....................  
....................    if (s) 
....................       res = 1.0/res; 
....................    return(res); 
.................... } 
....................  
.................... // Overloaded function exp() for data type - Float64 
.................... float64 const pe_64[12] ={9.30741400474913e-011,-4.28655416283316e-011, 
....................                           8.71486547014137e-009,9.84458531538385e-008, 
....................                           1.32588296983536e-006,1.52489283823016e-005, 
....................                           0.000154037598423921,0.00133335487036216, 
....................                           0.00961812936407326,0.0555041086222122, 
....................                           0.240226506962827,0.693147180559823}; 
....................  
.................... float64 exp(float64 x) 
.................... { 
....................    float64 y, res, r; 
....................    unsigned int16 data1, data2; 
....................    unsigned int16 *p; 
....................    signed int16 n; 
....................    int1 s; 
....................    #ifdef _ERRNO 
....................    if(x > 709.7827128) 
....................    { 
....................       errno=ERANGE; 
....................       return(0); 
....................    } 
....................    #endif 
....................    y = x*LN2_INV; 
....................    n = (signed int16)y; 
....................    s = 0; 
....................    y = x; 
....................  
....................    if (x < 0) 
....................    { 
....................       s = 1; 
....................       n = -n; 
....................       y = -y; 
....................    } 
....................  
....................    res = 0.0; 
....................  
.................... #if !defined(__PCD__) 
....................    *((unsigned int16 *)(&res)) = n + 0x7F; 
.................... #endif 
....................    p= (((unsigned int16 *)(&res))+3); 
....................    data1 = *p; 
....................    data2 = *p;    
....................    data1 = n + 0x3FF; 
....................    data1 = data1 <<4; 
....................    if(bit_test(data2,15)) 
....................    bit_set(data1,15); 
....................    data2 = data2 & 0x000F; 
....................    data1 ^= data2; 
....................  
....................    *(((unsigned int16 *)(&res)+3)) = data1; 
....................  
....................  
....................    y = y*LN2_INV - (float64)n; 
....................  
....................    r = pe_64[0]*y + pe_64[1]; 
....................    r = r*y + pe_64[2]; 
....................    r = r*y + pe_64[3]; 
....................    r = r*y + pe_64[4]; 
....................    r = r*y + pe_64[5]; 
....................    r = r*y + pe_64[6]; 
....................    r = r*y + pe_64[7]; 
....................    r = r*y + pe_64[8]; 
....................    r = r*y + pe_64[9]; 
....................    r = r*y + pe_64[10]; 
....................    r = r*y + pe_64[11]; 
....................     
....................    res = res*(1.0 + y*r); 
....................  
....................    if (s) 
....................       res = 1.0/res; 
....................    return(res); 
.................... } 
.................... #ENDIF 
....................  
....................  
.................... /************************************************************/ 
....................  
.................... float32 const pl[4] = {-1.080310025160955, 1.999999947089217}; 
.................... float32 const ql[4] = {0.091284365719509, -0.873491916557671}; 
....................  
.................... //////////////////////////////////////////////////////////////////////////// 
.................... //   float log(float x) 
.................... //////////////////////////////////////////////////////////////////////////// 
.................... // Description : returns the the natural log of x 
.................... // Date : N/A 
.................... // 
.................... float32 log(float32 x) 
.................... { 
....................    float32 y, res, r, y2; 
....................    #if defined(__PCD__) 
....................    unsigned int8  data1,data2; 
....................    #endif 
....................    signed int8 n; 
....................    #ifdef _ERRNO 
....................    if(x <0) 
....................    { 
....................       errno=EDOM; 
....................    } 
....................    if(x ==0) 
....................    { 
....................       errno=ERANGE; 
....................       return(0); 
....................    } 
....................    #endif 
....................    y = x; 
*
03266:  MOVFF  7F6,7FA
0326A:  MOVFF  7F5,7F9
0326E:  MOVFF  7F4,7F8
03272:  MOVFF  7F3,7F7
....................  
....................    if (y != 1.0) 
03276:  MOVFF  7FA,816
0327A:  MOVFF  7F9,815
0327E:  MOVFF  7F8,814
03282:  MOVFF  7F7,813
03286:  MOVLB  8
03288:  CLRF   x1A
0328A:  CLRF   x19
0328C:  CLRF   x18
0328E:  MOVLW  7F
03290:  MOVWF  x17
03292:  MOVLB  0
03294:  CALL   1572
03298:  BTFSC  FD8.2
0329A:  BRA    35DA
....................    { 
.................... #if !defined(__PCD__) 
....................     *((unsigned int8 *)(&y)) = 0x7E;  
0329C:  MOVLW  07
0329E:  MOVLB  8
032A0:  MOVWF  x09
032A2:  MOVLW  F7
032A4:  MOVWF  FE9
032A6:  MOVFF  809,FEA
032AA:  MOVLW  7E
032AC:  MOVWF  FEF
.................... #endif 
....................  
.................... #if defined(__PCD__) // Takes care of IEEE format 
....................    data2 = *(((unsigned int8 *)(&y))+3); 
....................    *(((unsigned int8 *)(&y))+3) = 0x3F; 
....................    data1 = *(((unsigned int8 *)(&y))+2); 
....................    bit_clear(data1,7); 
....................    *(((unsigned int8 *)(&y))+2) = data1; 
....................    if(bit_test(data2,7)) 
....................      bit_set(*(((unsigned int8 *)(&y))+3),7); 
.................... #endif 
....................  
....................       y = (y - 1.0)/(y + 1.0); 
032AE:  BSF    FD8.1
032B0:  MOVFF  7FA,81A
032B4:  MOVFF  7F9,819
032B8:  MOVFF  7F8,818
032BC:  MOVFF  7F7,817
032C0:  CLRF   x1E
032C2:  CLRF   x1D
032C4:  CLRF   x1C
032C6:  MOVLW  7F
032C8:  MOVWF  x1B
032CA:  MOVLB  0
032CC:  CALL   1296
032D0:  MOVFF  00,808
032D4:  MOVFF  01,809
032D8:  MOVFF  02,80A
032DC:  MOVFF  03,80B
032E0:  BCF    FD8.1
032E2:  MOVFF  7FA,81A
032E6:  MOVFF  7F9,819
032EA:  MOVFF  7F8,818
032EE:  MOVFF  7F7,817
032F2:  MOVLB  8
032F4:  CLRF   x1E
032F6:  CLRF   x1D
032F8:  CLRF   x1C
032FA:  MOVLW  7F
032FC:  MOVWF  x1B
032FE:  MOVLB  0
03300:  CALL   1296
03304:  MOVFF  80B,80F
03308:  MOVFF  80A,80E
0330C:  MOVFF  809,80D
03310:  MOVFF  808,80C
03314:  MOVFF  03,813
03318:  MOVFF  02,812
0331C:  MOVFF  01,811
03320:  MOVFF  00,810
03324:  CALL   1138
03328:  MOVFF  03,7FA
0332C:  MOVFF  02,7F9
03330:  MOVFF  01,7F8
03334:  MOVFF  00,7F7
....................  
....................       y2=y*y; 
03338:  MOVFF  7FA,816
0333C:  MOVFF  7F9,815
03340:  MOVFF  7F8,814
03344:  MOVFF  7F7,813
03348:  MOVFF  7FA,81A
0334C:  MOVFF  7F9,819
03350:  MOVFF  7F8,818
03354:  MOVFF  7F7,817
03358:  CALL   283A
0335C:  MOVFF  03,806
03360:  MOVFF  02,805
03364:  MOVFF  01,804
03368:  MOVFF  00,803
....................  
....................       res = pl[0]*y2 + pl[1]; 
0336C:  MOVLW  99
0336E:  MOVLB  8
03370:  MOVWF  x16
03372:  MOVLW  47
03374:  MOVWF  x15
03376:  MOVLW  8A
03378:  MOVWF  x14
0337A:  MOVLW  7F
0337C:  MOVWF  x13
0337E:  MOVFF  806,81A
03382:  MOVFF  805,819
03386:  MOVFF  804,818
0338A:  MOVFF  803,817
0338E:  MOVLB  0
03390:  CALL   283A
03394:  MOVFF  00,808
03398:  MOVFF  01,809
0339C:  MOVFF  02,80A
033A0:  MOVFF  03,80B
033A4:  BCF    FD8.1
033A6:  MOVFF  03,81A
033AA:  MOVFF  02,819
033AE:  MOVFF  01,818
033B2:  MOVFF  00,817
033B6:  MOVLB  8
033B8:  CLRF   x1E
033BA:  CLRF   x1D
033BC:  CLRF   x1C
033BE:  MOVLW  80
033C0:  MOVWF  x1B
033C2:  MOVLB  0
033C4:  CALL   1296
033C8:  MOVFF  03,7FE
033CC:  MOVFF  02,7FD
033D0:  MOVFF  01,7FC
033D4:  MOVFF  00,7FB
....................  
....................       r = ql[0]*y2 + ql[1]; 
033D8:  MOVLW  4C
033DA:  MOVLB  8
033DC:  MOVWF  x16
033DE:  MOVLW  F3
033E0:  MOVWF  x15
033E2:  MOVLW  3A
033E4:  MOVWF  x14
033E6:  MOVLW  7B
033E8:  MOVWF  x13
033EA:  MOVFF  806,81A
033EE:  MOVFF  805,819
033F2:  MOVFF  804,818
033F6:  MOVFF  803,817
033FA:  MOVLB  0
033FC:  CALL   283A
03400:  MOVFF  00,808
03404:  MOVFF  01,809
03408:  MOVFF  02,80A
0340C:  MOVFF  03,80B
03410:  BCF    FD8.1
03412:  MOVFF  03,81A
03416:  MOVFF  02,819
0341A:  MOVFF  01,818
0341E:  MOVFF  00,817
03422:  MOVLW  2B
03424:  MOVLB  8
03426:  MOVWF  x1E
03428:  MOVLW  9D
0342A:  MOVWF  x1D
0342C:  MOVLW  DF
0342E:  MOVWF  x1C
03430:  MOVLW  7E
03432:  MOVWF  x1B
03434:  MOVLB  0
03436:  CALL   1296
0343A:  MOVFF  03,802
0343E:  MOVFF  02,801
03442:  MOVFF  01,800
03446:  MOVFF  00,7FF
....................       r = r*y2 + 1.0; 
0344A:  MOVFF  802,816
0344E:  MOVFF  801,815
03452:  MOVFF  800,814
03456:  MOVFF  7FF,813
0345A:  MOVFF  806,81A
0345E:  MOVFF  805,819
03462:  MOVFF  804,818
03466:  MOVFF  803,817
0346A:  CALL   283A
0346E:  MOVFF  00,808
03472:  MOVFF  01,809
03476:  MOVFF  02,80A
0347A:  MOVFF  03,80B
0347E:  BCF    FD8.1
03480:  MOVFF  03,81A
03484:  MOVFF  02,819
03488:  MOVFF  01,818
0348C:  MOVFF  00,817
03490:  MOVLB  8
03492:  CLRF   x1E
03494:  CLRF   x1D
03496:  CLRF   x1C
03498:  MOVLW  7F
0349A:  MOVWF  x1B
0349C:  MOVLB  0
0349E:  CALL   1296
034A2:  MOVFF  03,802
034A6:  MOVFF  02,801
034AA:  MOVFF  01,800
034AE:  MOVFF  00,7FF
....................  
....................       res = y*res/r; 
034B2:  MOVFF  7FA,816
034B6:  MOVFF  7F9,815
034BA:  MOVFF  7F8,814
034BE:  MOVFF  7F7,813
034C2:  MOVFF  7FE,81A
034C6:  MOVFF  7FD,819
034CA:  MOVFF  7FC,818
034CE:  MOVFF  7FB,817
034D2:  CALL   283A
034D6:  MOVFF  00,808
034DA:  MOVFF  01,809
034DE:  MOVFF  02,80A
034E2:  MOVFF  03,80B
034E6:  MOVFF  03,80F
034EA:  MOVFF  02,80E
034EE:  MOVFF  01,80D
034F2:  MOVFF  00,80C
034F6:  MOVFF  802,813
034FA:  MOVFF  801,812
034FE:  MOVFF  800,811
03502:  MOVFF  7FF,810
03506:  CALL   1138
0350A:  MOVFF  03,7FE
0350E:  MOVFF  02,7FD
03512:  MOVFF  01,7FC
03516:  MOVFF  00,7FB
.................... #if !defined(__PCD__) 
....................       n = *((unsigned int8 *)(&x)) - 0x7E; 
0351A:  MOVLW  07
0351C:  MOVLB  8
0351E:  MOVWF  x09
03520:  MOVLW  F3
03522:  MOVWF  FE9
03524:  MOVFF  809,FEA
03528:  MOVLW  7E
0352A:  SUBWF  FEF,W
0352C:  MOVWF  x07
.................... #endif 
.................... #if defined(__PCD__)  
....................     data1 = *(((unsigned int8 *)(&x)+3)); 
....................     rotate_left(&data1,1); 
....................     data2 = *(((unsigned int8 *)(&x)+2)); 
....................     if(bit_test (data2,7)) 
....................       bit_set(data1,0); 
....................     n = data1 - 0x7E; 
.................... #endif 
....................  
....................       if (n<0)  
0352E:  BTFSC  x07.7
03530:  BRA    3534
03532:  BRA    355C
....................          r = -(float32)-n; 
03534:  MOVLW  00
03536:  BSF    FD8.0
03538:  SUBFWB x07,W
0353A:  CLRF   x0A
0353C:  MOVWF  x09
0353E:  BTFSC  x09.7
03540:  DECF   x0A,F
03542:  MOVLB  0
03544:  RCALL  3216
03546:  MOVFF  00,7FF
0354A:  MOVF   01,W
0354C:  XORLW  80
0354E:  MOVLB  8
03550:  MOVWF  x00
03552:  MOVFF  02,801
03556:  MOVFF  03,802
....................       else 
0355A:  BRA    357C
....................          r = (float32)n; 
0355C:  CLRF   x0A
0355E:  MOVFF  807,809
03562:  BTFSC  x09.7
03564:  DECF   x0A,F
03566:  MOVLB  0
03568:  RCALL  3216
0356A:  MOVFF  03,802
0356E:  MOVFF  02,801
03572:  MOVFF  01,800
03576:  MOVFF  00,7FF
0357A:  MOVLB  8
....................  
....................       res += r*LN2; 
0357C:  MOVFF  802,816
03580:  MOVFF  801,815
03584:  MOVFF  800,814
03588:  MOVFF  7FF,813
0358C:  MOVLW  18
0358E:  MOVWF  x1A
03590:  MOVLW  72
03592:  MOVWF  x19
03594:  MOVLW  31
03596:  MOVWF  x18
03598:  MOVLW  7E
0359A:  MOVWF  x17
0359C:  MOVLB  0
0359E:  CALL   283A
035A2:  BCF    FD8.1
035A4:  MOVFF  7FE,81A
035A8:  MOVFF  7FD,819
035AC:  MOVFF  7FC,818
035B0:  MOVFF  7FB,817
035B4:  MOVFF  03,81E
035B8:  MOVFF  02,81D
035BC:  MOVFF  01,81C
035C0:  MOVFF  00,81B
035C4:  CALL   1296
035C8:  MOVFF  03,7FE
035CC:  MOVFF  02,7FD
035D0:  MOVFF  01,7FC
035D4:  MOVFF  00,7FB
....................    } 
....................  
....................    else 
035D8:  BRA    35E6
....................       res = 0.0; 
035DA:  MOVLB  7
035DC:  CLRF   xFE
035DE:  CLRF   xFD
035E0:  CLRF   xFC
035E2:  CLRF   xFB
035E4:  MOVLB  0
....................  
....................    return(res); 
035E6:  MOVFF  7FB,00
035EA:  MOVFF  7FC,01
035EE:  MOVFF  7FD,02
035F2:  MOVFF  7FE,03
.................... } 
035F6:  RETLW  00
....................  
.................... //Overloaded function for log() for PCD 
.................... // Overloaded function log() for data type - Float48 
.................... #if defined(__PCD__) 
.................... // Overloaded function log() for data type - float64 
.................... float64 const pl_64[4] = {-0.145694052150681, 1.365485300000370, 
....................                           -3.120535668274329, 2.000000000000000}; 
....................  
.................... float64 const ql_64[4] = {0.006047500465908, -0.208298281937234, 
....................                           1.113943039156721, -1.893601167470470}; 
....................  
.................... float48 log(float48 x) 
.................... { 
....................    float48 y, res, r, y2; 
....................    unsigned int8  data1,data2; 
....................    signed int8 n; 
.................... #ifdef _ERRNO 
....................    if(x <0) 
....................    { 
....................       errno=EDOM; 
....................    } 
....................    if(x ==0) 
....................    { 
....................       errno=ERANGE; 
....................       return(0); 
....................    } 
.................... #endif 
....................    y = x; 
....................  
....................    if (y != 1.0) 
....................    { 
....................  
.................... #if !defined(__PCD__) 
....................       *((unsigned int8 *)(&y)) = 0x7E;  
.................... #endif 
....................       data2 = *(((unsigned int8 *)(&y))+5); 
....................       *(((unsigned int8 *)(&y))+5) = 0x3F; 
....................       data1 = *(((unsigned int8 *)(&y))+4); 
....................       bit_clear(data1,7); 
....................       *(((unsigned int8 *)(&y))+4) = data1; 
....................  
....................       if(bit_test(data2,7)) 
....................       bit_set(*(((unsigned int8 *)(&y))+4),7); 
....................       y = (y - 1.0)/(y + 1.0); 
....................  
....................       y2=y*y; 
....................  
....................       res = pl_64[0]*y2 + pl_64[1]; 
....................       res = res*y2 + pl_64[2]; 
....................       res = res*y2 + pl_64[3]; 
....................  
....................       r = ql_64[0]*y2 + ql_64[1]; 
....................       r = r*y2 + ql_64[2]; 
....................       r = r*y2 + ql_64[3]; 
....................       r = r*y2 + 1.0;  
....................       res = y*res/r; 
....................  
....................       data1 = *(((unsigned int8 *)(&x)+5)); 
....................       rotate_left(&data1,1); 
....................       data2 = *(((unsigned int8 *)(&x)+4)); 
....................       if(bit_test (data2,7)) 
....................       bit_set(data1,0); 
....................        
....................       n = data1 - 0x7E; 
....................  
....................       if (n<0) 
....................       r = -(float48)-n; 
....................       else 
....................       r = (float48)n; 
....................  
....................       res += r*LN2; 
....................    } 
....................  
....................    else 
....................    res = 0.0; 
....................  
....................    return(res); 
.................... } 
....................  
.................... float64 log(float64 x) 
.................... { 
....................    float64 y, res, r, y2; 
....................    unsigned int16  data1,data2; 
....................    unsigned int16 *p; 
....................    signed int16 n; 
....................    #ifdef _ERRNO 
....................    if(x <0) 
....................    { 
....................       errno=EDOM; 
....................    } 
....................    if(x ==0) 
....................    { 
....................       errno=ERANGE; 
....................       return(0); 
....................    } 
....................    #endif 
....................    y = x; 
....................  
....................    if (y != 1.0) 
....................    { 
....................    #if !defined(__PCD__) 
....................        *((unsigned int8 *)(&y)) = 0x7E;  
....................    #endif 
....................       p= (((unsigned int16 *)(&y))+3); 
....................       data1 = *p; 
....................       data2 = *p; 
....................       data1 = 0x3FE; 
....................       data1 = data1 <<4; 
....................       if(bit_test (data2,15)) 
....................          bit_set(data1,15); 
....................       data2 = data2 & 0x000F; 
....................       data1 ^=data2; 
....................  
....................       *p = data1; 
....................  
....................       y = (y - 1.0)/(y + 1.0); 
....................  
....................       y2=y*y; 
....................  
....................       res = pl_64[0]*y2 + pl_64[1]; 
....................       res = res*y2 + pl_64[2]; 
....................       res = res*y2 + pl_64[3]; 
....................  
....................       r = ql_64[0]*y2 + ql_64[1]; 
....................       r = r*y2 + ql_64[2]; 
....................       r = r*y2 + ql_64[3]; 
....................       r = r*y2 + 1.0; 
....................  
....................       res = y*res/r; 
....................   
....................       p= (((unsigned int16 *)(&x))+3); 
....................       data1 = *p; 
....................       bit_clear(data1,15); 
....................       data1 = data1 >>4;     
....................       n = data1 - 0x3FE; 
....................  
....................  
....................       if (n<0) 
....................          r = -(float64)-n; 
....................       else 
....................          r = (float64)n; 
....................  
....................       res += r*LN2; 
....................    } 
....................  
....................    else 
....................       res = 0.0; 
....................  
....................    return(res); 
.................... } 
.................... #endif 
....................  
....................  
.................... #define LN10 2.3025850929940456 
.................... #define LN10_INV 0.4342944819032518276 
....................  
.................... //////////////////////////////////////////////////////////////////////////// 
.................... //   float log10(float x) 
.................... //////////////////////////////////////////////////////////////////////////// 
.................... // Description : returns the the log base 10 of x 
.................... // Date : N/A 
.................... // 
.................... float32 log10(float32 x) 
.................... { 
....................    float32 r; 
....................  
....................    r = log(x); 
....................    r = r*LN10_INV; 
....................    return(r); 
.................... } 
....................  
.................... //Overloaded functions for log10() for PCD 
.................... // Overloaded function log10() for data type - Float48 
.................... #if defined(__PCD__) 
.................... float48 log10(float48 x) 
.................... { 
....................    float48 r; 
....................  
....................    r = log(x); 
....................    r = r*LN10_INV; 
....................    return(r); 
.................... } 
....................  
.................... // Overloaded function log10() for data type - Float64 
.................... float64 log10(float64 x) 
.................... { 
....................    float64 r; 
....................  
....................    r = log(x); 
....................    r = r*LN10_INV; 
....................    return(r); 
.................... } 
.................... #endif 
.................... //////////////////////////////////////////////////////////////////////////// 
.................... //   float modf(float x) 
.................... //////////////////////////////////////////////////////////////////////////// 
.................... // Description :breaks the argument value int integral and fractional parts, 
.................... // ach of which have the same sign as the argument.  It stores the integral part 
.................... // as a float in the object pointed to by the iptr 
.................... // Returns : returns the signed fractional part of value. 
.................... // Date : N/A 
.................... // 
....................  
.................... float32 modf(float32 value,float32 *iptr) 
.................... { 
....................    *iptr=(value < 0.0)? ceil(value): floor(value); 
....................    return(value - *iptr); 
.................... } 
.................... //Overloaded functions for modf() for PCD 
.................... // Overloaded function modf() for data type - Float48 
.................... #if defined(__PCD__) 
.................... float48 modf(float48 value,float48 *iptr) 
.................... { 
....................    *iptr=(value < 0.0)? ceil(value): floor(value); 
....................    return(value - *iptr); 
.................... } 
.................... // Overloaded function modf() for data type - Float64 
.................... float64 modf(float64 value,float64 *iptr) 
.................... { 
....................    *iptr=(value < 0.0)? ceil(value): floor(value); 
....................    return(value - *iptr); 
.................... } 
.................... #endif 
....................  
.................... //////////////////////////////////////////////////////////////////////////// 
.................... //   float pwr(float x,float y) 
.................... //////////////////////////////////////////////////////////////////////////// 
.................... // Description : returns the value (x^y) 
.................... // Date : N/A 
.................... // Note : 0 is returned when the function will generate an imaginary number 
.................... // 
.................... float32 pwr(float32 x,float32 y) 
.................... { 
....................    if(0 > x && fmod(y, 1) == 0) { 
....................       if(fmod(y, 2) == 0) { 
....................          return (exp(log(-x) * y)); 
....................       } else { 
....................          return (-exp(log(-x) * y)); 
....................       } 
....................    } else if(0 > x && fmod(y, 1) != 0) { 
....................       return 0; 
....................    } else { 
....................       if(x != 0 || 0 >= y) { 
....................          return (exp(log(x) * y)); 
....................       } 
....................    } 
.................... } 
.................... //Overloaded functions for pwr() for PCD 
.................... // Overloaded function pwr() for data type - Float48 
.................... #if defined(__PCD__) 
.................... float48 pwr(float48 x,float48 y) 
.................... { 
....................    if(0 > x && fmod(y, 1) == 0) { 
....................       if(fmod(y, 2) == 0) { 
....................          return (exp(log(-x) * y)); 
....................       } else { 
....................          return (-exp(log(-x) * y)); 
....................       } 
....................    } else if(0 > x && fmod(y, 1) != 0) { 
....................       return 0; 
....................    } else { 
....................       if(x != 0 || 0 >= y) { 
....................          return (exp(log(x) * y)); 
....................       } 
....................    } 
.................... } 
.................... // Overloaded function pwr() for data type - Float64 
.................... float64 pwr(float64 x,float64 y) 
.................... { 
....................    if(0 > x && fmod(y, 1) == 0) { 
....................       if(fmod(y, 2) == 0) { 
....................          return (exp(log(-x) * y)); 
....................       } else { 
....................          return (-exp(log(-x) * y)); 
....................       } 
....................    } else if(0 > x && fmod(y, 1) != 0) { 
....................       return 0; 
....................    } else { 
....................       if(x != 0 || 0 >= y) { 
....................          return (exp(log(x) * y)); 
....................       } 
....................    } 
.................... } 
.................... #endif 
....................  
.................... //////////////////// Power functions //////////////////// 
....................  
.................... //////////////////////////////////////////////////////////////////////////// 
.................... //   float pow(float x,float y) 
.................... //////////////////////////////////////////////////////////////////////////// 
.................... // Description : returns the value (x^y) 
.................... // Date : N/A 
.................... // Note : 0 is returned when the function will generate an imaginary number 
.................... // 
.................... float32 pow(float32 x,float32 y) 
.................... { 
....................    if(0 > x && fmod(y, 1) == 0) { 
*
03A06:  MOVFF  7EA,816
03A0A:  MOVFF  7E9,815
03A0E:  MOVFF  7E8,814
03A12:  MOVFF  7E7,813
03A16:  MOVLB  8
03A18:  CLRF   x1A
03A1A:  CLRF   x19
03A1C:  CLRF   x18
03A1E:  CLRF   x17
03A20:  MOVLB  0
03A22:  CALL   1572
03A26:  BTFSS  FD8.0
03A28:  BRA    3BDC
03A2A:  MOVFF  7EE,7F2
03A2E:  MOVFF  7ED,7F1
03A32:  MOVFF  7EC,7F0
03A36:  MOVFF  7EB,7EF
03A3A:  MOVLB  7
03A3C:  CLRF   xF6
03A3E:  CLRF   xF5
03A40:  CLRF   xF4
03A42:  MOVLW  7F
03A44:  MOVWF  xF3
03A46:  MOVLB  0
03A48:  CALL   30AE
03A4C:  MOVFF  00,7EF
03A50:  MOVFF  01,7F0
03A54:  MOVFF  02,7F1
03A58:  MOVFF  03,7F2
03A5C:  MOVFF  03,816
03A60:  MOVFF  02,815
03A64:  MOVFF  01,814
03A68:  MOVFF  00,813
03A6C:  MOVLB  8
03A6E:  CLRF   x1A
03A70:  CLRF   x19
03A72:  CLRF   x18
03A74:  CLRF   x17
03A76:  MOVLB  0
03A78:  CALL   1572
03A7C:  BTFSS  FD8.2
03A7E:  BRA    3BDC
....................       if(fmod(y, 2) == 0) { 
03A80:  MOVFF  7EE,7F2
03A84:  MOVFF  7ED,7F1
03A88:  MOVFF  7EC,7F0
03A8C:  MOVFF  7EB,7EF
03A90:  MOVLB  7
03A92:  CLRF   xF6
03A94:  CLRF   xF5
03A96:  CLRF   xF4
03A98:  MOVLW  80
03A9A:  MOVWF  xF3
03A9C:  MOVLB  0
03A9E:  CALL   30AE
03AA2:  MOVFF  00,7EF
03AA6:  MOVFF  01,7F0
03AAA:  MOVFF  02,7F1
03AAE:  MOVFF  03,7F2
03AB2:  MOVFF  03,816
03AB6:  MOVFF  02,815
03ABA:  MOVFF  01,814
03ABE:  MOVFF  00,813
03AC2:  MOVLB  8
03AC4:  CLRF   x1A
03AC6:  CLRF   x19
03AC8:  CLRF   x18
03ACA:  CLRF   x17
03ACC:  MOVLB  0
03ACE:  CALL   1572
03AD2:  BNZ   3B56
....................          return (exp(log(-x) * y)); 
03AD4:  MOVFF  7E7,7EF
03AD8:  MOVLB  7
03ADA:  MOVF   xE8,W
03ADC:  XORLW  80
03ADE:  MOVWF  xF0
03AE0:  MOVFF  7E9,7F1
03AE4:  MOVFF  7EA,7F2
03AE8:  MOVFF  7EA,7F6
03AEC:  MOVFF  7E9,7F5
03AF0:  MOVWF  xF4
03AF2:  MOVFF  7E7,7F3
03AF6:  MOVLB  0
03AF8:  CALL   3266
03AFC:  MOVFF  00,7EF
03B00:  MOVFF  01,7F0
03B04:  MOVFF  02,7F1
03B08:  MOVFF  03,7F2
03B0C:  MOVFF  03,816
03B10:  MOVFF  02,815
03B14:  MOVFF  01,814
03B18:  MOVFF  00,813
03B1C:  MOVFF  7EE,81A
03B20:  MOVFF  7ED,819
03B24:  MOVFF  7EC,818
03B28:  MOVFF  7EB,817
03B2C:  CALL   283A
03B30:  MOVFF  00,7EF
03B34:  MOVFF  01,7F0
03B38:  MOVFF  02,7F1
03B3C:  MOVFF  03,7F2
03B40:  MOVFF  03,7F6
03B44:  MOVFF  02,7F5
03B48:  MOVFF  01,7F4
03B4C:  MOVFF  00,7F3
03B50:  RCALL  35F8
03B52:  BRA    3D10
....................       } else { 
03B54:  BRA    3BDA
....................          return (-exp(log(-x) * y)); 
03B56:  MOVFF  7E7,7EF
03B5A:  MOVLB  7
03B5C:  MOVF   xE8,W
03B5E:  XORLW  80
03B60:  MOVWF  xF0
03B62:  MOVFF  7E9,7F1
03B66:  MOVFF  7EA,7F2
03B6A:  MOVFF  7EA,7F6
03B6E:  MOVFF  7E9,7F5
03B72:  MOVWF  xF4
03B74:  MOVFF  7E7,7F3
03B78:  MOVLB  0
03B7A:  CALL   3266
03B7E:  MOVFF  00,7EF
03B82:  MOVFF  01,7F0
03B86:  MOVFF  02,7F1
03B8A:  MOVFF  03,7F2
03B8E:  MOVFF  03,816
03B92:  MOVFF  02,815
03B96:  MOVFF  01,814
03B9A:  MOVFF  00,813
03B9E:  MOVFF  7EE,81A
03BA2:  MOVFF  7ED,819
03BA6:  MOVFF  7EC,818
03BAA:  MOVFF  7EB,817
03BAE:  CALL   283A
03BB2:  MOVFF  00,7EF
03BB6:  MOVFF  01,7F0
03BBA:  MOVFF  02,7F1
03BBE:  MOVFF  03,7F2
03BC2:  MOVFF  03,7F6
03BC6:  MOVFF  02,7F5
03BCA:  MOVFF  01,7F4
03BCE:  MOVFF  00,7F3
03BD2:  RCALL  35F8
03BD4:  MOVLW  80
03BD6:  XORWF  01,F
03BD8:  BRA    3D10
....................       } 
....................    } else if(0 > x && fmod(y, 1) != 0) { 
03BDA:  BRA    3D10
03BDC:  MOVFF  7EA,816
03BE0:  MOVFF  7E9,815
03BE4:  MOVFF  7E8,814
03BE8:  MOVFF  7E7,813
03BEC:  MOVLB  8
03BEE:  CLRF   x1A
03BF0:  CLRF   x19
03BF2:  CLRF   x18
03BF4:  CLRF   x17
03BF6:  MOVLB  0
03BF8:  CALL   1572
03BFC:  BNC   3C5E
03BFE:  MOVFF  7EE,7F2
03C02:  MOVFF  7ED,7F1
03C06:  MOVFF  7EC,7F0
03C0A:  MOVFF  7EB,7EF
03C0E:  MOVLB  7
03C10:  CLRF   xF6
03C12:  CLRF   xF5
03C14:  CLRF   xF4
03C16:  MOVLW  7F
03C18:  MOVWF  xF3
03C1A:  MOVLB  0
03C1C:  CALL   30AE
03C20:  MOVFF  00,7EF
03C24:  MOVFF  01,7F0
03C28:  MOVFF  02,7F1
03C2C:  MOVFF  03,7F2
03C30:  MOVFF  03,816
03C34:  MOVFF  02,815
03C38:  MOVFF  01,814
03C3C:  MOVFF  00,813
03C40:  MOVLB  8
03C42:  CLRF   x1A
03C44:  CLRF   x19
03C46:  CLRF   x18
03C48:  CLRF   x17
03C4A:  MOVLB  0
03C4C:  CALL   1572
03C50:  BZ    3C5E
....................       return 0; 
03C52:  CLRF   00
03C54:  CLRF   01
03C56:  CLRF   02
03C58:  CLRF   03
03C5A:  BRA    3D10
....................    } else { 
03C5C:  BRA    3D10
....................       if(x != 0 || 0 >= y) { 
03C5E:  MOVFF  7EA,816
03C62:  MOVFF  7E9,815
03C66:  MOVFF  7E8,814
03C6A:  MOVFF  7E7,813
03C6E:  MOVLB  8
03C70:  CLRF   x1A
03C72:  CLRF   x19
03C74:  CLRF   x18
03C76:  CLRF   x17
03C78:  MOVLB  0
03C7A:  CALL   1572
03C7E:  BNZ   3CA4
03C80:  MOVFF  7EE,816
03C84:  MOVFF  7ED,815
03C88:  MOVFF  7EC,814
03C8C:  MOVFF  7EB,813
03C90:  MOVLB  8
03C92:  CLRF   x1A
03C94:  CLRF   x19
03C96:  CLRF   x18
03C98:  CLRF   x17
03C9A:  MOVLB  0
03C9C:  CALL   1572
03CA0:  BC    3CA4
03CA2:  BNZ   3D10
....................          return (exp(log(x) * y)); 
03CA4:  MOVFF  7EA,7F6
03CA8:  MOVFF  7E9,7F5
03CAC:  MOVFF  7E8,7F4
03CB0:  MOVFF  7E7,7F3
03CB4:  CALL   3266
03CB8:  MOVFF  00,7EF
03CBC:  MOVFF  01,7F0
03CC0:  MOVFF  02,7F1
03CC4:  MOVFF  03,7F2
03CC8:  MOVFF  03,816
03CCC:  MOVFF  02,815
03CD0:  MOVFF  01,814
03CD4:  MOVFF  00,813
03CD8:  MOVFF  7EE,81A
03CDC:  MOVFF  7ED,819
03CE0:  MOVFF  7EC,818
03CE4:  MOVFF  7EB,817
03CE8:  CALL   283A
03CEC:  MOVFF  00,7EF
03CF0:  MOVFF  01,7F0
03CF4:  MOVFF  02,7F1
03CF8:  MOVFF  03,7F2
03CFC:  MOVFF  03,7F6
03D00:  MOVFF  02,7F5
03D04:  MOVFF  01,7F4
03D08:  MOVFF  00,7F3
03D0C:  RCALL  35F8
03D0E:  BRA    3D10
....................       } 
....................    } 
.................... } 
03D10:  RETLW  00
.................... //Overloaded functions for pow() for PCD 
.................... // Overloaded function for pow() data type - Float48 
.................... #if defined(__PCD__) 
.................... float48 pow(float48 x,float48 y) 
.................... { 
....................    if(0 > x && fmod(y, 1) == 0) { 
....................       if(fmod(y, 2) == 0) { 
....................          return (exp(log(-x) * y)); 
....................       } else { 
....................          return (-exp(log(-x) * y)); 
....................       } 
....................    } else if(0 > x && fmod(y, 1) != 0) { 
....................       return 0; 
....................    } else { 
....................       if(x != 0 || 0 >= y) { 
....................          return (exp(log(x) * y)); 
....................       } 
....................    } 
.................... } 
....................  
.................... // Overloaded function pow() for data type - Float64 
.................... float64 pow(float64 x,float64 y) 
.................... { 
....................    if(0 > x && fmod(y, 1) == 0) { 
....................       if(fmod(y, 2) == 0) { 
....................          return (exp(log(-x) * y)); 
....................       } else { 
....................          return (-exp(log(-x) * y)); 
....................       } 
....................    } else if(0 > x && fmod(y, 1) != 0) { 
....................       return 0; 
....................    } else { 
....................       if(x != 0 || 0 >= y) { 
....................          return (exp(log(x) * y)); 
....................       } 
....................    } 
.................... } 
.................... #endif 
....................  
.................... //////////////////////////////////////////////////////////////////////////// 
.................... //   float sqrt(float x) 
.................... //////////////////////////////////////////////////////////////////////////// 
.................... // Description : returns the square root of x 
.................... // Date : N/A 
.................... // 
.................... float32 sqrt(float32 x) 
.................... { 
....................    float32 y, res; 
....................    #if defined(__PCD__) 
....................    unsigned int16 data1,data2; 
....................    #endif 
....................    unsigned int8 *p; 
....................  
....................    #ifdef _ERRNO 
....................    if(x < 0) 
....................    { 
....................       errno=EDOM; 
....................    } 
....................    #endif 
....................  
....................    if( x<=0.0) 
....................       return(0.0); 
....................  
....................    y=x; 
....................     
....................    #if !defined(__PCD__) 
....................     p=&y; 
....................    (*p)=(unsigned int8)((((unsigned int16)(*p)) + 127) >> 1); 
....................    #endif 
....................     
....................    #if defined(__PCD__) 
....................     p = (((unsigned int8 *)(&y))+3); 
....................     data1 = *(((unsigned int8 *)(&y))+3); 
....................     data2 = *(((unsigned int8 *)(&y))+2); 
....................     rotate_left(&data1,1);     
....................     if(bit_test(data2,7))     
....................        bit_set(data1,0);     
....................     data1 = ((data1+127) >>1); 
....................     bit_clear(data2,7); 
....................     if(bit_test(data1,0)) 
....................        bit_set(data2,7); 
....................     data1 = data1 >>1; 
....................     *(((unsigned int8 *)(&y))+3) = data1; 
....................     *(((unsigned int8 *)(&y))+2) = data2; 
....................      
....................   #endif 
....................  
....................    do { 
....................       res=y; 
....................       y+=(x/y); 
....................  
....................       #if !defined(__PCD__) 
....................      (*p)--; 
....................    #endif 
....................     
....................    #if defined(__PCD__) 
....................     data1 = *(((unsigned int8 *)(&y))+3); 
....................     data2 = *(((unsigned int8 *)(&y))+2); 
....................     rotate_left(&data1,1); 
....................     if(bit_test(data2,7)) 
....................        bit_set(data1,0);     
....................     data1--; 
....................     bit_clear(data2,7); 
....................     if(bit_test(data1,0)) 
....................        bit_set(data2,7); 
....................     data1 = data1 >>1; 
....................     *(((unsigned int8 *)(&y))+3) = data1; 
....................     *(((unsigned int8 *)(&y))+2) = data2; 
....................      
....................   #endif 
....................    } while(res != y); 
....................  
....................    return(res); 
.................... } 
.................... //Overloaded functions for sqrt() for PCD 
.................... // Overloaded function sqrt() for data type - Float48 
.................... #if defined(__PCD__) 
.................... float48 sqrt(float48 x) 
.................... { 
....................    float48 y, res; 
....................    unsigned int16 data1,data2; 
....................    unsigned int8 *p; 
....................  
....................    #ifdef _ERRNO 
....................    if(x < 0) 
....................    { 
....................       errno=EDOM; 
....................    } 
....................    #endif 
....................  
....................    if( x<=0.0) 
....................       return(0.0); 
....................  
....................    y=x; 
....................     
....................    #if !defined(__PCD__) 
....................     p=&y; 
....................    (*p)=(unsigned int8)((((unsigned int16)(*p)) + 127) >> 1); 
....................    #endif 
....................     
....................    #if defined(__PCD__) 
....................     p = (((unsigned int8 *)(&y))+5); 
....................     data1 = *(((unsigned int8 *)(&y))+5); 
....................     data2 = *(((unsigned int8 *)(&y))+4); 
....................     rotate_left(&data1,1); 
....................     if(bit_test(data2,7)) 
....................        bit_set(data1,0);     
....................     data1 = ((data1+127) >>1); 
....................     bit_clear(data2,7); 
....................     if(bit_test(data1,0)) 
....................        bit_set(data2,7); 
....................     data1 = data1 >>1; 
....................     *(((unsigned int8 *)(&y))+5) = data1; 
....................     *(((unsigned int8 *)(&y))+4) = data2; 
....................      
....................   #endif 
....................  
....................    do { 
....................       res=y; 
....................       y+=(x/y); 
....................  
....................       #if !defined(__PCD__) 
....................      (*p)--; 
....................    #endif 
....................     
....................     data1 = *(((unsigned int8 *)(&y))+5); 
....................     data2 = *(((unsigned int8 *)(&y))+4); 
....................     rotate_left(&data1,1); 
....................     if(bit_test(data2,7)) 
....................        bit_set(data1,0);     
....................     data1--; 
....................     bit_clear(data2,7); 
....................     if(bit_test(data1,0)) 
....................        bit_set(data2,7); 
....................     data1 = data1 >>1; 
....................     *(((unsigned int8 *)(&y))+5) = data1; 
....................     *(((unsigned int8 *)(&y))+4) = data2; 
....................      
....................    } while(res != y); 
....................  
....................    return(res); 
.................... } 
....................  
.................... // Overloaded function sqrt() for data type - Float64 
.................... float64 sqrt(float64 x) 
.................... { 
....................    float64 y, res; 
....................    unsigned int16 *p; 
....................    unsigned int16 temp1,temp2; 
....................  
....................    #ifdef _ERRNO 
....................    if(x < 0) 
....................    { 
....................       errno=EDOM; 
....................    } 
....................    #endif 
....................  
....................    if( x<=0.0) 
....................       return(0.0); 
....................  
....................    y=x; 
....................    p= (((unsigned int16 *)(&y))+3); 
....................    temp1 = *p; 
....................    temp2 = *p; 
....................    bit_clear(temp1,15); 
....................    temp1 = (temp1>>4)+1023; 
....................    temp1 = temp1 >> 1; 
....................    temp1 = (temp1<<4) & 0xFFF0; 
....................    if(bit_test(temp2,15)) 
....................       bit_set(temp1,15); 
....................    temp2 = temp2 & 0x000F; 
....................    temp1 ^= temp2; 
....................     
....................    (*p) = temp1; 
....................     
....................    do { 
....................       res=y; 
....................       y+=(x/y); 
....................      temp1 = *p; 
....................      temp2 = *p; 
....................      bit_clear(temp1,15); 
....................      temp1 = (temp1>>4); 
....................      temp1--; 
....................      temp1 = (temp1<<4) & 0xFFF0; 
....................      if(bit_test(temp2,15)) 
....................         bit_set(temp1,15); 
....................      temp2 = temp2 & 0x000F; 
....................      temp1 ^= temp2; 
....................      (*p) = temp1; 
....................  
....................    } while(res != y); 
....................  
....................    return(res); 
.................... } 
.................... #endif 
....................  
.................... ////////////////////////////// Trig Functions ////////////////////////////// 
.................... #ifdef PI_DIV_BY_TWO_INV 
.................... #undef PI_DIV_BY_TWO_INV 
.................... #endif 
.................... #define PI_DIV_BY_TWO_INV 0.63661977236758134 
.................... #ifdef PI_DIV_BY_TWO 
.................... #undef PI_DIV_BY_TWO 
.................... #endif 
.................... #define PI_DIV_BY_TWO   1.5707963267948966 
.................... #ifdef TWOBYPI 
.................... #undef TWOBYPI 
.................... #endif 
.................... #define TWOBYPI          0.6366197723675813 
....................  
.................... //////////////////////////////////////////////////////////////////////////// 
.................... //   float cos(float x) 
.................... //////////////////////////////////////////////////////////////////////////// 
.................... // Description : returns the cosine value of the angle x, which is in radian 
.................... // Date : 9/20/2001 
.................... // 
.................... float32 cos(float32 x) 
.................... { 
....................    float32 y, t, t2 = 1.0; 
....................    unsigned int8 quad, i; 
....................    float32 frac; 
....................    float32 p[5] = {                    //by the series definition for cosine 
....................       -0.49999999456337096,            // sum ( ( (-1)^n * x^2n )/(2n)! ) 
....................        0.04166663896921267, 
....................       -0.00138883894522527, 
....................        0.00002476138231734, 
....................       -0.00000026070414770 
....................       //-0.00000000001147, 
....................       // 0.00000000000005 
....................    }; 
....................  
....................    if (x < 0) x = -x;                  // absolute value of input 
....................  
....................    quad = (unsigned int8)(x * PI_DIV_BY_TWO_INV);    // quadrant 
....................    frac = (x * PI_DIV_BY_TWO_INV) - quad;  // fractional part of input 
....................    quad = quad % 4;                    // quadrant (0 to 3) 
....................  
....................    if (quad == 0 || quad == 2) 
....................       t = frac * PI_DIV_BY_TWO; 
....................    else if (quad == 1) 
....................       t = (1-frac) * PI_DIV_BY_TWO; 
....................    else // should be 3 
....................       t = (frac-1) * PI_DIV_BY_TWO; 
....................  
....................    y = 1.0; 
....................    t = t * t; 
....................    for (i = 0; i <= 4; i++) 
....................    { 
....................       t2 = t2 * t; 
....................       y = y + p[i] * t2; 
....................    } 
....................  
....................    if (quad == 2 || quad == 1) 
....................       y = -y;  // correct sign 
....................  
....................    return (y); 
.................... } 
....................  
....................  
.................... //Overloaded functions for cos() for PCD 
.................... // Overloaded function cos() for data type - Float48 
.................... #if defined(__PCD__) 
.................... float48 cos(float48 x) 
.................... { 
....................    float48 y, t, t2 = 1.0; 
....................    unsigned int8 quad, i; 
....................    float48 frac; 
....................    float48 p[6] = {                    //by the series definition for cosine 
....................       -0.5,                            // sum ( ( (-1)^n * x^2n )/(2n)! ) 
....................        0.04166666666667, 
....................       -0.00138888888889, 
....................        0.00002480158730, 
....................       -0.00000027557319, 
....................        0.00000000208767 
....................    }; 
....................  
....................    if (x < 0) x = -x;                  // absolute value of input 
....................  
....................    quad = (unsigned int8)(x * PI_DIV_BY_TWO_INV);    // quadrant 
....................    frac = (x * PI_DIV_BY_TWO_INV) - quad;  // fractional part of input 
....................    quad = quad % 4;                    // quadrant (0 to 3) 
....................  
....................    if (quad == 0 || quad == 2) 
....................       t = frac * PI_DIV_BY_TWO; 
....................    else if (quad == 1) 
....................       t = (1-frac) * PI_DIV_BY_TWO; 
....................    else // should be 3 
....................       t = (frac-1) * PI_DIV_BY_TWO; 
....................  
....................    y = 0.999999999781; 
....................    t = t * t; 
....................    for (i = 0; i <= 5; i++) 
....................    { 
....................       t2 = t2 * t; 
....................       y = y + p[i] * t2; 
....................    } 
....................  
....................    if (quad == 2 || quad == 1) 
....................       y = -y;  // correct sign 
....................  
....................    return (y); 
.................... } 
....................  
.................... // Overloaded function cos() for data type - Float64 
.................... float64 cos(float64 x) 
.................... { 
....................    float64 y, t, t2 = 1.0; 
....................    unsigned int8 quad, i; 
....................    float64 frac; 
....................    float64 p_64[9] = {               //by the series definition for cosine 
....................      -0.49999999999998740,           // sum ( ( (-1)^n * x^2n )/(2n)! )              
....................       0.04166666666656518, 
....................      -0.00138888888851691, 
....................       0.00002480158658490, 
....................      -0.00000027557239796, 
....................       0.00000000208715031, 
....................      -0.00000000001126577, 
....................       0.00000000000000427, 
....................       0.00000000000000372}; 
....................  
....................    if (x < 0) x = -x;                  // absolute value of input 
....................  
....................    quad = (unsigned int8)(x * PI_DIV_BY_TWO_INV);    // quadrant 
....................    frac = (x * PI_DIV_BY_TWO_INV) - quad;  // fractional part of input 
....................    quad = quad % 4;                    // quadrant (0 to 3) 
....................  
....................    if (quad == 0 || quad == 2) 
....................       t = frac * PI_DIV_BY_TWO; 
....................    else if (quad == 1) 
....................       t = (1-frac) * PI_DIV_BY_TWO; 
....................    else // should be 3 
....................       t = (frac-1) * PI_DIV_BY_TWO; 
....................  
....................    y = 1.0; 
....................    t = t * t; 
....................    for (i = 0; i <= 8; i++) 
....................    { 
....................       t2 = t2 * t; 
....................       y = y + p_64[i] * t2; 
....................    } 
....................  
....................    if (quad == 2 || quad == 1) 
....................       y = -y;  // correct sign 
....................  
....................    return (y); 
.................... } 
....................  
.................... #endif 
....................  
.................... //////////////////////////////////////////////////////////////////////////// 
.................... //   float sin(float x) 
.................... //////////////////////////////////////////////////////////////////////////// 
.................... // Description : returns the sine value of the angle x, which is in radian 
.................... // Date : 9/20/2001 
.................... // 
.................... float32 sin(float32 x) 
.................... { 
....................    return cos(x - PI_DIV_BY_TWO); 
.................... } 
....................  
.................... //Overloaded functions for sin() for PCD 
.................... // Overloaded function sin() for data type - Float48 
.................... #if defined(__PCD__) 
.................... float48 sin(float48 x) 
.................... { 
....................    return cos(x - PI_DIV_BY_TWO); 
.................... } 
....................  
.................... // Overloaded function sin() for data type - Float48 
.................... float64 sin(float64 x) 
.................... { 
....................    return cos(x - PI_DIV_BY_TWO); 
.................... } 
.................... #endif 
....................  
.................... //////////////////////////////////////////////////////////////////////////// 
.................... //   float tan(float x) 
.................... //////////////////////////////////////////////////////////////////////////// 
.................... // Description : returns the tangent value of the angle x, which is in radian 
.................... // Date : 9/20/2001 
.................... // 
.................... float32 tan(float32 x) 
.................... { 
....................    float32 c, s; 
....................  
....................    c = cos(x); 
....................    if (c == 0.0) 
....................       return (1.0e+36); 
....................  
....................    s = sin(x); 
....................    return(s/c); 
.................... } 
.................... //Overloaded functions for tan() for PCD 
.................... // Overloaded function tan() for data type - Float48 
.................... #if defined(__PCD__) 
.................... float48 tan(float48 x) 
.................... { 
....................    float48 c, s; 
....................  
....................    c = cos(x); 
....................    if (c == 0.0) 
....................       return (1.0e+36); 
....................  
....................    s = sin(x); 
....................    return(s/c); 
.................... } 
....................  
.................... // Overloaded function tan() for data type - Float48 
.................... float64 tan(float64 x) 
.................... { 
....................    float64 c, s; 
....................  
....................    c = cos(x); 
....................    if (c == 0.0) 
....................       return (1.0e+36); 
....................  
....................    s = sin(x); 
....................    return(s/c); 
.................... } 
.................... #endif 
....................  
.................... float32 const pas[3] = {0.49559947, -4.6145309, 5.6036290}; 
.................... float32 const qas[3] = {1.0000000,  -5.5484666, 5.6036290}; 
....................  
.................... float32 ASIN_COS(float32 x, unsigned int8 n) 
.................... { 
....................    float32 y, res, r, y2; 
....................    int1 s; 
....................    #ifdef _ERRNO 
....................    if(x <-1 || x > 1) 
....................    { 
....................       errno=EDOM; 
....................    } 
....................    #endif 
....................    s = 0; 
....................    y = x; 
....................  
....................    if (x < 0) 
....................    { 
....................       s = 1; 
....................       y = -y; 
....................    } 
....................  
....................    if (y > 0.5) 
....................    { 
....................       y = sqrt((1.0 - y)*0.5); 
....................       n += 2; 
....................    } 
....................  
....................    y2=y*y; 
....................  
....................    res = pas[0]*y2 + pas[1]; 
....................    res = res*y2 + pas[2]; 
....................  
....................    r = qas[0]*y2 + qas[1]; 
....................    r = r*y2 + qas[2]; 
....................  
....................    res = y*res/r; 
....................  
....................    if (n & 2)     // |x| > 0.5 
....................       res = PI_DIV_BY_TWO - 2.0*res; 
....................    if (s) 
....................       res = -res; 
....................    if (n & 1)           // take arccos 
....................       res = PI_DIV_BY_TWO - res; 
....................  
....................    return(res); 
.................... } 
....................  
....................  
.................... //Overloaded functions for ASIN_COS() for PCD 
.................... // Overloaded function ASIN_COS() for data type - Float48 
.................... #if defined(__PCD__) 
.................... float48 ASIN_COS(float48 x, unsigned int8 n) 
.................... { 
....................    float48 y, res, r, y2; 
....................    int1 s; 
....................    #ifdef _ERRNO 
....................    if(x <-1 || x > 1) 
....................    { 
....................       errno=EDOM; 
....................    } 
....................    #endif 
....................    s = 0; 
....................    y = x; 
....................  
....................    if (x < 0) 
....................    { 
....................       s = 1; 
....................       y = -y; 
....................    } 
....................  
....................    if (y > 0.5) 
....................    { 
....................       y = sqrt((1.0 - y)*0.5); 
....................       n += 2; 
....................    } 
....................  
....................    y2=y*y; 
....................  
....................    res = pas[0]*y2 + pas[1]; 
....................    res = res*y2 + pas[2]; 
....................  
....................    r = qas[0]*y2 + qas[1]; 
....................    r = r*y2 + qas[2]; 
....................  
....................    res = y*res/r; 
....................  
....................    if (n & 2)     // |x| > 0.5 
....................       res = PI_DIV_BY_TWO - 2.0*res; 
....................    if (s) 
....................       res = -res; 
....................    if (n & 1)           // take arccos 
....................       res = PI_DIV_BY_TWO - res; 
....................  
....................    return(res); 
.................... } 
....................  
.................... // Overloaded function ASIN_COS() for data type - Float64 
.................... double pas_64[5]={1.000000000000000,-2.069938587724477,1.421444580548907, 
....................                  -0.360690137621842,0.024929451660228}; 
....................  
.................... double qas_64[5]={-2.236605254391134,1.719212122946451,-0.524122954476133, 
....................                    0.052808872045749,-0.000662536036570}; 
....................                     
.................... float64 ASIN_COS(float64 x, unsigned int8 n) 
.................... { 
....................    float64 y, res, r, y2; 
....................    int1 s; 
....................    #ifdef _ERRNO 
....................    if(x <-1 || x > 1) 
....................    { 
....................       errno=EDOM; 
....................    } 
....................    #endif 
....................    s = 0; 
....................    y = x; 
....................  
....................    if (x < 0) 
....................    { 
....................       s = 1; 
....................       y = -y; 
....................    } 
....................  
....................    if (y > 0.5) 
....................    { 
....................       y = sqrt((1.0 - y)*0.5); 
....................       n += 2; 
....................    } 
....................  
....................    y2=y*y; 
....................  
....................    res = pas_64[4]*y2 + pas_64[3]; 
....................    res = res*y2 + pas_64[2]; 
....................    res = res*y2 + pas_64[1]; 
....................    res = res*y2 + pas_64[0]; 
....................  
....................    r = qas_64[4]*y2 + qas_64[3]; 
....................    r = r*y2 + qas_64[2]; 
....................    r = r*y2 + qas_64[1]; 
....................    r = r*y2 + qas_64[0]; 
....................    r = r*y2 + 1.0; 
....................  
....................    res = y*res/r; 
....................  
....................    if (n & 2)     // |x| > 0.5 
....................       res = PI_DIV_BY_TWO - 2.0*res; 
....................    if (s) 
....................       res = -res; 
....................    if (n & 1)           // take arccos 
....................       res = PI_DIV_BY_TWO - res; 
....................  
....................    return(res); 
.................... } 
.................... #endif 
....................  
.................... //////////////////////////////////////////////////////////////////////////// 
.................... //   float asin(float x) 
.................... //////////////////////////////////////////////////////////////////////////// 
.................... // Description : returns the arcsine value of the value x. 
.................... // Date : N/A 
.................... // 
.................... float32 asin(float32 x) 
.................... { 
....................    float32 r; 
....................  
....................    r = ASIN_COS(x, 0); 
....................    return(r); 
.................... } 
.................... //Overloaded functions for asin() for PCD 
.................... // Overloaded function asin() for data type - Float48 
.................... #if defined(__PCD__) 
.................... float48 asin(float48 x) 
.................... { 
....................    float48 r; 
....................  
....................    r = ASIN_COS(x, 0); 
....................    return(r); 
.................... } 
....................  
.................... // Overloaded function asin() for data type - Float64 
.................... float64 asin(float64 x) 
.................... { 
....................    float64 r; 
....................  
....................    r = ASIN_COS(x, 0); 
....................    return(r); 
.................... } 
.................... #endif 
....................  
.................... //////////////////////////////////////////////////////////////////////////// 
.................... //   float acos(float x) 
.................... //////////////////////////////////////////////////////////////////////////// 
.................... // Description : returns the arccosine value of the value x. 
.................... // Date : N/A 
.................... // 
.................... float32 acos(float32 x) 
.................... { 
....................    float32 r; 
....................  
....................    r = ASIN_COS(x, 1); 
....................    return(r); 
.................... } 
.................... //Overloaded functions for acos() for PCD 
.................... // Overloaded function acos() for data type - Float48 
.................... #if defined(__PCD__) 
.................... float48 acos(float48 x) 
.................... { 
....................    float48 r; 
....................  
....................    r = ASIN_COS(x, 1); 
....................    return(r); 
.................... } 
....................  
.................... // Overloaded function acos() for data type - Float64 
.................... float64 acos(float64 x) 
.................... { 
....................    float64 r; 
....................  
....................    r = ASIN_COS(x, 1); 
....................    return(r); 
.................... } 
.................... #endif 
....................  
.................... float32 const pat[4] = {0.17630401, 5.6710795, 22.376096, 19.818457}; 
.................... float32 const qat[4] = {1.0000000,  11.368190, 28.982246, 19.818457}; 
....................  
.................... //////////////////////////////////////////////////////////////////////////// 
.................... //   float atan(float x) 
.................... //////////////////////////////////////////////////////////////////////////// 
.................... // Description : returns the arctangent value of the value x. 
.................... // Date : N/A 
.................... // 
.................... float32 atan(float32 x) 
.................... { 
....................    float32 y, res, r; 
....................    int1 s, flag; 
....................  
....................    s = 0; 
....................    flag = 0; 
....................    y = x; 
....................  
....................    if (x < 0) 
....................    { 
....................       s = 1; 
....................       y = -y; 
....................    } 
....................  
....................    if (y > 1.0) 
....................    { 
....................       y = 1.0/y; 
....................       flag = 1; 
....................    } 
....................  
....................    res = pat[0]*y*y + pat[1]; 
....................    res = res*y*y + pat[2]; 
....................    res = res*y*y + pat[3]; 
....................  
....................    r = qat[0]*y*y + qat[1]; 
....................    r = r*y*y + qat[2]; 
....................    r = r*y*y + qat[3]; 
....................  
....................    res = y*res/r; 
....................  
....................  
....................    if (flag)                              // for |x| > 1 
....................       res = PI_DIV_BY_TWO - res; 
....................    if (s) 
....................       res = -res; 
....................  
....................    return(res); 
.................... } 
.................... //Overloaded functions for atan() for PCD 
.................... // Overloaded function atan() for data type - Float48 
.................... #if defined(__PCD__) 
.................... float48 atan(float48 x) 
.................... { 
....................    float48 y, res, r; 
....................    int1 s, flag; 
....................  
....................    s = 0; 
....................    flag = 0; 
....................    y = x; 
....................  
....................    if (x < 0) 
....................    { 
....................       s = 1; 
....................       y = -y; 
....................    } 
....................  
....................    if (y > 1.0) 
....................    { 
....................       y = 1.0/y; 
....................       flag = 1; 
....................    } 
....................  
....................    res = pat[0]*y*y + pat[1]; 
....................    res = res*y*y + pat[2]; 
....................    res = res*y*y + pat[3]; 
....................  
....................    r = qat[0]*y*y + qat[1]; 
....................    r = r*y*y + qat[2]; 
....................    r = r*y*y + qat[3]; 
....................  
....................    res = y*res/r; 
....................  
....................  
....................    if (flag)                              // for |x| > 1 
....................       res = PI_DIV_BY_TWO - res; 
....................    if (s) 
....................       res = -res; 
....................  
....................    return(res); 
.................... } 
....................  
.................... float64 pat_64[6]={0.999999999999999,2.249923645595566,1.771541617806449, 
....................                    0.579678874003185,0.072162702162882,0.002281100141660}; 
....................  
.................... float64 qat_64[6]={2.583256978928510,2.432627277466967,1.016760379885393, 
....................                    0.182482977188688,0.011155377971690,0.000100013019160}; 
.................... // Overloaded function atan() for data type - Float64 
.................... float64 atan(float64 x) 
.................... { 
....................    float64 y,y2, res, r; 
....................    int1 s, flag; 
....................  
....................    s = 0; 
....................    flag = 0; 
....................    y = x; 
....................  
....................    if (x < 0) 
....................    { 
....................       s = 1; 
....................       y = -y; 
....................    } 
....................  
....................    if (y > 1.0) 
....................    { 
....................       y = 1.0/y; 
....................       flag = 1; 
....................    } 
....................    y2 = y*y; 
....................    res = pat_64[5]*y2 + pat_64[4]; 
....................    res = res*y2 + pat_64[3]; 
....................    res = res*y2 + pat_64[2]; 
....................    res = res*y2 + pat_64[1]; 
....................    res = res*y2 + pat_64[0]; 
....................  
....................    r = qat_64[5]*y2 + qat_64[4]; 
....................    r = r*y2 + qat_64[3]; 
....................    r = r*y2 + qat_64[2]; 
....................    r = r*y2 + qat_64[1]; 
....................    r = r*y2 + qat_64[0]; 
....................    r = r*y2 + 1.0; 
....................  
....................    res = y*res/r; 
....................  
....................  
....................    if (flag)                              // for |x| > 1 
....................       res = PI_DIV_BY_TWO - res; 
....................    if (s) 
....................       res = -res; 
....................  
....................    return(res); 
.................... } 
.................... #endif 
....................  
.................... ///////////////////////////////////////////////////////////////////////////// 
.................... //   float atan2(float y, float x) 
.................... ///////////////////////////////////////////////////////////////////////////// 
.................... // Description :computes the principal value of arc tangent of y/x, using the 
.................... // signs of both the arguments to determine the quadrant of the return value 
.................... // Returns : returns the arc tangent of y/x. 
.................... // Date : N/A 
.................... // 
....................  
.................... float32 atan2(float32 y,float32 x) 
.................... { 
....................    float32 z; 
....................    int1 sign; 
....................    unsigned int8 quad; 
....................    sign=0; 
....................    quad=0; //quadrant 
....................    quad=((y<=0.0)?((x<=0.0)?3:4):((x<0.0)?2:1)); 
....................    if(y<0.0) 
....................    { 
....................       sign=1; 
....................       y=-y; 
....................    } 
....................    if(x<0.0) 
....................    { 
....................       x=-x; 
....................    } 
....................    if (x==0.0) 
....................    { 
....................       if(y==0.0) 
....................       { 
....................       #ifdef _ERRNO 
....................       { 
....................          errno=EDOM; 
....................       } 
....................       #endif 
....................       } 
....................       else 
....................       { 
....................          if(sign) 
....................          { 
....................          return (-(PI_DIV_BY_TWO)); 
....................          } 
....................          else 
....................          { 
....................          return (PI_DIV_BY_TWO); 
....................          } 
....................       } 
....................    } 
....................    else 
....................    { 
....................       z=y/x; 
....................       switch(quad) 
....................       { 
....................          case 1: 
....................          { 
....................             return atan(z); 
....................             break; 
....................          } 
....................          case 2: 
....................          { 
.................... //            return (atan(z)+PI_DIV_BY_TWO);  //2L3122 
....................             return (PI-atan(z)); 
....................             break; 
....................          } 
....................          case 3: 
....................          { 
....................             return (atan(z)-PI); 
....................             break; 
....................          } 
....................          case 4: 
....................          { 
....................             return (-atan(z)); 
....................             break; 
....................          } 
....................       } 
....................    } 
.................... } 
....................  
.................... //Overloaded functions for atan2() for PCD 
.................... // Overloaded function atan2() for data type - Float48 
.................... #if defined(__PCD__) 
.................... float48 atan2(float48 y,float48 x) 
.................... { 
....................    float48 z; 
....................    int1 sign; 
....................    unsigned int8 quad; 
....................    sign=0; 
....................    quad=0; //quadrant 
....................    quad=((y<=0.0)?((x<=0.0)?3:4):((x<0.0)?2:1)); 
....................    if(y<0.0) 
....................    { 
....................       sign=1; 
....................       y=-y; 
....................    } 
....................    if(x<0.0) 
....................    { 
....................       x=-x; 
....................    } 
....................    if (x==0.0) 
....................    { 
....................       if(y==0.0) 
....................       { 
....................       #ifdef _ERRNO 
....................       { 
....................          errno=EDOM; 
....................       } 
....................       #endif 
....................       } 
....................       else 
....................       { 
....................          if(sign) 
....................          { 
....................          return (-(PI_DIV_BY_TWO)); 
....................          } 
....................          else 
....................          { 
....................          return (PI_DIV_BY_TWO); 
....................          } 
....................       } 
....................    } 
....................    else 
....................    { 
....................       z=y/x; 
....................       switch(quad) 
....................       { 
....................          case 1: 
....................          { 
....................             return atan(z); 
....................             break; 
....................          } 
....................          case 2: 
....................          { 
.................... //            return (atan(z)+PI_DIV_BY_TWO);  //2L3122 
....................             return (PI-atan(z)); 
....................             break; 
....................          } 
....................          case 3: 
....................          { 
....................             return (atan(z)-PI); 
....................             break; 
....................          } 
....................          case 4: 
....................          { 
....................             return (-atan(z)); 
....................             break; 
....................          } 
....................       } 
....................    } 
.................... } 
....................  
.................... // Overloaded function atan2() for data type - Float64 
.................... float64 atan2(float64 y,float64 x) 
.................... { 
....................    float64 z; 
....................    int1 sign; 
....................    unsigned int8 quad; 
....................    sign=0; 
....................    quad=0; //quadrant 
....................    quad=((y<=0.0)?((x<=0.0)?3:4):((x<0.0)?2:1)); 
....................    if(y<0.0) 
....................    { 
....................       sign=1; 
....................       y=-y; 
....................    } 
....................    if(x<0.0) 
....................    { 
....................       x=-x; 
....................    } 
....................    if (x==0.0) 
....................    { 
....................       if(y==0.0) 
....................       { 
....................       #ifdef _ERRNO 
....................       { 
....................          errno=EDOM; 
....................       } 
....................       #endif 
....................       } 
....................       else 
....................       { 
....................          if(sign) 
....................          { 
....................          return (-(PI_DIV_BY_TWO)); 
....................          } 
....................          else 
....................          { 
....................          return (PI_DIV_BY_TWO); 
....................          } 
....................       } 
....................    } 
....................    else 
....................    { 
....................       z=y/x; 
....................       switch(quad) 
....................       { 
....................          case 1: 
....................          { 
....................             return atan(z); 
....................             break; 
....................          } 
....................          case 2: 
....................          { 
.................... //            return (atan(z)+PI_DIV_BY_TWO);  //2L3122 
....................             return (PI-atan(z)); 
....................             break; 
....................          } 
....................          case 3: 
....................          { 
....................             return (atan(z)-PI); 
....................             break; 
....................          } 
....................          case 4: 
....................          { 
....................             return (-atan(z)); 
....................             break; 
....................          } 
....................       } 
....................    } 
.................... } 
.................... #endif 
....................  
.................... //////////////////// Hyperbolic functions //////////////////// 
....................  
.................... //////////////////////////////////////////////////////////////////////////// 
.................... //   float cosh(float x) 
.................... //////////////////////////////////////////////////////////////////////////// 
.................... // Description : Computes the hyperbolic cosine value of x 
.................... // Returns : returns the hyperbolic cosine value of x 
.................... // Date : N/A 
.................... // 
....................  
.................... float32 cosh(float32 x) 
.................... { 
....................    return ((exp(x)+exp(-x))*0.5); 
.................... } 
.................... //Overloaded functions for cosh() for PCD 
.................... // Overloaded function cosh() for data type - Float48 
.................... #if defined(__PCD__) 
.................... float48 cosh(float48 x) 
.................... { 
....................    return ((exp(x)+exp(-x))*0.5); 
.................... } 
....................  
.................... // Overloaded function cosh() for data type - Float64 
.................... float64 cosh(float64 x) 
.................... { 
....................    return ((exp(x)+exp(-x))*0.5); 
.................... } 
.................... #endif 
....................  
.................... //////////////////////////////////////////////////////////////////////////// 
.................... //   float sinh(float x) 
.................... //////////////////////////////////////////////////////////////////////////// 
.................... // Description : Computes the hyperbolic sine value of x 
.................... // Returns : returns the hyperbolic sine value of x 
.................... // Date : N/A 
.................... // 
....................  
.................... float32 sinh(float32 x) 
.................... { 
....................  
....................    return ((exp(x) - exp(-x))*0.5); 
.................... } 
.................... //Overloaded functions for sinh() for PCD 
.................... // Overloaded function sinh() for data type - Float48 
.................... #if defined(__PCD__) 
.................... float48 sinh(float48 x) 
.................... { 
....................  
....................    return ((exp(x) - exp(-x))*0.5); 
.................... } 
....................  
.................... // Overloaded function sinh() for data type - Float48 
.................... float64 sinh(float64 x) 
.................... { 
....................  
....................    return ((exp(x) - exp(-x))*0.5); 
.................... } 
.................... #endif 
....................  
.................... //////////////////////////////////////////////////////////////////////////// 
.................... //   float tanh(float x) 
.................... //////////////////////////////////////////////////////////////////////////// 
.................... // Description : Computes the hyperbolic tangent value of x 
.................... // Returns : returns the hyperbolic tangent value of x 
.................... // Date : N/A 
.................... // 
....................  
.................... float32 tanh(float32 x) 
.................... { 
....................    return(sinh(x)/cosh(x)); 
.................... } 
.................... //Overloaded functions for tanh() for PCD 
.................... // Overloaded function tanh() for data type - Float48 
.................... #if defined(__PCD__) 
.................... float48 tanh(float48 x) 
.................... { 
....................    return(sinh(x)/cosh(x)); 
.................... } 
....................  
.................... // Overloaded function tanh() for data type - Float64 
.................... float64 tanh(float64 x) 
.................... { 
....................    return(sinh(x)/cosh(x)); 
.................... } 
.................... #endif 
....................  
.................... //////////////////////////////////////////////////////////////////////////// 
.................... //   float frexp(float x, signed int *exp) 
.................... //////////////////////////////////////////////////////////////////////////// 
.................... // Description : breaks a floating point number into a normalized fraction and an integral 
.................... // power of 2. It stores the integer in the signed int object pointed to by exp. 
.................... // Returns : returns the value x, such that x is a double with magnitude in the interval 
.................... // [1/2,1) or zero, and value equals x times 2 raised to the power *exp.If value is zero, 
.................... // both parts of the result are zero. 
.................... // Date : N/A 
.................... // 
....................  
.................... #define LOG2 .30102999566398119521 
.................... #define LOG2_INV 3.32192809488736234787 
.................... float32 frexp(float32 x, signed int8 *exp) 
.................... { 
....................    float32 res; 
....................    int1 sign = 0; 
....................    if(x == 0.0) 
....................    { 
....................       *exp=0; 
....................       return (0.0); 
....................    } 
....................    if(x < 0.0) 
....................    { 
....................      x=-x; 
....................      sign=1; 
....................    } 
....................    if (x > 1.0) 
....................    { 
....................       *exp=(ceil(log10(x)*LOG2_INV)); 
....................       res=x/(pow(2, *exp)); 
....................       if (res == 1) 
....................       { 
....................          *exp=*exp+1; 
....................           res=.5; 
....................       } 
....................    } 
....................    else 
....................    { 
....................       if(x < 0.5) 
....................       { 
....................          *exp=-1; 
....................          res=x*2; 
....................       } 
....................       else 
....................       { 
....................          *exp=0; 
....................           res=x; 
....................       } 
....................    } 
....................    if(sign) 
....................    { 
....................       res=-res; 
....................    } 
....................    return res; 
.................... } 
....................  
.................... //Overloaded functions for frexp() for PCD 
.................... // Overloaded function frexp() for data type - Float48 
.................... #if defined(__PCD__) 
.................... float48 frexp(float48 x, signed int8 *exp) 
.................... { 
....................    float48 res; 
....................    int1 sign = 0; 
....................    if(x == 0.0) 
....................    { 
....................       *exp=0; 
....................       return (0.0); 
....................    } 
....................    if(x < 0.0) 
....................    { 
....................      x=-x; 
....................      sign=1; 
....................    } 
....................    if (x > 1.0) 
....................    { 
....................       *exp=(ceil(log10(x)*LOG2_INV)); 
....................       res=x/(pow(2, *exp)); 
....................       if (res == 1) 
....................       { 
....................          *exp=*exp+1; 
....................           res=.5; 
....................       } 
....................    } 
....................    else 
....................    { 
....................       if(x < 0.5) 
....................       { 
....................          *exp=-1; 
....................          res=x*2; 
....................       } 
....................       else 
....................       { 
....................          *exp=0; 
....................           res=x; 
....................       } 
....................    } 
....................    if(sign) 
....................    { 
....................       res=-res; 
....................    } 
....................    return res; 
.................... } 
....................  
.................... // Overloaded function frexp() for data type - Float64 
.................... float64 frexp(float64 x, signed int8 *exp) 
.................... { 
....................    float64 res; 
....................    int1 sign = 0; 
....................    if(x == 0.0) 
....................    { 
....................       *exp=0; 
....................       return (0.0); 
....................    } 
....................    if(x < 0.0) 
....................    { 
....................      x=-x; 
....................      sign=1; 
....................    } 
....................    if (x > 1.0) 
....................    { 
....................       *exp=(ceil(log10(x)*LOG2_INV)); 
....................       res=x/(pow(2, *exp)); 
....................       if (res == 1) 
....................       { 
....................          *exp=*exp+1; 
....................           res=.5; 
....................       } 
....................    } 
....................    else 
....................    { 
....................       if(x < 0.5) 
....................       { 
....................          *exp=-1; 
....................          res=x*2; 
....................       } 
....................       else 
....................       { 
....................          *exp=0; 
....................           res=x; 
....................       } 
....................    } 
....................    if(sign) 
....................    { 
....................       res=-res; 
....................    } 
....................    return res; 
.................... } 
.................... #endif 
....................  
.................... ////////////////////////////////////////////////////////////////////////////// 
.................... //   float ldexp(float x, signed int *exp) 
.................... ////////////////////////////////////////////////////////////////////////////// 
.................... // Description : multiplies a floating point number by an integral power of 2. 
.................... // Returns : returns the value of x times 2 raised to the power exp. 
.................... // Date : N/A 
.................... // 
....................  
.................... float32 ldexp(float32 value, signed int8 exp) 
.................... { 
....................    return (value * pow(2,exp)); 
.................... } 
.................... //Overloaded functions for ldexp() for PCD 
.................... // Overloaded function ldexp() for data type - Float48 
....................  
.................... #if defined(__PCD__) 
.................... float48 ldexp(float48 value, signed int8 exp) 
.................... { 
....................    return (value * pow(2,exp)); 
.................... } 
.................... // Overloaded function ldexp() for data type - Float64 
.................... float64 ldexp(float64 value, signed int8 exp) 
.................... { 
....................    return (value * pow(2,exp)); 
.................... } 
.................... #endif 
....................  
.................... #endif 
....................  
....................  
.................... // Definicin de teclado - NO 
.................... #define   UP            !input(PIN_B0) 
.................... #define   DOWN          !input(PIN_B1) 
.................... #define   RIGHT         !input(PIN_B2) 
.................... #define   LEFT          !input(PIN_B3) 
....................  
.................... #define   DOOR          input(PIN_B4) 
.................... #define   TERM          input(PIN_B5) 
.................... #define   LEVEL         input(PIN_B6) 
....................  
....................  
.................... // Definicin de Salidas 
.................... #define   Humidificador_on  output_bit(PIN_E2,1) 
.................... #define   Humidificador_off output_bit(PIN_E2,0) 
.................... #define   Dehumidificador_on  output_bit(PIN_E1,1) 
.................... #define   Dehumidificador_off output_bit(PIN_E1,0) 
.................... #define   Buzzer_on         output_bit(PIN_D7,1) 
.................... #define   Buzzer_off        output_bit(PIN_D7,0) 
.................... #define   SSR3_on           output_bit(PIN_C0,1) 
.................... #define   SSR3_off          output_bit(PIN_C0,0) 
.................... #define   SSR2_on           output_bit(PIN_C1,1) 
.................... #define   SSR2_off          output_bit(PIN_C1,0) 
.................... #define   SSR_on            output_bit(PIN_C2,1) 
.................... #define   SSR_off           output_bit(PIN_C2,0) 
.................... #define   Rele1_on          output_bit(PIN_C3,1) 
.................... #define   Rele1_off         output_bit(PIN_C3,0) 
.................... #define   Rele2_on          output_bit(PIN_D0,1) 
.................... #define   Rele2_off         output_bit(PIN_D0,0) 
.................... #define   Rele3_on          output_bit(PIN_D1,1) 
.................... #define   Rele3_off         output_bit(PIN_D1,0) 
.................... #define   Rele4_on          output_bit(PIN_C5,1) 
.................... #define   Rele4_off         output_bit(PIN_C5,0) 
.................... #define   Rele5_on          output_bit(PIN_C4,1)//Ventiladores Peltier 
.................... #define   Rele5_off         output_bit(PIN_C4,0)//Ventiladores Peltier 
.................... #define   Rele6_on          output_bit(PIN_D3,1)//Bomba Peristaltica 
.................... #define   Rele6_off         output_bit(PIN_D3,0)//Bomba Peristaltica 
.................... #define   Rele7_on          output_bit(PIN_D2,1) 
.................... #define   Rele7_off         output_bit(PIN_D2,0) 
....................  
.................... #define OFF 0 
.................... #define ON  1 
.................... #define RX_BUFFER_SIZE  10 
.................... char Rx_Buffer[RX_BUFFER_SIZE+1]; 
.................... char Rx_Buffer2[RX_BUFFER_SIZE+1]; 
.................... char RX_Wr_Index=0; 
....................  
....................  
.................... /* Tabla de Modulos, Primera Fila Ao Regular y el siguiente ao Bisiesto 
.................... E   F   M   A   M   J   J   A   S   O   N   D 
.................... 0   3   3   6   1   4   6   2   5   0   3   5 
.................... 0   3   4   0   2   5   0   3   6   1   4   6 
.................... */ 
.................... int8 Regular[12]={0,3,3,6,1,4,6,2,5,0,3,5}; 
.................... int8 Bisiesto[12]={0,3,4,0,2,5,0,3,6,1,4,6}; 
....................  
.................... float promedio[90]={0.0,0.0,0.0,0.0,0.0,0.0,0.0,0.0,0.0,0.0,0.0,0.0,0.0,0.0,0.0,0.0,0.0,0.0,0.0,0.0,0.0,0.0,0.0,0.0,0.0,0.0,0.0,0.0,0.0,0.0,0.0,0.0,0.0,0.0,0.0,0.0,0.0,0.0,0.0,0.0,0.0,0.0,0.0,0.0,0.0,0.0,0.0,0.0,0.0,0.0,0.0,0.0,0.0,0.0,0.0,0.0,0.0,0.0,0.0,0.0,0.0,0.0,0.0,0.0,0.0,0.0,0.0,0.0,0.0,0.0,0.0,0.0,0.0,0.0}; 
.................... float promedioH[120]; 
.................... float promedioTa[120]; 
.................... float X[2]={0.0,0.0}; 
.................... short Desconectado=0,entro=OFF,GuardaEEPROM=OFF,Horas=OFF,Minutos=OFF,PruebaEstados=OFF,EstadoR1=OFF,EstadoR2=OFF,EstadoR3=OFF,EstadoR4=OFF,EstadoR5=OFF; 
.................... short Infinito=0,Finalizo=0,flag_clear=0,flagHumedad=OFF,flagTemperatura=OFF,EstadoR6=OFF,EstadoR7=OFF; 
.................... short flagControlT=OFF,flagControlH=OFF,rampa=OFF,flagRampa=OFF,flag_calcula=OFF,Humidificar=OFF; 
.................... int8 h=0,l=0,Ajuste=0,Ajusten=0,MediaMovil=10,tiemporecta=0,flag_ganancia=0,Lectura2=0,Enfria=0,Controlando=0,Ajusto=10; 
.................... int8 Derivativo=40,Integral=0,z=0,Dato2=0,Inicio=0,TipoClave=0,Modulo=0,Opcion2=0,f=0,Segmentos=0,Segmento=0; 
.................... float mEstp=0,hEstp=0,mEstpAnt=0,hEstpAnt=0,mEst=0,hEst=0; 
.................... short Lectura=0,flag_ajuste=0,flag_ajuste2=0,EstadoBuzzer=OFF; 
.................... short flag_clear2=0,flag_clear3=0,flag_tiempocalentamiento=0,flag_setpoint=0; 
.................... int8 y=0,tiemporeset=0,n=0; 
.................... int8 Menu=0, i=0,Pausa=0,TiempoControl=0; 
.................... int8 Opcion=1,tiempo_esterilizacion=0,decimal=0,entero=0,Dato_Exitoso=0,MenuAntt=240; 
.................... int16 tiempos=0,tiempos3=0,tiempoctrl=0,tinicio=0,tiempocalentamiento=0,tiemposetpoint=0,Tp=0,Tc=0; 
.................... float Potencia=0.0,Gananciamax=0.0,Tam=0.0,RH2=0.0; 
.................... signed int  Password[4]={0,0,0,0};        // Contrasena Almacenada de 4 digitos 
.................... float V0=0.0,Tciclo=10.0,Tpulso=0.0,error=0.0,Prom=0.0,Temperature=0.0,tmp=0.0,Ganancia=2.0,GananciaR=2.0,desvio=0.5,Coeficiente=44.5,Pt=0.0,Humedad=0.0; 
.................... float Aumento=0.0,Temperatura=0.0,Saturacion=10.0,Setpoint=0,Temporal=0.0,SetpointH=0.0; 
.................... float a=0.0011,b=2.3302,c=-244.0723; 
.................... float PendienteMinutos=0,TempeInicial=20,Tiempo=0,TiempoActual=0,PendienteActual=0,HorasActual=0,MinutosActual=0,TiempoRampa=0; 
.................... float PotenciaEntregada=0.0,Pendiente=0.0,DifPendiente=0.0; 
.................... float TemperaturaIdeal=0,penCamara=2.5,SetpointAnt=0.0,SetpointHAnt=0.0; 
....................  
.................... int8 Year=18,Mes=9,Dia=13,Hora=0,Minuto=0,Segundo=0,dow=0; 
.................... int8 YearTx=0,MesTx=0,DiaTx=0,HoraTx=0,MinutoTx=0,dowTx=0,CicloLibre=0; 
....................  
.................... typedef struct{ 
....................    int8 TemperaturaDec; 
....................    int8 TemperaturaInt; 
....................    int8 Humedad; 
....................    float Horas; 
....................    float Minutos; 
....................    float Temperatura; 
.................... }Personalizado; 
....................  
.................... Personalizado rampas[20]; 
....................  
.................... #include "Funciones.h" 
.................... void BorraBuffer(void){ 
.................... RX_Buffer[0]=0; 
.................... RX_Buffer[1]=0; 
.................... RX_Buffer[2]=0; 
.................... RX_Buffer[3]=0; 
.................... RX_Buffer[4]=0; 
.................... RX_Buffer[5]=0; 
.................... RX_Buffer[6]=0; 
.................... RX_Buffer[7]=0; 
.................... RX_Buffer[8]=0; 
.................... RX_Buffer[9]=0; 
....................  
.................... RX_Buffer2[0]=0; 
.................... RX_Buffer2[1]=0; 
.................... RX_Buffer2[2]=0; 
.................... RX_Buffer2[3]=0; 
.................... RX_Buffer2[4]=0; 
.................... RX_Buffer2[5]=0; 
.................... RX_Buffer2[6]=0; 
.................... RX_Buffer2[7]=0; 
.................... RX_Buffer2[8]=0; 
.................... RX_Buffer2[9]=0; 
.................... } 
....................  
.................... void SendDataDisplay(void){ 
.................... delay_us(10); 
*
027AC:  MOVLW  10
027AE:  MOVWF  00
027B0:  DECFSZ 00,F
027B2:  BRA    27B0
027B4:  NOP   
.................... putc(0xFF); 
027B6:  MOVLW  FF
027B8:  RCALL  27A4
.................... delay_us(10); 
027BA:  MOVLW  10
027BC:  MOVWF  00
027BE:  DECFSZ 00,F
027C0:  BRA    27BE
027C2:  NOP   
.................... putc(0xFF); 
027C4:  MOVLW  FF
027C6:  RCALL  27A4
.................... delay_us(10); 
027C8:  MOVLW  10
027CA:  MOVWF  00
027CC:  DECFSZ 00,F
027CE:  BRA    27CC
027D0:  NOP   
.................... putc(0xFF); 
027D2:  MOVLW  FF
027D4:  RCALL  27A4
.................... delay_us(10); 
027D6:  MOVLW  10
027D8:  MOVWF  00
027DA:  DECFSZ 00,F
027DC:  BRA    27DA
027DE:  NOP   
.................... } 
027E0:  RETLW  00
....................  
.................... short esBisiesto(int8 year) { 
....................      return ((year % 4 == 0 && year % 100 != 0) || year % 400 == 0); 
*
04BD2:  MOVLB  7
04BD4:  MOVF   xBA,W
04BD6:  ANDLW  03
04BD8:  BNZ   4BEC
04BDA:  MOVFF  7BA,7C3
04BDE:  MOVLW  64
04BE0:  MOVWF  xC4
04BE2:  MOVLB  0
04BE4:  RCALL  47AE
04BE6:  MOVF   00,F
04BE8:  BNZ   4C1A
04BEA:  MOVLB  7
04BEC:  CLRF   xBC
04BEE:  MOVFF  7BA,7BB
04BF2:  MOVLW  01
04BF4:  MOVWF  xBE
04BF6:  MOVLW  90
04BF8:  MOVWF  xBD
04BFA:  MOVLB  0
04BFC:  BRA    4B8A
04BFE:  MOVFF  00,7BB
04C02:  MOVLB  7
04C04:  MOVFF  03,7BC
04C08:  MOVF   xBB,F
04C0A:  BNZ   4C16
04C0C:  MOVF   xBC,F
04C0E:  BTFSS  FD8.2
04C10:  BRA    4C16
04C12:  MOVLB  0
04C14:  BRA    4C1A
04C16:  MOVLW  00
04C18:  BRA    4C1E
04C1A:  MOVLW  01
04C1C:  MOVLB  7
04C1E:  MOVWF  01
.................... } 
04C20:  MOVLB  0
04C22:  RETLW  00
....................  
.................... void LimitaDia(){ 
....................    if(MesTx>12) 
*
04D10:  MOVLB  6
04D12:  MOVF   x88,W
04D14:  SUBLW  0C
04D16:  BC    4D1C
....................       MesTx=10; 
04D18:  MOVLW  0A
04D1A:  MOVWF  x88
....................    if(DiaTx>31) 
04D1C:  MOVF   x89,W
04D1E:  SUBLW  1F
04D20:  BC    4D26
....................       DiaTx=16; 
04D22:  MOVLW  10
04D24:  MOVWF  x89
....................    if(YearTx>99) 
04D26:  MOVF   x87,W
04D28:  SUBLW  63
04D2A:  BC    4D30
....................       YearTx=18;    
04D2C:  MOVLW  12
04D2E:  MOVWF  x87
....................    if(HoraTx>24) 
04D30:  MOVF   x8A,W
04D32:  SUBLW  18
04D34:  BC    4D3A
....................       HoraTx=11;       
04D36:  MOVLW  0B
04D38:  MOVWF  x8A
....................    if(MinutoTx>59) 
04D3A:  MOVF   x8B,W
04D3C:  SUBLW  3B
04D3E:  BC    4D44
....................       MinutoTx=30;       
04D40:  MOVLW  1E
04D42:  MOVWF  x8B
....................     
....................       if(MesTx==2){ 
04D44:  MOVF   x88,W
04D46:  SUBLW  02
04D48:  BNZ   4D74
....................          if(esBisiesto(YearTx)){ 
04D4A:  MOVFF  687,7BA
04D4E:  MOVLB  0
04D50:  RCALL  4BD2
04D52:  MOVF   01,F
04D54:  BZ    4D66
....................             if(DiaTx>29){ 
04D56:  MOVLB  6
04D58:  MOVF   x89,W
04D5A:  SUBLW  1D
04D5C:  BC    4D62
....................                DiaTx=29; 
04D5E:  MOVLW  1D
04D60:  MOVWF  x89
....................                //glcd_fillScreen(OFF); 
....................             } 
....................          }else{ 
04D62:  BRA    4D72
04D64:  MOVLB  0
....................             if(DiaTx>28){ 
04D66:  MOVLB  6
04D68:  MOVF   x89,W
04D6A:  SUBLW  1C
04D6C:  BC    4D72
....................                DiaTx=28; 
04D6E:  MOVLW  1C
04D70:  MOVWF  x89
....................                //glcd_fillScreen(OFF); 
....................             } 
....................          } 
....................       }else{ 
04D72:  BRA    4D9E
....................          if(MesTx<=7){ 
04D74:  MOVF   x88,W
04D76:  SUBLW  07
04D78:  BNC   4D8C
....................             if(MesTx % 2 ==0){ 
04D7A:  MOVF   x88,W
04D7C:  ANDLW  01
04D7E:  BNZ   4D8A
....................                if(DiaTx>30){ 
04D80:  MOVF   x89,W
04D82:  SUBLW  1E
04D84:  BC    4D8A
....................                   DiaTx=30;  
04D86:  MOVLW  1E
04D88:  MOVWF  x89
....................                   //glcd_fillScreen(OFF); 
....................                } 
....................             } 
....................          }else{ 
04D8A:  BRA    4D9E
....................             if(MesTx % 2 ==1){ 
04D8C:  MOVF   x88,W
04D8E:  ANDLW  01
04D90:  SUBLW  01
04D92:  BNZ   4D9E
....................                if(DiaTx>30){ 
04D94:  MOVF   x89,W
04D96:  SUBLW  1E
04D98:  BC    4D9E
....................                   DiaTx=30;  
04D9A:  MOVLW  1E
04D9C:  MOVWF  x89
....................                   //glcd_fillScreen(OFF); 
....................                } 
....................             } 
....................          } 
....................       } 
.................... } 
04D9E:  MOVLB  0
04DA0:  GOTO   B26E (RETURN)
....................  
....................  
.................... void ActualizaRecta(){ 
....................    X[y]=Temperatura; 
*
052AA:  MOVLB  5
052AC:  MOVF   xBB,W
052AE:  MULLW  04
052B0:  MOVF   FF3,W
052B2:  CLRF   03
052B4:  ADDLW  81
052B6:  MOVWF  FE9
052B8:  MOVLW  05
052BA:  ADDWFC 03,W
052BC:  MOVWF  FEA
052BE:  MOVFF  624,FEF
052C2:  MOVFF  625,FEC
052C6:  MOVFF  626,FEC
052CA:  MOVFF  627,FEC
....................    y++; 
052CE:  INCF   xBB,F
....................    if(y>=2){ 
052D0:  MOVF   xBB,W
052D2:  SUBLW  01
052D4:  BTFSC  FD8.0
052D6:  BRA    5532
....................       y=0; 
052D8:  CLRF   xBB
....................       Aumento=X[1]-X[0]; 
052DA:  BSF    FD8.1
052DC:  MOVFF  588,81A
052E0:  MOVFF  587,819
052E4:  MOVFF  586,818
052E8:  MOVFF  585,817
052EC:  MOVFF  584,81E
052F0:  MOVFF  583,81D
052F4:  MOVFF  582,81C
052F8:  MOVFF  581,81B
052FC:  MOVLB  0
052FE:  CALL   1296
05302:  MOVFF  03,623
05306:  MOVFF  02,622
0530A:  MOVFF  01,621
0530E:  MOVFF  00,620
....................       HorasActual=hEst; 
05312:  MOVFF  5B9,65B
05316:  MOVFF  5B8,65A
0531A:  MOVFF  5B7,659
0531E:  MOVFF  5B6,658
....................       MinutosActual=mEst; 
05322:  MOVFF  5B5,65F
05326:  MOVFF  5B4,65E
0532A:  MOVFF  5B3,65D
0532E:  MOVFF  5B2,65C
....................       TiempoActual=Tiempo-((HorasActual*3600)+(MinutosActual*60)+tinicio); 
05332:  MOVFF  65B,816
05336:  MOVFF  65A,815
0533A:  MOVFF  659,814
0533E:  MOVFF  658,813
05342:  MOVLB  8
05344:  CLRF   x1A
05346:  CLRF   x19
05348:  MOVLW  61
0534A:  MOVWF  x18
0534C:  MOVLW  8A
0534E:  MOVWF  x17
05350:  MOVLB  0
05352:  CALL   283A
05356:  MOVFF  00,7BA
0535A:  MOVFF  01,7BB
0535E:  MOVFF  02,7BC
05362:  MOVFF  03,7BD
05366:  MOVFF  65F,816
0536A:  MOVFF  65E,815
0536E:  MOVFF  65D,814
05372:  MOVFF  65C,813
05376:  MOVLB  8
05378:  CLRF   x1A
0537A:  CLRF   x19
0537C:  MOVLW  70
0537E:  MOVWF  x18
05380:  MOVLW  84
05382:  MOVWF  x17
05384:  MOVLB  0
05386:  CALL   283A
0538A:  BCF    FD8.1
0538C:  MOVFF  7BD,81A
05390:  MOVFF  7BC,819
05394:  MOVFF  7BB,818
05398:  MOVFF  7BA,817
0539C:  MOVFF  03,81E
053A0:  MOVFF  02,81D
053A4:  MOVFF  01,81C
053A8:  MOVFF  00,81B
053AC:  CALL   1296
053B0:  MOVFF  00,7BA
053B4:  MOVFF  01,7BB
053B8:  MOVFF  02,7BC
053BC:  MOVFF  03,7BD
053C0:  MOVFF  5CF,818
053C4:  MOVFF  5CE,817
053C8:  CALL   10DA
053CC:  BCF    FD8.1
053CE:  MOVFF  7BD,81A
053D2:  MOVFF  7BC,819
053D6:  MOVFF  7BB,818
053DA:  MOVFF  7BA,817
053DE:  MOVFF  03,81E
053E2:  MOVFF  02,81D
053E6:  MOVFF  01,81C
053EA:  MOVFF  00,81B
053EE:  CALL   1296
053F2:  BSF    FD8.1
053F4:  MOVFF  64F,81A
053F8:  MOVFF  64E,819
053FC:  MOVFF  64D,818
05400:  MOVFF  64C,817
05404:  MOVFF  03,81E
05408:  MOVFF  02,81D
0540C:  MOVFF  01,81C
05410:  MOVFF  00,81B
05414:  CALL   1296
05418:  MOVFF  03,653
0541C:  MOVFF  02,652
05420:  MOVFF  01,651
05424:  MOVFF  00,650
....................       PendienteActual=((Setpoint-Temperatura)/TiempoActual); 
05428:  BSF    FD8.1
0542A:  MOVFF  62F,81A
0542E:  MOVFF  62E,819
05432:  MOVFF  62D,818
05436:  MOVFF  62C,817
0543A:  MOVFF  627,81E
0543E:  MOVFF  626,81D
05442:  MOVFF  625,81C
05446:  MOVFF  624,81B
0544A:  CALL   1296
0544E:  MOVFF  00,7BA
05452:  MOVFF  01,7BB
05456:  MOVFF  02,7BC
0545A:  MOVFF  03,7BD
0545E:  MOVFF  03,80F
05462:  MOVFF  02,80E
05466:  MOVFF  01,80D
0546A:  MOVFF  00,80C
0546E:  MOVFF  653,813
05472:  MOVFF  652,812
05476:  MOVFF  651,811
0547A:  MOVFF  650,810
0547E:  CALL   1138
05482:  MOVFF  03,657
05486:  MOVFF  02,656
0548A:  MOVFF  01,655
0548E:  MOVFF  00,654
....................       DifPendiente=(PendienteActual*20)-Aumento; 
05492:  MOVFF  657,816
05496:  MOVFF  656,815
0549A:  MOVFF  655,814
0549E:  MOVFF  654,813
054A2:  MOVLB  8
054A4:  CLRF   x1A
054A6:  CLRF   x19
054A8:  MOVLW  20
054AA:  MOVWF  x18
054AC:  MOVLW  83
054AE:  MOVWF  x17
054B0:  MOVLB  0
054B2:  CALL   283A
054B6:  MOVFF  00,7BA
054BA:  MOVFF  01,7BB
054BE:  MOVFF  02,7BC
054C2:  MOVFF  03,7BD
054C6:  BSF    FD8.1
054C8:  MOVFF  03,81A
054CC:  MOVFF  02,819
054D0:  MOVFF  01,818
054D4:  MOVFF  00,817
054D8:  MOVFF  623,81E
054DC:  MOVFF  622,81D
054E0:  MOVFF  621,81C
054E4:  MOVFF  620,81B
054E8:  CALL   1296
054EC:  MOVFF  03,66F
054F0:  MOVFF  02,66E
054F4:  MOVFF  01,66D
054F8:  MOVFF  00,66C
....................       DifPendiente=DifPendiente*5; 
054FC:  MOVFF  66F,816
05500:  MOVFF  66E,815
05504:  MOVFF  66D,814
05508:  MOVFF  66C,813
0550C:  MOVLB  8
0550E:  CLRF   x1A
05510:  CLRF   x19
05512:  MOVLW  20
05514:  MOVWF  x18
05516:  MOVLW  81
05518:  MOVWF  x17
0551A:  MOVLB  0
0551C:  CALL   283A
05520:  MOVFF  03,66F
05524:  MOVFF  02,66E
05528:  MOVFF  01,66D
0552C:  MOVFF  00,66C
05530:  MOVLB  5
....................    } 
.................... } 
05532:  MOVLB  0
05534:  RETLW  00
....................  
.................... // Funcion para conversor analogo-digital 
.................... float sensores(int x){ 
.................... float y;set_adc_channel(x);delay_ms(1);y=read_adc();return (y); 
*
027E2:  MOVLB  7
027E4:  RLCF   xE3,W
027E6:  MOVWF  00
027E8:  RLCF   00,F
027EA:  MOVLW  FC
027EC:  ANDWF  00,F
027EE:  MOVFF  00,01
027F2:  MOVF   FC2,W
027F4:  ANDLW  C3
027F6:  IORWF  00,W
027F8:  MOVWF  FC2
027FA:  MOVLW  01
027FC:  MOVWF  xE8
027FE:  MOVLB  0
02800:  CALL   1110
02804:  BSF    FC2.1
02806:  BTFSC  FC2.1
02808:  BRA    2806
0280A:  MOVFF  FC4,818
0280E:  MOVFF  FC3,817
02812:  MOVLB  0
02814:  CALL   10DA
02818:  MOVFF  03,7E7
0281C:  MOVFF  02,7E6
02820:  MOVFF  01,7E5
02824:  MOVFF  00,7E4
02828:  MOVFF  7E4,00
0282C:  MOVFF  7E5,01
02830:  MOVFF  7E6,02
02834:  MOVFF  7E7,03
.................... } 
02838:  RETLW  00
.................... float Leer_Sensor(int media) 
.................... { 
....................    Prom=0.0; 
*
02930:  MOVLB  5
02932:  CLRF   xFF
02934:  CLRF   xFE
02936:  CLRF   xFD
02938:  CLRF   xFC
....................    V0 = sensores(0);   //Lectura de Divisor de Voltaje de PT100 con resistencia de 6.18k (+-2%) 
0293A:  MOVLB  7
0293C:  CLRF   xE3
0293E:  MOVLB  0
02940:  RCALL  27E2
02942:  MOVFF  03,5EF
02946:  MOVFF  02,5EE
0294A:  MOVFF  01,5ED
0294E:  MOVFF  00,5EC
....................    V0 = V0/105.08; // Se elimina la ganancia 
02952:  MOVFF  5EF,80F
02956:  MOVFF  5EE,80E
0295A:  MOVFF  5ED,80D
0295E:  MOVFF  5EC,80C
02962:  MOVLW  F6
02964:  MOVLB  8
02966:  MOVWF  x13
02968:  MOVLW  28
0296A:  MOVWF  x12
0296C:  MOVLW  52
0296E:  MOVWF  x11
02970:  MOVLW  85
02972:  MOVWF  x10
02974:  MOVLB  0
02976:  CALL   1138
0297A:  MOVFF  03,5EF
0297E:  MOVFF  02,5EE
02982:  MOVFF  01,5ED
02986:  MOVFF  00,5EC
....................    V0 += 15.05; // Se suma voltaje de divisor fijo 
0298A:  BCF    FD8.1
0298C:  MOVFF  5EF,81A
02990:  MOVFF  5EE,819
02994:  MOVFF  5ED,818
02998:  MOVFF  5EC,817
0299C:  MOVLW  CD
0299E:  MOVLB  8
029A0:  MOVWF  x1E
029A2:  MOVLW  CC
029A4:  MOVWF  x1D
029A6:  MOVLW  70
029A8:  MOVWF  x1C
029AA:  MOVLW  82
029AC:  MOVWF  x1B
029AE:  MOVLB  0
029B0:  CALL   1296
029B4:  MOVFF  03,5EF
029B8:  MOVFF  02,5EE
029BC:  MOVFF  01,5ED
029C0:  MOVFF  00,5EC
....................    Pt = 6790/((1023/V0)-1); 
029C4:  MOVLB  8
029C6:  CLRF   x0F
029C8:  MOVLW  C0
029CA:  MOVWF  x0E
029CC:  MOVLW  7F
029CE:  MOVWF  x0D
029D0:  MOVLW  88
029D2:  MOVWF  x0C
029D4:  MOVFF  5EF,813
029D8:  MOVFF  5EE,812
029DC:  MOVFF  5ED,811
029E0:  MOVFF  5EC,810
029E4:  MOVLB  0
029E6:  CALL   1138
029EA:  MOVFF  00,7BB
029EE:  MOVFF  01,7BC
029F2:  MOVFF  02,7BD
029F6:  MOVFF  03,7BE
029FA:  BSF    FD8.1
029FC:  MOVFF  03,81A
02A00:  MOVFF  02,819
02A04:  MOVFF  01,818
02A08:  MOVFF  00,817
02A0C:  MOVLB  8
02A0E:  CLRF   x1E
02A10:  CLRF   x1D
02A12:  CLRF   x1C
02A14:  MOVLW  7F
02A16:  MOVWF  x1B
02A18:  MOVLB  0
02A1A:  CALL   1296
02A1E:  MOVLB  8
02A20:  CLRF   x0F
02A22:  MOVLW  30
02A24:  MOVWF  x0E
02A26:  MOVLW  54
02A28:  MOVWF  x0D
02A2A:  MOVLW  8B
02A2C:  MOVWF  x0C
02A2E:  MOVFF  03,813
02A32:  MOVFF  02,812
02A36:  MOVFF  01,811
02A3A:  MOVFF  00,810
02A3E:  MOVLB  0
02A40:  CALL   1138
02A44:  MOVFF  03,61B
02A48:  MOVFF  02,61A
02A4C:  MOVFF  01,619
02A50:  MOVFF  00,618
....................     
....................    if(l>(media-1)) 
02A54:  MOVLW  01
02A56:  MOVLB  7
02A58:  SUBWF  xBA,W
02A5A:  MOVLB  5
02A5C:  SUBWF  x8D,W
02A5E:  BZ    2A64
02A60:  BNC   2A64
....................    {l=0;} 
02A62:  CLRF   x8D
....................    promedio[l]=Pt;l++; 
02A64:  MOVLB  7
02A66:  CLRF   xE4
02A68:  MOVFF  58D,7E3
02A6C:  CLRF   xE6
02A6E:  MOVLW  04
02A70:  MOVWF  xE5
02A72:  MOVLB  0
02A74:  CALL   150E
02A78:  MOVF   01,W
02A7A:  ADDLW  59
02A7C:  MOVWF  FE9
02A7E:  MOVLW  00
02A80:  ADDWFC 02,W
02A82:  MOVWF  FEA
02A84:  MOVFF  618,FEF
02A88:  MOVFF  619,FEC
02A8C:  MOVFF  61A,FEC
02A90:  MOVFF  61B,FEC
02A94:  MOVLB  5
02A96:  INCF   x8D,F
....................    //promedio[l]=V0;l++; 
....................           
....................    for(h=0;h<media;h++) 
02A98:  CLRF   x8C
02A9A:  MOVLB  7
02A9C:  MOVF   xBA,W
02A9E:  MOVLB  5
02AA0:  SUBWF  x8C,W
02AA2:  BC    2B24
....................    { 
....................       Prom+=promedio[h]; 
02AA4:  MOVLB  7
02AA6:  CLRF   xE4
02AA8:  MOVFF  58C,7E3
02AAC:  CLRF   xE6
02AAE:  MOVLW  04
02AB0:  MOVWF  xE5
02AB2:  MOVLB  0
02AB4:  CALL   150E
02AB8:  MOVFF  02,03
02ABC:  MOVF   01,W
02ABE:  ADDLW  59
02AC0:  MOVWF  FE9
02AC2:  MOVLW  00
02AC4:  ADDWFC 02,W
02AC6:  MOVWF  FEA
02AC8:  MOVFF  FEF,00
02ACC:  MOVFF  FEC,01
02AD0:  MOVFF  FEC,02
02AD4:  MOVFF  FEC,03
02AD8:  MOVFF  FEA,7BC
02ADC:  MOVFF  FE9,7BB
02AE0:  BCF    FD8.1
02AE2:  MOVFF  5FF,81A
02AE6:  MOVFF  5FE,819
02AEA:  MOVFF  5FD,818
02AEE:  MOVFF  5FC,817
02AF2:  MOVFF  03,81E
02AF6:  MOVFF  02,81D
02AFA:  MOVFF  01,81C
02AFE:  MOVFF  00,81B
02B02:  CALL   1296
02B06:  MOVFF  7BC,FEA
02B0A:  MOVFF  7BB,FE9
02B0E:  MOVFF  03,5FF
02B12:  MOVFF  02,5FE
02B16:  MOVFF  01,5FD
02B1A:  MOVFF  00,5FC
....................    }  
02B1E:  MOVLB  5
02B20:  INCF   x8C,F
02B22:  BRA    2A9A
....................    Prom=Prom/media; 
02B24:  MOVLB  8
02B26:  CLRF   x18
02B28:  MOVFF  7BA,817
02B2C:  MOVLB  0
02B2E:  CALL   10DA
02B32:  MOVFF  5FF,80F
02B36:  MOVFF  5FE,80E
02B3A:  MOVFF  5FD,80D
02B3E:  MOVFF  5FC,80C
02B42:  MOVFF  03,813
02B46:  MOVFF  02,812
02B4A:  MOVFF  01,811
02B4E:  MOVFF  00,810
02B52:  CALL   1138
02B56:  MOVFF  03,5FF
02B5A:  MOVFF  02,5FE
02B5E:  MOVFF  01,5FD
02B62:  MOVFF  00,5FC
....................    Temperature=((Prom*Prom)*a)+(Prom*b)+c;  // Ecuacin determinada por linealizacin en Matlab. Revisar este polinomio. 
02B66:  MOVFF  5FF,816
02B6A:  MOVFF  5FE,815
02B6E:  MOVFF  5FD,814
02B72:  MOVFF  5FC,813
02B76:  MOVFF  5FF,81A
02B7A:  MOVFF  5FE,819
02B7E:  MOVFF  5FD,818
02B82:  MOVFF  5FC,817
02B86:  RCALL  283A
02B88:  MOVFF  00,7BB
02B8C:  MOVFF  01,7BC
02B90:  MOVFF  02,7BD
02B94:  MOVFF  03,7BE
02B98:  MOVFF  03,816
02B9C:  MOVFF  02,815
02BA0:  MOVFF  01,814
02BA4:  MOVFF  00,813
02BA8:  MOVFF  63B,81A
02BAC:  MOVFF  63A,819
02BB0:  MOVFF  639,818
02BB4:  MOVFF  638,817
02BB8:  RCALL  283A
02BBA:  MOVFF  00,7BB
02BBE:  MOVFF  01,7BC
02BC2:  MOVFF  02,7BD
02BC6:  MOVFF  03,7BE
02BCA:  MOVFF  5FF,816
02BCE:  MOVFF  5FE,815
02BD2:  MOVFF  5FD,814
02BD6:  MOVFF  5FC,813
02BDA:  MOVFF  63F,81A
02BDE:  MOVFF  63E,819
02BE2:  MOVFF  63D,818
02BE6:  MOVFF  63C,817
02BEA:  RCALL  283A
02BEC:  BCF    FD8.1
02BEE:  MOVFF  7BE,81A
02BF2:  MOVFF  7BD,819
02BF6:  MOVFF  7BC,818
02BFA:  MOVFF  7BB,817
02BFE:  MOVFF  03,81E
02C02:  MOVFF  02,81D
02C06:  MOVFF  01,81C
02C0A:  MOVFF  00,81B
02C0E:  CALL   1296
02C12:  MOVFF  00,7BB
02C16:  MOVFF  01,7BC
02C1A:  MOVFF  02,7BD
02C1E:  MOVFF  03,7BE
02C22:  BCF    FD8.1
02C24:  MOVFF  03,81A
02C28:  MOVFF  02,819
02C2C:  MOVFF  01,818
02C30:  MOVFF  00,817
02C34:  MOVFF  643,81E
02C38:  MOVFF  642,81D
02C3C:  MOVFF  641,81C
02C40:  MOVFF  640,81B
02C44:  CALL   1296
02C48:  MOVFF  03,603
02C4C:  MOVFF  02,602
02C50:  MOVFF  01,601
02C54:  MOVFF  00,600
....................    return Temperature+Ajuste-Ajusten;    
02C58:  MOVLB  8
02C5A:  CLRF   x18
02C5C:  MOVFF  58E,817
02C60:  MOVLB  0
02C62:  CALL   10DA
02C66:  BCF    FD8.1
02C68:  MOVFF  603,81A
02C6C:  MOVFF  602,819
02C70:  MOVFF  601,818
02C74:  MOVFF  600,817
02C78:  MOVFF  03,81E
02C7C:  MOVFF  02,81D
02C80:  MOVFF  01,81C
02C84:  MOVFF  00,81B
02C88:  CALL   1296
02C8C:  MOVFF  00,7BB
02C90:  MOVFF  01,7BC
02C94:  MOVFF  02,7BD
02C98:  MOVFF  03,7BE
02C9C:  MOVLB  8
02C9E:  CLRF   x18
02CA0:  MOVFF  58F,817
02CA4:  MOVLB  0
02CA6:  CALL   10DA
02CAA:  BSF    FD8.1
02CAC:  MOVFF  7BE,81A
02CB0:  MOVFF  7BD,819
02CB4:  MOVFF  7BC,818
02CB8:  MOVFF  7BB,817
02CBC:  MOVFF  03,81E
02CC0:  MOVFF  02,81D
02CC4:  MOVFF  01,81C
02CC8:  MOVFF  00,81B
02CCC:  CALL   1296
.................... } 
02CD0:  RETLW  00
....................  
.................... float leeHumedad(int8 media){ 
*
03D12:  MOVLB  7
03D14:  CLRF   xBE
03D16:  CLRF   xBD
03D18:  CLRF   xBC
03D1A:  CLRF   xBB
03D1C:  CLRF   xC2
03D1E:  CLRF   xC1
03D20:  CLRF   xC0
03D22:  CLRF   xBF
03D24:  CLRF   xC6
03D26:  CLRF   xC5
03D28:  CLRF   xC4
03D2A:  CLRF   xC3
03D2C:  CLRF   xCA
03D2E:  CLRF   xC9
03D30:  CLRF   xC8
03D32:  CLRF   xC7
03D34:  MOVLW  1B
03D36:  MOVWF  xCE
03D38:  MOVLW  2F
03D3A:  MOVWF  xCD
03D3C:  MOVLW  9D
03D3E:  MOVWF  xCC
03D40:  MOVLW  80
03D42:  MOVWF  xCB
03D44:  MOVLW  73
03D46:  MOVWF  xD2
03D48:  MOVLW  68
03D4A:  MOVWF  xD1
03D4C:  MOVLW  1E
03D4E:  MOVWF  xD0
03D50:  MOVLW  83
03D52:  MOVWF  xCF
03D54:  MOVLW  D7
03D56:  MOVWF  xD6
03D58:  MOVLW  63
03D5A:  MOVWF  xD5
03D5C:  MOVLW  92
03D5E:  MOVWF  xD4
03D60:  MOVLW  85
03D62:  MOVWF  xD3
03D64:  MOVLW  9A
03D66:  MOVWF  xDA
03D68:  MOVLW  19
03D6A:  MOVWF  xD9
03D6C:  MOVLW  75
03D6E:  MOVWF  xD8
03D70:  MOVLW  85
03D72:  MOVWF  xD7
03D74:  CLRF   xDE
03D76:  CLRF   xDD
03D78:  CLRF   xDC
03D7A:  CLRF   xDB
03D7C:  CLRF   xE2
03D7E:  CLRF   xE1
03D80:  CLRF   xE0
03D82:  CLRF   xDF
....................    float VH=0.0,RH=0.0,Ta=0.0,VT=0.0,a=-2.4560,b=19.801,c=-73.195,d=122.55,PromH=0.0,PromTa=0.0; 
....................    PromH=0.0; 
03D84:  CLRF   xDE
03D86:  CLRF   xDD
03D88:  CLRF   xDC
03D8A:  CLRF   xDB
....................    PromTa=0.0; 
03D8C:  CLRF   xE2
03D8E:  CLRF   xE1
03D90:  CLRF   xE0
03D92:  CLRF   xDF
....................    VH=(sensores(2)/1023.0)*5.0; 
03D94:  MOVLW  02
03D96:  MOVWF  xE3
03D98:  MOVLB  0
03D9A:  CALL   27E2
03D9E:  MOVFF  00,7E3
03DA2:  MOVFF  01,7E4
03DA6:  MOVFF  02,7E5
03DAA:  MOVFF  03,7E6
03DAE:  MOVFF  03,80F
03DB2:  MOVFF  02,80E
03DB6:  MOVFF  01,80D
03DBA:  MOVFF  00,80C
03DBE:  MOVLB  8
03DC0:  CLRF   x13
03DC2:  MOVLW  C0
03DC4:  MOVWF  x12
03DC6:  MOVLW  7F
03DC8:  MOVWF  x11
03DCA:  MOVLW  88
03DCC:  MOVWF  x10
03DCE:  MOVLB  0
03DD0:  CALL   1138
03DD4:  MOVFF  00,7E3
03DD8:  MOVFF  01,7E4
03DDC:  MOVFF  02,7E5
03DE0:  MOVFF  03,7E6
03DE4:  MOVFF  03,816
03DE8:  MOVFF  02,815
03DEC:  MOVFF  01,814
03DF0:  MOVFF  00,813
03DF4:  MOVLB  8
03DF6:  CLRF   x1A
03DF8:  CLRF   x19
03DFA:  MOVLW  20
03DFC:  MOVWF  x18
03DFE:  MOVLW  81
03E00:  MOVWF  x17
03E02:  MOVLB  0
03E04:  CALL   283A
03E08:  MOVFF  03,7BE
03E0C:  MOVFF  02,7BD
03E10:  MOVFF  01,7BC
03E14:  MOVFF  00,7BB
....................    VT=(sensores(3)/1023.0)*5.0; 
03E18:  MOVLW  03
03E1A:  MOVLB  7
03E1C:  MOVWF  xE3
03E1E:  MOVLB  0
03E20:  CALL   27E2
03E24:  MOVFF  00,7E3
03E28:  MOVFF  01,7E4
03E2C:  MOVFF  02,7E5
03E30:  MOVFF  03,7E6
03E34:  MOVFF  03,80F
03E38:  MOVFF  02,80E
03E3C:  MOVFF  01,80D
03E40:  MOVFF  00,80C
03E44:  MOVLB  8
03E46:  CLRF   x13
03E48:  MOVLW  C0
03E4A:  MOVWF  x12
03E4C:  MOVLW  7F
03E4E:  MOVWF  x11
03E50:  MOVLW  88
03E52:  MOVWF  x10
03E54:  MOVLB  0
03E56:  CALL   1138
03E5A:  MOVFF  00,7E3
03E5E:  MOVFF  01,7E4
03E62:  MOVFF  02,7E5
03E66:  MOVFF  03,7E6
03E6A:  MOVFF  03,816
03E6E:  MOVFF  02,815
03E72:  MOVFF  01,814
03E76:  MOVFF  00,813
03E7A:  MOVLB  8
03E7C:  CLRF   x1A
03E7E:  CLRF   x19
03E80:  MOVLW  20
03E82:  MOVWF  x18
03E84:  MOVLW  81
03E86:  MOVWF  x17
03E88:  MOVLB  0
03E8A:  CALL   283A
03E8E:  MOVFF  03,7CA
03E92:  MOVFF  02,7C9
03E96:  MOVFF  01,7C8
03E9A:  MOVFF  00,7C7
....................    VH=VH*1000; 
03E9E:  MOVFF  7BE,816
03EA2:  MOVFF  7BD,815
03EA6:  MOVFF  7BC,814
03EAA:  MOVFF  7BB,813
03EAE:  MOVLB  8
03EB0:  CLRF   x1A
03EB2:  CLRF   x19
03EB4:  MOVLW  7A
03EB6:  MOVWF  x18
03EB8:  MOVLW  88
03EBA:  MOVWF  x17
03EBC:  MOVLB  0
03EBE:  CALL   283A
03EC2:  MOVFF  03,7BE
03EC6:  MOVFF  02,7BD
03ECA:  MOVFF  01,7BC
03ECE:  MOVFF  00,7BB
....................    //VT=VT*1000; 
....................    Ta=(pow(VT,3)*a)+(pow(VT,2)*b)+(VT*c)+d; 
03ED2:  MOVFF  7CA,7EA
03ED6:  MOVFF  7C9,7E9
03EDA:  MOVFF  7C8,7E8
03EDE:  MOVFF  7C7,7E7
03EE2:  MOVLB  7
03EE4:  CLRF   xEE
03EE6:  CLRF   xED
03EE8:  MOVLW  40
03EEA:  MOVWF  xEC
03EEC:  MOVLW  80
03EEE:  MOVWF  xEB
03EF0:  MOVLB  0
03EF2:  RCALL  3A06
03EF4:  MOVFF  00,7E3
03EF8:  MOVFF  01,7E4
03EFC:  MOVFF  02,7E5
03F00:  MOVFF  03,7E6
03F04:  MOVFF  03,816
03F08:  MOVFF  02,815
03F0C:  MOVFF  01,814
03F10:  MOVFF  00,813
03F14:  MOVFF  7CE,81A
03F18:  MOVFF  7CD,819
03F1C:  MOVFF  7CC,818
03F20:  MOVFF  7CB,817
03F24:  CALL   283A
03F28:  MOVFF  00,7E3
03F2C:  MOVFF  01,7E4
03F30:  MOVFF  02,7E5
03F34:  MOVFF  03,7E6
03F38:  MOVFF  7CA,7EA
03F3C:  MOVFF  7C9,7E9
03F40:  MOVFF  7C8,7E8
03F44:  MOVFF  7C7,7E7
03F48:  MOVLB  7
03F4A:  CLRF   xEE
03F4C:  CLRF   xED
03F4E:  CLRF   xEC
03F50:  MOVLW  80
03F52:  MOVWF  xEB
03F54:  MOVLB  0
03F56:  RCALL  3A06
03F58:  MOVFF  00,7E7
03F5C:  MOVFF  01,7E8
03F60:  MOVFF  02,7E9
03F64:  MOVFF  03,7EA
03F68:  MOVFF  03,816
03F6C:  MOVFF  02,815
03F70:  MOVFF  01,814
03F74:  MOVFF  00,813
03F78:  MOVFF  7D2,81A
03F7C:  MOVFF  7D1,819
03F80:  MOVFF  7D0,818
03F84:  MOVFF  7CF,817
03F88:  CALL   283A
03F8C:  MOVFF  FEA,7E8
03F90:  MOVFF  FE9,7E7
03F94:  BCF    FD8.1
03F96:  MOVFF  7E6,81A
03F9A:  MOVFF  7E5,819
03F9E:  MOVFF  7E4,818
03FA2:  MOVFF  7E3,817
03FA6:  MOVFF  03,81E
03FAA:  MOVFF  02,81D
03FAE:  MOVFF  01,81C
03FB2:  MOVFF  00,81B
03FB6:  CALL   1296
03FBA:  MOVFF  7E8,FEA
03FBE:  MOVFF  7E7,FE9
03FC2:  MOVFF  00,7E3
03FC6:  MOVFF  01,7E4
03FCA:  MOVFF  02,7E5
03FCE:  MOVFF  03,7E6
03FD2:  MOVFF  7CA,816
03FD6:  MOVFF  7C9,815
03FDA:  MOVFF  7C8,814
03FDE:  MOVFF  7C7,813
03FE2:  MOVFF  7D6,81A
03FE6:  MOVFF  7D5,819
03FEA:  MOVFF  7D4,818
03FEE:  MOVFF  7D3,817
03FF2:  CALL   283A
03FF6:  MOVFF  FEA,7EA
03FFA:  MOVFF  FE9,7E9
03FFE:  BCF    FD8.1
04000:  MOVFF  7E6,81A
04004:  MOVFF  7E5,819
04008:  MOVFF  7E4,818
0400C:  MOVFF  7E3,817
04010:  MOVFF  03,81E
04014:  MOVFF  02,81D
04018:  MOVFF  01,81C
0401C:  MOVFF  00,81B
04020:  CALL   1296
04024:  MOVFF  7EA,FEA
04028:  MOVFF  7E9,FE9
0402C:  MOVFF  00,7E3
04030:  MOVFF  01,7E4
04034:  MOVFF  02,7E5
04038:  MOVFF  03,7E6
0403C:  MOVFF  FEA,7EC
04040:  MOVFF  FE9,7EB
04044:  BCF    FD8.1
04046:  MOVFF  03,81A
0404A:  MOVFF  02,819
0404E:  MOVFF  01,818
04052:  MOVFF  00,817
04056:  MOVFF  7DA,81E
0405A:  MOVFF  7D9,81D
0405E:  MOVFF  7D8,81C
04062:  MOVFF  7D7,81B
04066:  CALL   1296
0406A:  MOVFF  7EC,FEA
0406E:  MOVFF  7EB,FE9
04072:  MOVFF  03,7C6
04076:  MOVFF  02,7C5
0407A:  MOVFF  01,7C4
0407E:  MOVFF  00,7C3
....................    Tam=Ta; 
04082:  MOVFF  7C6,5E3
04086:  MOVFF  7C5,5E2
0408A:  MOVFF  7C4,5E1
0408E:  MOVFF  7C3,5E0
....................    if(f>(media-1)) 
04092:  MOVLW  01
04094:  MOVLB  7
04096:  SUBWF  xBA,W
04098:  MOVLB  5
0409A:  SUBWF  x9F,W
0409C:  BZ    40A2
0409E:  BNC   40A2
....................       f=0; 
040A0:  CLRF   x9F
....................    promedioTa[f]=Ta;f++; 
040A2:  MOVLB  7
040A4:  CLRF   xE4
040A6:  MOVFF  59F,7E3
040AA:  CLRF   xE6
040AC:  MOVLW  04
040AE:  MOVWF  xE5
040B0:  MOVLB  0
040B2:  CALL   150E
040B6:  MOVF   01,W
040B8:  ADDLW  A1
040BA:  MOVWF  FE9
040BC:  MOVLW  03
040BE:  ADDWFC 02,W
040C0:  MOVWF  FEA
040C2:  MOVFF  7C3,FEF
040C6:  MOVFF  7C4,FEC
040CA:  MOVFF  7C5,FEC
040CE:  MOVFF  7C6,FEC
040D2:  MOVLB  5
040D4:  INCF   x9F,F
....................           
....................    for(h=0;h<media;h++) 
040D6:  CLRF   x8C
040D8:  MOVLB  7
040DA:  MOVF   xBA,W
040DC:  MOVLB  5
040DE:  SUBWF  x8C,W
040E0:  BC    4162
....................       PromTa+=promedioTa[h];  
040E2:  MOVLB  7
040E4:  CLRF   xE4
040E6:  MOVFF  58C,7E3
040EA:  CLRF   xE6
040EC:  MOVLW  04
040EE:  MOVWF  xE5
040F0:  MOVLB  0
040F2:  CALL   150E
040F6:  MOVFF  02,03
040FA:  MOVF   01,W
040FC:  ADDLW  A1
040FE:  MOVWF  FE9
04100:  MOVLW  03
04102:  ADDWFC 02,W
04104:  MOVWF  FEA
04106:  MOVFF  FEF,00
0410A:  MOVFF  FEC,01
0410E:  MOVFF  FEC,02
04112:  MOVFF  FEC,03
04116:  MOVFF  FEA,7E4
0411A:  MOVFF  FE9,7E3
0411E:  BCF    FD8.1
04120:  MOVFF  7E2,81A
04124:  MOVFF  7E1,819
04128:  MOVFF  7E0,818
0412C:  MOVFF  7DF,817
04130:  MOVFF  03,81E
04134:  MOVFF  02,81D
04138:  MOVFF  01,81C
0413C:  MOVFF  00,81B
04140:  CALL   1296
04144:  MOVFF  7E4,FEA
04148:  MOVFF  7E3,FE9
0414C:  MOVFF  03,7E2
04150:  MOVFF  02,7E1
04154:  MOVFF  01,7E0
04158:  MOVFF  00,7DF
0415C:  MOVLB  5
0415E:  INCF   x8C,F
04160:  BRA    40D8
....................    PromTa=PromTa/media; 
04162:  MOVLB  8
04164:  CLRF   x18
04166:  MOVFF  7BA,817
0416A:  MOVLB  0
0416C:  CALL   10DA
04170:  MOVFF  7E2,80F
04174:  MOVFF  7E1,80E
04178:  MOVFF  7E0,80D
0417C:  MOVFF  7DF,80C
04180:  MOVFF  03,813
04184:  MOVFF  02,812
04188:  MOVFF  01,811
0418C:  MOVFF  00,810
04190:  CALL   1138
04194:  MOVFF  03,7E2
04198:  MOVFF  02,7E1
0419C:  MOVFF  01,7E0
041A0:  MOVFF  00,7DF
....................     
....................    RH =((-0.0000000019206*pow(VH,3))+( 0.000014370*pow(VH,2))+( 0.0034210*VH)-12.4)/(1+(PromTa-23)*( 0.0024)); 
041A4:  MOVFF  7BE,7EA
041A8:  MOVFF  7BD,7E9
041AC:  MOVFF  7BC,7E8
041B0:  MOVFF  7BB,7E7
041B4:  MOVLB  7
041B6:  CLRF   xEE
041B8:  CLRF   xED
041BA:  MOVLW  40
041BC:  MOVWF  xEC
041BE:  MOVLW  80
041C0:  MOVWF  xEB
041C2:  MOVLB  0
041C4:  RCALL  3A06
041C6:  MOVLW  8D
041C8:  MOVLB  8
041CA:  MOVWF  x16
041CC:  MOVLW  FB
041CE:  MOVWF  x15
041D0:  MOVLW  83
041D2:  MOVWF  x14
041D4:  MOVLW  62
041D6:  MOVWF  x13
041D8:  MOVFF  03,81A
041DC:  MOVFF  02,819
041E0:  MOVFF  01,818
041E4:  MOVFF  00,817
041E8:  MOVLB  0
041EA:  CALL   283A
041EE:  MOVFF  00,7E3
041F2:  MOVFF  01,7E4
041F6:  MOVFF  02,7E5
041FA:  MOVFF  03,7E6
041FE:  MOVFF  7BE,7EA
04202:  MOVFF  7BD,7E9
04206:  MOVFF  7BC,7E8
0420A:  MOVFF  7BB,7E7
0420E:  MOVLB  7
04210:  CLRF   xEE
04212:  CLRF   xED
04214:  CLRF   xEC
04216:  MOVLW  80
04218:  MOVWF  xEB
0421A:  MOVLB  0
0421C:  CALL   3A06
04220:  MOVLW  AE
04222:  MOVLB  8
04224:  MOVWF  x16
04226:  MOVLW  16
04228:  MOVWF  x15
0422A:  MOVLW  71
0422C:  MOVWF  x14
0422E:  MOVLW  6E
04230:  MOVWF  x13
04232:  MOVFF  03,81A
04236:  MOVFF  02,819
0423A:  MOVFF  01,818
0423E:  MOVFF  00,817
04242:  MOVLB  0
04244:  CALL   283A
04248:  MOVFF  FEA,7E8
0424C:  MOVFF  FE9,7E7
04250:  BCF    FD8.1
04252:  MOVFF  7E6,81A
04256:  MOVFF  7E5,819
0425A:  MOVFF  7E4,818
0425E:  MOVFF  7E3,817
04262:  MOVFF  03,81E
04266:  MOVFF  02,81D
0426A:  MOVFF  01,81C
0426E:  MOVFF  00,81B
04272:  CALL   1296
04276:  MOVFF  7E8,FEA
0427A:  MOVFF  7E7,FE9
0427E:  MOVFF  00,7E3
04282:  MOVFF  01,7E4
04286:  MOVFF  02,7E5
0428A:  MOVFF  03,7E6
0428E:  MOVLW  DB
04290:  MOVLB  8
04292:  MOVWF  x16
04294:  MOVLW  32
04296:  MOVWF  x15
04298:  MOVLW  60
0429A:  MOVWF  x14
0429C:  MOVLW  76
0429E:  MOVWF  x13
042A0:  MOVFF  7BE,81A
042A4:  MOVFF  7BD,819
042A8:  MOVFF  7BC,818
042AC:  MOVFF  7BB,817
042B0:  MOVLB  0
042B2:  CALL   283A
042B6:  MOVFF  FEA,7EA
042BA:  MOVFF  FE9,7E9
042BE:  BCF    FD8.1
042C0:  MOVFF  7E6,81A
042C4:  MOVFF  7E5,819
042C8:  MOVFF  7E4,818
042CC:  MOVFF  7E3,817
042D0:  MOVFF  03,81E
042D4:  MOVFF  02,81D
042D8:  MOVFF  01,81C
042DC:  MOVFF  00,81B
042E0:  CALL   1296
042E4:  MOVFF  7EA,FEA
042E8:  MOVFF  7E9,FE9
042EC:  MOVFF  00,7E3
042F0:  MOVFF  01,7E4
042F4:  MOVFF  02,7E5
042F8:  MOVFF  03,7E6
042FC:  MOVFF  FEA,7EC
04300:  MOVFF  FE9,7EB
04304:  BSF    FD8.1
04306:  MOVFF  03,81A
0430A:  MOVFF  02,819
0430E:  MOVFF  01,818
04312:  MOVFF  00,817
04316:  MOVLW  66
04318:  MOVLB  8
0431A:  MOVWF  x1E
0431C:  MOVWF  x1D
0431E:  MOVLW  46
04320:  MOVWF  x1C
04322:  MOVLW  82
04324:  MOVWF  x1B
04326:  MOVLB  0
04328:  CALL   1296
0432C:  MOVFF  7EC,FEA
04330:  MOVFF  7EB,FE9
04334:  MOVFF  00,7E3
04338:  MOVFF  01,7E4
0433C:  MOVFF  02,7E5
04340:  MOVFF  03,7E6
04344:  MOVFF  FEA,7EE
04348:  MOVFF  FE9,7ED
0434C:  BSF    FD8.1
0434E:  MOVFF  7E2,81A
04352:  MOVFF  7E1,819
04356:  MOVFF  7E0,818
0435A:  MOVFF  7DF,817
0435E:  MOVLB  8
04360:  CLRF   x1E
04362:  CLRF   x1D
04364:  MOVLW  38
04366:  MOVWF  x1C
04368:  MOVLW  83
0436A:  MOVWF  x1B
0436C:  MOVLB  0
0436E:  CALL   1296
04372:  MOVFF  7EE,FEA
04376:  MOVFF  7ED,FE9
0437A:  MOVFF  00,7EF
0437E:  MOVFF  01,7F0
04382:  MOVFF  02,7F1
04386:  MOVFF  03,7F2
0438A:  MOVFF  03,816
0438E:  MOVFF  02,815
04392:  MOVFF  01,814
04396:  MOVFF  00,813
0439A:  MOVLW  52
0439C:  MOVLB  8
0439E:  MOVWF  x1A
043A0:  MOVLW  49
043A2:  MOVWF  x19
043A4:  MOVLW  1D
043A6:  MOVWF  x18
043A8:  MOVLW  76
043AA:  MOVWF  x17
043AC:  MOVLB  0
043AE:  CALL   283A
043B2:  MOVFF  FEA,7F0
043B6:  MOVFF  FE9,7EF
043BA:  BCF    FD8.1
043BC:  MOVLB  8
043BE:  CLRF   x1A
043C0:  CLRF   x19
043C2:  CLRF   x18
043C4:  MOVLW  7F
043C6:  MOVWF  x17
043C8:  MOVFF  03,81E
043CC:  MOVFF  02,81D
043D0:  MOVFF  01,81C
043D4:  MOVFF  00,81B
043D8:  MOVLB  0
043DA:  CALL   1296
043DE:  MOVFF  7F0,FEA
043E2:  MOVFF  7EF,FE9
043E6:  MOVFF  7E6,80F
043EA:  MOVFF  7E5,80E
043EE:  MOVFF  7E4,80D
043F2:  MOVFF  7E3,80C
043F6:  MOVFF  03,813
043FA:  MOVFF  02,812
043FE:  MOVFF  01,811
04402:  MOVFF  00,810
04406:  CALL   1138
0440A:  MOVFF  03,7C2
0440E:  MOVFF  02,7C1
04412:  MOVFF  01,7C0
04416:  MOVFF  00,7BF
....................    //RH =((-0.0000000019206*pow(VH,3))+( 0.000014370*pow(VH,2))+( 0.0034210*VH)-12.4)/(1+(Temperatura-23)*( 0.0024)); 
....................    RH2 = 0.0375 * VH - 37.7; //Lineal sin compensacion de Temperatura 
0441A:  MOVLW  9A
0441C:  MOVLB  8
0441E:  MOVWF  x16
04420:  MOVLW  99
04422:  MOVWF  x15
04424:  MOVLW  19
04426:  MOVWF  x14
04428:  MOVLW  7A
0442A:  MOVWF  x13
0442C:  MOVFF  7BE,81A
04430:  MOVFF  7BD,819
04434:  MOVFF  7BC,818
04438:  MOVFF  7BB,817
0443C:  MOVLB  0
0443E:  CALL   283A
04442:  MOVFF  00,7E3
04446:  MOVFF  01,7E4
0444A:  MOVFF  02,7E5
0444E:  MOVFF  03,7E6
04452:  BSF    FD8.1
04454:  MOVFF  03,81A
04458:  MOVFF  02,819
0445C:  MOVFF  01,818
04460:  MOVFF  00,817
04464:  MOVLW  CD
04466:  MOVLB  8
04468:  MOVWF  x1E
0446A:  MOVLW  CC
0446C:  MOVWF  x1D
0446E:  MOVLW  16
04470:  MOVWF  x1C
04472:  MOVLW  84
04474:  MOVWF  x1B
04476:  MOVLB  0
04478:  CALL   1296
0447C:  MOVFF  03,5E7
04480:  MOVFF  02,5E6
04484:  MOVFF  01,5E5
04488:  MOVFF  00,5E4
....................    if(n>(media-1)) 
0448C:  MOVLW  01
0448E:  MOVLB  7
04490:  SUBWF  xBA,W
04492:  MOVLB  5
04494:  SUBWF  xBD,W
04496:  BZ    449C
04498:  BNC   449C
....................       n=0; 
0449A:  CLRF   xBD
....................    promedioH[n]=RH;n++; 
0449C:  MOVLB  7
0449E:  CLRF   xE4
044A0:  MOVFF  5BD,7E3
044A4:  CLRF   xE6
044A6:  MOVLW  04
044A8:  MOVWF  xE5
044AA:  MOVLB  0
044AC:  CALL   150E
044B0:  MOVF   01,W
044B2:  ADDLW  C1
044B4:  MOVWF  FE9
044B6:  MOVLW  01
044B8:  ADDWFC 02,W
044BA:  MOVWF  FEA
044BC:  MOVFF  7BF,FEF
044C0:  MOVFF  7C0,FEC
044C4:  MOVFF  7C1,FEC
044C8:  MOVFF  7C2,FEC
044CC:  MOVLB  5
044CE:  INCF   xBD,F
....................           
....................    for(h=0;h<media;h++) 
044D0:  CLRF   x8C
044D2:  MOVLB  7
044D4:  MOVF   xBA,W
044D6:  MOVLB  5
044D8:  SUBWF  x8C,W
044DA:  BC    455C
....................       PromH+=promedioH[h];  
044DC:  MOVLB  7
044DE:  CLRF   xE4
044E0:  MOVFF  58C,7E3
044E4:  CLRF   xE6
044E6:  MOVLW  04
044E8:  MOVWF  xE5
044EA:  MOVLB  0
044EC:  CALL   150E
044F0:  MOVFF  02,03
044F4:  MOVF   01,W
044F6:  ADDLW  C1
044F8:  MOVWF  FE9
044FA:  MOVLW  01
044FC:  ADDWFC 02,W
044FE:  MOVWF  FEA
04500:  MOVFF  FEF,00
04504:  MOVFF  FEC,01
04508:  MOVFF  FEC,02
0450C:  MOVFF  FEC,03
04510:  MOVFF  FEA,7E4
04514:  MOVFF  FE9,7E3
04518:  BCF    FD8.1
0451A:  MOVFF  7DE,81A
0451E:  MOVFF  7DD,819
04522:  MOVFF  7DC,818
04526:  MOVFF  7DB,817
0452A:  MOVFF  03,81E
0452E:  MOVFF  02,81D
04532:  MOVFF  01,81C
04536:  MOVFF  00,81B
0453A:  CALL   1296
0453E:  MOVFF  7E4,FEA
04542:  MOVFF  7E3,FE9
04546:  MOVFF  03,7DE
0454A:  MOVFF  02,7DD
0454E:  MOVFF  01,7DC
04552:  MOVFF  00,7DB
04556:  MOVLB  5
04558:  INCF   x8C,F
0455A:  BRA    44D2
....................    PromH=PromH/media; 
0455C:  MOVLB  8
0455E:  CLRF   x18
04560:  MOVFF  7BA,817
04564:  MOVLB  0
04566:  CALL   10DA
0456A:  MOVFF  7DE,80F
0456E:  MOVFF  7DD,80E
04572:  MOVFF  7DC,80D
04576:  MOVFF  7DB,80C
0457A:  MOVFF  03,813
0457E:  MOVFF  02,812
04582:  MOVFF  01,811
04586:  MOVFF  00,810
0458A:  CALL   1138
0458E:  MOVFF  03,7DE
04592:  MOVFF  02,7DD
04596:  MOVFF  01,7DC
0459A:  MOVFF  00,7DB
....................    return PromH; 
0459E:  MOVFF  7DB,00
045A2:  MOVFF  7DC,01
045A6:  MOVFF  7DD,02
045AA:  MOVFF  7DE,03
.................... } 
045AE:  RETLW  00
....................  
.................... void Controla(){ 
.................... //-------------------------------Control de Calentamiento------------------------------------------------------------//          
....................    if(!flagRampa){ 
*
05536:  MOVLB  5
05538:  BTFSC  x8B.5
0553A:  BRA    554C
....................       if(tiemporecta>=Derivativo){ 
0553C:  MOVF   x97,W
0553E:  SUBWF  x91,W
05540:  BNC   554A
....................          ActualizaRecta(); 
05542:  MOVLB  0
05544:  RCALL  52AA
....................          tiemporecta=0; 
05546:  MOVLB  5
05548:  CLRF   x91
....................       }  
....................    }else{ 
0554A:  BRA    555A
....................       if(tiemporecta>=10){ 
0554C:  MOVF   x91,W
0554E:  SUBLW  09
05550:  BC    555A
....................          ActualizaRecta(); 
05552:  MOVLB  0
05554:  RCALL  52AA
....................          tiemporecta=0; 
05556:  MOVLB  5
05558:  CLRF   x91
....................       } 
....................    } 
....................     
....................    Rele5_on; 
0555A:  BSF    F8B.4
0555C:  BCF    F94.4
....................     
....................    if(flagRampa){ 
0555E:  BTFSS  x8B.5
05560:  BRA    5C1C
....................       if(Segmento==0){ 
05562:  MOVF   xA1,F
05564:  BTFSS  FD8.2
05566:  BRA    57C2
....................          if(flag_calcula==0){ 
05568:  BTFSC  x8B.6
0556A:  BRA    57C0
....................             Tiempo=(rampas[0].Horas*3600)+(rampas[0].Minutos*60);          
0556C:  MOVFF  694,816
05570:  MOVFF  693,815
05574:  MOVFF  692,814
05578:  MOVFF  691,813
0557C:  MOVLB  8
0557E:  CLRF   x1A
05580:  CLRF   x19
05582:  MOVLW  61
05584:  MOVWF  x18
05586:  MOVLW  8A
05588:  MOVWF  x17
0558A:  MOVLB  0
0558C:  CALL   283A
05590:  MOVFF  00,7BA
05594:  MOVFF  01,7BB
05598:  MOVFF  02,7BC
0559C:  MOVFF  03,7BD
055A0:  MOVFF  698,816
055A4:  MOVFF  697,815
055A8:  MOVFF  696,814
055AC:  MOVFF  695,813
055B0:  MOVLB  8
055B2:  CLRF   x1A
055B4:  CLRF   x19
055B6:  MOVLW  70
055B8:  MOVWF  x18
055BA:  MOVLW  84
055BC:  MOVWF  x17
055BE:  MOVLB  0
055C0:  CALL   283A
055C4:  BCF    FD8.1
055C6:  MOVFF  7BD,81A
055CA:  MOVFF  7BC,819
055CE:  MOVFF  7BB,818
055D2:  MOVFF  7BA,817
055D6:  MOVFF  03,81E
055DA:  MOVFF  02,81D
055DE:  MOVFF  01,81C
055E2:  MOVFF  00,81B
055E6:  CALL   1296
055EA:  MOVFF  03,64F
055EE:  MOVFF  02,64E
055F2:  MOVFF  01,64D
055F6:  MOVFF  00,64C
....................             Setpoint=rampas[0].Temperatura; 
055FA:  MOVFF  69C,62F
055FE:  MOVFF  69B,62E
05602:  MOVFF  69A,62D
05606:  MOVFF  699,62C
....................             Pendiente=((Setpoint-TempeInicial)/Tiempo); 
0560A:  BSF    FD8.1
0560C:  MOVFF  62F,81A
05610:  MOVFF  62E,819
05614:  MOVFF  62D,818
05618:  MOVFF  62C,817
0561C:  MOVFF  64B,81E
05620:  MOVFF  64A,81D
05624:  MOVFF  649,81C
05628:  MOVFF  648,81B
0562C:  CALL   1296
05630:  MOVFF  00,7BA
05634:  MOVFF  01,7BB
05638:  MOVFF  02,7BC
0563C:  MOVFF  03,7BD
05640:  MOVFF  03,80F
05644:  MOVFF  02,80E
05648:  MOVFF  01,80D
0564C:  MOVFF  00,80C
05650:  MOVFF  64F,813
05654:  MOVFF  64E,812
05658:  MOVFF  64D,811
0565C:  MOVFF  64C,810
05660:  CALL   1138
05664:  MOVFF  03,66B
05668:  MOVFF  02,66A
0566C:  MOVFF  01,669
05670:  MOVFF  00,668
....................             hEstp=rampas[0].Horas; 
05674:  MOVFF  694,5A9
05678:  MOVFF  693,5A8
0567C:  MOVFF  692,5A7
05680:  MOVFF  691,5A6
....................             mEstp=rampas[0].Minutos; 
05684:  MOVFF  698,5A5
05688:  MOVFF  697,5A4
0568C:  MOVFF  696,5A3
05690:  MOVFF  695,5A2
....................             flag_calcula=1; 
05694:  MOVLB  5
05696:  BSF    x8B.6
....................             delay_ms(10); 
05698:  MOVLW  0A
0569A:  MOVLB  7
0569C:  MOVWF  xE8
0569E:  MOVLB  0
056A0:  CALL   1110
....................             if(Setpoint<Temperatura){ 
056A4:  MOVFF  62F,816
056A8:  MOVFF  62E,815
056AC:  MOVFF  62D,814
056B0:  MOVFF  62C,813
056B4:  MOVFF  627,81A
056B8:  MOVFF  626,819
056BC:  MOVFF  625,818
056C0:  MOVFF  624,817
056C4:  CALL   1572
056C8:  BNC   572A
....................                Enfria=1; 
056CA:  MOVLW  01
056CC:  MOVLB  5
056CE:  MOVWF  x94
....................                Ganancia=GananciaR*(Setpoint/44.5); 
056D0:  MOVFF  62F,80F
056D4:  MOVFF  62E,80E
056D8:  MOVFF  62D,80D
056DC:  MOVFF  62C,80C
056E0:  MOVLB  8
056E2:  CLRF   x13
056E4:  CLRF   x12
056E6:  MOVLW  32
056E8:  MOVWF  x11
056EA:  MOVLW  84
056EC:  MOVWF  x10
056EE:  MOVLB  0
056F0:  CALL   1138
056F4:  MOVFF  60F,816
056F8:  MOVFF  60E,815
056FC:  MOVFF  60D,814
05700:  MOVFF  60C,813
05704:  MOVFF  03,81A
05708:  MOVFF  02,819
0570C:  MOVFF  01,818
05710:  MOVFF  00,817
05714:  CALL   283A
05718:  MOVFF  03,60B
0571C:  MOVFF  02,60A
05720:  MOVFF  01,609
05724:  MOVFF  00,608
....................                //Ganancia=4; 
....................             }else{ 
05728:  BRA    57BE
....................                Enfria=0; 
0572A:  MOVLB  5
0572C:  CLRF   x94
....................                Ganancia=GananciaR*(Setpoint/44.5); 
0572E:  MOVFF  62F,80F
05732:  MOVFF  62E,80E
05736:  MOVFF  62D,80D
0573A:  MOVFF  62C,80C
0573E:  MOVLB  8
05740:  CLRF   x13
05742:  CLRF   x12
05744:  MOVLW  32
05746:  MOVWF  x11
05748:  MOVLW  84
0574A:  MOVWF  x10
0574C:  MOVLB  0
0574E:  CALL   1138
05752:  MOVFF  60F,816
05756:  MOVFF  60E,815
0575A:  MOVFF  60D,814
0575E:  MOVFF  60C,813
05762:  MOVFF  03,81A
05766:  MOVFF  02,819
0576A:  MOVFF  01,818
0576E:  MOVFF  00,817
05772:  CALL   283A
05776:  MOVFF  03,60B
0577A:  MOVFF  02,60A
0577E:  MOVFF  01,609
05782:  MOVFF  00,608
....................                Gananciamax=(0.21)*Setpoint; 
05786:  MOVLW  3D
05788:  MOVLB  8
0578A:  MOVWF  x16
0578C:  MOVLW  0A
0578E:  MOVWF  x15
05790:  MOVLW  57
05792:  MOVWF  x14
05794:  MOVLW  7C
05796:  MOVWF  x13
05798:  MOVFF  62F,81A
0579C:  MOVFF  62E,819
057A0:  MOVFF  62D,818
057A4:  MOVFF  62C,817
057A8:  MOVLB  0
057AA:  CALL   283A
057AE:  MOVFF  03,5DF
057B2:  MOVFF  02,5DE
057B6:  MOVFF  01,5DD
057BA:  MOVFF  00,5DC
057BE:  MOVLB  5
....................             } 
....................          } 
....................       }else{ 
057C0:  BRA    5C1C
....................          if(flag_calcula==0){ 
057C2:  BTFSC  x8B.6
057C4:  BRA    5C1C
....................             Tiempo=(rampas[Segmento].Horas*3600)+(rampas[Segmento].Minutos*60);          
057C6:  MOVLB  7
057C8:  CLRF   xE4
057CA:  MOVFF  5A1,7E3
057CE:  CLRF   xE6
057D0:  MOVLW  0F
057D2:  MOVWF  xE5
057D4:  MOVLB  0
057D6:  CALL   150E
057DA:  MOVFF  01,7BA
057DE:  MOVLW  03
057E0:  MOVLB  7
057E2:  ADDWF  01,W
057E4:  MOVWF  01
057E6:  MOVLW  00
057E8:  ADDWFC 02,W
057EA:  MOVWF  03
057EC:  MOVF   01,W
057EE:  ADDLW  8E
057F0:  MOVWF  FE9
057F2:  MOVLW  06
057F4:  ADDWFC 03,W
057F6:  MOVWF  FEA
057F8:  MOVFF  FEF,7BA
057FC:  MOVFF  FEC,7BB
05800:  MOVFF  FEC,7BC
05804:  MOVFF  FEC,7BD
05808:  MOVFF  7BD,816
0580C:  MOVFF  7BC,815
05810:  MOVFF  7BB,814
05814:  MOVFF  7BA,813
05818:  MOVLB  8
0581A:  CLRF   x1A
0581C:  CLRF   x19
0581E:  MOVLW  61
05820:  MOVWF  x18
05822:  MOVLW  8A
05824:  MOVWF  x17
05826:  MOVLB  0
05828:  CALL   283A
0582C:  MOVFF  00,7BA
05830:  MOVFF  01,7BB
05834:  MOVFF  02,7BC
05838:  MOVFF  03,7BD
0583C:  MOVLB  7
0583E:  CLRF   xE4
05840:  MOVFF  5A1,7E3
05844:  CLRF   xE6
05846:  MOVLW  0F
05848:  MOVWF  xE5
0584A:  MOVLB  0
0584C:  CALL   150E
05850:  MOVFF  01,7BE
05854:  MOVLW  07
05856:  MOVLB  7
05858:  ADDWF  01,W
0585A:  MOVWF  01
0585C:  MOVLW  00
0585E:  ADDWFC 02,W
05860:  MOVWF  03
05862:  MOVF   01,W
05864:  ADDLW  8E
05866:  MOVWF  FE9
05868:  MOVLW  06
0586A:  ADDWFC 03,W
0586C:  MOVWF  FEA
0586E:  MOVFF  FEF,7BE
05872:  MOVFF  FEC,7BF
05876:  MOVFF  FEC,7C0
0587A:  MOVFF  FEC,7C1
0587E:  MOVFF  7C1,816
05882:  MOVFF  7C0,815
05886:  MOVFF  7BF,814
0588A:  MOVFF  7BE,813
0588E:  MOVLB  8
05890:  CLRF   x1A
05892:  CLRF   x19
05894:  MOVLW  70
05896:  MOVWF  x18
05898:  MOVLW  84
0589A:  MOVWF  x17
0589C:  MOVLB  0
0589E:  CALL   283A
058A2:  MOVFF  FEA,7BF
058A6:  MOVFF  FE9,7BE
058AA:  BCF    FD8.1
058AC:  MOVFF  7BD,81A
058B0:  MOVFF  7BC,819
058B4:  MOVFF  7BB,818
058B8:  MOVFF  7BA,817
058BC:  MOVFF  03,81E
058C0:  MOVFF  02,81D
058C4:  MOVFF  01,81C
058C8:  MOVFF  00,81B
058CC:  CALL   1296
058D0:  MOVFF  7BF,FEA
058D4:  MOVFF  7BE,FE9
058D8:  MOVFF  03,64F
058DC:  MOVFF  02,64E
058E0:  MOVFF  01,64D
058E4:  MOVFF  00,64C
....................             Setpoint=rampas[Segmento].Temperatura; 
058E8:  MOVLB  7
058EA:  CLRF   xE4
058EC:  MOVFF  5A1,7E3
058F0:  CLRF   xE6
058F2:  MOVLW  0F
058F4:  MOVWF  xE5
058F6:  MOVLB  0
058F8:  CALL   150E
058FC:  MOVFF  02,7BB
05900:  MOVFF  01,7BA
05904:  MOVLW  0B
05906:  MOVLB  7
05908:  ADDWF  01,W
0590A:  MOVWF  01
0590C:  MOVLW  00
0590E:  ADDWFC 02,W
05910:  MOVWF  03
05912:  MOVF   01,W
05914:  ADDLW  8E
05916:  MOVWF  FE9
05918:  MOVLW  06
0591A:  ADDWFC 03,W
0591C:  MOVWF  FEA
0591E:  MOVFF  FEF,00
05922:  MOVFF  FEC,01
05926:  MOVFF  FEC,02
0592A:  MOVFF  FEC,03
0592E:  MOVFF  03,62F
05932:  MOVFF  02,62E
05936:  MOVFF  01,62D
0593A:  MOVFF  00,62C
....................             Pendiente=((rampas[Segmento].Temperatura-rampas[Segmento-1].Temperatura)/Tiempo); 
0593E:  CLRF   xE4
05940:  MOVFF  5A1,7E3
05944:  CLRF   xE6
05946:  MOVLW  0F
05948:  MOVWF  xE5
0594A:  MOVLB  0
0594C:  CALL   150E
05950:  MOVFF  01,7BA
05954:  MOVLW  0B
05956:  MOVLB  7
05958:  ADDWF  01,W
0595A:  MOVWF  01
0595C:  MOVLW  00
0595E:  ADDWFC 02,W
05960:  MOVWF  03
05962:  MOVF   01,W
05964:  ADDLW  8E
05966:  MOVWF  FE9
05968:  MOVLW  06
0596A:  ADDWFC 03,W
0596C:  MOVWF  FEA
0596E:  MOVFF  FEF,7BA
05972:  MOVFF  FEC,7BB
05976:  MOVFF  FEC,7BC
0597A:  MOVFF  FEC,7BD
0597E:  MOVLW  01
05980:  MOVLB  5
05982:  SUBWF  xA1,W
05984:  MOVLB  7
05986:  MOVWF  xBF
05988:  CLRF   xE4
0598A:  MOVWF  xE3
0598C:  CLRF   xE6
0598E:  MOVLW  0F
05990:  MOVWF  xE5
05992:  MOVLB  0
05994:  CALL   150E
05998:  MOVFF  02,7BF
0599C:  MOVFF  01,7BE
059A0:  MOVLW  0B
059A2:  MOVLB  7
059A4:  ADDWF  01,W
059A6:  MOVWF  01
059A8:  MOVLW  00
059AA:  ADDWFC 02,W
059AC:  MOVWF  03
059AE:  MOVF   01,W
059B0:  ADDLW  8E
059B2:  MOVWF  FE9
059B4:  MOVLW  06
059B6:  ADDWFC 03,W
059B8:  MOVWF  FEA
059BA:  MOVFF  FEF,00
059BE:  MOVFF  FEC,01
059C2:  MOVFF  FEC,02
059C6:  MOVFF  FEC,03
059CA:  MOVFF  FEA,7BF
059CE:  MOVFF  FE9,7BE
059D2:  BSF    FD8.1
059D4:  MOVFF  7BD,81A
059D8:  MOVFF  7BC,819
059DC:  MOVFF  7BB,818
059E0:  MOVFF  7BA,817
059E4:  MOVFF  03,81E
059E8:  MOVFF  02,81D
059EC:  MOVFF  01,81C
059F0:  MOVFF  00,81B
059F4:  MOVLB  0
059F6:  CALL   1296
059FA:  MOVFF  7BF,FEA
059FE:  MOVFF  7BE,FE9
05A02:  MOVFF  00,7BA
05A06:  MOVFF  01,7BB
05A0A:  MOVFF  02,7BC
05A0E:  MOVFF  03,7BD
05A12:  MOVFF  03,80F
05A16:  MOVFF  02,80E
05A1A:  MOVFF  01,80D
05A1E:  MOVFF  00,80C
05A22:  MOVFF  64F,813
05A26:  MOVFF  64E,812
05A2A:  MOVFF  64D,811
05A2E:  MOVFF  64C,810
05A32:  CALL   1138
05A36:  MOVFF  03,66B
05A3A:  MOVFF  02,66A
05A3E:  MOVFF  01,669
05A42:  MOVFF  00,668
....................             hEstp=rampas[Segmento].Horas; 
05A46:  MOVLB  7
05A48:  CLRF   xE4
05A4A:  MOVFF  5A1,7E3
05A4E:  CLRF   xE6
05A50:  MOVLW  0F
05A52:  MOVWF  xE5
05A54:  MOVLB  0
05A56:  CALL   150E
05A5A:  MOVFF  02,7BB
05A5E:  MOVFF  01,7BA
05A62:  MOVLW  03
05A64:  MOVLB  7
05A66:  ADDWF  01,W
05A68:  MOVWF  01
05A6A:  MOVLW  00
05A6C:  ADDWFC 02,W
05A6E:  MOVWF  03
05A70:  MOVF   01,W
05A72:  ADDLW  8E
05A74:  MOVWF  FE9
05A76:  MOVLW  06
05A78:  ADDWFC 03,W
05A7A:  MOVWF  FEA
05A7C:  MOVFF  FEF,00
05A80:  MOVFF  FEC,01
05A84:  MOVFF  FEC,02
05A88:  MOVFF  FEC,03
05A8C:  MOVFF  03,5A9
05A90:  MOVFF  02,5A8
05A94:  MOVFF  01,5A7
05A98:  MOVFF  00,5A6
....................             mEstp=rampas[Segmento].Minutos; 
05A9C:  CLRF   xE4
05A9E:  MOVFF  5A1,7E3
05AA2:  CLRF   xE6
05AA4:  MOVLW  0F
05AA6:  MOVWF  xE5
05AA8:  MOVLB  0
05AAA:  CALL   150E
05AAE:  MOVFF  02,7BB
05AB2:  MOVFF  01,7BA
05AB6:  MOVLW  07
05AB8:  MOVLB  7
05ABA:  ADDWF  01,W
05ABC:  MOVWF  01
05ABE:  MOVLW  00
05AC0:  ADDWFC 02,W
05AC2:  MOVWF  03
05AC4:  MOVF   01,W
05AC6:  ADDLW  8E
05AC8:  MOVWF  FE9
05ACA:  MOVLW  06
05ACC:  ADDWFC 03,W
05ACE:  MOVWF  FEA
05AD0:  MOVFF  FEF,00
05AD4:  MOVFF  FEC,01
05AD8:  MOVFF  FEC,02
05ADC:  MOVFF  FEC,03
05AE0:  MOVFF  03,5A5
05AE4:  MOVFF  02,5A4
05AE8:  MOVFF  01,5A3
05AEC:  MOVFF  00,5A2
....................             flag_calcula=1; 
05AF0:  MOVLB  5
05AF2:  BSF    x8B.6
....................             delay_ms(10); 
05AF4:  MOVLW  0A
05AF6:  MOVLB  7
05AF8:  MOVWF  xE8
05AFA:  MOVLB  0
05AFC:  CALL   1110
....................             if(Setpoint<Temperatura){ 
05B00:  MOVFF  62F,816
05B04:  MOVFF  62E,815
05B08:  MOVFF  62D,814
05B0C:  MOVFF  62C,813
05B10:  MOVFF  627,81A
05B14:  MOVFF  626,819
05B18:  MOVFF  625,818
05B1C:  MOVFF  624,817
05B20:  CALL   1572
05B24:  BNC   5B86
....................                Enfria=1; 
05B26:  MOVLW  01
05B28:  MOVLB  5
05B2A:  MOVWF  x94
....................                Ganancia=GananciaR*(Setpoint/44.5); 
05B2C:  MOVFF  62F,80F
05B30:  MOVFF  62E,80E
05B34:  MOVFF  62D,80D
05B38:  MOVFF  62C,80C
05B3C:  MOVLB  8
05B3E:  CLRF   x13
05B40:  CLRF   x12
05B42:  MOVLW  32
05B44:  MOVWF  x11
05B46:  MOVLW  84
05B48:  MOVWF  x10
05B4A:  MOVLB  0
05B4C:  CALL   1138
05B50:  MOVFF  60F,816
05B54:  MOVFF  60E,815
05B58:  MOVFF  60D,814
05B5C:  MOVFF  60C,813
05B60:  MOVFF  03,81A
05B64:  MOVFF  02,819
05B68:  MOVFF  01,818
05B6C:  MOVFF  00,817
05B70:  CALL   283A
05B74:  MOVFF  03,60B
05B78:  MOVFF  02,60A
05B7C:  MOVFF  01,609
05B80:  MOVFF  00,608
....................                //Ganancia=4; 
....................             }else{ 
05B84:  BRA    5C1A
....................                Enfria=0; 
05B86:  MOVLB  5
05B88:  CLRF   x94
....................                Ganancia=GananciaR*(Setpoint/44.5); 
05B8A:  MOVFF  62F,80F
05B8E:  MOVFF  62E,80E
05B92:  MOVFF  62D,80D
05B96:  MOVFF  62C,80C
05B9A:  MOVLB  8
05B9C:  CLRF   x13
05B9E:  CLRF   x12
05BA0:  MOVLW  32
05BA2:  MOVWF  x11
05BA4:  MOVLW  84
05BA6:  MOVWF  x10
05BA8:  MOVLB  0
05BAA:  CALL   1138
05BAE:  MOVFF  60F,816
05BB2:  MOVFF  60E,815
05BB6:  MOVFF  60D,814
05BBA:  MOVFF  60C,813
05BBE:  MOVFF  03,81A
05BC2:  MOVFF  02,819
05BC6:  MOVFF  01,818
05BCA:  MOVFF  00,817
05BCE:  CALL   283A
05BD2:  MOVFF  03,60B
05BD6:  MOVFF  02,60A
05BDA:  MOVFF  01,609
05BDE:  MOVFF  00,608
....................                Gananciamax=(0.21)*Setpoint; 
05BE2:  MOVLW  3D
05BE4:  MOVLB  8
05BE6:  MOVWF  x16
05BE8:  MOVLW  0A
05BEA:  MOVWF  x15
05BEC:  MOVLW  57
05BEE:  MOVWF  x14
05BF0:  MOVLW  7C
05BF2:  MOVWF  x13
05BF4:  MOVFF  62F,81A
05BF8:  MOVFF  62E,819
05BFC:  MOVFF  62D,818
05C00:  MOVFF  62C,817
05C04:  MOVLB  0
05C06:  CALL   283A
05C0A:  MOVFF  03,5DF
05C0E:  MOVFF  02,5DE
05C12:  MOVFF  01,5DD
05C16:  MOVFF  00,5DC
05C1A:  MOVLB  5
....................             } 
....................          } 
....................       } 
....................    } 
....................    
....................    if(Pendiente!=0 && flagRampa){// Si Esta realizando una Rampa debe realizar el control de acuerdo a la pendiente de Temperatura. Aprox 10C * min Maximo Valor de Pendiente. 
05C1C:  MOVFF  66B,816
05C20:  MOVFF  66A,815
05C24:  MOVFF  669,814
05C28:  MOVFF  668,813
05C2C:  MOVLB  8
05C2E:  CLRF   x1A
05C30:  CLRF   x19
05C32:  CLRF   x18
05C34:  CLRF   x17
05C36:  MOVLB  0
05C38:  CALL   1572
05C3C:  BTFSC  FD8.2
05C3E:  BRA    60E4
05C40:  MOVLB  5
05C42:  BTFSC  x8B.5
05C44:  BRA    5C4A
05C46:  MOVLB  0
05C48:  BRA    60E4
....................       //PendienteActual=((Setpoint-Temperatura)/TiempoActual); 
....................       //PendienteMinutos=PendienteActual*60; 
....................       //PotenciaEntregada=((PendienteMinutos+DifPendiente)*100)/penMufla; 
....................       TiempoRampa=((hEst*3600)+(mEst*60)+tinicio); 
05C4A:  MOVFF  5B9,816
05C4E:  MOVFF  5B8,815
05C52:  MOVFF  5B7,814
05C56:  MOVFF  5B6,813
05C5A:  MOVLB  8
05C5C:  CLRF   x1A
05C5E:  CLRF   x19
05C60:  MOVLW  61
05C62:  MOVWF  x18
05C64:  MOVLW  8A
05C66:  MOVWF  x17
05C68:  MOVLB  0
05C6A:  CALL   283A
05C6E:  MOVFF  00,7BA
05C72:  MOVFF  01,7BB
05C76:  MOVFF  02,7BC
05C7A:  MOVFF  03,7BD
05C7E:  MOVFF  5B5,816
05C82:  MOVFF  5B4,815
05C86:  MOVFF  5B3,814
05C8A:  MOVFF  5B2,813
05C8E:  MOVLB  8
05C90:  CLRF   x1A
05C92:  CLRF   x19
05C94:  MOVLW  70
05C96:  MOVWF  x18
05C98:  MOVLW  84
05C9A:  MOVWF  x17
05C9C:  MOVLB  0
05C9E:  CALL   283A
05CA2:  BCF    FD8.1
05CA4:  MOVFF  7BD,81A
05CA8:  MOVFF  7BC,819
05CAC:  MOVFF  7BB,818
05CB0:  MOVFF  7BA,817
05CB4:  MOVFF  03,81E
05CB8:  MOVFF  02,81D
05CBC:  MOVFF  01,81C
05CC0:  MOVFF  00,81B
05CC4:  CALL   1296
05CC8:  MOVFF  00,7BA
05CCC:  MOVFF  01,7BB
05CD0:  MOVFF  02,7BC
05CD4:  MOVFF  03,7BD
05CD8:  MOVFF  5CF,818
05CDC:  MOVFF  5CE,817
05CE0:  CALL   10DA
05CE4:  BCF    FD8.1
05CE6:  MOVFF  7BD,81A
05CEA:  MOVFF  7BC,819
05CEE:  MOVFF  7BB,818
05CF2:  MOVFF  7BA,817
05CF6:  MOVFF  03,81E
05CFA:  MOVFF  02,81D
05CFE:  MOVFF  01,81C
05D02:  MOVFF  00,81B
05D06:  CALL   1296
05D0A:  MOVFF  03,663
05D0E:  MOVFF  02,662
05D12:  MOVFF  01,661
05D16:  MOVFF  00,660
....................       if(Segmento==0){ 
05D1A:  MOVLB  5
05D1C:  MOVF   xA1,F
05D1E:  BNZ   5D90
....................          TemperaturaIdeal=(Pendiente*TiempoRampa)+TempeInicial; 
05D20:  MOVFF  66B,816
05D24:  MOVFF  66A,815
05D28:  MOVFF  669,814
05D2C:  MOVFF  668,813
05D30:  MOVFF  663,81A
05D34:  MOVFF  662,819
05D38:  MOVFF  661,818
05D3C:  MOVFF  660,817
05D40:  MOVLB  0
05D42:  CALL   283A
05D46:  MOVFF  00,7BA
05D4A:  MOVFF  01,7BB
05D4E:  MOVFF  02,7BC
05D52:  MOVFF  03,7BD
05D56:  BCF    FD8.1
05D58:  MOVFF  03,81A
05D5C:  MOVFF  02,819
05D60:  MOVFF  01,818
05D64:  MOVFF  00,817
05D68:  MOVFF  64B,81E
05D6C:  MOVFF  64A,81D
05D70:  MOVFF  649,81C
05D74:  MOVFF  648,81B
05D78:  CALL   1296
05D7C:  MOVFF  03,673
05D80:  MOVFF  02,672
05D84:  MOVFF  01,671
05D88:  MOVFF  00,670
....................       }else{ 
05D8C:  BRA    5E5A
05D8E:  MOVLB  5
....................          TemperaturaIdeal=(Pendiente*TiempoRampa)+rampas[Segmento-1].Temperatura; 
05D90:  MOVFF  66B,816
05D94:  MOVFF  66A,815
05D98:  MOVFF  669,814
05D9C:  MOVFF  668,813
05DA0:  MOVFF  663,81A
05DA4:  MOVFF  662,819
05DA8:  MOVFF  661,818
05DAC:  MOVFF  660,817
05DB0:  MOVLB  0
05DB2:  CALL   283A
05DB6:  MOVFF  00,7BA
05DBA:  MOVFF  01,7BB
05DBE:  MOVFF  02,7BC
05DC2:  MOVFF  03,7BD
05DC6:  MOVLW  01
05DC8:  MOVLB  5
05DCA:  SUBWF  xA1,W
05DCC:  MOVLB  7
05DCE:  MOVWF  xBF
05DD0:  CLRF   xE4
05DD2:  MOVWF  xE3
05DD4:  CLRF   xE6
05DD6:  MOVLW  0F
05DD8:  MOVWF  xE5
05DDA:  MOVLB  0
05DDC:  CALL   150E
05DE0:  MOVFF  02,7BF
05DE4:  MOVFF  01,7BE
05DE8:  MOVLW  0B
05DEA:  MOVLB  7
05DEC:  ADDWF  01,W
05DEE:  MOVWF  01
05DF0:  MOVLW  00
05DF2:  ADDWFC 02,W
05DF4:  MOVWF  03
05DF6:  MOVF   01,W
05DF8:  ADDLW  8E
05DFA:  MOVWF  FE9
05DFC:  MOVLW  06
05DFE:  ADDWFC 03,W
05E00:  MOVWF  FEA
05E02:  MOVFF  FEF,00
05E06:  MOVFF  FEC,01
05E0A:  MOVFF  FEC,02
05E0E:  MOVFF  FEC,03
05E12:  MOVFF  FEA,7BF
05E16:  MOVFF  FE9,7BE
05E1A:  BCF    FD8.1
05E1C:  MOVFF  7BD,81A
05E20:  MOVFF  7BC,819
05E24:  MOVFF  7BB,818
05E28:  MOVFF  7BA,817
05E2C:  MOVFF  03,81E
05E30:  MOVFF  02,81D
05E34:  MOVFF  01,81C
05E38:  MOVFF  00,81B
05E3C:  MOVLB  0
05E3E:  CALL   1296
05E42:  MOVFF  7BF,FEA
05E46:  MOVFF  7BE,FE9
05E4A:  MOVFF  03,673
05E4E:  MOVFF  02,672
05E52:  MOVFF  01,671
05E56:  MOVFF  00,670
....................       } 
....................       PotenciaEntregada=((TemperaturaIdeal-Temperatura)*100)/penCamara; 
05E5A:  BSF    FD8.1
05E5C:  MOVFF  673,81A
05E60:  MOVFF  672,819
05E64:  MOVFF  671,818
05E68:  MOVFF  670,817
05E6C:  MOVFF  627,81E
05E70:  MOVFF  626,81D
05E74:  MOVFF  625,81C
05E78:  MOVFF  624,81B
05E7C:  CALL   1296
05E80:  MOVFF  00,7BA
05E84:  MOVFF  01,7BB
05E88:  MOVFF  02,7BC
05E8C:  MOVFF  03,7BD
05E90:  MOVFF  03,816
05E94:  MOVFF  02,815
05E98:  MOVFF  01,814
05E9C:  MOVFF  00,813
05EA0:  MOVLB  8
05EA2:  CLRF   x1A
05EA4:  CLRF   x19
05EA6:  MOVLW  48
05EA8:  MOVWF  x18
05EAA:  MOVLW  85
05EAC:  MOVWF  x17
05EAE:  MOVLB  0
05EB0:  CALL   283A
05EB4:  MOVFF  00,7BA
05EB8:  MOVFF  01,7BB
05EBC:  MOVFF  02,7BC
05EC0:  MOVFF  03,7BD
05EC4:  MOVFF  03,80F
05EC8:  MOVFF  02,80E
05ECC:  MOVFF  01,80D
05ED0:  MOVFF  00,80C
05ED4:  MOVFF  677,813
05ED8:  MOVFF  676,812
05EDC:  MOVFF  675,811
05EE0:  MOVFF  674,810
05EE4:  CALL   1138
05EE8:  MOVFF  03,667
05EEC:  MOVFF  02,666
05EF0:  MOVFF  01,665
05EF4:  MOVFF  00,664
.................... // Pendiente determinar si el comportamiento de la mufla es lineal 10C/min o si tiene un comportamiento diferente.          
....................        
....................       if(Pendiente<0){ 
05EF8:  MOVFF  66B,816
05EFC:  MOVFF  66A,815
05F00:  MOVFF  669,814
05F04:  MOVFF  668,813
05F08:  MOVLB  8
05F0A:  CLRF   x1A
05F0C:  CLRF   x19
05F0E:  CLRF   x18
05F10:  CLRF   x17
05F12:  MOVLB  0
05F14:  CALL   1572
05F18:  BNC   5FEC
....................          if(PotenciaEntregada<0 && PotenciaEntregada>-100.0){ 
05F1A:  MOVFF  667,816
05F1E:  MOVFF  666,815
05F22:  MOVFF  665,814
05F26:  MOVFF  664,813
05F2A:  MOVLB  8
05F2C:  CLRF   x1A
05F2E:  CLRF   x19
05F30:  CLRF   x18
05F32:  CLRF   x17
05F34:  MOVLB  0
05F36:  CALL   1572
05F3A:  BNC   5F86
05F3C:  MOVLB  8
05F3E:  CLRF   x16
05F40:  CLRF   x15
05F42:  MOVLW  C8
05F44:  MOVWF  x14
05F46:  MOVLW  85
05F48:  MOVWF  x13
05F4A:  MOVFF  667,81A
05F4E:  MOVFF  666,819
05F52:  MOVFF  665,818
05F56:  MOVFF  664,817
05F5A:  MOVLB  0
05F5C:  CALL   1572
05F60:  BNC   5F86
....................             PotenciaEntregada=abs(PotenciaEntregada);      
05F62:  MOVFF  664,00
05F66:  MOVFF  665,01
05F6A:  MOVFF  666,02
05F6E:  MOVFF  667,03
05F72:  BCF    01.7
05F74:  MOVFF  667,667
05F78:  MOVFF  666,666
05F7C:  MOVFF  01,665
05F80:  MOVFF  664,664
....................          }else if(PotenciaEntregada<-100.0){ 
05F84:  BRA    5FEA
05F86:  MOVFF  667,816
05F8A:  MOVFF  666,815
05F8E:  MOVFF  665,814
05F92:  MOVFF  664,813
05F96:  MOVLB  8
05F98:  CLRF   x1A
05F9A:  CLRF   x19
05F9C:  MOVLW  C8
05F9E:  MOVWF  x18
05FA0:  MOVLW  85
05FA2:  MOVWF  x17
05FA4:  MOVLB  0
05FA6:  CALL   1572
05FAA:  BNC   5FBC
....................             PotenciaEntregada=100.0; 
05FAC:  MOVLB  6
05FAE:  CLRF   x67
05FB0:  CLRF   x66
05FB2:  MOVLW  48
05FB4:  MOVWF  x65
05FB6:  MOVLW  85
05FB8:  MOVWF  x64
....................          }else if(PotenciaEntregada>0){ 
05FBA:  BRA    5FE8
05FBC:  MOVLB  8
05FBE:  CLRF   x16
05FC0:  CLRF   x15
05FC2:  CLRF   x14
05FC4:  CLRF   x13
05FC6:  MOVFF  667,81A
05FCA:  MOVFF  666,819
05FCE:  MOVFF  665,818
05FD2:  MOVFF  664,817
05FD6:  MOVLB  0
05FD8:  CALL   1572
05FDC:  BNC   5FEA
....................             PotenciaEntregada=0;  
05FDE:  MOVLB  6
05FE0:  CLRF   x67
05FE2:  CLRF   x66
05FE4:  CLRF   x65
05FE6:  CLRF   x64
05FE8:  MOVLB  0
....................          } 
....................       }else{ 
05FEA:  BRA    604E
....................          if(PotenciaEntregada>100.0) 
05FEC:  MOVLB  8
05FEE:  CLRF   x16
05FF0:  CLRF   x15
05FF2:  MOVLW  48
05FF4:  MOVWF  x14
05FF6:  MOVLW  85
05FF8:  MOVWF  x13
05FFA:  MOVFF  667,81A
05FFE:  MOVFF  666,819
06002:  MOVFF  665,818
06006:  MOVFF  664,817
0600A:  MOVLB  0
0600C:  CALL   1572
06010:  BNC   6020
....................             PotenciaEntregada=100.0; 
06012:  MOVLB  6
06014:  CLRF   x67
06016:  CLRF   x66
06018:  MOVLW  48
0601A:  MOVWF  x65
0601C:  MOVLW  85
0601E:  MOVWF  x64
....................       
....................          if(PotenciaEntregada<0) 
06020:  MOVFF  667,816
06024:  MOVFF  666,815
06028:  MOVFF  665,814
0602C:  MOVFF  664,813
06030:  MOVLB  8
06032:  CLRF   x1A
06034:  CLRF   x19
06036:  CLRF   x18
06038:  CLRF   x17
0603A:  MOVLB  0
0603C:  CALL   1572
06040:  BNC   604E
....................             PotenciaEntregada=0;  
06042:  MOVLB  6
06044:  CLRF   x67
06046:  CLRF   x66
06048:  CLRF   x65
0604A:  CLRF   x64
0604C:  MOVLB  0
....................       } 
....................        
....................       if(Enfria==1){ 
0604E:  MOVLB  5
06050:  DECFSZ x94,W
06052:  BRA    6066
....................          Rele1_off; 
06054:  BCF    F8B.3
06056:  BCF    F94.3
....................          Rele2_off; 
06058:  BCF    F8C.0
0605A:  BCF    F95.0
....................          Rele3_off; 
0605C:  BCF    F8C.1
0605E:  BCF    F95.1
....................          Rele4_off; 
06060:  BCF    F8B.5
06062:  BCF    F94.5
....................       }else{ 
06064:  BRA    6076
....................          Rele1_on; 
06066:  BSF    F8B.3
06068:  BCF    F94.3
....................          Rele2_on; 
0606A:  BSF    F8C.0
0606C:  BCF    F95.0
....................          Rele3_on; 
0606E:  BSF    F8C.1
06070:  BCF    F95.1
....................          Rele4_on; 
06072:  BSF    F8B.5
06074:  BCF    F94.5
....................       } 
....................        
....................       Tpulso=(PotenciaEntregada*Tciclo)/100;   
06076:  MOVFF  667,816
0607A:  MOVFF  666,815
0607E:  MOVFF  665,814
06082:  MOVFF  664,813
06086:  MOVFF  5F3,81A
0608A:  MOVFF  5F2,819
0608E:  MOVFF  5F1,818
06092:  MOVFF  5F0,817
06096:  MOVLB  0
06098:  CALL   283A
0609C:  MOVFF  00,7BA
060A0:  MOVFF  01,7BB
060A4:  MOVFF  02,7BC
060A8:  MOVFF  03,7BD
060AC:  MOVFF  03,80F
060B0:  MOVFF  02,80E
060B4:  MOVFF  01,80D
060B8:  MOVFF  00,80C
060BC:  MOVLB  8
060BE:  CLRF   x13
060C0:  CLRF   x12
060C2:  MOVLW  48
060C4:  MOVWF  x11
060C6:  MOVLW  85
060C8:  MOVWF  x10
060CA:  MOVLB  0
060CC:  CALL   1138
060D0:  MOVFF  03,5F7
060D4:  MOVFF  02,5F6
060D8:  MOVFF  01,5F5
060DC:  MOVFF  00,5F4
....................    }else{ 
060E0:  GOTO   69EA
....................       if(Enfria==1){ 
060E4:  MOVLB  5
060E6:  DECFSZ x94,W
060E8:  BRA    6590
....................          Rele1_off; 
060EA:  BCF    F8B.3
060EC:  BCF    F94.3
....................          Rele2_off; 
060EE:  BCF    F8C.0
060F0:  BCF    F95.0
....................          Rele3_off; 
060F2:  BCF    F8C.1
060F4:  BCF    F95.1
....................          Rele4_off; 
060F6:  BCF    F8B.5
060F8:  BCF    F94.5
....................          error=Setpoint-desvio-Temperatura;      // Clculo del error ****** 
060FA:  BSF    FD8.1
060FC:  MOVFF  62F,81A
06100:  MOVFF  62E,819
06104:  MOVFF  62D,818
06108:  MOVFF  62C,817
0610C:  MOVFF  613,81E
06110:  MOVFF  612,81D
06114:  MOVFF  611,81C
06118:  MOVFF  610,81B
0611C:  MOVLB  0
0611E:  CALL   1296
06122:  MOVFF  00,7BA
06126:  MOVFF  01,7BB
0612A:  MOVFF  02,7BC
0612E:  MOVFF  03,7BD
06132:  BSF    FD8.1
06134:  MOVFF  03,81A
06138:  MOVFF  02,819
0613C:  MOVFF  01,818
06140:  MOVFF  00,817
06144:  MOVFF  627,81E
06148:  MOVFF  626,81D
0614C:  MOVFF  625,81C
06150:  MOVFF  624,81B
06154:  CALL   1296
06158:  MOVFF  03,5FB
0615C:  MOVFF  02,5FA
06160:  MOVFF  01,5F9
06164:  MOVFF  00,5F8
....................           
....................          if(error<=-0.4 && Aumento>-0.2){ 
06168:  MOVFF  5FB,816
0616C:  MOVFF  5FA,815
06170:  MOVFF  5F9,814
06174:  MOVFF  5F8,813
06178:  MOVLW  CD
0617A:  MOVLB  8
0617C:  MOVWF  x1A
0617E:  MOVLW  CC
06180:  MOVWF  x19
06182:  MOVWF  x18
06184:  MOVLW  7D
06186:  MOVWF  x17
06188:  MOVLB  0
0618A:  CALL   1572
0618E:  BC    6194
06190:  BTFSS  FD8.2
06192:  BRA    6360
06194:  MOVLW  CD
06196:  MOVLB  8
06198:  MOVWF  x16
0619A:  MOVLW  CC
0619C:  MOVWF  x15
0619E:  MOVWF  x14
061A0:  MOVLW  7C
061A2:  MOVWF  x13
061A4:  MOVFF  623,81A
061A8:  MOVFF  622,819
061AC:  MOVFF  621,818
061B0:  MOVFF  620,817
061B4:  MOVLB  0
061B6:  CALL   1572
061BA:  BTFSS  FD8.0
061BC:  BRA    6360
....................             if(Potencia<90.0){ 
061BE:  MOVFF  5DB,816
061C2:  MOVFF  5DA,815
061C6:  MOVFF  5D9,814
061CA:  MOVFF  5D8,813
061CE:  MOVLB  8
061D0:  CLRF   x1A
061D2:  CLRF   x19
061D4:  MOVLW  34
061D6:  MOVWF  x18
061D8:  MOVLW  85
061DA:  MOVWF  x17
061DC:  MOVLB  0
061DE:  CALL   1572
061E2:  BTFSS  FD8.0
061E4:  BRA    6360
....................                if(TiempoControl>=Derivativo*2){ 
061E6:  BCF    FD8.0
061E8:  MOVLB  5
061EA:  RLCF   x97,W
061EC:  SUBWF  xC1,W
061EE:  BTFSS  FD8.0
061F0:  BRA    6362
....................                   TiempoControl=0; 
061F2:  CLRF   xC1
....................                   if(Aumento>0.2){ 
061F4:  MOVLW  CD
061F6:  MOVLB  8
061F8:  MOVWF  x16
061FA:  MOVLW  CC
061FC:  MOVWF  x15
061FE:  MOVLW  4C
06200:  MOVWF  x14
06202:  MOVLW  7C
06204:  MOVWF  x13
06206:  MOVFF  623,81A
0620A:  MOVFF  622,819
0620E:  MOVFF  621,818
06212:  MOVFF  620,817
06216:  MOVLB  0
06218:  CALL   1572
0621C:  BNC   6264
....................                      Ganancia+=Integral; 
0621E:  MOVLB  8
06220:  CLRF   x18
06222:  MOVFF  598,817
06226:  MOVLB  0
06228:  CALL   10DA
0622C:  BCF    FD8.1
0622E:  MOVFF  60B,81A
06232:  MOVFF  60A,819
06236:  MOVFF  609,818
0623A:  MOVFF  608,817
0623E:  MOVFF  03,81E
06242:  MOVFF  02,81D
06246:  MOVFF  01,81C
0624A:  MOVFF  00,81B
0624E:  CALL   1296
06252:  MOVFF  03,60B
06256:  MOVFF  02,60A
0625A:  MOVFF  01,609
0625E:  MOVFF  00,608
....................                   }else{ 
06262:  BRA    6360
....................                      if(Aumento>0.0){ 
06264:  MOVLB  8
06266:  CLRF   x16
06268:  CLRF   x15
0626A:  CLRF   x14
0626C:  CLRF   x13
0626E:  MOVFF  623,81A
06272:  MOVFF  622,819
06276:  MOVFF  621,818
0627A:  MOVFF  620,817
0627E:  MOVLB  0
06280:  CALL   1572
06284:  BNC   62F6
....................                         Ganancia+=Integral-0.4; 
06286:  MOVLB  8
06288:  CLRF   x18
0628A:  MOVFF  598,817
0628E:  MOVLB  0
06290:  CALL   10DA
06294:  BSF    FD8.1
06296:  MOVFF  03,81A
0629A:  MOVFF  02,819
0629E:  MOVFF  01,818
062A2:  MOVFF  00,817
062A6:  MOVLW  CD
062A8:  MOVLB  8
062AA:  MOVWF  x1E
062AC:  MOVLW  CC
062AE:  MOVWF  x1D
062B0:  MOVLW  4C
062B2:  MOVWF  x1C
062B4:  MOVLW  7D
062B6:  MOVWF  x1B
062B8:  MOVLB  0
062BA:  CALL   1296
062BE:  BCF    FD8.1
062C0:  MOVFF  60B,81A
062C4:  MOVFF  60A,819
062C8:  MOVFF  609,818
062CC:  MOVFF  608,817
062D0:  MOVFF  03,81E
062D4:  MOVFF  02,81D
062D8:  MOVFF  01,81C
062DC:  MOVFF  00,81B
062E0:  CALL   1296
062E4:  MOVFF  03,60B
062E8:  MOVFF  02,60A
062EC:  MOVFF  01,609
062F0:  MOVFF  00,608
....................                      }else{ 
062F4:  BRA    6360
....................                         Ganancia+=Integral-0.7; 
062F6:  MOVLB  8
062F8:  CLRF   x18
062FA:  MOVFF  598,817
062FE:  MOVLB  0
06300:  CALL   10DA
06304:  BSF    FD8.1
06306:  MOVFF  03,81A
0630A:  MOVFF  02,819
0630E:  MOVFF  01,818
06312:  MOVFF  00,817
06316:  MOVLW  33
06318:  MOVLB  8
0631A:  MOVWF  x1E
0631C:  MOVWF  x1D
0631E:  MOVWF  x1C
06320:  MOVLW  7E
06322:  MOVWF  x1B
06324:  MOVLB  0
06326:  CALL   1296
0632A:  BCF    FD8.1
0632C:  MOVFF  60B,81A
06330:  MOVFF  60A,819
06334:  MOVFF  609,818
06338:  MOVFF  608,817
0633C:  MOVFF  03,81E
06340:  MOVFF  02,81D
06344:  MOVFF  01,81C
06348:  MOVFF  00,81B
0634C:  CALL   1296
06350:  MOVFF  03,60B
06354:  MOVFF  02,60A
06358:  MOVFF  01,609
0635C:  MOVFF  00,608
06360:  MOVLB  5
....................                      } 
....................                   } 
....................                } 
....................             } 
....................          } 
....................        
....................          if(error>0.0)     // Anti Wind_DOWN 
06362:  MOVLB  8
06364:  CLRF   x16
06366:  CLRF   x15
06368:  CLRF   x14
0636A:  CLRF   x13
0636C:  MOVFF  5FB,81A
06370:  MOVFF  5FA,819
06374:  MOVFF  5F9,818
06378:  MOVFF  5F8,817
0637C:  MOVLB  0
0637E:  CALL   1572
06382:  BNC   638E
....................             error=0.0; 
06384:  MOVLB  5
06386:  CLRF   xFB
06388:  CLRF   xFA
0638A:  CLRF   xF9
0638C:  CLRF   xF8
....................           
....................          error=error*-1.0; 
0638E:  MOVFF  5FB,816
06392:  MOVFF  5FA,815
06396:  MOVFF  5F9,814
0639A:  MOVFF  5F8,813
0639E:  MOVLB  8
063A0:  CLRF   x1A
063A2:  CLRF   x19
063A4:  MOVLW  80
063A6:  MOVWF  x18
063A8:  MOVLW  7F
063AA:  MOVWF  x17
063AC:  MOVLB  0
063AE:  CALL   283A
063B2:  MOVFF  03,5FB
063B6:  MOVFF  02,5FA
063BA:  MOVFF  01,5F9
063BE:  MOVFF  00,5F8
....................           
....................          if(Ganancia<0.1)       
063C2:  MOVFF  60B,816
063C6:  MOVFF  60A,815
063CA:  MOVFF  609,814
063CE:  MOVFF  608,813
063D2:  MOVLW  CD
063D4:  MOVLB  8
063D6:  MOVWF  x1A
063D8:  MOVLW  CC
063DA:  MOVWF  x19
063DC:  MOVLW  4C
063DE:  MOVWF  x18
063E0:  MOVLW  7B
063E2:  MOVWF  x17
063E4:  MOVLB  0
063E6:  CALL   1572
063EA:  BNC   6400
....................             Ganancia=0.1; 
063EC:  MOVLW  CD
063EE:  MOVLB  6
063F0:  MOVWF  x0B
063F2:  MOVLW  CC
063F4:  MOVWF  x0A
063F6:  MOVLW  4C
063F8:  MOVWF  x09
063FA:  MOVLW  7B
063FC:  MOVWF  x08
063FE:  MOVLB  0
....................        
....................          tmp=error*Ganancia;  // Control Proporcional. 
06400:  MOVFF  5FB,816
06404:  MOVFF  5FA,815
06408:  MOVFF  5F9,814
0640C:  MOVFF  5F8,813
06410:  MOVFF  60B,81A
06414:  MOVFF  60A,819
06418:  MOVFF  609,818
0641C:  MOVFF  608,817
06420:  CALL   283A
06424:  MOVFF  03,607
06428:  MOVFF  02,606
0642C:  MOVFF  01,605
06430:  MOVFF  00,604
....................                 
....................          if(tmp>Setpoint)   // Anti Wind-UP       
06434:  MOVFF  62F,816
06438:  MOVFF  62E,815
0643C:  MOVFF  62D,814
06440:  MOVFF  62C,813
06444:  MOVFF  607,81A
06448:  MOVFF  606,819
0644C:  MOVFF  605,818
06450:  MOVFF  604,817
06454:  CALL   1572
06458:  BNC   646A
....................             tmp=Setpoint; 
0645A:  MOVFF  62F,607
0645E:  MOVFF  62E,606
06462:  MOVFF  62D,605
06466:  MOVFF  62C,604
....................                       
....................          if(tmp<0.0)     // Anti Wind_DOWN     
0646A:  MOVFF  607,816
0646E:  MOVFF  606,815
06472:  MOVFF  605,814
06476:  MOVFF  604,813
0647A:  MOVLB  8
0647C:  CLRF   x1A
0647E:  CLRF   x19
06480:  CLRF   x18
06482:  CLRF   x17
06484:  MOVLB  0
06486:  CALL   1572
0648A:  BNC   6498
....................             tmp=0.0; 
0648C:  MOVLB  6
0648E:  CLRF   x07
06490:  CLRF   x06
06492:  CLRF   x05
06494:  CLRF   x04
06496:  MOVLB  0
....................           
....................          // Tpulso(t)= Tciclo*(y(t)-ymin)/(ymax - ymin); calculo de ciclo util para control de resistencia.ymax=140.ymin=0; 
....................          // Tpulso es float, hay que pasar ese ciclo a una salida de un puerto usando el TMR1. 
....................          Tpulso=(tmp/Setpoint)*Tciclo;   
06498:  MOVFF  607,80F
0649C:  MOVFF  606,80E
064A0:  MOVFF  605,80D
064A4:  MOVFF  604,80C
064A8:  MOVFF  62F,813
064AC:  MOVFF  62E,812
064B0:  MOVFF  62D,811
064B4:  MOVFF  62C,810
064B8:  CALL   1138
064BC:  MOVFF  00,7BA
064C0:  MOVFF  01,7BB
064C4:  MOVFF  02,7BC
064C8:  MOVFF  03,7BD
064CC:  MOVFF  03,816
064D0:  MOVFF  02,815
064D4:  MOVFF  01,814
064D8:  MOVFF  00,813
064DC:  MOVFF  5F3,81A
064E0:  MOVFF  5F2,819
064E4:  MOVFF  5F1,818
064E8:  MOVFF  5F0,817
064EC:  CALL   283A
064F0:  MOVFF  03,5F7
064F4:  MOVFF  02,5F6
064F8:  MOVFF  01,5F5
064FC:  MOVFF  00,5F4
....................           
....................          Tp=(Tpulso/0.005); 
06500:  MOVFF  5F7,80F
06504:  MOVFF  5F6,80E
06508:  MOVFF  5F5,80D
0650C:  MOVFF  5F4,80C
06510:  MOVLW  0A
06512:  MOVLB  8
06514:  MOVWF  x13
06516:  MOVLW  D7
06518:  MOVWF  x12
0651A:  MOVLW  23
0651C:  MOVWF  x11
0651E:  MOVLW  77
06520:  MOVWF  x10
06522:  MOVLB  0
06524:  CALL   1138
06528:  MOVFF  03,816
0652C:  MOVFF  02,815
06530:  MOVFF  01,814
06534:  MOVFF  00,813
06538:  CALL   2CD2
0653C:  MOVFF  02,5D5
06540:  MOVFF  01,5D4
....................          Tc=(Tciclo/0.005); 
06544:  MOVFF  5F3,80F
06548:  MOVFF  5F2,80E
0654C:  MOVFF  5F1,80D
06550:  MOVFF  5F0,80C
06554:  MOVLW  0A
06556:  MOVLB  8
06558:  MOVWF  x13
0655A:  MOVLW  D7
0655C:  MOVWF  x12
0655E:  MOVLW  23
06560:  MOVWF  x11
06562:  MOVLW  77
06564:  MOVWF  x10
06566:  MOVLB  0
06568:  CALL   1138
0656C:  MOVFF  03,816
06570:  MOVFF  02,815
06574:  MOVFF  01,814
06578:  MOVFF  00,813
0657C:  CALL   2CD2
06580:  MOVFF  02,5D7
06584:  MOVFF  01,5D6
....................          Controlando=1;        
06588:  MOVLW  01
0658A:  MOVLB  5
0658C:  MOVWF  x95
....................       }else{ 
0658E:  BRA    69EC
....................          Rele1_on; 
06590:  BSF    F8B.3
06592:  BCF    F94.3
....................          Rele2_on; 
06594:  BSF    F8C.0
06596:  BCF    F95.0
....................          Rele3_on; 
06598:  BSF    F8C.1
0659A:  BCF    F95.1
....................          Rele4_on; 
0659C:  BSF    F8B.5
0659E:  BCF    F94.5
....................          error=desvio+Setpoint-Temperatura;      // Clculo del error ****** 
065A0:  BCF    FD8.1
065A2:  MOVFF  613,81A
065A6:  MOVFF  612,819
065AA:  MOVFF  611,818
065AE:  MOVFF  610,817
065B2:  MOVFF  62F,81E
065B6:  MOVFF  62E,81D
065BA:  MOVFF  62D,81C
065BE:  MOVFF  62C,81B
065C2:  MOVLB  0
065C4:  CALL   1296
065C8:  MOVFF  00,7BA
065CC:  MOVFF  01,7BB
065D0:  MOVFF  02,7BC
065D4:  MOVFF  03,7BD
065D8:  BSF    FD8.1
065DA:  MOVFF  03,81A
065DE:  MOVFF  02,819
065E2:  MOVFF  01,818
065E6:  MOVFF  00,817
065EA:  MOVFF  627,81E
065EE:  MOVFF  626,81D
065F2:  MOVFF  625,81C
065F6:  MOVFF  624,81B
065FA:  CALL   1296
065FE:  MOVFF  03,5FB
06602:  MOVFF  02,5FA
06606:  MOVFF  01,5F9
0660A:  MOVFF  00,5F8
....................        
....................          if(error>0.4 && error<30 && Aumento<0.3){ 
0660E:  MOVLW  CD
06610:  MOVLB  8
06612:  MOVWF  x16
06614:  MOVLW  CC
06616:  MOVWF  x15
06618:  MOVLW  4C
0661A:  MOVWF  x14
0661C:  MOVLW  7D
0661E:  MOVWF  x13
06620:  MOVFF  5FB,81A
06624:  MOVFF  5FA,819
06628:  MOVFF  5F9,818
0662C:  MOVFF  5F8,817
06630:  MOVLB  0
06632:  CALL   1572
06636:  BTFSS  FD8.0
06638:  BRA    67C6
0663A:  MOVFF  5FB,816
0663E:  MOVFF  5FA,815
06642:  MOVFF  5F9,814
06646:  MOVFF  5F8,813
0664A:  MOVLB  8
0664C:  CLRF   x1A
0664E:  CLRF   x19
06650:  MOVLW  70
06652:  MOVWF  x18
06654:  MOVLW  83
06656:  MOVWF  x17
06658:  MOVLB  0
0665A:  CALL   1572
0665E:  BTFSS  FD8.0
06660:  BRA    67C6
06662:  MOVFF  623,816
06666:  MOVFF  622,815
0666A:  MOVFF  621,814
0666E:  MOVFF  620,813
06672:  MOVLW  9A
06674:  MOVLB  8
06676:  MOVWF  x1A
06678:  MOVLW  99
0667A:  MOVWF  x19
0667C:  MOVLW  19
0667E:  MOVWF  x18
06680:  MOVLW  7D
06682:  MOVWF  x17
06684:  MOVLB  0
06686:  CALL   1572
0668A:  BTFSS  FD8.0
0668C:  BRA    67C6
....................             flag_ajuste=0; 
0668E:  MOVLB  5
06690:  BCF    xBA.1
....................             flag_ajuste2=0; 
06692:  BCF    xBA.2
....................             Ajusto=10; 
06694:  MOVLW  0A
06696:  MOVWF  x96
....................             if(Potencia<90.0){ 
06698:  MOVFF  5DB,816
0669C:  MOVFF  5DA,815
066A0:  MOVFF  5D9,814
066A4:  MOVFF  5D8,813
066A8:  MOVLB  8
066AA:  CLRF   x1A
066AC:  CLRF   x19
066AE:  MOVLW  34
066B0:  MOVWF  x18
066B2:  MOVLW  85
066B4:  MOVWF  x17
066B6:  MOVLB  0
066B8:  CALL   1572
066BC:  BTFSS  FD8.0
066BE:  BRA    67C6
....................                if(TiempoControl>=80){ 
066C0:  MOVLB  5
066C2:  MOVF   xC1,W
066C4:  SUBLW  4F
066C6:  BTFSC  FD8.0
066C8:  BRA    67C8
....................                   TiempoControl=0; 
066CA:  CLRF   xC1
....................                   if(Aumento<-0.5){ 
066CC:  MOVFF  623,816
066D0:  MOVFF  622,815
066D4:  MOVFF  621,814
066D8:  MOVFF  620,813
066DC:  MOVLB  8
066DE:  CLRF   x1A
066E0:  CLRF   x19
066E2:  MOVLW  80
066E4:  MOVWF  x18
066E6:  MOVLW  7E
066E8:  MOVWF  x17
066EA:  MOVLB  0
066EC:  CALL   1572
066F0:  BNC   6728
....................                      Ganancia+=1; 
066F2:  BCF    FD8.1
066F4:  MOVFF  60B,81A
066F8:  MOVFF  60A,819
066FC:  MOVFF  609,818
06700:  MOVFF  608,817
06704:  MOVLB  8
06706:  CLRF   x1E
06708:  CLRF   x1D
0670A:  CLRF   x1C
0670C:  MOVLW  7F
0670E:  MOVWF  x1B
06710:  MOVLB  0
06712:  CALL   1296
06716:  MOVFF  03,60B
0671A:  MOVFF  02,60A
0671E:  MOVFF  01,609
06722:  MOVFF  00,608
....................                   }else{ 
06726:  BRA    67C6
....................                      if(Aumento<-0.1){ 
06728:  MOVFF  623,816
0672C:  MOVFF  622,815
06730:  MOVFF  621,814
06734:  MOVFF  620,813
06738:  MOVLW  CD
0673A:  MOVLB  8
0673C:  MOVWF  x1A
0673E:  MOVLW  CC
06740:  MOVWF  x19
06742:  MOVWF  x18
06744:  MOVLW  7B
06746:  MOVWF  x17
06748:  MOVLB  0
0674A:  CALL   1572
0674E:  BNC   678C
....................                         Ganancia+=0.6; 
06750:  BCF    FD8.1
06752:  MOVFF  60B,81A
06756:  MOVFF  60A,819
0675A:  MOVFF  609,818
0675E:  MOVFF  608,817
06762:  MOVLW  9A
06764:  MOVLB  8
06766:  MOVWF  x1E
06768:  MOVLW  99
0676A:  MOVWF  x1D
0676C:  MOVLW  19
0676E:  MOVWF  x1C
06770:  MOVLW  7E
06772:  MOVWF  x1B
06774:  MOVLB  0
06776:  CALL   1296
0677A:  MOVFF  03,60B
0677E:  MOVFF  02,60A
06782:  MOVFF  01,609
06786:  MOVFF  00,608
....................                      }else{ 
0678A:  BRA    67C6
....................                         Ganancia+=0.3; 
0678C:  BCF    FD8.1
0678E:  MOVFF  60B,81A
06792:  MOVFF  60A,819
06796:  MOVFF  609,818
0679A:  MOVFF  608,817
0679E:  MOVLW  9A
067A0:  MOVLB  8
067A2:  MOVWF  x1E
067A4:  MOVLW  99
067A6:  MOVWF  x1D
067A8:  MOVLW  19
067AA:  MOVWF  x1C
067AC:  MOVLW  7D
067AE:  MOVWF  x1B
067B0:  MOVLB  0
067B2:  CALL   1296
067B6:  MOVFF  03,60B
067BA:  MOVFF  02,60A
067BE:  MOVFF  01,609
067C2:  MOVFF  00,608
067C6:  MOVLB  5
....................                      } 
....................                   } 
....................                } 
....................             } 
....................          } 
....................           
....................          if(error<0.0){ 
067C8:  MOVFF  5FB,816
067CC:  MOVFF  5FA,815
067D0:  MOVFF  5F9,814
067D4:  MOVFF  5F8,813
067D8:  MOVLB  8
067DA:  CLRF   x1A
067DC:  CLRF   x19
067DE:  CLRF   x18
067E0:  CLRF   x17
067E2:  MOVLB  0
067E4:  CALL   1572
067E8:  BNC   6848
....................             Ganancia=GananciaR*(Setpoint/44.5); 
067EA:  MOVFF  62F,80F
067EE:  MOVFF  62E,80E
067F2:  MOVFF  62D,80D
067F6:  MOVFF  62C,80C
067FA:  MOVLB  8
067FC:  CLRF   x13
067FE:  CLRF   x12
06800:  MOVLW  32
06802:  MOVWF  x11
06804:  MOVLW  84
06806:  MOVWF  x10
06808:  MOVLB  0
0680A:  CALL   1138
0680E:  MOVFF  60F,816
06812:  MOVFF  60E,815
06816:  MOVFF  60D,814
0681A:  MOVFF  60C,813
0681E:  MOVFF  03,81A
06822:  MOVFF  02,819
06826:  MOVFF  01,818
0682A:  MOVFF  00,817
0682E:  CALL   283A
06832:  MOVFF  03,60B
06836:  MOVFF  02,60A
0683A:  MOVFF  01,609
0683E:  MOVFF  00,608
....................             flag_ajuste=0; 
06842:  MOVLB  5
06844:  BCF    xBA.1
....................             flag_ajuste2=0; 
06846:  BCF    xBA.2
....................          } 
....................           
....................          if(Ganancia<0.1){ 
06848:  MOVFF  60B,816
0684C:  MOVFF  60A,815
06850:  MOVFF  609,814
06854:  MOVFF  608,813
06858:  MOVLW  CD
0685A:  MOVLB  8
0685C:  MOVWF  x1A
0685E:  MOVLW  CC
06860:  MOVWF  x19
06862:  MOVLW  4C
06864:  MOVWF  x18
06866:  MOVLW  7B
06868:  MOVWF  x17
0686A:  MOVLB  0
0686C:  CALL   1572
06870:  BNC   6886
....................             Ganancia=0.1; 
06872:  MOVLW  CD
06874:  MOVLB  6
06876:  MOVWF  x0B
06878:  MOVLW  CC
0687A:  MOVWF  x0A
0687C:  MOVLW  4C
0687E:  MOVWF  x09
06880:  MOVLW  7B
06882:  MOVWF  x08
06884:  MOVLB  0
....................          } 
....................          if(Ganancia>Gananciamax){ 
06886:  MOVFF  5DF,816
0688A:  MOVFF  5DE,815
0688E:  MOVFF  5DD,814
06892:  MOVFF  5DC,813
06896:  MOVFF  60B,81A
0689A:  MOVFF  60A,819
0689E:  MOVFF  609,818
068A2:  MOVFF  608,817
068A6:  CALL   1572
068AA:  BNC   68BC
....................             Ganancia=Gananciamax; 
068AC:  MOVFF  5DF,60B
068B0:  MOVFF  5DE,60A
068B4:  MOVFF  5DD,609
068B8:  MOVFF  5DC,608
....................          } 
....................        
....................          if(error<0.0)     // Anti Wind_DOWN      
068BC:  MOVFF  5FB,816
068C0:  MOVFF  5FA,815
068C4:  MOVFF  5F9,814
068C8:  MOVFF  5F8,813
068CC:  MOVLB  8
068CE:  CLRF   x1A
068D0:  CLRF   x19
068D2:  CLRF   x18
068D4:  CLRF   x17
068D6:  MOVLB  0
068D8:  CALL   1572
068DC:  BNC   68EA
....................             error=0.0; 
068DE:  MOVLB  5
068E0:  CLRF   xFB
068E2:  CLRF   xFA
068E4:  CLRF   xF9
068E6:  CLRF   xF8
068E8:  MOVLB  0
....................           
....................          //tmp=(Setpoint-Prom)*Ganancia;  // Control Proporcional. 
....................          tmp=error*Ganancia;  // Control Proporcional. 
068EA:  MOVFF  5FB,816
068EE:  MOVFF  5FA,815
068F2:  MOVFF  5F9,814
068F6:  MOVFF  5F8,813
068FA:  MOVFF  60B,81A
068FE:  MOVFF  60A,819
06902:  MOVFF  609,818
06906:  MOVFF  608,817
0690A:  CALL   283A
0690E:  MOVFF  03,607
06912:  MOVFF  02,606
06916:  MOVFF  01,605
0691A:  MOVFF  00,604
....................                 
....................          if(tmp>Setpoint)   // Anti Wind-UP       
0691E:  MOVFF  62F,816
06922:  MOVFF  62E,815
06926:  MOVFF  62D,814
0692A:  MOVFF  62C,813
0692E:  MOVFF  607,81A
06932:  MOVFF  606,819
06936:  MOVFF  605,818
0693A:  MOVFF  604,817
0693E:  CALL   1572
06942:  BNC   6954
....................             tmp=Setpoint; 
06944:  MOVFF  62F,607
06948:  MOVFF  62E,606
0694C:  MOVFF  62D,605
06950:  MOVFF  62C,604
....................                       
....................          if(tmp<0.0)     // Anti Wind_DOWN     
06954:  MOVFF  607,816
06958:  MOVFF  606,815
0695C:  MOVFF  605,814
06960:  MOVFF  604,813
06964:  MOVLB  8
06966:  CLRF   x1A
06968:  CLRF   x19
0696A:  CLRF   x18
0696C:  CLRF   x17
0696E:  MOVLB  0
06970:  CALL   1572
06974:  BNC   6982
....................             tmp=0.0; 
06976:  MOVLB  6
06978:  CLRF   x07
0697A:  CLRF   x06
0697C:  CLRF   x05
0697E:  CLRF   x04
06980:  MOVLB  0
....................        
....................          Tpulso=(tmp/Setpoint)*Tciclo; 
06982:  MOVFF  607,80F
06986:  MOVFF  606,80E
0698A:  MOVFF  605,80D
0698E:  MOVFF  604,80C
06992:  MOVFF  62F,813
06996:  MOVFF  62E,812
0699A:  MOVFF  62D,811
0699E:  MOVFF  62C,810
069A2:  CALL   1138
069A6:  MOVFF  00,7BA
069AA:  MOVFF  01,7BB
069AE:  MOVFF  02,7BC
069B2:  MOVFF  03,7BD
069B6:  MOVFF  03,816
069BA:  MOVFF  02,815
069BE:  MOVFF  01,814
069C2:  MOVFF  00,813
069C6:  MOVFF  5F3,81A
069CA:  MOVFF  5F2,819
069CE:  MOVFF  5F1,818
069D2:  MOVFF  5F0,817
069D6:  CALL   283A
069DA:  MOVFF  03,5F7
069DE:  MOVFF  02,5F6
069E2:  MOVFF  01,5F5
069E6:  MOVFF  00,5F4
069EA:  MOVLB  5
....................       }   
....................    } 
....................    Tp=(Tpulso/0.005); 
069EC:  MOVFF  5F7,80F
069F0:  MOVFF  5F6,80E
069F4:  MOVFF  5F5,80D
069F8:  MOVFF  5F4,80C
069FC:  MOVLW  0A
069FE:  MOVLB  8
06A00:  MOVWF  x13
06A02:  MOVLW  D7
06A04:  MOVWF  x12
06A06:  MOVLW  23
06A08:  MOVWF  x11
06A0A:  MOVLW  77
06A0C:  MOVWF  x10
06A0E:  MOVLB  0
06A10:  CALL   1138
06A14:  MOVFF  03,816
06A18:  MOVFF  02,815
06A1C:  MOVFF  01,814
06A20:  MOVFF  00,813
06A24:  CALL   2CD2
06A28:  MOVFF  02,5D5
06A2C:  MOVFF  01,5D4
....................    Tc=(Tciclo/0.005); 
06A30:  MOVFF  5F3,80F
06A34:  MOVFF  5F2,80E
06A38:  MOVFF  5F1,80D
06A3C:  MOVFF  5F0,80C
06A40:  MOVLW  0A
06A42:  MOVLB  8
06A44:  MOVWF  x13
06A46:  MOVLW  D7
06A48:  MOVWF  x12
06A4A:  MOVLW  23
06A4C:  MOVWF  x11
06A4E:  MOVLW  77
06A50:  MOVWF  x10
06A52:  MOVLB  0
06A54:  CALL   1138
06A58:  MOVFF  03,816
06A5C:  MOVFF  02,815
06A60:  MOVFF  01,814
06A64:  MOVFF  00,813
06A68:  CALL   2CD2
06A6C:  MOVFF  02,5D7
06A70:  MOVFF  01,5D6
....................    Controlando=1;      
06A74:  MOVLW  01
06A76:  MOVLB  5
06A78:  MOVWF  x95
.................... //--------------------------------------------------------------------------------------------------------------------//    
....................    
.................... } 
06A7A:  MOVLB  0
06A7C:  RETLW  00
....................  
.................... int8 extraeDecimal(float data){ 
*
04AC2:  MOVLB  7
04AC4:  CLRF   xC6
04AC6:  CLRF   xC5
04AC8:  CLRF   xC4
04ACA:  CLRF   xC3
04ACC:  CLRF   xCA
04ACE:  CLRF   xC9
04AD0:  CLRF   xC8
04AD2:  CLRF   xC7
....................    float entero=0; 
....................    float tmp=0.0; 
....................     
....................    entero=(int8)data; 
04AD4:  MOVFF  7C2,816
04AD8:  MOVFF  7C1,815
04ADC:  MOVFF  7C0,814
04AE0:  MOVFF  7BF,813
04AE4:  MOVLB  0
04AE6:  CALL   2CD2
04AEA:  MOVLB  8
04AEC:  CLRF   x18
04AEE:  MOVFF  01,817
04AF2:  MOVLB  0
04AF4:  CALL   10DA
04AF8:  MOVFF  03,7C6
04AFC:  MOVFF  02,7C5
04B00:  MOVFF  01,7C4
04B04:  MOVFF  00,7C3
....................    tmp=(data-entero)*10; 
04B08:  BSF    FD8.1
04B0A:  MOVFF  7C2,81A
04B0E:  MOVFF  7C1,819
04B12:  MOVFF  7C0,818
04B16:  MOVFF  7BF,817
04B1A:  MOVFF  7C6,81E
04B1E:  MOVFF  7C5,81D
04B22:  MOVFF  7C4,81C
04B26:  MOVFF  7C3,81B
04B2A:  CALL   1296
04B2E:  MOVFF  00,7CB
04B32:  MOVFF  01,7CC
04B36:  MOVFF  02,7CD
04B3A:  MOVFF  03,7CE
04B3E:  MOVFF  03,816
04B42:  MOVFF  02,815
04B46:  MOVFF  01,814
04B4A:  MOVFF  00,813
04B4E:  MOVLB  8
04B50:  CLRF   x1A
04B52:  CLRF   x19
04B54:  MOVLW  20
04B56:  MOVWF  x18
04B58:  MOVLW  82
04B5A:  MOVWF  x17
04B5C:  MOVLB  0
04B5E:  CALL   283A
04B62:  MOVFF  03,7CA
04B66:  MOVFF  02,7C9
04B6A:  MOVFF  01,7C8
04B6E:  MOVFF  00,7C7
....................    return (int8)tmp; 
04B72:  MOVFF  7CA,816
04B76:  MOVFF  7C9,815
04B7A:  MOVFF  7C8,814
04B7E:  MOVFF  7C7,813
04B82:  CALL   2CD2
04B86:  MOVF   01,W
.................... } 
04B88:  RETLW  00
....................  
.................... float inttofloat(int8 decimal){ 
....................    float tmp; 
....................    tmp=decimal; 
*
01530:  MOVLB  8
01532:  CLRF   x18
01534:  MOVFF  7BE,817
01538:  MOVLB  0
0153A:  RCALL  10DA
0153C:  MOVFF  03,7C2
01540:  MOVFF  02,7C1
01544:  MOVFF  01,7C0
01548:  MOVFF  00,7BF
....................    return tmp/10; 
0154C:  MOVFF  7C2,80F
01550:  MOVFF  7C1,80E
01554:  MOVFF  7C0,80D
01558:  MOVFF  7BF,80C
0155C:  MOVLB  8
0155E:  CLRF   x13
01560:  CLRF   x12
01562:  MOVLW  20
01564:  MOVWF  x11
01566:  MOVLW  82
01568:  MOVWF  x10
0156A:  MOVLB  0
0156C:  RCALL  1138
.................... } 
0156E:  GOTO   1DD4 (RETURN)
....................  
.................... void ConfiguraInterrupciones(){ 
....................    setup_timer_1(T1_INTERNAL|T1_DIV_BY_1); 
*
010B4:  MOVLW  85
010B6:  MOVWF  FCD
....................    enable_interrupts(INT_TIMER1); 
010B8:  BSF    F9D.0
....................    setup_adc_ports(AN0_TO_AN4); 
010BA:  MOVF   FC1,W
010BC:  ANDLW  C0
010BE:  IORLW  0A
010C0:  MOVWF  FC1
....................    setup_adc(ADC_CLOCK_DIV_64); 
010C2:  MOVF   FC0,W
010C4:  ANDLW  C0
010C6:  IORLW  06
010C8:  MOVWF  FC0
010CA:  BSF    FC0.7
010CC:  BSF    FC2.0
....................    port_b_pullups(true); 
010CE:  BCF    FF1.7
....................     
....................    setup_wdt(WDT_ON); 
010D0:  BSF    FD1.0
....................    enable_interrupts(global); 
010D2:  MOVLW  C0
010D4:  IORWF  FF2,F
.................... }   
010D6:  GOTO   7AE2 (RETURN)
....................  
.................... void LeeEEPROM(){ 
....................    mEstp=read_eeprom(0); 
*
015EC:  MOVFF  FF2,7BA
015F0:  BCF    FF2.6
015F2:  BCF    FF2.7
015F4:  CLRF   FAA
015F6:  CLRF   FA9
015F8:  BCF    FA6.6
015FA:  BCF    FA6.7
015FC:  BSF    FA6.0
015FE:  MOVF   FA8,W
01600:  MOVLB  7
01602:  BTFSC  xBA.6
01604:  BSF    FF2.6
01606:  BTFSC  xBA.7
01608:  BSF    FF2.7
0160A:  MOVLB  8
0160C:  CLRF   x18
0160E:  MOVWF  x17
01610:  MOVLB  0
01612:  RCALL  10DA
01614:  MOVFF  03,5A5
01618:  MOVFF  02,5A4
0161C:  MOVFF  01,5A3
01620:  MOVFF  00,5A2
....................    delay_ms(10);    
01624:  MOVLW  0A
01626:  MOVLB  7
01628:  MOVWF  xE8
0162A:  MOVLB  0
0162C:  RCALL  1110
....................    hEstp=read_eeprom(1); 
0162E:  MOVFF  FF2,7BA
01632:  BCF    FF2.6
01634:  BCF    FF2.7
01636:  CLRF   FAA
01638:  MOVLW  01
0163A:  MOVWF  FA9
0163C:  BCF    FA6.6
0163E:  BCF    FA6.7
01640:  BSF    FA6.0
01642:  MOVF   FA8,W
01644:  MOVLB  7
01646:  BTFSC  xBA.6
01648:  BSF    FF2.6
0164A:  BTFSC  xBA.7
0164C:  BSF    FF2.7
0164E:  MOVLB  8
01650:  CLRF   x18
01652:  MOVWF  x17
01654:  MOVLB  0
01656:  RCALL  10DA
01658:  MOVFF  03,5A9
0165C:  MOVFF  02,5A8
01660:  MOVFF  01,5A7
01664:  MOVFF  00,5A6
....................    delay_ms(10);    
01668:  MOVLW  0A
0166A:  MOVLB  7
0166C:  MOVWF  xE8
0166E:  MOVLB  0
01670:  RCALL  1110
....................     
....................    entero=read_eeprom(80); 
01672:  MOVFF  FF2,7BA
01676:  BCF    FF2.6
01678:  BCF    FF2.7
0167A:  CLRF   FAA
0167C:  MOVLW  50
0167E:  MOVWF  FA9
01680:  BCF    FA6.6
01682:  BCF    FA6.7
01684:  BSF    FA6.0
01686:  MOVF   FA8,W
01688:  MOVLB  7
0168A:  BTFSC  xBA.6
0168C:  BSF    FF2.6
0168E:  BTFSC  xBA.7
01690:  BSF    FF2.7
01692:  MOVLB  5
01694:  MOVWF  xC5
....................    delay_ms(10);    
01696:  MOVLW  0A
01698:  MOVLB  7
0169A:  MOVWF  xE8
0169C:  MOVLB  0
0169E:  RCALL  1110
....................    Temporal=read_eeprom(81); 
016A0:  MOVFF  FF2,7BA
016A4:  BCF    FF2.6
016A6:  BCF    FF2.7
016A8:  CLRF   FAA
016AA:  MOVLW  51
016AC:  MOVWF  FA9
016AE:  BCF    FA6.6
016B0:  BCF    FA6.7
016B2:  BSF    FA6.0
016B4:  MOVF   FA8,W
016B6:  MOVLB  7
016B8:  BTFSC  xBA.6
016BA:  BSF    FF2.6
016BC:  BTFSC  xBA.7
016BE:  BSF    FF2.7
016C0:  MOVLB  8
016C2:  CLRF   x18
016C4:  MOVWF  x17
016C6:  MOVLB  0
016C8:  RCALL  10DA
016CA:  MOVFF  03,633
016CE:  MOVFF  02,632
016D2:  MOVFF  01,631
016D6:  MOVFF  00,630
....................    Temporal=Temporal/10.0; 
016DA:  MOVFF  633,80F
016DE:  MOVFF  632,80E
016E2:  MOVFF  631,80D
016E6:  MOVFF  630,80C
016EA:  MOVLB  8
016EC:  CLRF   x13
016EE:  CLRF   x12
016F0:  MOVLW  20
016F2:  MOVWF  x11
016F4:  MOVLW  82
016F6:  MOVWF  x10
016F8:  MOVLB  0
016FA:  RCALL  1138
016FC:  MOVFF  03,633
01700:  MOVFF  02,632
01704:  MOVFF  01,631
01708:  MOVFF  00,630
....................    Setpoint=entero+Temporal; 
0170C:  MOVLB  8
0170E:  CLRF   x18
01710:  MOVFF  5C5,817
01714:  MOVLB  0
01716:  RCALL  10DA
01718:  BCF    FD8.1
0171A:  MOVFF  03,81A
0171E:  MOVFF  02,819
01722:  MOVFF  01,818
01726:  MOVFF  00,817
0172A:  MOVFF  633,81E
0172E:  MOVFF  632,81D
01732:  MOVFF  631,81C
01736:  MOVFF  630,81B
0173A:  RCALL  1296
0173C:  MOVFF  03,62F
01740:  MOVFF  02,62E
01744:  MOVFF  01,62D
01748:  MOVFF  00,62C
....................    delay_ms(10);    
0174C:  MOVLW  0A
0174E:  MOVLB  7
01750:  MOVWF  xE8
01752:  MOVLB  0
01754:  RCALL  1110
....................     
....................    entero=read_eeprom(82); 
01756:  MOVFF  FF2,7BA
0175A:  BCF    FF2.6
0175C:  BCF    FF2.7
0175E:  CLRF   FAA
01760:  MOVLW  52
01762:  MOVWF  FA9
01764:  BCF    FA6.6
01766:  BCF    FA6.7
01768:  BSF    FA6.0
0176A:  MOVF   FA8,W
0176C:  MOVLB  7
0176E:  BTFSC  xBA.6
01770:  BSF    FF2.6
01772:  BTFSC  xBA.7
01774:  BSF    FF2.7
01776:  MOVLB  5
01778:  MOVWF  xC5
....................    delay_ms(10);    
0177A:  MOVLW  0A
0177C:  MOVLB  7
0177E:  MOVWF  xE8
01780:  MOVLB  0
01782:  RCALL  1110
....................    Temporal=read_eeprom(83); 
01784:  MOVFF  FF2,7BA
01788:  BCF    FF2.6
0178A:  BCF    FF2.7
0178C:  CLRF   FAA
0178E:  MOVLW  53
01790:  MOVWF  FA9
01792:  BCF    FA6.6
01794:  BCF    FA6.7
01796:  BSF    FA6.0
01798:  MOVF   FA8,W
0179A:  MOVLB  7
0179C:  BTFSC  xBA.6
0179E:  BSF    FF2.6
017A0:  BTFSC  xBA.7
017A2:  BSF    FF2.7
017A4:  MOVLB  8
017A6:  CLRF   x18
017A8:  MOVWF  x17
017AA:  MOVLB  0
017AC:  RCALL  10DA
017AE:  MOVFF  03,633
017B2:  MOVFF  02,632
017B6:  MOVFF  01,631
017BA:  MOVFF  00,630
....................    Temporal=Temporal/10.0; 
017BE:  MOVFF  633,80F
017C2:  MOVFF  632,80E
017C6:  MOVFF  631,80D
017CA:  MOVFF  630,80C
017CE:  MOVLB  8
017D0:  CLRF   x13
017D2:  CLRF   x12
017D4:  MOVLW  20
017D6:  MOVWF  x11
017D8:  MOVLW  82
017DA:  MOVWF  x10
017DC:  MOVLB  0
017DE:  RCALL  1138
017E0:  MOVFF  03,633
017E4:  MOVFF  02,632
017E8:  MOVFF  01,631
017EC:  MOVFF  00,630
....................    SetpointH=entero+Temporal; 
017F0:  MOVLB  8
017F2:  CLRF   x18
017F4:  MOVFF  5C5,817
017F8:  MOVLB  0
017FA:  RCALL  10DA
017FC:  BCF    FD8.1
017FE:  MOVFF  03,81A
01802:  MOVFF  02,819
01806:  MOVFF  01,818
0180A:  MOVFF  00,817
0180E:  MOVFF  633,81E
01812:  MOVFF  632,81D
01816:  MOVFF  631,81C
0181A:  MOVFF  630,81B
0181E:  RCALL  1296
01820:  MOVFF  03,637
01824:  MOVFF  02,636
01828:  MOVFF  01,635
0182C:  MOVFF  00,634
....................    delay_ms(10);    
01830:  MOVLW  0A
01832:  MOVLB  7
01834:  MOVWF  xE8
01836:  MOVLB  0
01838:  RCALL  1110
....................     
....................    Password[0]=read_eeprom(10); 
0183A:  MOVFF  FF2,7BA
0183E:  BCF    FF2.6
01840:  BCF    FF2.7
01842:  CLRF   FAA
01844:  MOVLW  0A
01846:  MOVWF  FA9
01848:  BCF    FA6.6
0184A:  BCF    FA6.7
0184C:  BSF    FA6.0
0184E:  MOVF   FA8,W
01850:  MOVLB  7
01852:  BTFSC  xBA.6
01854:  BSF    FF2.6
01856:  BTFSC  xBA.7
01858:  BSF    FF2.7
0185A:  MOVLB  5
0185C:  MOVWF  xE8
....................    delay_ms(10);    
0185E:  MOVLW  0A
01860:  MOVLB  7
01862:  MOVWF  xE8
01864:  MOVLB  0
01866:  RCALL  1110
....................    Password[1]=read_eeprom(11); 
01868:  MOVFF  FF2,7BA
0186C:  BCF    FF2.6
0186E:  BCF    FF2.7
01870:  CLRF   FAA
01872:  MOVLW  0B
01874:  MOVWF  FA9
01876:  BCF    FA6.6
01878:  BCF    FA6.7
0187A:  BSF    FA6.0
0187C:  MOVF   FA8,W
0187E:  MOVLB  7
01880:  BTFSC  xBA.6
01882:  BSF    FF2.6
01884:  BTFSC  xBA.7
01886:  BSF    FF2.7
01888:  MOVLB  5
0188A:  MOVWF  xE9
....................    delay_ms(10);    
0188C:  MOVLW  0A
0188E:  MOVLB  7
01890:  MOVWF  xE8
01892:  MOVLB  0
01894:  RCALL  1110
....................    Password[2]=read_eeprom(12); 
01896:  MOVFF  FF2,7BA
0189A:  BCF    FF2.6
0189C:  BCF    FF2.7
0189E:  CLRF   FAA
018A0:  MOVLW  0C
018A2:  MOVWF  FA9
018A4:  BCF    FA6.6
018A6:  BCF    FA6.7
018A8:  BSF    FA6.0
018AA:  MOVF   FA8,W
018AC:  MOVLB  7
018AE:  BTFSC  xBA.6
018B0:  BSF    FF2.6
018B2:  BTFSC  xBA.7
018B4:  BSF    FF2.7
018B6:  MOVLB  5
018B8:  MOVWF  xEA
....................    delay_ms(10);    
018BA:  MOVLW  0A
018BC:  MOVLB  7
018BE:  MOVWF  xE8
018C0:  MOVLB  0
018C2:  RCALL  1110
....................    Password[3]=read_eeprom(13); 
018C4:  MOVFF  FF2,7BA
018C8:  BCF    FF2.6
018CA:  BCF    FF2.7
018CC:  CLRF   FAA
018CE:  MOVLW  0D
018D0:  MOVWF  FA9
018D2:  BCF    FA6.6
018D4:  BCF    FA6.7
018D6:  BSF    FA6.0
018D8:  MOVF   FA8,W
018DA:  MOVLB  7
018DC:  BTFSC  xBA.6
018DE:  BSF    FF2.6
018E0:  BTFSC  xBA.7
018E2:  BSF    FF2.7
018E4:  MOVLB  5
018E6:  MOVWF  xEB
....................    delay_ms(10);    
018E8:  MOVLW  0A
018EA:  MOVLB  7
018EC:  MOVWF  xE8
018EE:  MOVLB  0
018F0:  RCALL  1110
....................     
....................    Ganancia=read_eeprom(30); 
018F2:  MOVFF  FF2,7BA
018F6:  BCF    FF2.6
018F8:  BCF    FF2.7
018FA:  CLRF   FAA
018FC:  MOVLW  1E
018FE:  MOVWF  FA9
01900:  BCF    FA6.6
01902:  BCF    FA6.7
01904:  BSF    FA6.0
01906:  MOVF   FA8,W
01908:  MOVLB  7
0190A:  BTFSC  xBA.6
0190C:  BSF    FF2.6
0190E:  BTFSC  xBA.7
01910:  BSF    FF2.7
01912:  MOVLB  8
01914:  CLRF   x18
01916:  MOVWF  x17
01918:  MOVLB  0
0191A:  CALL   10DA
0191E:  MOVFF  03,60B
01922:  MOVFF  02,60A
01926:  MOVFF  01,609
0192A:  MOVFF  00,608
....................    delay_ms(10);    
0192E:  MOVLW  0A
01930:  MOVLB  7
01932:  MOVWF  xE8
01934:  MOVLB  0
01936:  CALL   1110
....................    Derivativo=read_eeprom(31); 
0193A:  MOVFF  FF2,7BA
0193E:  BCF    FF2.6
01940:  BCF    FF2.7
01942:  CLRF   FAA
01944:  MOVLW  1F
01946:  MOVWF  FA9
01948:  BCF    FA6.6
0194A:  BCF    FA6.7
0194C:  BSF    FA6.0
0194E:  MOVF   FA8,W
01950:  MOVLB  7
01952:  BTFSC  xBA.6
01954:  BSF    FF2.6
01956:  BTFSC  xBA.7
01958:  BSF    FF2.7
0195A:  MOVLB  5
0195C:  MOVWF  x97
....................    delay_ms(10);    
0195E:  MOVLW  0A
01960:  MOVLB  7
01962:  MOVWF  xE8
01964:  MOVLB  0
01966:  CALL   1110
....................    Integral=read_eeprom(32); 
0196A:  MOVFF  FF2,7BA
0196E:  BCF    FF2.6
01970:  BCF    FF2.7
01972:  CLRF   FAA
01974:  MOVLW  20
01976:  MOVWF  FA9
01978:  BCF    FA6.6
0197A:  BCF    FA6.7
0197C:  BSF    FA6.0
0197E:  MOVF   FA8,W
01980:  MOVLB  7
01982:  BTFSC  xBA.6
01984:  BSF    FF2.6
01986:  BTFSC  xBA.7
01988:  BSF    FF2.7
0198A:  MOVLB  5
0198C:  MOVWF  x98
....................    delay_ms(10);    
0198E:  MOVLW  0A
01990:  MOVLB  7
01992:  MOVWF  xE8
01994:  MOVLB  0
01996:  CALL   1110
....................    Tciclo=read_eeprom(33); 
0199A:  MOVFF  FF2,7BA
0199E:  BCF    FF2.6
019A0:  BCF    FF2.7
019A2:  CLRF   FAA
019A4:  MOVLW  21
019A6:  MOVWF  FA9
019A8:  BCF    FA6.6
019AA:  BCF    FA6.7
019AC:  BSF    FA6.0
019AE:  MOVF   FA8,W
019B0:  MOVLB  7
019B2:  BTFSC  xBA.6
019B4:  BSF    FF2.6
019B6:  BTFSC  xBA.7
019B8:  BSF    FF2.7
019BA:  MOVLB  8
019BC:  CLRF   x18
019BE:  MOVWF  x17
019C0:  MOVLB  0
019C2:  CALL   10DA
019C6:  MOVFF  03,5F3
019CA:  MOVFF  02,5F2
019CE:  MOVFF  01,5F1
019D2:  MOVFF  00,5F0
....................    delay_ms(10);    
019D6:  MOVLW  0A
019D8:  MOVLB  7
019DA:  MOVWF  xE8
019DC:  MOVLB  0
019DE:  CALL   1110
....................    Ajuste=read_eeprom(34); 
019E2:  MOVFF  FF2,7BA
019E6:  BCF    FF2.6
019E8:  BCF    FF2.7
019EA:  CLRF   FAA
019EC:  MOVLW  22
019EE:  MOVWF  FA9
019F0:  BCF    FA6.6
019F2:  BCF    FA6.7
019F4:  BSF    FA6.0
019F6:  MOVF   FA8,W
019F8:  MOVLB  7
019FA:  BTFSC  xBA.6
019FC:  BSF    FF2.6
019FE:  BTFSC  xBA.7
01A00:  BSF    FF2.7
01A02:  MOVLB  5
01A04:  MOVWF  x8E
....................    delay_ms(10);    
01A06:  MOVLW  0A
01A08:  MOVLB  7
01A0A:  MOVWF  xE8
01A0C:  MOVLB  0
01A0E:  CALL   1110
....................    Ajusten=read_eeprom(35); 
01A12:  MOVFF  FF2,7BA
01A16:  BCF    FF2.6
01A18:  BCF    FF2.7
01A1A:  CLRF   FAA
01A1C:  MOVLW  23
01A1E:  MOVWF  FA9
01A20:  BCF    FA6.6
01A22:  BCF    FA6.7
01A24:  BSF    FA6.0
01A26:  MOVF   FA8,W
01A28:  MOVLB  7
01A2A:  BTFSC  xBA.6
01A2C:  BSF    FF2.6
01A2E:  BTFSC  xBA.7
01A30:  BSF    FF2.7
01A32:  MOVLB  5
01A34:  MOVWF  x8F
....................    delay_ms(10);    
01A36:  MOVLW  0A
01A38:  MOVLB  7
01A3A:  MOVWF  xE8
01A3C:  MOVLB  0
01A3E:  CALL   1110
....................    MediaMovil=read_eeprom(36); 
01A42:  MOVFF  FF2,7BA
01A46:  BCF    FF2.6
01A48:  BCF    FF2.7
01A4A:  CLRF   FAA
01A4C:  MOVLW  24
01A4E:  MOVWF  FA9
01A50:  BCF    FA6.6
01A52:  BCF    FA6.7
01A54:  BSF    FA6.0
01A56:  MOVF   FA8,W
01A58:  MOVLB  7
01A5A:  BTFSC  xBA.6
01A5C:  BSF    FF2.6
01A5E:  BTFSC  xBA.7
01A60:  BSF    FF2.7
01A62:  MOVLB  5
01A64:  MOVWF  x90
....................    delay_ms(10);    
01A66:  MOVLW  0A
01A68:  MOVLB  7
01A6A:  MOVWF  xE8
01A6C:  MOVLB  0
01A6E:  CALL   1110
....................    Coeficiente=read_eeprom(37); 
01A72:  MOVFF  FF2,7BA
01A76:  BCF    FF2.6
01A78:  BCF    FF2.7
01A7A:  CLRF   FAA
01A7C:  MOVLW  25
01A7E:  MOVWF  FA9
01A80:  BCF    FA6.6
01A82:  BCF    FA6.7
01A84:  BSF    FA6.0
01A86:  MOVF   FA8,W
01A88:  MOVLB  7
01A8A:  BTFSC  xBA.6
01A8C:  BSF    FF2.6
01A8E:  BTFSC  xBA.7
01A90:  BSF    FF2.7
01A92:  MOVLB  8
01A94:  CLRF   x18
01A96:  MOVWF  x17
01A98:  MOVLB  0
01A9A:  CALL   10DA
01A9E:  MOVFF  03,617
01AA2:  MOVFF  02,616
01AA6:  MOVFF  01,615
01AAA:  MOVFF  00,614
....................    delay_ms(10);    
01AAE:  MOVLW  0A
01AB0:  MOVLB  7
01AB2:  MOVWF  xE8
01AB4:  MOVLB  0
01AB6:  CALL   1110
....................    Saturacion=read_eeprom(38); 
01ABA:  MOVFF  FF2,7BA
01ABE:  BCF    FF2.6
01AC0:  BCF    FF2.7
01AC2:  CLRF   FAA
01AC4:  MOVLW  26
01AC6:  MOVWF  FA9
01AC8:  BCF    FA6.6
01ACA:  BCF    FA6.7
01ACC:  BSF    FA6.0
01ACE:  MOVF   FA8,W
01AD0:  MOVLB  7
01AD2:  BTFSC  xBA.6
01AD4:  BSF    FF2.6
01AD6:  BTFSC  xBA.7
01AD8:  BSF    FF2.7
01ADA:  MOVLB  8
01ADC:  CLRF   x18
01ADE:  MOVWF  x17
01AE0:  MOVLB  0
01AE2:  CALL   10DA
01AE6:  MOVFF  03,62B
01AEA:  MOVFF  02,62A
01AEE:  MOVFF  01,629
01AF2:  MOVFF  00,628
....................    delay_ms(10);    
01AF6:  MOVLW  0A
01AF8:  MOVLB  7
01AFA:  MOVWF  xE8
01AFC:  MOVLB  0
01AFE:  CALL   1110
....................    GananciaR=Ganancia; 
01B02:  MOVFF  60B,60F
01B06:  MOVFF  60A,60E
01B0A:  MOVFF  609,60D
01B0E:  MOVFF  608,60C
....................     
....................    for(i=0;i<20;i++){//Lee valores almacenados de ciclos personalizados 
01B12:  MOVLB  5
01B14:  CLRF   xBF
01B16:  MOVF   xBF,W
01B18:  SUBLW  13
01B1A:  BTFSS  FD8.0
01B1C:  BRA    20DA
....................       rampas[i].TemperaturaInt=read_eeprom(100+(i*5));  
01B1E:  MOVLB  7
01B20:  CLRF   xE4
01B22:  MOVFF  5BF,7E3
01B26:  CLRF   xE6
01B28:  MOVLW  0F
01B2A:  MOVWF  xE5
01B2C:  MOVLB  0
01B2E:  RCALL  150E
01B30:  MOVFF  02,7BB
01B34:  MOVFF  01,7BA
01B38:  MOVLW  01
01B3A:  MOVLB  7
01B3C:  ADDWF  xBA,W
01B3E:  MOVWF  01
01B40:  MOVLW  00
01B42:  ADDWFC xBB,W
01B44:  MOVWF  03
01B46:  MOVF   01,W
01B48:  ADDLW  8E
01B4A:  MOVWF  FE9
01B4C:  MOVLW  06
01B4E:  ADDWFC 03,W
01B50:  MOVWF  FEA
01B52:  MOVLB  5
01B54:  MOVF   xBF,W
01B56:  MULLW  05
01B58:  MOVF   FF3,W
01B5A:  ADDLW  64
01B5C:  MOVLB  7
01B5E:  MOVWF  xBC
01B60:  MOVFF  FF2,7BD
01B64:  BCF    FF2.6
01B66:  BCF    FF2.7
01B68:  CLRF   FAA
01B6A:  MOVFF  7BC,FA9
01B6E:  BCF    FA6.6
01B70:  BCF    FA6.7
01B72:  BSF    FA6.0
01B74:  MOVF   FA8,W
01B76:  BTFSC  xBD.6
01B78:  BSF    FF2.6
01B7A:  BTFSC  xBD.7
01B7C:  BSF    FF2.7
01B7E:  MOVWF  FEF
....................       rampas[i].TemperaturaDec=read_eeprom(101+(i*5));  
01B80:  CLRF   xE4
01B82:  MOVFF  5BF,7E3
01B86:  CLRF   xE6
01B88:  MOVLW  0F
01B8A:  MOVWF  xE5
01B8C:  MOVLB  0
01B8E:  RCALL  150E
01B90:  MOVFF  02,7BB
01B94:  MOVFF  01,7BA
01B98:  MOVLW  8E
01B9A:  MOVLB  7
01B9C:  ADDWF  xBA,W
01B9E:  MOVWF  FE9
01BA0:  MOVLW  06
01BA2:  ADDWFC xBB,W
01BA4:  MOVWF  FEA
01BA6:  MOVLB  5
01BA8:  MOVF   xBF,W
01BAA:  MULLW  05
01BAC:  MOVF   FF3,W
01BAE:  ADDLW  65
01BB0:  MOVLB  7
01BB2:  MOVWF  xBC
01BB4:  MOVFF  FF2,7BD
01BB8:  BCF    FF2.6
01BBA:  BCF    FF2.7
01BBC:  CLRF   FAA
01BBE:  MOVFF  7BC,FA9
01BC2:  BCF    FA6.6
01BC4:  BCF    FA6.7
01BC6:  BSF    FA6.0
01BC8:  MOVF   FA8,W
01BCA:  BTFSC  xBD.6
01BCC:  BSF    FF2.6
01BCE:  BTFSC  xBD.7
01BD0:  BSF    FF2.7
01BD2:  MOVWF  FEF
....................       rampas[i].Humedad=read_eeprom(102+(i*5));  
01BD4:  CLRF   xE4
01BD6:  MOVFF  5BF,7E3
01BDA:  CLRF   xE6
01BDC:  MOVLW  0F
01BDE:  MOVWF  xE5
01BE0:  MOVLB  0
01BE2:  RCALL  150E
01BE4:  MOVFF  02,7BB
01BE8:  MOVFF  01,7BA
01BEC:  MOVLW  02
01BEE:  MOVLB  7
01BF0:  ADDWF  xBA,W
01BF2:  MOVWF  01
01BF4:  MOVLW  00
01BF6:  ADDWFC xBB,W
01BF8:  MOVWF  03
01BFA:  MOVF   01,W
01BFC:  ADDLW  8E
01BFE:  MOVWF  FE9
01C00:  MOVLW  06
01C02:  ADDWFC 03,W
01C04:  MOVWF  FEA
01C06:  MOVLB  5
01C08:  MOVF   xBF,W
01C0A:  MULLW  05
01C0C:  MOVF   FF3,W
01C0E:  ADDLW  66
01C10:  MOVLB  7
01C12:  MOVWF  xBC
01C14:  MOVFF  FF2,7BD
01C18:  BCF    FF2.6
01C1A:  BCF    FF2.7
01C1C:  CLRF   FAA
01C1E:  MOVFF  7BC,FA9
01C22:  BCF    FA6.6
01C24:  BCF    FA6.7
01C26:  BSF    FA6.0
01C28:  MOVF   FA8,W
01C2A:  BTFSC  xBD.6
01C2C:  BSF    FF2.6
01C2E:  BTFSC  xBD.7
01C30:  BSF    FF2.7
01C32:  MOVWF  FEF
....................       rampas[i].Horas=read_eeprom(103+(i*5));  
01C34:  CLRF   xE4
01C36:  MOVFF  5BF,7E3
01C3A:  CLRF   xE6
01C3C:  MOVLW  0F
01C3E:  MOVWF  xE5
01C40:  MOVLB  0
01C42:  RCALL  150E
01C44:  MOVFF  02,7BB
01C48:  MOVFF  01,7BA
01C4C:  MOVLW  03
01C4E:  MOVLB  7
01C50:  ADDWF  xBA,W
01C52:  MOVWF  01
01C54:  MOVLW  00
01C56:  ADDWFC xBB,W
01C58:  MOVWF  03
01C5A:  MOVF   01,W
01C5C:  ADDLW  8E
01C5E:  MOVWF  FE9
01C60:  MOVLW  06
01C62:  ADDWFC 03,W
01C64:  MOVWF  FEA
01C66:  MOVLB  5
01C68:  MOVF   xBF,W
01C6A:  MULLW  05
01C6C:  MOVF   FF3,W
01C6E:  ADDLW  67
01C70:  MOVLB  7
01C72:  MOVWF  xBC
01C74:  MOVFF  FF2,7BD
01C78:  BCF    FF2.6
01C7A:  BCF    FF2.7
01C7C:  CLRF   FAA
01C7E:  MOVFF  7BC,FA9
01C82:  BCF    FA6.6
01C84:  BCF    FA6.7
01C86:  BSF    FA6.0
01C88:  MOVF   FA8,W
01C8A:  BTFSC  xBD.6
01C8C:  BSF    FF2.6
01C8E:  BTFSC  xBD.7
01C90:  BSF    FF2.7
01C92:  MOVLB  8
01C94:  CLRF   x18
01C96:  MOVWF  x17
01C98:  MOVLB  0
01C9A:  CALL   10DA
01C9E:  MOVFF  00,FEF
01CA2:  MOVFF  01,FEC
01CA6:  MOVFF  02,FEC
01CAA:  MOVFF  03,FEC
01CAE:  MOVF   FED,F
01CB0:  MOVF   FED,F
01CB2:  MOVF   FED,F
....................       rampas[i].Minutos=read_eeprom(104+(i*5));  
01CB4:  MOVLB  7
01CB6:  CLRF   xE4
01CB8:  MOVFF  5BF,7E3
01CBC:  CLRF   xE6
01CBE:  MOVLW  0F
01CC0:  MOVWF  xE5
01CC2:  MOVLB  0
01CC4:  RCALL  150E
01CC6:  MOVFF  02,7BB
01CCA:  MOVFF  01,7BA
01CCE:  MOVLW  07
01CD0:  MOVLB  7
01CD2:  ADDWF  xBA,W
01CD4:  MOVWF  01
01CD6:  MOVLW  00
01CD8:  ADDWFC xBB,W
01CDA:  MOVWF  03
01CDC:  MOVF   01,W
01CDE:  ADDLW  8E
01CE0:  MOVWF  FE9
01CE2:  MOVLW  06
01CE4:  ADDWFC 03,W
01CE6:  MOVWF  FEA
01CE8:  MOVLB  5
01CEA:  MOVF   xBF,W
01CEC:  MULLW  05
01CEE:  MOVF   FF3,W
01CF0:  ADDLW  68
01CF2:  MOVLB  7
01CF4:  MOVWF  xBC
01CF6:  MOVFF  FF2,7BD
01CFA:  BCF    FF2.6
01CFC:  BCF    FF2.7
01CFE:  CLRF   FAA
01D00:  MOVFF  7BC,FA9
01D04:  BCF    FA6.6
01D06:  BCF    FA6.7
01D08:  BSF    FA6.0
01D0A:  MOVF   FA8,W
01D0C:  BTFSC  xBD.6
01D0E:  BSF    FF2.6
01D10:  BTFSC  xBD.7
01D12:  BSF    FF2.7
01D14:  MOVLB  8
01D16:  CLRF   x18
01D18:  MOVWF  x17
01D1A:  MOVLB  0
01D1C:  CALL   10DA
01D20:  MOVFF  00,FEF
01D24:  MOVFF  01,FEC
01D28:  MOVFF  02,FEC
01D2C:  MOVFF  03,FEC
01D30:  MOVF   FED,F
01D32:  MOVF   FED,F
01D34:  MOVF   FED,F
....................        
....................       rampas[i].Temperatura=rampas[i].TemperaturaInt+inttofloat(rampas[i].TemperaturaDec); 
01D36:  MOVLB  7
01D38:  CLRF   xE4
01D3A:  MOVFF  5BF,7E3
01D3E:  CLRF   xE6
01D40:  MOVLW  0F
01D42:  MOVWF  xE5
01D44:  MOVLB  0
01D46:  CALL   150E
01D4A:  MOVFF  01,7BA
01D4E:  MOVLW  0B
01D50:  MOVLB  7
01D52:  ADDWF  01,W
01D54:  MOVWF  01
01D56:  MOVLW  00
01D58:  ADDWFC 02,W
01D5A:  MOVWF  03
01D5C:  MOVF   01,W
01D5E:  ADDLW  8E
01D60:  MOVWF  01
01D62:  MOVLW  06
01D64:  ADDWFC 03,F
01D66:  MOVFF  01,7BA
01D6A:  MOVFF  03,7BB
01D6E:  CLRF   xE4
01D70:  MOVFF  5BF,7E3
01D74:  CLRF   xE6
01D76:  MOVLW  0F
01D78:  MOVWF  xE5
01D7A:  MOVLB  0
01D7C:  CALL   150E
01D80:  MOVFF  02,7BD
01D84:  MOVFF  01,7BC
01D88:  MOVLW  01
01D8A:  MOVLB  7
01D8C:  ADDWF  01,W
01D8E:  MOVWF  01
01D90:  MOVLW  00
01D92:  ADDWFC 02,W
01D94:  MOVWF  03
01D96:  MOVF   01,W
01D98:  ADDLW  8E
01D9A:  MOVWF  FE9
01D9C:  MOVLW  06
01D9E:  ADDWFC 03,W
01DA0:  MOVWF  FEA
01DA2:  MOVFF  FEF,7BC
01DA6:  CLRF   xE4
01DA8:  MOVFF  5BF,7E3
01DAC:  CLRF   xE6
01DAE:  MOVLW  0F
01DB0:  MOVWF  xE5
01DB2:  MOVLB  0
01DB4:  CALL   150E
01DB8:  MOVLW  8E
01DBA:  MOVLB  7
01DBC:  ADDWF  01,W
01DBE:  MOVWF  FE9
01DC0:  MOVLW  06
01DC2:  ADDWFC 02,W
01DC4:  MOVWF  FEA
01DC6:  MOVFF  FEF,7BD
01DCA:  MOVFF  7BD,7BE
01DCE:  MOVLB  0
01DD0:  GOTO   1530
01DD4:  MOVFF  00,7BD
01DD8:  MOVFF  01,7BE
01DDC:  MOVFF  02,7BF
01DE0:  MOVFF  03,7C0
01DE4:  MOVLB  8
01DE6:  CLRF   x18
01DE8:  MOVFF  7BC,817
01DEC:  MOVLB  0
01DEE:  CALL   10DA
01DF2:  MOVFF  FEA,7C2
01DF6:  MOVFF  FE9,7C1
01DFA:  BCF    FD8.1
01DFC:  MOVFF  03,81A
01E00:  MOVFF  02,819
01E04:  MOVFF  01,818
01E08:  MOVFF  00,817
01E0C:  MOVFF  7C0,81E
01E10:  MOVFF  7BF,81D
01E14:  MOVFF  7BE,81C
01E18:  MOVFF  7BD,81B
01E1C:  CALL   1296
01E20:  MOVFF  7C2,FEA
01E24:  MOVFF  7C1,FE9
01E28:  MOVFF  7BB,FEA
01E2C:  MOVFF  7BA,FE9
01E30:  MOVFF  00,FEF
01E34:  MOVFF  01,FEC
01E38:  MOVFF  02,FEC
01E3C:  MOVFF  03,FEC
....................       if(rampas[i].Temperatura>60.0)rampas[i].Temperatura=30.0; 
01E40:  MOVLB  7
01E42:  CLRF   xE4
01E44:  MOVFF  5BF,7E3
01E48:  CLRF   xE6
01E4A:  MOVLW  0F
01E4C:  MOVWF  xE5
01E4E:  MOVLB  0
01E50:  CALL   150E
01E54:  MOVFF  01,7BA
01E58:  MOVLW  0B
01E5A:  MOVLB  7
01E5C:  ADDWF  01,W
01E5E:  MOVWF  01
01E60:  MOVLW  00
01E62:  ADDWFC 02,W
01E64:  MOVWF  03
01E66:  MOVF   01,W
01E68:  ADDLW  8E
01E6A:  MOVWF  FE9
01E6C:  MOVLW  06
01E6E:  ADDWFC 03,W
01E70:  MOVWF  FEA
01E72:  MOVFF  FEF,7BA
01E76:  MOVFF  FEC,7BB
01E7A:  MOVFF  FEC,7BC
01E7E:  MOVFF  FEC,7BD
01E82:  MOVLB  8
01E84:  CLRF   x16
01E86:  CLRF   x15
01E88:  MOVLW  70
01E8A:  MOVWF  x14
01E8C:  MOVLW  84
01E8E:  MOVWF  x13
01E90:  MOVFF  7BD,81A
01E94:  MOVFF  7BC,819
01E98:  MOVFF  7BB,818
01E9C:  MOVFF  7BA,817
01EA0:  MOVLB  0
01EA2:  CALL   1572
01EA6:  BNC   1EE6
01EA8:  MOVLB  7
01EAA:  CLRF   xE4
01EAC:  MOVFF  5BF,7E3
01EB0:  CLRF   xE6
01EB2:  MOVLW  0F
01EB4:  MOVWF  xE5
01EB6:  MOVLB  0
01EB8:  CALL   150E
01EBC:  MOVFF  01,7BA
01EC0:  MOVLW  0B
01EC2:  MOVLB  7
01EC4:  ADDWF  01,W
01EC6:  MOVWF  01
01EC8:  MOVLW  00
01ECA:  ADDWFC 02,W
01ECC:  MOVWF  03
01ECE:  MOVF   01,W
01ED0:  ADDLW  8E
01ED2:  MOVWF  FE9
01ED4:  MOVLW  06
01ED6:  ADDWFC 03,W
01ED8:  MOVWF  FEA
01EDA:  MOVLW  83
01EDC:  MOVWF  FEF
01EDE:  MOVLW  70
01EE0:  MOVWF  FEC
01EE2:  CLRF   FEC
01EE4:  CLRF   FEC
....................       if(rampas[i].Humedad>90.0)rampas[i].Humedad=60.0; 
01EE6:  MOVLB  7
01EE8:  CLRF   xE4
01EEA:  MOVFF  5BF,7E3
01EEE:  CLRF   xE6
01EF0:  MOVLW  0F
01EF2:  MOVWF  xE5
01EF4:  MOVLB  0
01EF6:  CALL   150E
01EFA:  MOVFF  02,7BB
01EFE:  MOVFF  01,7BA
01F02:  MOVLW  02
01F04:  MOVLB  7
01F06:  ADDWF  01,W
01F08:  MOVWF  01
01F0A:  MOVLW  00
01F0C:  ADDWFC 02,W
01F0E:  MOVWF  03
01F10:  MOVF   01,W
01F12:  ADDLW  8E
01F14:  MOVWF  FE9
01F16:  MOVLW  06
01F18:  ADDWFC 03,W
01F1A:  MOVWF  FEA
01F1C:  MOVLB  8
01F1E:  CLRF   x18
01F20:  MOVFF  FEF,817
01F24:  MOVLB  0
01F26:  CALL   10DA
01F2A:  MOVLB  8
01F2C:  CLRF   x16
01F2E:  CLRF   x15
01F30:  MOVLW  34
01F32:  MOVWF  x14
01F34:  MOVLW  85
01F36:  MOVWF  x13
01F38:  MOVFF  03,81A
01F3C:  MOVFF  02,819
01F40:  MOVFF  01,818
01F44:  MOVFF  00,817
01F48:  MOVLB  0
01F4A:  CALL   1572
01F4E:  BNC   1F86
01F50:  MOVLB  7
01F52:  CLRF   xE4
01F54:  MOVFF  5BF,7E3
01F58:  CLRF   xE6
01F5A:  MOVLW  0F
01F5C:  MOVWF  xE5
01F5E:  MOVLB  0
01F60:  CALL   150E
01F64:  MOVFF  01,7BA
01F68:  MOVLW  02
01F6A:  MOVLB  7
01F6C:  ADDWF  01,W
01F6E:  MOVWF  01
01F70:  MOVLW  00
01F72:  ADDWFC 02,W
01F74:  MOVWF  03
01F76:  MOVF   01,W
01F78:  ADDLW  8E
01F7A:  MOVWF  FE9
01F7C:  MOVLW  06
01F7E:  ADDWFC 03,W
01F80:  MOVWF  FEA
01F82:  MOVLW  3C
01F84:  MOVWF  FEF
....................       if(rampas[i].Horas>99.0)rampas[i].Horas=10.0; 
01F86:  MOVLB  7
01F88:  CLRF   xE4
01F8A:  MOVFF  5BF,7E3
01F8E:  CLRF   xE6
01F90:  MOVLW  0F
01F92:  MOVWF  xE5
01F94:  MOVLB  0
01F96:  CALL   150E
01F9A:  MOVFF  01,7BA
01F9E:  MOVLW  03
01FA0:  MOVLB  7
01FA2:  ADDWF  01,W
01FA4:  MOVWF  01
01FA6:  MOVLW  00
01FA8:  ADDWFC 02,W
01FAA:  MOVWF  03
01FAC:  MOVF   01,W
01FAE:  ADDLW  8E
01FB0:  MOVWF  FE9
01FB2:  MOVLW  06
01FB4:  ADDWFC 03,W
01FB6:  MOVWF  FEA
01FB8:  MOVFF  FEF,7BA
01FBC:  MOVFF  FEC,7BB
01FC0:  MOVFF  FEC,7BC
01FC4:  MOVFF  FEC,7BD
01FC8:  MOVLB  8
01FCA:  CLRF   x16
01FCC:  CLRF   x15
01FCE:  MOVLW  46
01FD0:  MOVWF  x14
01FD2:  MOVLW  85
01FD4:  MOVWF  x13
01FD6:  MOVFF  7BD,81A
01FDA:  MOVFF  7BC,819
01FDE:  MOVFF  7BB,818
01FE2:  MOVFF  7BA,817
01FE6:  MOVLB  0
01FE8:  CALL   1572
01FEC:  BNC   202C
01FEE:  MOVLB  7
01FF0:  CLRF   xE4
01FF2:  MOVFF  5BF,7E3
01FF6:  CLRF   xE6
01FF8:  MOVLW  0F
01FFA:  MOVWF  xE5
01FFC:  MOVLB  0
01FFE:  CALL   150E
02002:  MOVFF  01,7BA
02006:  MOVLW  03
02008:  MOVLB  7
0200A:  ADDWF  01,W
0200C:  MOVWF  01
0200E:  MOVLW  00
02010:  ADDWFC 02,W
02012:  MOVWF  03
02014:  MOVF   01,W
02016:  ADDLW  8E
02018:  MOVWF  FE9
0201A:  MOVLW  06
0201C:  ADDWFC 03,W
0201E:  MOVWF  FEA
02020:  MOVLW  82
02022:  MOVWF  FEF
02024:  MOVLW  20
02026:  MOVWF  FEC
02028:  CLRF   FEC
0202A:  CLRF   FEC
....................       if(rampas[i].Minutos>59.0)rampas[i].Minutos=10.0; 
0202C:  MOVLB  7
0202E:  CLRF   xE4
02030:  MOVFF  5BF,7E3
02034:  CLRF   xE6
02036:  MOVLW  0F
02038:  MOVWF  xE5
0203A:  MOVLB  0
0203C:  CALL   150E
02040:  MOVFF  01,7BA
02044:  MOVLW  07
02046:  MOVLB  7
02048:  ADDWF  01,W
0204A:  MOVWF  01
0204C:  MOVLW  00
0204E:  ADDWFC 02,W
02050:  MOVWF  03
02052:  MOVF   01,W
02054:  ADDLW  8E
02056:  MOVWF  FE9
02058:  MOVLW  06
0205A:  ADDWFC 03,W
0205C:  MOVWF  FEA
0205E:  MOVFF  FEF,7BA
02062:  MOVFF  FEC,7BB
02066:  MOVFF  FEC,7BC
0206A:  MOVFF  FEC,7BD
0206E:  MOVLB  8
02070:  CLRF   x16
02072:  CLRF   x15
02074:  MOVLW  6C
02076:  MOVWF  x14
02078:  MOVLW  84
0207A:  MOVWF  x13
0207C:  MOVFF  7BD,81A
02080:  MOVFF  7BC,819
02084:  MOVFF  7BB,818
02088:  MOVFF  7BA,817
0208C:  MOVLB  0
0208E:  CALL   1572
02092:  BNC   20D4
02094:  MOVLB  7
02096:  CLRF   xE4
02098:  MOVFF  5BF,7E3
0209C:  CLRF   xE6
0209E:  MOVLW  0F
020A0:  MOVWF  xE5
020A2:  MOVLB  0
020A4:  CALL   150E
020A8:  MOVFF  01,7BA
020AC:  MOVLW  07
020AE:  MOVLB  7
020B0:  ADDWF  01,W
020B2:  MOVWF  01
020B4:  MOVLW  00
020B6:  ADDWFC 02,W
020B8:  MOVWF  03
020BA:  MOVF   01,W
020BC:  ADDLW  8E
020BE:  MOVWF  FE9
020C0:  MOVLW  06
020C2:  ADDWFC 03,W
020C4:  MOVWF  FEA
020C6:  MOVLW  82
020C8:  MOVWF  FEF
020CA:  MOVLW  20
020CC:  MOVWF  FEC
020CE:  CLRF   FEC
020D0:  CLRF   FEC
020D2:  MOVLB  0
....................    } 
020D4:  MOVLB  5
020D6:  INCF   xBF,F
020D8:  BRA    1B16
.................... } 
020DA:  MOVLB  0
020DC:  GOTO   7AE6 (RETURN)
....................  
.................... void LimitaValores(){ 
....................    if(mEstp>59){ 
020E0:  MOVLB  8
020E2:  CLRF   x16
020E4:  CLRF   x15
020E6:  MOVLW  6C
020E8:  MOVWF  x14
020EA:  MOVLW  84
020EC:  MOVWF  x13
020EE:  MOVFF  5A5,81A
020F2:  MOVFF  5A4,819
020F6:  MOVFF  5A3,818
020FA:  MOVFF  5A2,817
020FE:  MOVLB  0
02100:  CALL   1572
02104:  BNC   214C
....................       mEstp=10;write_eeprom(0,10);delay_ms(20); 
02106:  MOVLB  5
02108:  CLRF   xA5
0210A:  CLRF   xA4
0210C:  MOVLW  20
0210E:  MOVWF  xA3
02110:  MOVLW  82
02112:  MOVWF  xA2
02114:  CLRF   FAA
02116:  CLRF   FA9
02118:  MOVLW  0A
0211A:  MOVWF  FA8
0211C:  BCF    FA6.6
0211E:  BCF    FA6.7
02120:  BSF    FA6.2
02122:  MOVF   FF2,W
02124:  MOVWF  00
02126:  BCF    FF2.6
02128:  BCF    FF2.7
0212A:  MOVLB  F
0212C:  MOVLW  55
0212E:  MOVWF  FA7
02130:  MOVLW  AA
02132:  MOVWF  FA7
02134:  BSF    FA6.1
02136:  BTFSC  FA6.1
02138:  BRA    2136
0213A:  BCF    FA6.2
0213C:  MOVF   00,W
0213E:  IORWF  FF2,F
02140:  MOVLW  14
02142:  MOVLB  7
02144:  MOVWF  xE8
02146:  MOVLB  0
02148:  CALL   1110
....................    } 
....................    if(hEstp>99){ 
0214C:  MOVLB  8
0214E:  CLRF   x16
02150:  CLRF   x15
02152:  MOVLW  46
02154:  MOVWF  x14
02156:  MOVLW  85
02158:  MOVWF  x13
0215A:  MOVFF  5A9,81A
0215E:  MOVFF  5A8,819
02162:  MOVFF  5A7,818
02166:  MOVFF  5A6,817
0216A:  MOVLB  0
0216C:  CALL   1572
02170:  BNC   21BA
....................       hEstp=10;write_eeprom(1,10);delay_ms(20); 
02172:  MOVLB  5
02174:  CLRF   xA9
02176:  CLRF   xA8
02178:  MOVLW  20
0217A:  MOVWF  xA7
0217C:  MOVLW  82
0217E:  MOVWF  xA6
02180:  CLRF   FAA
02182:  MOVLW  01
02184:  MOVWF  FA9
02186:  MOVLW  0A
02188:  MOVWF  FA8
0218A:  BCF    FA6.6
0218C:  BCF    FA6.7
0218E:  BSF    FA6.2
02190:  MOVF   FF2,W
02192:  MOVWF  00
02194:  BCF    FF2.6
02196:  BCF    FF2.7
02198:  MOVLB  F
0219A:  MOVLW  55
0219C:  MOVWF  FA7
0219E:  MOVLW  AA
021A0:  MOVWF  FA7
021A2:  BSF    FA6.1
021A4:  BTFSC  FA6.1
021A6:  BRA    21A4
021A8:  BCF    FA6.2
021AA:  MOVF   00,W
021AC:  IORWF  FF2,F
021AE:  MOVLW  14
021B0:  MOVLB  7
021B2:  MOVWF  xE8
021B4:  MOVLB  0
021B6:  CALL   1110
....................    } 
....................    if(Password[0]>9 || Password[0]<0){ 
021BA:  MOVLB  5
021BC:  BTFSC  xE8.7
021BE:  BRA    21C6
021C0:  MOVF   xE8,W
021C2:  SUBLW  09
021C4:  BNC   21CC
021C6:  BTFSC  xE8.7
021C8:  BRA    21CC
021CA:  BRA    2208
....................       Password[0]=0;write_eeprom(10,0);delay_ms(20); 
021CC:  CLRF   xE8
021CE:  CLRF   FAA
021D0:  MOVLW  0A
021D2:  MOVWF  FA9
021D4:  CLRF   FA8
021D6:  BCF    FA6.6
021D8:  BCF    FA6.7
021DA:  BSF    FA6.2
021DC:  MOVF   FF2,W
021DE:  MOVWF  00
021E0:  BCF    FF2.6
021E2:  BCF    FF2.7
021E4:  MOVLB  F
021E6:  MOVLW  55
021E8:  MOVWF  FA7
021EA:  MOVLW  AA
021EC:  MOVWF  FA7
021EE:  BSF    FA6.1
021F0:  BTFSC  FA6.1
021F2:  BRA    21F0
021F4:  BCF    FA6.2
021F6:  MOVF   00,W
021F8:  IORWF  FF2,F
021FA:  MOVLW  14
021FC:  MOVLB  7
021FE:  MOVWF  xE8
02200:  MOVLB  0
02202:  CALL   1110
02206:  MOVLB  5
....................    } 
....................    if(Password[1]>9 || Password[1]<0){ 
02208:  BTFSC  xE9.7
0220A:  BRA    2212
0220C:  MOVF   xE9,W
0220E:  SUBLW  09
02210:  BNC   2218
02212:  BTFSC  xE9.7
02214:  BRA    2218
02216:  BRA    2254
....................       Password[1]=0;write_eeprom(11,0);delay_ms(20); 
02218:  CLRF   xE9
0221A:  CLRF   FAA
0221C:  MOVLW  0B
0221E:  MOVWF  FA9
02220:  CLRF   FA8
02222:  BCF    FA6.6
02224:  BCF    FA6.7
02226:  BSF    FA6.2
02228:  MOVF   FF2,W
0222A:  MOVWF  00
0222C:  BCF    FF2.6
0222E:  BCF    FF2.7
02230:  MOVLB  F
02232:  MOVLW  55
02234:  MOVWF  FA7
02236:  MOVLW  AA
02238:  MOVWF  FA7
0223A:  BSF    FA6.1
0223C:  BTFSC  FA6.1
0223E:  BRA    223C
02240:  BCF    FA6.2
02242:  MOVF   00,W
02244:  IORWF  FF2,F
02246:  MOVLW  14
02248:  MOVLB  7
0224A:  MOVWF  xE8
0224C:  MOVLB  0
0224E:  CALL   1110
02252:  MOVLB  5
....................    } 
....................    if(Password[2]>9 || Password[2]<0){ 
02254:  BTFSC  xEA.7
02256:  BRA    225E
02258:  MOVF   xEA,W
0225A:  SUBLW  09
0225C:  BNC   2264
0225E:  BTFSC  xEA.7
02260:  BRA    2264
02262:  BRA    22A0
....................       Password[2]=0;write_eeprom(12,0);delay_ms(20); 
02264:  CLRF   xEA
02266:  CLRF   FAA
02268:  MOVLW  0C
0226A:  MOVWF  FA9
0226C:  CLRF   FA8
0226E:  BCF    FA6.6
02270:  BCF    FA6.7
02272:  BSF    FA6.2
02274:  MOVF   FF2,W
02276:  MOVWF  00
02278:  BCF    FF2.6
0227A:  BCF    FF2.7
0227C:  MOVLB  F
0227E:  MOVLW  55
02280:  MOVWF  FA7
02282:  MOVLW  AA
02284:  MOVWF  FA7
02286:  BSF    FA6.1
02288:  BTFSC  FA6.1
0228A:  BRA    2288
0228C:  BCF    FA6.2
0228E:  MOVF   00,W
02290:  IORWF  FF2,F
02292:  MOVLW  14
02294:  MOVLB  7
02296:  MOVWF  xE8
02298:  MOVLB  0
0229A:  CALL   1110
0229E:  MOVLB  5
....................    } 
....................    if(Password[3]>9 || Password[3]<0){ 
022A0:  BTFSC  xEB.7
022A2:  BRA    22AA
022A4:  MOVF   xEB,W
022A6:  SUBLW  09
022A8:  BNC   22B0
022AA:  BTFSC  xEB.7
022AC:  BRA    22B0
022AE:  BRA    22EA
....................       Password[3]=0;write_eeprom(13,0);delay_ms(20); 
022B0:  CLRF   xEB
022B2:  CLRF   FAA
022B4:  MOVLW  0D
022B6:  MOVWF  FA9
022B8:  CLRF   FA8
022BA:  BCF    FA6.6
022BC:  BCF    FA6.7
022BE:  BSF    FA6.2
022C0:  MOVF   FF2,W
022C2:  MOVWF  00
022C4:  BCF    FF2.6
022C6:  BCF    FF2.7
022C8:  MOVLB  F
022CA:  MOVLW  55
022CC:  MOVWF  FA7
022CE:  MOVLW  AA
022D0:  MOVWF  FA7
022D2:  BSF    FA6.1
022D4:  BTFSC  FA6.1
022D6:  BRA    22D4
022D8:  BCF    FA6.2
022DA:  MOVF   00,W
022DC:  IORWF  FF2,F
022DE:  MOVLW  14
022E0:  MOVLB  7
022E2:  MOVWF  xE8
022E4:  MOVLB  0
022E6:  CALL   1110
....................    } 
....................    if(Setpoint>60.0){ 
022EA:  MOVLB  8
022EC:  CLRF   x16
022EE:  CLRF   x15
022F0:  MOVLW  70
022F2:  MOVWF  x14
022F4:  MOVLW  84
022F6:  MOVWF  x13
022F8:  MOVFF  62F,81A
022FC:  MOVFF  62E,819
02300:  MOVFF  62D,818
02304:  MOVFF  62C,817
02308:  MOVLB  0
0230A:  CALL   1572
0230E:  BNC   2390
....................       Setpoint=30.0;write_eeprom(80,30);delay_ms(20);write_eeprom(81,0);delay_ms(20); 
02310:  MOVLB  6
02312:  CLRF   x2F
02314:  CLRF   x2E
02316:  MOVLW  70
02318:  MOVWF  x2D
0231A:  MOVLW  83
0231C:  MOVWF  x2C
0231E:  CLRF   FAA
02320:  MOVLW  50
02322:  MOVWF  FA9
02324:  MOVLW  1E
02326:  MOVWF  FA8
02328:  BCF    FA6.6
0232A:  BCF    FA6.7
0232C:  BSF    FA6.2
0232E:  MOVF   FF2,W
02330:  MOVWF  00
02332:  BCF    FF2.6
02334:  BCF    FF2.7
02336:  MOVLB  F
02338:  MOVLW  55
0233A:  MOVWF  FA7
0233C:  MOVLW  AA
0233E:  MOVWF  FA7
02340:  BSF    FA6.1
02342:  BTFSC  FA6.1
02344:  BRA    2342
02346:  BCF    FA6.2
02348:  MOVF   00,W
0234A:  IORWF  FF2,F
0234C:  MOVLW  14
0234E:  MOVLB  7
02350:  MOVWF  xE8
02352:  MOVLB  0
02354:  CALL   1110
02358:  CLRF   FAA
0235A:  MOVLW  51
0235C:  MOVWF  FA9
0235E:  CLRF   FA8
02360:  BCF    FA6.6
02362:  BCF    FA6.7
02364:  BSF    FA6.2
02366:  MOVF   FF2,W
02368:  MOVWF  00
0236A:  BCF    FF2.6
0236C:  BCF    FF2.7
0236E:  MOVLB  F
02370:  MOVLW  55
02372:  MOVWF  FA7
02374:  MOVLW  AA
02376:  MOVWF  FA7
02378:  BSF    FA6.1
0237A:  BTFSC  FA6.1
0237C:  BRA    237A
0237E:  BCF    FA6.2
02380:  MOVF   00,W
02382:  IORWF  FF2,F
02384:  MOVLW  14
02386:  MOVLB  7
02388:  MOVWF  xE8
0238A:  MOVLB  0
0238C:  CALL   1110
....................    } 
....................    if(SetpointH>90.0 || SetpointH<10.0){ 
02390:  MOVLB  8
02392:  CLRF   x16
02394:  CLRF   x15
02396:  MOVLW  34
02398:  MOVWF  x14
0239A:  MOVLW  85
0239C:  MOVWF  x13
0239E:  MOVFF  637,81A
023A2:  MOVFF  636,819
023A6:  MOVFF  635,818
023AA:  MOVFF  634,817
023AE:  MOVLB  0
023B0:  CALL   1572
023B4:  BC    23DC
023B6:  MOVFF  637,816
023BA:  MOVFF  636,815
023BE:  MOVFF  635,814
023C2:  MOVFF  634,813
023C6:  MOVLB  8
023C8:  CLRF   x1A
023CA:  CLRF   x19
023CC:  MOVLW  20
023CE:  MOVWF  x18
023D0:  MOVLW  82
023D2:  MOVWF  x17
023D4:  MOVLB  0
023D6:  CALL   1572
023DA:  BNC   245C
....................       SetpointH=50.0;write_eeprom(82,50);delay_ms(20);write_eeprom(83,0);delay_ms(20); 
023DC:  MOVLB  6
023DE:  CLRF   x37
023E0:  CLRF   x36
023E2:  MOVLW  48
023E4:  MOVWF  x35
023E6:  MOVLW  84
023E8:  MOVWF  x34
023EA:  CLRF   FAA
023EC:  MOVLW  52
023EE:  MOVWF  FA9
023F0:  MOVLW  32
023F2:  MOVWF  FA8
023F4:  BCF    FA6.6
023F6:  BCF    FA6.7
023F8:  BSF    FA6.2
023FA:  MOVF   FF2,W
023FC:  MOVWF  00
023FE:  BCF    FF2.6
02400:  BCF    FF2.7
02402:  MOVLB  F
02404:  MOVLW  55
02406:  MOVWF  FA7
02408:  MOVLW  AA
0240A:  MOVWF  FA7
0240C:  BSF    FA6.1
0240E:  BTFSC  FA6.1
02410:  BRA    240E
02412:  BCF    FA6.2
02414:  MOVF   00,W
02416:  IORWF  FF2,F
02418:  MOVLW  14
0241A:  MOVLB  7
0241C:  MOVWF  xE8
0241E:  MOVLB  0
02420:  CALL   1110
02424:  CLRF   FAA
02426:  MOVLW  53
02428:  MOVWF  FA9
0242A:  CLRF   FA8
0242C:  BCF    FA6.6
0242E:  BCF    FA6.7
02430:  BSF    FA6.2
02432:  MOVF   FF2,W
02434:  MOVWF  00
02436:  BCF    FF2.6
02438:  BCF    FF2.7
0243A:  MOVLB  F
0243C:  MOVLW  55
0243E:  MOVWF  FA7
02440:  MOVLW  AA
02442:  MOVWF  FA7
02444:  BSF    FA6.1
02446:  BTFSC  FA6.1
02448:  BRA    2446
0244A:  BCF    FA6.2
0244C:  MOVF   00,W
0244E:  IORWF  FF2,F
02450:  MOVLW  14
02452:  MOVLB  7
02454:  MOVWF  xE8
02456:  MOVLB  0
02458:  CALL   1110
....................    } 
....................    if(Ganancia>40){ 
0245C:  MOVLB  8
0245E:  CLRF   x16
02460:  CLRF   x15
02462:  MOVLW  20
02464:  MOVWF  x14
02466:  MOVLW  84
02468:  MOVWF  x13
0246A:  MOVFF  60B,81A
0246E:  MOVFF  60A,819
02472:  MOVFF  609,818
02476:  MOVFF  608,817
0247A:  MOVLB  0
0247C:  CALL   1572
02480:  BNC   24C8
....................       Ganancia=2;write_eeprom(30,2);delay_ms(20); 
02482:  MOVLB  6
02484:  CLRF   x0B
02486:  CLRF   x0A
02488:  CLRF   x09
0248A:  MOVLW  80
0248C:  MOVWF  x08
0248E:  CLRF   FAA
02490:  MOVLW  1E
02492:  MOVWF  FA9
02494:  MOVLW  02
02496:  MOVWF  FA8
02498:  BCF    FA6.6
0249A:  BCF    FA6.7
0249C:  BSF    FA6.2
0249E:  MOVF   FF2,W
024A0:  MOVWF  00
024A2:  BCF    FF2.6
024A4:  BCF    FF2.7
024A6:  MOVLB  F
024A8:  MOVLW  55
024AA:  MOVWF  FA7
024AC:  MOVLW  AA
024AE:  MOVWF  FA7
024B0:  BSF    FA6.1
024B2:  BTFSC  FA6.1
024B4:  BRA    24B2
024B6:  BCF    FA6.2
024B8:  MOVF   00,W
024BA:  IORWF  FF2,F
024BC:  MOVLW  14
024BE:  MOVLB  7
024C0:  MOVWF  xE8
024C2:  MOVLB  0
024C4:  CALL   1110
....................    } 
....................    if(Derivativo>80){ 
024C8:  MOVLB  5
024CA:  MOVF   x97,W
024CC:  SUBLW  50
024CE:  BC    2510
....................       Derivativo=80;write_eeprom(31,80);delay_ms(20); 
024D0:  MOVLW  50
024D2:  MOVWF  x97
024D4:  CLRF   FAA
024D6:  MOVLW  1F
024D8:  MOVWF  FA9
024DA:  MOVLW  50
024DC:  MOVWF  FA8
024DE:  BCF    FA6.6
024E0:  BCF    FA6.7
024E2:  BSF    FA6.2
024E4:  MOVF   FF2,W
024E6:  MOVWF  00
024E8:  BCF    FF2.6
024EA:  BCF    FF2.7
024EC:  MOVLB  F
024EE:  MOVLW  55
024F0:  MOVWF  FA7
024F2:  MOVLW  AA
024F4:  MOVWF  FA7
024F6:  BSF    FA6.1
024F8:  BTFSC  FA6.1
024FA:  BRA    24F8
024FC:  BCF    FA6.2
024FE:  MOVF   00,W
02500:  IORWF  FF2,F
02502:  MOVLW  14
02504:  MOVLB  7
02506:  MOVWF  xE8
02508:  MOVLB  0
0250A:  CALL   1110
0250E:  MOVLB  5
....................    } 
....................    if(Integral>4){ 
02510:  MOVF   x98,W
02512:  SUBLW  04
02514:  BC    2554
....................       Integral=1;write_eeprom(32,1);delay_ms(20); 
02516:  MOVLW  01
02518:  MOVWF  x98
0251A:  CLRF   FAA
0251C:  MOVLW  20
0251E:  MOVWF  FA9
02520:  MOVLW  01
02522:  MOVWF  FA8
02524:  BCF    FA6.6
02526:  BCF    FA6.7
02528:  BSF    FA6.2
0252A:  MOVF   FF2,W
0252C:  MOVWF  00
0252E:  BCF    FF2.6
02530:  BCF    FF2.7
02532:  MOVLB  F
02534:  MOVLW  55
02536:  MOVWF  FA7
02538:  MOVLW  AA
0253A:  MOVWF  FA7
0253C:  BSF    FA6.1
0253E:  BTFSC  FA6.1
02540:  BRA    253E
02542:  BCF    FA6.2
02544:  MOVF   00,W
02546:  IORWF  FF2,F
02548:  MOVLW  14
0254A:  MOVLB  7
0254C:  MOVWF  xE8
0254E:  MOVLB  0
02550:  CALL   1110
....................    } 
....................    if(Tciclo>40){ 
02554:  MOVLB  8
02556:  CLRF   x16
02558:  CLRF   x15
0255A:  MOVLW  20
0255C:  MOVWF  x14
0255E:  MOVLW  84
02560:  MOVWF  x13
02562:  MOVFF  5F3,81A
02566:  MOVFF  5F2,819
0256A:  MOVFF  5F1,818
0256E:  MOVFF  5F0,817
02572:  MOVLB  0
02574:  CALL   1572
02578:  BNC   25C2
....................       Tciclo=5;write_eeprom(33,5);delay_ms(20); 
0257A:  MOVLB  5
0257C:  CLRF   xF3
0257E:  CLRF   xF2
02580:  MOVLW  20
02582:  MOVWF  xF1
02584:  MOVLW  81
02586:  MOVWF  xF0
02588:  CLRF   FAA
0258A:  MOVLW  21
0258C:  MOVWF  FA9
0258E:  MOVLW  05
02590:  MOVWF  FA8
02592:  BCF    FA6.6
02594:  BCF    FA6.7
02596:  BSF    FA6.2
02598:  MOVF   FF2,W
0259A:  MOVWF  00
0259C:  BCF    FF2.6
0259E:  BCF    FF2.7
025A0:  MOVLB  F
025A2:  MOVLW  55
025A4:  MOVWF  FA7
025A6:  MOVLW  AA
025A8:  MOVWF  FA7
025AA:  BSF    FA6.1
025AC:  BTFSC  FA6.1
025AE:  BRA    25AC
025B0:  BCF    FA6.2
025B2:  MOVF   00,W
025B4:  IORWF  FF2,F
025B6:  MOVLW  14
025B8:  MOVLB  7
025BA:  MOVWF  xE8
025BC:  MOVLB  0
025BE:  CALL   1110
....................    } 
....................    if(Ajuste>100){ 
025C2:  MOVLB  5
025C4:  MOVF   x8E,W
025C6:  SUBLW  64
025C8:  BC    2606
....................       Ajuste=0;write_eeprom(34,0);delay_ms(20); 
025CA:  CLRF   x8E
025CC:  CLRF   FAA
025CE:  MOVLW  22
025D0:  MOVWF  FA9
025D2:  CLRF   FA8
025D4:  BCF    FA6.6
025D6:  BCF    FA6.7
025D8:  BSF    FA6.2
025DA:  MOVF   FF2,W
025DC:  MOVWF  00
025DE:  BCF    FF2.6
025E0:  BCF    FF2.7
025E2:  MOVLB  F
025E4:  MOVLW  55
025E6:  MOVWF  FA7
025E8:  MOVLW  AA
025EA:  MOVWF  FA7
025EC:  BSF    FA6.1
025EE:  BTFSC  FA6.1
025F0:  BRA    25EE
025F2:  BCF    FA6.2
025F4:  MOVF   00,W
025F6:  IORWF  FF2,F
025F8:  MOVLW  14
025FA:  MOVLB  7
025FC:  MOVWF  xE8
025FE:  MOVLB  0
02600:  CALL   1110
02604:  MOVLB  5
....................    } 
....................    if(Ajusten>100){ 
02606:  MOVF   x8F,W
02608:  SUBLW  64
0260A:  BC    2648
....................       Ajusten=0;write_eeprom(35,0);delay_ms(20); 
0260C:  CLRF   x8F
0260E:  CLRF   FAA
02610:  MOVLW  23
02612:  MOVWF  FA9
02614:  CLRF   FA8
02616:  BCF    FA6.6
02618:  BCF    FA6.7
0261A:  BSF    FA6.2
0261C:  MOVF   FF2,W
0261E:  MOVWF  00
02620:  BCF    FF2.6
02622:  BCF    FF2.7
02624:  MOVLB  F
02626:  MOVLW  55
02628:  MOVWF  FA7
0262A:  MOVLW  AA
0262C:  MOVWF  FA7
0262E:  BSF    FA6.1
02630:  BTFSC  FA6.1
02632:  BRA    2630
02634:  BCF    FA6.2
02636:  MOVF   00,W
02638:  IORWF  FF2,F
0263A:  MOVLW  14
0263C:  MOVLB  7
0263E:  MOVWF  xE8
02640:  MOVLB  0
02642:  CALL   1110
02646:  MOVLB  5
....................    } 
....................    if(MediaMovil>80){ 
02648:  MOVF   x90,W
0264A:  SUBLW  50
0264C:  BC    268E
....................       MediaMovil=80;write_eeprom(36,80);delay_ms(20); 
0264E:  MOVLW  50
02650:  MOVWF  x90
02652:  CLRF   FAA
02654:  MOVLW  24
02656:  MOVWF  FA9
02658:  MOVLW  50
0265A:  MOVWF  FA8
0265C:  BCF    FA6.6
0265E:  BCF    FA6.7
02660:  BSF    FA6.2
02662:  MOVF   FF2,W
02664:  MOVWF  00
02666:  BCF    FF2.6
02668:  BCF    FF2.7
0266A:  MOVLB  F
0266C:  MOVLW  55
0266E:  MOVWF  FA7
02670:  MOVLW  AA
02672:  MOVWF  FA7
02674:  BSF    FA6.1
02676:  BTFSC  FA6.1
02678:  BRA    2676
0267A:  BCF    FA6.2
0267C:  MOVF   00,W
0267E:  IORWF  FF2,F
02680:  MOVLW  14
02682:  MOVLB  7
02684:  MOVWF  xE8
02686:  MOVLB  0
02688:  CALL   1110
0268C:  MOVLB  5
....................    } 
.................... } 
0268E:  MOVLB  0
02690:  GOTO   7AEA (RETURN)
....................  
.................... void DelayPuls(){ 
....................    delay_ms(2); 
.................... } 
....................  
.................... void CuentaTiempo(){ 
....................       if(tinicio>=60){ 
*
0743A:  MOVLB  5
0743C:  MOVF   xCF,F
0743E:  BNZ   7446
07440:  MOVF   xCE,W
07442:  SUBLW  3B
07444:  BC    74E4
....................          tinicio=0; 
07446:  CLRF   xCF
07448:  CLRF   xCE
....................          mEst+=1.0; 
0744A:  BCF    FD8.1
0744C:  MOVFF  5B5,81A
07450:  MOVFF  5B4,819
07454:  MOVFF  5B3,818
07458:  MOVFF  5B2,817
0745C:  MOVLB  8
0745E:  CLRF   x1E
07460:  CLRF   x1D
07462:  CLRF   x1C
07464:  MOVLW  7F
07466:  MOVWF  x1B
07468:  MOVLB  0
0746A:  CALL   1296
0746E:  MOVFF  03,5B5
07472:  MOVFF  02,5B4
07476:  MOVFF  01,5B3
0747A:  MOVFF  00,5B2
....................          if(mEst>59){ 
0747E:  MOVLB  8
07480:  CLRF   x16
07482:  CLRF   x15
07484:  MOVLW  6C
07486:  MOVWF  x14
07488:  MOVLW  84
0748A:  MOVWF  x13
0748C:  MOVFF  5B5,81A
07490:  MOVFF  5B4,819
07494:  MOVFF  5B3,818
07498:  MOVFF  5B2,817
0749C:  MOVLB  0
0749E:  CALL   1572
074A2:  BNC   74E2
....................             mEst=0; 
074A4:  MOVLB  5
074A6:  CLRF   xB5
074A8:  CLRF   xB4
074AA:  CLRF   xB3
074AC:  CLRF   xB2
....................             hEst+=1.0; 
074AE:  BCF    FD8.1
074B0:  MOVFF  5B9,81A
074B4:  MOVFF  5B8,819
074B8:  MOVFF  5B7,818
074BC:  MOVFF  5B6,817
074C0:  MOVLB  8
074C2:  CLRF   x1E
074C4:  CLRF   x1D
074C6:  CLRF   x1C
074C8:  MOVLW  7F
074CA:  MOVWF  x1B
074CC:  MOVLB  0
074CE:  CALL   1296
074D2:  MOVFF  03,5B9
074D6:  MOVFF  02,5B8
074DA:  MOVFF  01,5B7
074DE:  MOVFF  00,5B6
074E2:  MOVLB  5
....................          } 
....................       } 
.................... } 
074E4:  MOVLB  0
074E6:  GOTO   C86C (RETURN)
....................  
.................... void LeeDisplay(void){ 
....................    if(Dato_Exitoso==5){ 
*
045E2:  MOVLB  5
045E4:  MOVF   xC6,W
045E6:  SUBLW  05
045E8:  BTFSS  FD8.2
045EA:  BRA    4734
....................          RX_Buffer[0]=RX_Buffer2[0]; 
045EC:  MOVFF  35,2A
....................          RX_Buffer[1]=RX_Buffer2[1]; 
045F0:  MOVFF  36,2B
....................          RX_Buffer[2]=RX_Buffer2[2]; 
045F4:  MOVFF  37,2C
....................          RX_Buffer[3]=RX_Buffer2[3]; 
045F8:  MOVFF  38,2D
....................          RX_Buffer[4]=RX_Buffer2[4]; 
045FC:  MOVFF  39,2E
....................          RX_Buffer[5]=RX_Buffer2[5]; 
04600:  MOVFF  3A,2F
....................          RX_Buffer[6]=RX_Buffer2[6]; 
04604:  MOVFF  3B,30
....................          RX_Buffer[7]=RX_Buffer2[7]; 
04608:  MOVFF  3C,31
....................          RX_Buffer[8]=RX_Buffer2[8]; 
0460C:  MOVFF  3D,32
....................          RX_Buffer[9]=RX_Buffer2[9]; 
04610:  MOVFF  3E,33
....................           
....................       if(RX_Buffer[3]==0x01){// Pregunta por la pagina en la que esta el display,01 es Contrasea de Acceso 
04614:  DECFSZ 2D,W
04616:  BRA    4626
....................          Menu=0; 
04618:  CLRF   xBE
....................          if(MenuAntt!=Menu) 
0461A:  MOVF   xBE,W
0461C:  SUBWF  xC7,W
0461E:  BZ    4624
....................             MenuAntt=Menu; 
04620:  MOVFF  5BE,5C7
....................       }else if(RX_Buffer[3]==0x02){//02 es Menu Principal con PantallaPriincipal=0, y con PantallaPrincipal=1 es Ciclo Libre 
04624:  BRA    4732
04626:  MOVF   2D,W
04628:  SUBLW  02
0462A:  BNZ   463C
....................          Menu=1; 
0462C:  MOVLW  01
0462E:  MOVWF  xBE
....................          if(MenuAntt!=Menu) 
04630:  MOVF   xBE,W
04632:  SUBWF  xC7,W
04634:  BZ    463A
....................             MenuAntt=Menu; 
04636:  MOVFF  5BE,5C7
....................       }else if(RX_Buffer[3]==0x04){//04 es Tiempo  
0463A:  BRA    4732
0463C:  MOVF   2D,W
0463E:  SUBLW  04
04640:  BNZ   4652
....................          Menu=2; 
04642:  MOVLW  02
04644:  MOVWF  xBE
....................          if(MenuAntt!=Menu) 
04646:  MOVF   xBE,W
04648:  SUBWF  xC7,W
0464A:  BZ    4650
....................             MenuAntt=Menu; 
0464C:  MOVFF  5BE,5C7
....................       }else if(RX_Buffer[3]==0x05){//05 es Temperatura 
04650:  BRA    4732
04652:  MOVF   2D,W
04654:  SUBLW  05
04656:  BNZ   4668
....................          Menu=3; 
04658:  MOVLW  03
0465A:  MOVWF  xBE
....................          if(MenuAntt!=Menu) 
0465C:  MOVF   xBE,W
0465E:  SUBWF  xC7,W
04660:  BZ    4666
....................             MenuAntt=Menu; 
04662:  MOVFF  5BE,5C7
....................       }else if(RX_Buffer[3]==0x06){//06 es Humedad 
04666:  BRA    4732
04668:  MOVF   2D,W
0466A:  SUBLW  06
0466C:  BNZ   467E
....................          Menu=4; 
0466E:  MOVLW  04
04670:  MOVWF  xBE
....................          if(MenuAntt!=Menu) 
04672:  MOVF   xBE,W
04674:  SUBWF  xC7,W
04676:  BZ    467C
....................             MenuAntt=Menu; 
04678:  MOVFF  5BE,5C7
....................       }else if(RX_Buffer[3]==0x07){//07 es Test de Componentes 
0467C:  BRA    4732
0467E:  MOVF   2D,W
04680:  SUBLW  07
04682:  BNZ   4694
....................          Menu=6; 
04684:  MOVLW  06
04686:  MOVWF  xBE
....................          if(MenuAntt!=Menu) 
04688:  MOVF   xBE,W
0468A:  SUBWF  xC7,W
0468C:  BZ    4692
....................             MenuAntt=Menu; 
0468E:  MOVFF  5BE,5C7
....................       }else if(RX_Buffer[3]==0x08){//08 es Fecha y hora 
04692:  BRA    4732
04694:  MOVF   2D,W
04696:  SUBLW  08
04698:  BNZ   46AA
....................          Menu=7; 
0469A:  MOVLW  07
0469C:  MOVWF  xBE
....................          if(MenuAntt!=Menu) 
0469E:  MOVF   xBE,W
046A0:  SUBWF  xC7,W
046A2:  BZ    46A8
....................             MenuAntt=Menu; 
046A4:  MOVFF  5BE,5C7
....................       }else if(RX_Buffer[3]==0x09){//09 es Ciclos Personalizados 
046A8:  BRA    4732
046AA:  MOVF   2D,W
046AC:  SUBLW  09
046AE:  BNZ   46C0
....................          Menu=8; 
046B0:  MOVLW  08
046B2:  MOVWF  xBE
....................          if(MenuAntt!=Menu) 
046B4:  MOVF   xBE,W
046B6:  SUBWF  xC7,W
046B8:  BZ    46BE
....................             MenuAntt=Menu; 
046BA:  MOVFF  5BE,5C7
....................       }else if(RX_Buffer[3]==0x0f){//0f es Recibe caracteres de contrasea desde display 
046BE:  BRA    4732
046C0:  MOVF   2D,W
046C2:  SUBLW  0F
046C4:  BNZ   46C8
....................           
....................       }else if(RX_Buffer[3]==0x1a){//1a es Menu de Funcionamiento 
046C6:  BRA    4732
046C8:  MOVF   2D,W
046CA:  SUBLW  1A
046CC:  BNZ   46DE
....................          Menu=20; 
046CE:  MOVLW  14
046D0:  MOVWF  xBE
....................          if(MenuAntt!=Menu) 
046D2:  MOVF   xBE,W
046D4:  SUBWF  xC7,W
046D6:  BZ    46DC
....................             MenuAntt=Menu; 
046D8:  MOVFF  5BE,5C7
....................       }else if(RX_Buffer[3]==0x1b){//1b es Menu de clave correcta 
046DC:  BRA    4732
046DE:  MOVF   2D,W
046E0:  SUBLW  1B
046E2:  BNZ   46F4
....................          Menu=15; 
046E4:  MOVLW  0F
046E6:  MOVWF  xBE
....................          if(MenuAntt!=Menu) 
046E8:  MOVF   xBE,W
046EA:  SUBWF  xC7,W
046EC:  BZ    46F2
....................             MenuAntt=Menu; 
046EE:  MOVFF  5BE,5C7
....................       }else if(RX_Buffer[3]==0x1c){//1c es Menu de clave incorrecta 
046F2:  BRA    4732
046F4:  MOVF   2D,W
046F6:  SUBLW  1C
046F8:  BNZ   470A
....................          Menu=16; 
046FA:  MOVLW  10
046FC:  MOVWF  xBE
....................          if(MenuAntt!=Menu) 
046FE:  MOVF   xBE,W
04700:  SUBWF  xC7,W
04702:  BZ    4708
....................             MenuAntt=Menu; 
04704:  MOVFF  5BE,5C7
....................       }else if(RX_Buffer[3]==0x2c){//2c es Menu de Configuracion de Parametros 
04708:  BRA    4732
0470A:  MOVF   2D,W
0470C:  SUBLW  2C
0470E:  BNZ   4720
....................          Menu=100; 
04710:  MOVLW  64
04712:  MOVWF  xBE
....................          if(MenuAntt!=Menu) 
04714:  MOVF   xBE,W
04716:  SUBWF  xC7,W
04718:  BZ    471E
....................             MenuAntt=Menu; 
0471A:  MOVFF  5BE,5C7
....................       }else if(RX_Buffer[3]==0xcc){//cc es Menu de Bienvenida 
0471E:  BRA    4732
04720:  MOVF   2D,W
04722:  SUBLW  CC
04724:  BNZ   4732
....................          Menu=240; 
04726:  MOVLW  F0
04728:  MOVWF  xBE
....................          if(MenuAntt!=240) 
0472A:  MOVF   xC7,W
0472C:  SUBLW  F0
0472E:  BZ    4732
....................             reset_cpu(); 
04730:  RESET
....................       } 
....................    }else{ 
04732:  BRA    4740
....................       for(z=0;z<RX_BUFFER_SIZE;z++){ 
04734:  CLRF   x99
04736:  MOVF   x99,W
04738:  SUBLW  09
0473A:  BNC   4740
....................             //Rx_Buffer[z]=0; 
....................             //Rx_Buffer2[z]=0; 
....................          } 
0473C:  INCF   x99,F
0473E:  BRA    4736
....................    } 
.................... } 
04740:  MOVLB  0
04742:  GOTO   7F0C (RETURN)
....................  
.................... void ApagaSalidas(){ 
....................    Buzzer_off; 
04746:  BCF    F8C.7
04748:  BCF    F95.7
....................    SSR_off; 
0474A:  BCF    F8B.2
0474C:  BCF    F94.2
....................    SSR2_off; 
0474E:  BCF    F8B.1
04750:  BCF    F94.1
....................    SSR3_off; 
04752:  BCF    F8B.0
04754:  BCF    F94.0
....................    Rele1_off; 
04756:  BCF    F8B.3
04758:  BCF    F94.3
....................    Rele2_off; 
0475A:  BCF    F8C.0
0475C:  BCF    F95.0
....................    Rele3_off; 
0475E:  BCF    F8C.1
04760:  BCF    F95.1
....................    Rele4_off; 
04762:  BCF    F8B.5
04764:  BCF    F94.5
....................    Rele5_off; 
04766:  BCF    F8B.4
04768:  BCF    F94.4
....................    Rele6_off; 
0476A:  BCF    F8C.3
0476C:  BCF    F95.3
....................    Rele7_off;   
0476E:  BCF    F8C.2
04770:  BCF    F95.2
....................    Dehumidificador_off; 
04772:  BCF    F8D.1
04774:  BCF    F96.1
....................    Humidificador_off; 
04776:  BCF    F8D.2
04778:  BCF    F96.2
.................... } 
0477A:  RETLW  00
....................  
.................... void iniciaConteo(){ 
....................    if(flagRampa && Pendiente!=0){ 
*
04DA4:  MOVLB  5
04DA6:  BTFSS  x8B.5
04DA8:  BRA    4DDA
04DAA:  MOVFF  66B,816
04DAE:  MOVFF  66A,815
04DB2:  MOVFF  669,814
04DB6:  MOVFF  668,813
04DBA:  MOVLB  8
04DBC:  CLRF   x1A
04DBE:  CLRF   x19
04DC0:  CLRF   x18
04DC2:  CLRF   x17
04DC4:  MOVLB  0
04DC6:  CALL   1572
04DCA:  BTFSS  FD8.2
04DCC:  BRA    4DD2
04DCE:  MOVLB  5
04DD0:  BRA    4DDA
....................       tiempo_esterilizacion=1; 
04DD2:  MOVLW  01
04DD4:  MOVLB  5
04DD6:  MOVWF  xC3
....................    }else if(flagRampa && Pendiente==0){ 
04DD8:  BRA    4E66
04DDA:  BTFSS  x8B.5
04DDC:  BRA    4E16
04DDE:  MOVFF  66B,816
04DE2:  MOVFF  66A,815
04DE6:  MOVFF  669,814
04DEA:  MOVFF  668,813
04DEE:  MOVLB  8
04DF0:  CLRF   x1A
04DF2:  CLRF   x19
04DF4:  CLRF   x18
04DF6:  CLRF   x17
04DF8:  MOVLB  0
04DFA:  CALL   1572
04DFE:  BTFSC  FD8.2
04E00:  BRA    4E06
04E02:  MOVLB  5
04E04:  BRA    4E16
....................       if(flagTemperatura) 
04E06:  MOVLB  5
04E08:  BTFSS  x8A.7
04E0A:  BRA    4E12
....................          tiempo_esterilizacion=1; 
04E0C:  MOVLW  01
04E0E:  MOVWF  xC3
....................       else 
04E10:  BRA    4E14
....................          tiempo_esterilizacion=0; 
04E12:  CLRF   xC3
....................    }else{ 
04E14:  BRA    4E66
....................       if(!flagControlT && !flagControlH){ 
04E16:  BTFSC  x8B.2
04E18:  BRA    4E22
04E1A:  BTFSC  x8B.3
04E1C:  BRA    4E22
....................          tiempo_esterilizacion=0; 
04E1E:  CLRF   xC3
....................        }else if(flagControlT && !flagControlH){ 
04E20:  BRA    4E66
04E22:  BTFSS  x8B.2
04E24:  BRA    4E38
04E26:  BTFSC  x8B.3
04E28:  BRA    4E38
....................           if(flagTemperatura) 
04E2A:  BTFSS  x8A.7
04E2C:  BRA    4E34
....................              tiempo_esterilizacion=1; 
04E2E:  MOVLW  01
04E30:  MOVWF  xC3
....................           else 
04E32:  BRA    4E36
....................              tiempo_esterilizacion=0; 
04E34:  CLRF   xC3
....................        }else if(!flagControlT && flagControlH){ 
04E36:  BRA    4E66
04E38:  BTFSC  x8B.2
04E3A:  BRA    4E4E
04E3C:  BTFSS  x8B.3
04E3E:  BRA    4E4E
....................          if(flagHumedad) 
04E40:  BTFSS  x8A.6
04E42:  BRA    4E4A
....................             tiempo_esterilizacion=1; 
04E44:  MOVLW  01
04E46:  MOVWF  xC3
....................          else 
04E48:  BRA    4E4C
....................             tiempo_esterilizacion=0; 
04E4A:  CLRF   xC3
....................       }else if(flagControlT && flagControlH){ 
04E4C:  BRA    4E66
04E4E:  BTFSS  x8B.2
04E50:  BRA    4E66
04E52:  BTFSS  x8B.3
04E54:  BRA    4E66
....................          if(flagTemperatura && flagHumedad) 
04E56:  BTFSS  x8A.7
04E58:  BRA    4E64
04E5A:  BTFSS  x8A.6
04E5C:  BRA    4E64
....................             tiempo_esterilizacion=1; 
04E5E:  MOVLW  01
04E60:  MOVWF  xC3
....................          else 
04E62:  BRA    4E66
....................             tiempo_esterilizacion=0; 
04E64:  CLRF   xC3
....................       } 
....................    } 
.................... } 
04E66:  MOVLB  0
04E68:  RETLW  00
....................  
.................... void controlaHumedad(){ 
....................    if(Humidificar){ 
04E6A:  MOVLB  5
04E6C:  BTFSS  x8B.7
04E6E:  BRA    509A
....................       if(Humedad<SetpointH-2.0){ 
04E70:  BSF    FD8.1
04E72:  MOVFF  637,81A
04E76:  MOVFF  636,819
04E7A:  MOVFF  635,818
04E7E:  MOVFF  634,817
04E82:  MOVLB  8
04E84:  CLRF   x1E
04E86:  CLRF   x1D
04E88:  CLRF   x1C
04E8A:  MOVLW  80
04E8C:  MOVWF  x1B
04E8E:  MOVLB  0
04E90:  CALL   1296
04E94:  MOVFF  61F,816
04E98:  MOVFF  61E,815
04E9C:  MOVFF  61D,814
04EA0:  MOVFF  61C,813
04EA4:  MOVFF  03,81A
04EA8:  MOVFF  02,819
04EAC:  MOVFF  01,818
04EB0:  MOVFF  00,817
04EB4:  CALL   1572
04EB8:  BNC   4EEA
....................          printf("statusH.txt=\"Humidificando\""); 
04EBA:  MOVLW  44
04EBC:  MOVWF  FF6
04EBE:  MOVLW  01
04EC0:  MOVWF  FF7
04EC2:  MOVLW  00
04EC4:  MOVWF  FF8
04EC6:  CALL   277A
....................          SendDataDisplay(); 
04ECA:  CALL   27AC
....................          Dehumidificador_off; 
04ECE:  BCF    F8D.1
04ED0:  BCF    F96.1
....................          if(!LEVEL) 
04ED2:  BSF    F93.6
04ED4:  BTFSC  F81.6
04ED6:  BRA    4EDE
....................             Humidificador_on; 
04ED8:  BSF    F8D.2
04EDA:  BCF    F96.2
....................          else 
04EDC:  BRA    4EE2
....................             Humidificador_off; 
04EDE:  BCF    F8D.2
04EE0:  BCF    F96.2
....................          flagHumedad=OFF; 
04EE2:  MOVLB  5
04EE4:  BCF    x8A.6
....................       }else if(Humedad<SetpointH-0.1 && Humedad>SetpointH-1.8){ 
04EE6:  BRA    5094
04EE8:  MOVLB  0
04EEA:  BSF    FD8.1
04EEC:  MOVFF  637,81A
04EF0:  MOVFF  636,819
04EF4:  MOVFF  635,818
04EF8:  MOVFF  634,817
04EFC:  MOVLW  CD
04EFE:  MOVLB  8
04F00:  MOVWF  x1E
04F02:  MOVLW  CC
04F04:  MOVWF  x1D
04F06:  MOVLW  4C
04F08:  MOVWF  x1C
04F0A:  MOVLW  7B
04F0C:  MOVWF  x1B
04F0E:  MOVLB  0
04F10:  CALL   1296
04F14:  MOVFF  61F,816
04F18:  MOVFF  61E,815
04F1C:  MOVFF  61D,814
04F20:  MOVFF  61C,813
04F24:  MOVFF  03,81A
04F28:  MOVFF  02,819
04F2C:  MOVFF  01,818
04F30:  MOVFF  00,817
04F34:  CALL   1572
04F38:  BNC   4FBE
04F3A:  BSF    FD8.1
04F3C:  MOVFF  637,81A
04F40:  MOVFF  636,819
04F44:  MOVFF  635,818
04F48:  MOVFF  634,817
04F4C:  MOVLW  66
04F4E:  MOVLB  8
04F50:  MOVWF  x1E
04F52:  MOVWF  x1D
04F54:  MOVWF  x1C
04F56:  MOVLW  7F
04F58:  MOVWF  x1B
04F5A:  MOVLB  0
04F5C:  CALL   1296
04F60:  MOVFF  03,816
04F64:  MOVFF  02,815
04F68:  MOVFF  01,814
04F6C:  MOVFF  00,813
04F70:  MOVFF  61F,81A
04F74:  MOVFF  61E,819
04F78:  MOVFF  61D,818
04F7C:  MOVFF  61C,817
04F80:  CALL   1572
04F84:  BNC   4FBE
....................          printf("statusH.txt=\"Controlando\""); 
04F86:  MOVLW  60
04F88:  MOVWF  FF6
04F8A:  MOVLW  01
04F8C:  MOVWF  FF7
04F8E:  MOVLW  00
04F90:  MOVWF  FF8
04F92:  CALL   277A
....................          SendDataDisplay(); 
04F96:  CALL   27AC
....................          Dehumidificador_off; 
04F9A:  BCF    F8D.1
04F9C:  BCF    F96.1
....................          if(!LEVEL) 
04F9E:  BSF    F93.6
04FA0:  BTFSC  F81.6
04FA2:  BRA    4FAA
....................             Humidificador_on; 
04FA4:  BSF    F8D.2
04FA6:  BCF    F96.2
....................          else 
04FA8:  BRA    4FAE
....................             Humidificador_off; 
04FAA:  BCF    F8D.2
04FAC:  BCF    F96.2
....................          if(!Infinito)    
04FAE:  MOVLB  5
04FB0:  BTFSC  x8A.3
04FB2:  BRA    4FB8
....................             flagHumedad=ON; 
04FB4:  BSF    x8A.6
....................          else 
04FB6:  BRA    4FBA
....................             flagHumedad=OFF; 
04FB8:  BCF    x8A.6
....................       }else if(Humedad>SetpointH && Humedad<SetpointH+2.0){ 
04FBA:  BRA    5094
04FBC:  MOVLB  0
04FBE:  MOVFF  637,816
04FC2:  MOVFF  636,815
04FC6:  MOVFF  635,814
04FCA:  MOVFF  634,813
04FCE:  MOVFF  61F,81A
04FD2:  MOVFF  61E,819
04FD6:  MOVFF  61D,818
04FDA:  MOVFF  61C,817
04FDE:  CALL   1572
04FE2:  BNC   5046
04FE4:  BCF    FD8.1
04FE6:  MOVFF  637,81A
04FEA:  MOVFF  636,819
04FEE:  MOVFF  635,818
04FF2:  MOVFF  634,817
04FF6:  MOVLB  8
04FF8:  CLRF   x1E
04FFA:  CLRF   x1D
04FFC:  CLRF   x1C
04FFE:  MOVLW  80
05000:  MOVWF  x1B
05002:  MOVLB  0
05004:  CALL   1296
05008:  MOVFF  61F,816
0500C:  MOVFF  61E,815
05010:  MOVFF  61D,814
05014:  MOVFF  61C,813
05018:  MOVFF  03,81A
0501C:  MOVFF  02,819
05020:  MOVFF  01,818
05024:  MOVFF  00,817
05028:  CALL   1572
0502C:  BNC   5046
....................          Humidificador_off; 
0502E:  BCF    F8D.2
05030:  BCF    F96.2
....................          Dehumidificador_off; 
05032:  BCF    F8D.1
05034:  BCF    F96.1
....................          if(!Infinito)    
05036:  MOVLB  5
05038:  BTFSC  x8A.3
0503A:  BRA    5040
....................             flagHumedad=ON; 
0503C:  BSF    x8A.6
....................          else 
0503E:  BRA    5042
....................             flagHumedad=OFF; 
05040:  BCF    x8A.6
....................       }else if(Humedad>SetpointH+2.0){ 
05042:  BRA    5094
05044:  MOVLB  0
05046:  BCF    FD8.1
05048:  MOVFF  637,81A
0504C:  MOVFF  636,819
05050:  MOVFF  635,818
05054:  MOVFF  634,817
05058:  MOVLB  8
0505A:  CLRF   x1E
0505C:  CLRF   x1D
0505E:  CLRF   x1C
05060:  MOVLW  80
05062:  MOVWF  x1B
05064:  MOVLB  0
05066:  CALL   1296
0506A:  MOVFF  03,816
0506E:  MOVFF  02,815
05072:  MOVFF  01,814
05076:  MOVFF  00,813
0507A:  MOVFF  61F,81A
0507E:  MOVFF  61E,819
05082:  MOVFF  61D,818
05086:  MOVFF  61C,817
0508A:  CALL   1572
0508E:  BNC   5096
....................          Humidificar=OFF;  
05090:  MOVLB  5
05092:  BCF    x8B.7
05094:  MOVLB  0
....................       } 
....................    }else{ 
05096:  BRA    52A6
05098:  MOVLB  5
....................       if(Humedad>SetpointH+2.0){ 
0509A:  BCF    FD8.1
0509C:  MOVFF  637,81A
050A0:  MOVFF  636,819
050A4:  MOVFF  635,818
050A8:  MOVFF  634,817
050AC:  MOVLB  8
050AE:  CLRF   x1E
050B0:  CLRF   x1D
050B2:  CLRF   x1C
050B4:  MOVLW  80
050B6:  MOVWF  x1B
050B8:  MOVLB  0
050BA:  CALL   1296
050BE:  MOVFF  03,816
050C2:  MOVFF  02,815
050C6:  MOVFF  01,814
050CA:  MOVFF  00,813
050CE:  MOVFF  61F,81A
050D2:  MOVFF  61E,819
050D6:  MOVFF  61D,818
050DA:  MOVFF  61C,817
050DE:  CALL   1572
050E2:  BNC   5108
....................          printf("statusH.txt=\"Deshumidificando\""); 
050E4:  MOVLW  7A
050E6:  MOVWF  FF6
050E8:  MOVLW  01
050EA:  MOVWF  FF7
050EC:  MOVLW  00
050EE:  MOVWF  FF8
050F0:  CALL   277A
....................          SendDataDisplay(); 
050F4:  CALL   27AC
....................          Dehumidificador_on; 
050F8:  BSF    F8D.1
050FA:  BCF    F96.1
....................          Humidificador_off; 
050FC:  BCF    F8D.2
050FE:  BCF    F96.2
....................          flagHumedad=OFF; 
05100:  MOVLB  5
05102:  BCF    x8A.6
....................       }else if(Humedad>SetpointH && Humedad<SetpointH+1.8){ 
05104:  BRA    52A6
05106:  MOVLB  0
05108:  MOVFF  637,816
0510C:  MOVFF  636,815
05110:  MOVFF  635,814
05114:  MOVFF  634,813
05118:  MOVFF  61F,81A
0511C:  MOVFF  61E,819
05120:  MOVFF  61D,818
05124:  MOVFF  61C,817
05128:  CALL   1572
0512C:  BNC   51A6
0512E:  BCF    FD8.1
05130:  MOVFF  637,81A
05134:  MOVFF  636,819
05138:  MOVFF  635,818
0513C:  MOVFF  634,817
05140:  MOVLW  66
05142:  MOVLB  8
05144:  MOVWF  x1E
05146:  MOVWF  x1D
05148:  MOVWF  x1C
0514A:  MOVLW  7F
0514C:  MOVWF  x1B
0514E:  MOVLB  0
05150:  CALL   1296
05154:  MOVFF  61F,816
05158:  MOVFF  61E,815
0515C:  MOVFF  61D,814
05160:  MOVFF  61C,813
05164:  MOVFF  03,81A
05168:  MOVFF  02,819
0516C:  MOVFF  01,818
05170:  MOVFF  00,817
05174:  CALL   1572
05178:  BNC   51A6
....................          printf("statusH.txt=\"Controlando\""); 
0517A:  MOVLW  9A
0517C:  MOVWF  FF6
0517E:  MOVLW  01
05180:  MOVWF  FF7
05182:  MOVLW  00
05184:  MOVWF  FF8
05186:  CALL   277A
....................          SendDataDisplay(); 
0518A:  CALL   27AC
....................          Dehumidificador_on; 
0518E:  BSF    F8D.1
05190:  BCF    F96.1
....................          Humidificador_off; 
05192:  BCF    F8D.2
05194:  BCF    F96.2
....................          if(!Infinito)    
05196:  MOVLB  5
05198:  BTFSC  x8A.3
0519A:  BRA    51A0
....................             flagHumedad=ON; 
0519C:  BSF    x8A.6
....................          else 
0519E:  BRA    51A2
....................             flagHumedad=OFF; 
051A0:  BCF    x8A.6
....................       }else if(Humedad<SetpointH-0.1 && Humedad>SetpointH-2.0){ 
051A2:  BRA    52A6
051A4:  MOVLB  0
051A6:  BSF    FD8.1
051A8:  MOVFF  637,81A
051AC:  MOVFF  636,819
051B0:  MOVFF  635,818
051B4:  MOVFF  634,817
051B8:  MOVLW  CD
051BA:  MOVLB  8
051BC:  MOVWF  x1E
051BE:  MOVLW  CC
051C0:  MOVWF  x1D
051C2:  MOVLW  4C
051C4:  MOVWF  x1C
051C6:  MOVLW  7B
051C8:  MOVWF  x1B
051CA:  MOVLB  0
051CC:  CALL   1296
051D0:  MOVFF  61F,816
051D4:  MOVFF  61E,815
051D8:  MOVFF  61D,814
051DC:  MOVFF  61C,813
051E0:  MOVFF  03,81A
051E4:  MOVFF  02,819
051E8:  MOVFF  01,818
051EC:  MOVFF  00,817
051F0:  CALL   1572
051F4:  BNC   5258
051F6:  BSF    FD8.1
051F8:  MOVFF  637,81A
051FC:  MOVFF  636,819
05200:  MOVFF  635,818
05204:  MOVFF  634,817
05208:  MOVLB  8
0520A:  CLRF   x1E
0520C:  CLRF   x1D
0520E:  CLRF   x1C
05210:  MOVLW  80
05212:  MOVWF  x1B
05214:  MOVLB  0
05216:  CALL   1296
0521A:  MOVFF  03,816
0521E:  MOVFF  02,815
05222:  MOVFF  01,814
05226:  MOVFF  00,813
0522A:  MOVFF  61F,81A
0522E:  MOVFF  61E,819
05232:  MOVFF  61D,818
05236:  MOVFF  61C,817
0523A:  CALL   1572
0523E:  BNC   5258
....................          Humidificador_off; 
05240:  BCF    F8D.2
05242:  BCF    F96.2
....................          Dehumidificador_off; 
05244:  BCF    F8D.1
05246:  BCF    F96.1
....................          if(!Infinito)    
05248:  MOVLB  5
0524A:  BTFSC  x8A.3
0524C:  BRA    5252
....................             flagHumedad=ON; 
0524E:  BSF    x8A.6
....................          else 
05250:  BRA    5254
....................             flagHumedad=OFF; 
05252:  BCF    x8A.6
....................       }else if(Humedad<SetpointH-2.0){ 
05254:  BRA    52A6
05256:  MOVLB  0
05258:  BSF    FD8.1
0525A:  MOVFF  637,81A
0525E:  MOVFF  636,819
05262:  MOVFF  635,818
05266:  MOVFF  634,817
0526A:  MOVLB  8
0526C:  CLRF   x1E
0526E:  CLRF   x1D
05270:  CLRF   x1C
05272:  MOVLW  80
05274:  MOVWF  x1B
05276:  MOVLB  0
05278:  CALL   1296
0527C:  MOVFF  61F,816
05280:  MOVFF  61E,815
05284:  MOVFF  61D,814
05288:  MOVFF  61C,813
0528C:  MOVFF  03,81A
05290:  MOVFF  02,819
05294:  MOVFF  01,818
05298:  MOVFF  00,817
0529C:  CALL   1572
052A0:  BNC   52A6
....................          Humidificar=ON;  
052A2:  MOVLB  5
052A4:  BSF    x8B.7
052A6:  MOVLB  0
....................       } 
....................    } 
.................... } 
052A8:  RETLW  00
....................  
.................... void controlaTemperatura(){ 
....................    if(Enfria==1){ 
*
07006:  MOVLB  5
07008:  DECFSZ x94,W
0700A:  BRA    723C
....................       if(Temperatura<=Setpoint+0.5 && Temperatura>=Setpoint-0.5){ 
0700C:  BCF    FD8.1
0700E:  MOVFF  62F,81A
07012:  MOVFF  62E,819
07016:  MOVFF  62D,818
0701A:  MOVFF  62C,817
0701E:  MOVLB  8
07020:  CLRF   x1E
07022:  CLRF   x1D
07024:  CLRF   x1C
07026:  MOVLW  7E
07028:  MOVWF  x1B
0702A:  MOVLB  0
0702C:  CALL   1296
07030:  MOVFF  627,816
07034:  MOVFF  626,815
07038:  MOVFF  625,814
0703C:  MOVFF  624,813
07040:  MOVFF  03,81A
07044:  MOVFF  02,819
07048:  MOVFF  01,818
0704C:  MOVFF  00,817
07050:  CALL   1572
07054:  BC    7058
07056:  BNZ   70D2
07058:  BSF    FD8.1
0705A:  MOVFF  62F,81A
0705E:  MOVFF  62E,819
07062:  MOVFF  62D,818
07066:  MOVFF  62C,817
0706A:  MOVLB  8
0706C:  CLRF   x1E
0706E:  CLRF   x1D
07070:  CLRF   x1C
07072:  MOVLW  7E
07074:  MOVWF  x1B
07076:  MOVLB  0
07078:  CALL   1296
0707C:  MOVFF  03,816
07080:  MOVFF  02,815
07084:  MOVFF  01,814
07088:  MOVFF  00,813
0708C:  MOVFF  627,81A
07090:  MOVFF  626,819
07094:  MOVFF  625,818
07098:  MOVFF  624,817
0709C:  CALL   1572
070A0:  BC    70A4
070A2:  BNZ   70D2
....................          printf("statusT.txt=\"Controlando\""); 
070A4:  MOVLW  B4
070A6:  MOVWF  FF6
070A8:  MOVLW  01
070AA:  MOVWF  FF7
070AC:  MOVLW  00
070AE:  MOVWF  FF8
070B0:  CALL   277A
....................          SendDataDisplay(); 
070B4:  CALL   27AC
....................          if(!Infinito) 
070B8:  MOVLB  5
070BA:  BTFSC  x8A.3
070BC:  BRA    70C2
....................             flagTemperatura=ON; 
070BE:  BSF    x8A.7
....................             //tiempo_esterilizacion=1; 
....................          else 
070C0:  BRA    70C4
....................             flagTemperatura=OFF; 
070C2:  BCF    x8A.7
....................             //tiempo_esterilizacion=0; 
....................             Controla(); 
070C4:  MOVLB  0
070C6:  CALL   5536
....................             flag_tiempocalentamiento=0; 
070CA:  MOVLB  5
070CC:  BCF    xBA.6
....................       }else if(Temperatura<Setpoint-0.5){ 
070CE:  BRA    723A
070D0:  MOVLB  0
070D2:  BSF    FD8.1
070D4:  MOVFF  62F,81A
070D8:  MOVFF  62E,819
070DC:  MOVFF  62D,818
070E0:  MOVFF  62C,817
070E4:  MOVLB  8
070E6:  CLRF   x1E
070E8:  CLRF   x1D
070EA:  CLRF   x1C
070EC:  MOVLW  7E
070EE:  MOVWF  x1B
070F0:  MOVLB  0
070F2:  CALL   1296
070F6:  MOVFF  627,816
070FA:  MOVFF  626,815
070FE:  MOVFF  625,814
07102:  MOVFF  624,813
07106:  MOVFF  03,81A
0710A:  MOVFF  02,819
0710E:  MOVFF  01,818
07112:  MOVFF  00,817
07116:  CALL   1572
0711A:  BNC   71C4
....................          Enfria=0; 
0711C:  MOVLB  5
0711E:  CLRF   x94
....................          Ganancia=GananciaR*(Setpoint/44.5); 
07120:  MOVFF  62F,80F
07124:  MOVFF  62E,80E
07128:  MOVFF  62D,80D
0712C:  MOVFF  62C,80C
07130:  MOVLB  8
07132:  CLRF   x13
07134:  CLRF   x12
07136:  MOVLW  32
07138:  MOVWF  x11
0713A:  MOVLW  84
0713C:  MOVWF  x10
0713E:  MOVLB  0
07140:  CALL   1138
07144:  MOVFF  60F,816
07148:  MOVFF  60E,815
0714C:  MOVFF  60D,814
07150:  MOVFF  60C,813
07154:  MOVFF  03,81A
07158:  MOVFF  02,819
0715C:  MOVFF  01,818
07160:  MOVFF  00,817
07164:  CALL   283A
07168:  MOVFF  03,60B
0716C:  MOVFF  02,60A
07170:  MOVFF  01,609
07174:  MOVFF  00,608
....................          Gananciamax=(0.21)*Setpoint; 
07178:  MOVLW  3D
0717A:  MOVLB  8
0717C:  MOVWF  x16
0717E:  MOVLW  0A
07180:  MOVWF  x15
07182:  MOVLW  57
07184:  MOVWF  x14
07186:  MOVLW  7C
07188:  MOVWF  x13
0718A:  MOVFF  62F,81A
0718E:  MOVFF  62E,819
07192:  MOVFF  62D,818
07196:  MOVFF  62C,817
0719A:  MOVLB  0
0719C:  CALL   283A
071A0:  MOVFF  03,5DF
071A4:  MOVFF  02,5DE
071A8:  MOVFF  01,5DD
071AC:  MOVFF  00,5DC
....................          SSR_off; 
071B0:  BCF    F8B.2
071B2:  BCF    F94.2
....................          SSR2_off; 
071B4:  BCF    F8B.1
071B6:  BCF    F94.1
....................          SSR3_off; 
071B8:  BCF    F8B.0
071BA:  BCF    F94.0
....................          Controlando=0; 
071BC:  MOVLB  5
071BE:  CLRF   x95
....................       }else if(Temperatura>Setpoint+0.6){ 
071C0:  BRA    723A
071C2:  MOVLB  0
071C4:  BCF    FD8.1
071C6:  MOVFF  62F,81A
071CA:  MOVFF  62E,819
071CE:  MOVFF  62D,818
071D2:  MOVFF  62C,817
071D6:  MOVLW  9A
071D8:  MOVLB  8
071DA:  MOVWF  x1E
071DC:  MOVLW  99
071DE:  MOVWF  x1D
071E0:  MOVLW  19
071E2:  MOVWF  x1C
071E4:  MOVLW  7E
071E6:  MOVWF  x1B
071E8:  MOVLB  0
071EA:  CALL   1296
071EE:  MOVFF  03,816
071F2:  MOVFF  02,815
071F6:  MOVFF  01,814
071FA:  MOVFF  00,813
071FE:  MOVFF  627,81A
07202:  MOVFF  626,819
07206:  MOVFF  625,818
0720A:  MOVFF  624,817
0720E:  CALL   1572
07212:  BNC   7238
....................          flag_tiempocalentamiento=0; 
07214:  MOVLB  5
07216:  BCF    xBA.6
....................          printf("statusT.txt=\"Enfriando\""); 
07218:  MOVLW  CE
0721A:  MOVWF  FF6
0721C:  MOVLW  01
0721E:  MOVWF  FF7
07220:  MOVLW  00
07222:  MOVWF  FF8
07224:  MOVLB  0
07226:  CALL   277A
....................          SendDataDisplay(); 
0722A:  CALL   27AC
....................          //tiempo_esterilizacion=0; 
....................          flagTemperatura=OFF; 
0722E:  MOVLB  5
07230:  BCF    x8A.7
....................          Controla(); 
07232:  MOVLB  0
07234:  CALL   5536
07238:  MOVLB  5
....................       } 
....................    }else{   
0723A:  BRA    7434
....................       if(Temperatura>=Setpoint-0.5 && Temperatura<=Setpoint+0.5){ 
0723C:  BSF    FD8.1
0723E:  MOVFF  62F,81A
07242:  MOVFF  62E,819
07246:  MOVFF  62D,818
0724A:  MOVFF  62C,817
0724E:  MOVLB  8
07250:  CLRF   x1E
07252:  CLRF   x1D
07254:  CLRF   x1C
07256:  MOVLW  7E
07258:  MOVWF  x1B
0725A:  MOVLB  0
0725C:  CALL   1296
07260:  MOVFF  03,816
07264:  MOVFF  02,815
07268:  MOVFF  01,814
0726C:  MOVFF  00,813
07270:  MOVFF  627,81A
07274:  MOVFF  626,819
07278:  MOVFF  625,818
0727C:  MOVFF  624,817
07280:  CALL   1572
07284:  BC    7288
07286:  BNZ   7302
07288:  BCF    FD8.1
0728A:  MOVFF  62F,81A
0728E:  MOVFF  62E,819
07292:  MOVFF  62D,818
07296:  MOVFF  62C,817
0729A:  MOVLB  8
0729C:  CLRF   x1E
0729E:  CLRF   x1D
072A0:  CLRF   x1C
072A2:  MOVLW  7E
072A4:  MOVWF  x1B
072A6:  MOVLB  0
072A8:  CALL   1296
072AC:  MOVFF  627,816
072B0:  MOVFF  626,815
072B4:  MOVFF  625,814
072B8:  MOVFF  624,813
072BC:  MOVFF  03,81A
072C0:  MOVFF  02,819
072C4:  MOVFF  01,818
072C8:  MOVFF  00,817
072CC:  CALL   1572
072D0:  BC    72D4
072D2:  BNZ   7302
....................          printf("statusT.txt=\"Controlando\""); 
072D4:  MOVLW  E6
072D6:  MOVWF  FF6
072D8:  MOVLW  01
072DA:  MOVWF  FF7
072DC:  MOVLW  00
072DE:  MOVWF  FF8
072E0:  CALL   277A
....................          SendDataDisplay(); 
072E4:  CALL   27AC
....................          if(!Infinito) 
072E8:  MOVLB  5
072EA:  BTFSC  x8A.3
072EC:  BRA    72F2
....................             //tiempo_esterilizacion=1; 
....................             flagTemperatura=ON; 
072EE:  BSF    x8A.7
....................          else 
072F0:  BRA    72F4
....................             //tiempo_esterilizacion=0;    
....................             flagTemperatura=OFF; 
072F2:  BCF    x8A.7
....................             Controla(); 
072F4:  MOVLB  0
072F6:  CALL   5536
....................             flag_tiempocalentamiento=0; 
072FA:  MOVLB  5
072FC:  BCF    xBA.6
....................       }else if(Temperatura>Setpoint+0.5){ 
072FE:  BRA    7434
07300:  MOVLB  0
07302:  BCF    FD8.1
07304:  MOVFF  62F,81A
07308:  MOVFF  62E,819
0730C:  MOVFF  62D,818
07310:  MOVFF  62C,817
07314:  MOVLB  8
07316:  CLRF   x1E
07318:  CLRF   x1D
0731A:  CLRF   x1C
0731C:  MOVLW  7E
0731E:  MOVWF  x1B
07320:  MOVLB  0
07322:  CALL   1296
07326:  MOVFF  03,816
0732A:  MOVFF  02,815
0732E:  MOVFF  01,814
07332:  MOVFF  00,813
07336:  MOVFF  627,81A
0733A:  MOVFF  626,819
0733E:  MOVFF  625,818
07342:  MOVFF  624,817
07346:  CALL   1572
0734A:  BNC   73BE
....................          Enfria=1; 
0734C:  MOVLW  01
0734E:  MOVLB  5
07350:  MOVWF  x94
....................          Ganancia=GananciaR*(Setpoint/44.5); 
07352:  MOVFF  62F,80F
07356:  MOVFF  62E,80E
0735A:  MOVFF  62D,80D
0735E:  MOVFF  62C,80C
07362:  MOVLB  8
07364:  CLRF   x13
07366:  CLRF   x12
07368:  MOVLW  32
0736A:  MOVWF  x11
0736C:  MOVLW  84
0736E:  MOVWF  x10
07370:  MOVLB  0
07372:  CALL   1138
07376:  MOVFF  60F,816
0737A:  MOVFF  60E,815
0737E:  MOVFF  60D,814
07382:  MOVFF  60C,813
07386:  MOVFF  03,81A
0738A:  MOVFF  02,819
0738E:  MOVFF  01,818
07392:  MOVFF  00,817
07396:  CALL   283A
0739A:  MOVFF  03,60B
0739E:  MOVFF  02,60A
073A2:  MOVFF  01,609
073A6:  MOVFF  00,608
....................          SSR_off; 
073AA:  BCF    F8B.2
073AC:  BCF    F94.2
....................          SSR2_off; 
073AE:  BCF    F8B.1
073B0:  BCF    F94.1
....................          SSR3_off; 
073B2:  BCF    F8B.0
073B4:  BCF    F94.0
....................          Controlando=0; 
073B6:  MOVLB  5
073B8:  CLRF   x95
....................       }else if(Temperatura<Setpoint-0.6){ 
073BA:  BRA    7434
073BC:  MOVLB  0
073BE:  BSF    FD8.1
073C0:  MOVFF  62F,81A
073C4:  MOVFF  62E,819
073C8:  MOVFF  62D,818
073CC:  MOVFF  62C,817
073D0:  MOVLW  9A
073D2:  MOVLB  8
073D4:  MOVWF  x1E
073D6:  MOVLW  99
073D8:  MOVWF  x1D
073DA:  MOVLW  19
073DC:  MOVWF  x1C
073DE:  MOVLW  7E
073E0:  MOVWF  x1B
073E2:  MOVLB  0
073E4:  CALL   1296
073E8:  MOVFF  627,816
073EC:  MOVFF  626,815
073F0:  MOVFF  625,814
073F4:  MOVFF  624,813
073F8:  MOVFF  03,81A
073FC:  MOVFF  02,819
07400:  MOVFF  01,818
07404:  MOVFF  00,817
07408:  CALL   1572
0740C:  BNC   7432
....................          flag_tiempocalentamiento=1; 
0740E:  MOVLB  5
07410:  BSF    xBA.6
....................          printf("statusT.txt=\"Calentando\""); 
07412:  MOVLW  00
07414:  MOVWF  FF6
07416:  MOVLW  02
07418:  MOVWF  FF7
0741A:  MOVLW  00
0741C:  MOVWF  FF8
0741E:  MOVLB  0
07420:  CALL   277A
....................          SendDataDisplay(); 
07424:  CALL   27AC
....................          //tiempo_esterilizacion=0; 
....................          flagTemperatura=OFF; 
07428:  MOVLB  5
0742A:  BCF    x8A.7
....................          Controla(); 
0742C:  MOVLB  0
0742E:  CALL   5536
07432:  MOVLB  5
....................       } 
....................    } 
.................... } 
07434:  MOVLB  0
07436:  GOTO   C18E (RETURN)
....................  
.................... void controlaRampa(){ 
....................    if(Enfria==1){ 
*
06A7E:  MOVLB  5
06A80:  DECFSZ x94,W
06A82:  BRA    6D5E
....................       if(Temperatura<=Setpoint+0.5 && Temperatura>=Setpoint-0.5){ 
06A84:  BCF    FD8.1
06A86:  MOVFF  62F,81A
06A8A:  MOVFF  62E,819
06A8E:  MOVFF  62D,818
06A92:  MOVFF  62C,817
06A96:  MOVLB  8
06A98:  CLRF   x1E
06A9A:  CLRF   x1D
06A9C:  CLRF   x1C
06A9E:  MOVLW  7E
06AA0:  MOVWF  x1B
06AA2:  MOVLB  0
06AA4:  CALL   1296
06AA8:  MOVFF  627,816
06AAC:  MOVFF  626,815
06AB0:  MOVFF  625,814
06AB4:  MOVFF  624,813
06AB8:  MOVFF  03,81A
06ABC:  MOVFF  02,819
06AC0:  MOVFF  01,818
06AC4:  MOVFF  00,817
06AC8:  CALL   1572
06ACC:  BC    6AD0
06ACE:  BNZ   6B9E
06AD0:  BSF    FD8.1
06AD2:  MOVFF  62F,81A
06AD6:  MOVFF  62E,819
06ADA:  MOVFF  62D,818
06ADE:  MOVFF  62C,817
06AE2:  MOVLB  8
06AE4:  CLRF   x1E
06AE6:  CLRF   x1D
06AE8:  CLRF   x1C
06AEA:  MOVLW  7E
06AEC:  MOVWF  x1B
06AEE:  MOVLB  0
06AF0:  CALL   1296
06AF4:  MOVFF  03,816
06AF8:  MOVFF  02,815
06AFC:  MOVFF  01,814
06B00:  MOVFF  00,813
06B04:  MOVFF  627,81A
06B08:  MOVFF  626,819
06B0C:  MOVFF  625,818
06B10:  MOVFF  624,817
06B14:  CALL   1572
06B18:  BC    6B1C
06B1A:  BNZ   6B9E
....................          if(Pendiente!=0){ 
06B1C:  MOVFF  66B,816
06B20:  MOVFF  66A,815
06B24:  MOVFF  669,814
06B28:  MOVFF  668,813
06B2C:  MOVLB  8
06B2E:  CLRF   x1A
06B30:  CLRF   x19
06B32:  CLRF   x18
06B34:  CLRF   x17
06B36:  MOVLB  0
06B38:  CALL   1572
06B3C:  BZ    6B56
....................             printf("statusT.txt=\"Controlando\""); 
06B3E:  MOVLW  1A
06B40:  MOVWF  FF6
06B42:  MOVLW  02
06B44:  MOVWF  FF7
06B46:  MOVLW  00
06B48:  MOVWF  FF8
06B4A:  CALL   277A
....................             SendDataDisplay(); 
06B4E:  CALL   27AC
....................             flagTemperatura=ON;             
06B52:  MOVLB  5
06B54:  BSF    x8A.7
....................          } 
....................           
....................          if(Pendiente==0){ 
06B56:  MOVFF  66B,816
06B5A:  MOVFF  66A,815
06B5E:  MOVFF  669,814
06B62:  MOVFF  668,813
06B66:  MOVLB  8
06B68:  CLRF   x1A
06B6A:  CLRF   x19
06B6C:  CLRF   x18
06B6E:  CLRF   x17
06B70:  MOVLB  0
06B72:  CALL   1572
06B76:  BNZ   6B92
....................             printf("statusT.txt=\"Meseta\""); 
06B78:  MOVLW  34
06B7A:  MOVWF  FF6
06B7C:  MOVLW  02
06B7E:  MOVWF  FF7
06B80:  MOVLW  00
06B82:  MOVWF  FF8
06B84:  CALL   277A
....................             SendDataDisplay(); 
06B88:  CALL   27AC
....................             flagTemperatura=ON; 
06B8C:  MOVLB  5
06B8E:  BSF    x8A.7
06B90:  MOVLB  0
....................          } 
....................          Controla(); 
06B92:  CALL   5536
....................          flag_tiempocalentamiento=0; 
06B96:  MOVLB  5
06B98:  BCF    xBA.6
....................       }else if(Temperatura<Setpoint-0.5){ 
06B9A:  BRA    6D5C
06B9C:  MOVLB  0
06B9E:  BSF    FD8.1
06BA0:  MOVFF  62F,81A
06BA4:  MOVFF  62E,819
06BA8:  MOVFF  62D,818
06BAC:  MOVFF  62C,817
06BB0:  MOVLB  8
06BB2:  CLRF   x1E
06BB4:  CLRF   x1D
06BB6:  CLRF   x1C
06BB8:  MOVLW  7E
06BBA:  MOVWF  x1B
06BBC:  MOVLB  0
06BBE:  CALL   1296
06BC2:  MOVFF  627,816
06BC6:  MOVFF  626,815
06BCA:  MOVFF  625,814
06BCE:  MOVFF  624,813
06BD2:  MOVFF  03,81A
06BD6:  MOVFF  02,819
06BDA:  MOVFF  01,818
06BDE:  MOVFF  00,817
06BE2:  CALL   1572
06BE6:  BNC   6C90
....................          Enfria=0; 
06BE8:  MOVLB  5
06BEA:  CLRF   x94
....................          Ganancia=GananciaR*(Setpoint/44.5); 
06BEC:  MOVFF  62F,80F
06BF0:  MOVFF  62E,80E
06BF4:  MOVFF  62D,80D
06BF8:  MOVFF  62C,80C
06BFC:  MOVLB  8
06BFE:  CLRF   x13
06C00:  CLRF   x12
06C02:  MOVLW  32
06C04:  MOVWF  x11
06C06:  MOVLW  84
06C08:  MOVWF  x10
06C0A:  MOVLB  0
06C0C:  CALL   1138
06C10:  MOVFF  60F,816
06C14:  MOVFF  60E,815
06C18:  MOVFF  60D,814
06C1C:  MOVFF  60C,813
06C20:  MOVFF  03,81A
06C24:  MOVFF  02,819
06C28:  MOVFF  01,818
06C2C:  MOVFF  00,817
06C30:  CALL   283A
06C34:  MOVFF  03,60B
06C38:  MOVFF  02,60A
06C3C:  MOVFF  01,609
06C40:  MOVFF  00,608
....................          Gananciamax=(0.21)*Setpoint; 
06C44:  MOVLW  3D
06C46:  MOVLB  8
06C48:  MOVWF  x16
06C4A:  MOVLW  0A
06C4C:  MOVWF  x15
06C4E:  MOVLW  57
06C50:  MOVWF  x14
06C52:  MOVLW  7C
06C54:  MOVWF  x13
06C56:  MOVFF  62F,81A
06C5A:  MOVFF  62E,819
06C5E:  MOVFF  62D,818
06C62:  MOVFF  62C,817
06C66:  MOVLB  0
06C68:  CALL   283A
06C6C:  MOVFF  03,5DF
06C70:  MOVFF  02,5DE
06C74:  MOVFF  01,5DD
06C78:  MOVFF  00,5DC
....................          SSR_off; 
06C7C:  BCF    F8B.2
06C7E:  BCF    F94.2
....................          SSR2_off; 
06C80:  BCF    F8B.1
06C82:  BCF    F94.1
....................          SSR3_off; 
06C84:  BCF    F8B.0
06C86:  BCF    F94.0
....................          Controlando=0; 
06C88:  MOVLB  5
06C8A:  CLRF   x95
....................       }else if(Temperatura>Setpoint+0.6){ 
06C8C:  BRA    6D5C
06C8E:  MOVLB  0
06C90:  BCF    FD8.1
06C92:  MOVFF  62F,81A
06C96:  MOVFF  62E,819
06C9A:  MOVFF  62D,818
06C9E:  MOVFF  62C,817
06CA2:  MOVLW  9A
06CA4:  MOVLB  8
06CA6:  MOVWF  x1E
06CA8:  MOVLW  99
06CAA:  MOVWF  x1D
06CAC:  MOVLW  19
06CAE:  MOVWF  x1C
06CB0:  MOVLW  7E
06CB2:  MOVWF  x1B
06CB4:  MOVLB  0
06CB6:  CALL   1296
06CBA:  MOVFF  03,816
06CBE:  MOVFF  02,815
06CC2:  MOVFF  01,814
06CC6:  MOVFF  00,813
06CCA:  MOVFF  627,81A
06CCE:  MOVFF  626,819
06CD2:  MOVFF  625,818
06CD6:  MOVFF  624,817
06CDA:  CALL   1572
06CDE:  BNC   6D5A
....................          if(Pendiente!=0){ 
06CE0:  MOVFF  66B,816
06CE4:  MOVFF  66A,815
06CE8:  MOVFF  669,814
06CEC:  MOVFF  668,813
06CF0:  MOVLB  8
06CF2:  CLRF   x1A
06CF4:  CLRF   x19
06CF6:  CLRF   x18
06CF8:  CLRF   x17
06CFA:  MOVLB  0
06CFC:  CALL   1572
06D00:  BZ    6D1A
....................             printf("statusT.txt=\"Rampa -\""); 
06D02:  MOVLW  4A
06D04:  MOVWF  FF6
06D06:  MOVLW  02
06D08:  MOVWF  FF7
06D0A:  MOVLW  00
06D0C:  MOVWF  FF8
06D0E:  CALL   277A
....................             SendDataDisplay(); 
06D12:  CALL   27AC
....................             flagTemperatura=ON;             
06D16:  MOVLB  5
06D18:  BSF    x8A.7
....................          } 
....................          if(Pendiente==0){ 
06D1A:  MOVFF  66B,816
06D1E:  MOVFF  66A,815
06D22:  MOVFF  669,814
06D26:  MOVFF  668,813
06D2A:  MOVLB  8
06D2C:  CLRF   x1A
06D2E:  CLRF   x19
06D30:  CLRF   x18
06D32:  CLRF   x17
06D34:  MOVLB  0
06D36:  CALL   1572
06D3A:  BNZ   6D56
....................             printf("statusT.txt=\"Enfriando\""); 
06D3C:  MOVLW  60
06D3E:  MOVWF  FF6
06D40:  MOVLW  02
06D42:  MOVWF  FF7
06D44:  MOVLW  00
06D46:  MOVWF  FF8
06D48:  CALL   277A
....................             SendDataDisplay(); 
06D4C:  CALL   27AC
....................             flagTemperatura=OFF;             
06D50:  MOVLB  5
06D52:  BCF    x8A.7
06D54:  MOVLB  0
....................          } 
....................          Controla(); 
06D56:  CALL   5536
06D5A:  MOVLB  5
....................       } 
....................    }else{   
06D5C:  BRA    7000
....................       if(Temperatura>=Setpoint-0.5 && Temperatura<=Setpoint+0.5){ 
06D5E:  BSF    FD8.1
06D60:  MOVFF  62F,81A
06D64:  MOVFF  62E,819
06D68:  MOVFF  62D,818
06D6C:  MOVFF  62C,817
06D70:  MOVLB  8
06D72:  CLRF   x1E
06D74:  CLRF   x1D
06D76:  CLRF   x1C
06D78:  MOVLW  7E
06D7A:  MOVWF  x1B
06D7C:  MOVLB  0
06D7E:  CALL   1296
06D82:  MOVFF  03,816
06D86:  MOVFF  02,815
06D8A:  MOVFF  01,814
06D8E:  MOVFF  00,813
06D92:  MOVFF  627,81A
06D96:  MOVFF  626,819
06D9A:  MOVFF  625,818
06D9E:  MOVFF  624,817
06DA2:  CALL   1572
06DA6:  BC    6DAA
06DA8:  BNZ   6E78
06DAA:  BCF    FD8.1
06DAC:  MOVFF  62F,81A
06DB0:  MOVFF  62E,819
06DB4:  MOVFF  62D,818
06DB8:  MOVFF  62C,817
06DBC:  MOVLB  8
06DBE:  CLRF   x1E
06DC0:  CLRF   x1D
06DC2:  CLRF   x1C
06DC4:  MOVLW  7E
06DC6:  MOVWF  x1B
06DC8:  MOVLB  0
06DCA:  CALL   1296
06DCE:  MOVFF  627,816
06DD2:  MOVFF  626,815
06DD6:  MOVFF  625,814
06DDA:  MOVFF  624,813
06DDE:  MOVFF  03,81A
06DE2:  MOVFF  02,819
06DE6:  MOVFF  01,818
06DEA:  MOVFF  00,817
06DEE:  CALL   1572
06DF2:  BC    6DF6
06DF4:  BNZ   6E78
....................          if(Pendiente!=0){ 
06DF6:  MOVFF  66B,816
06DFA:  MOVFF  66A,815
06DFE:  MOVFF  669,814
06E02:  MOVFF  668,813
06E06:  MOVLB  8
06E08:  CLRF   x1A
06E0A:  CLRF   x19
06E0C:  CLRF   x18
06E0E:  CLRF   x17
06E10:  MOVLB  0
06E12:  CALL   1572
06E16:  BZ    6E30
....................             printf("statusT.txt=\"Controlando\""); 
06E18:  MOVLW  78
06E1A:  MOVWF  FF6
06E1C:  MOVLW  02
06E1E:  MOVWF  FF7
06E20:  MOVLW  00
06E22:  MOVWF  FF8
06E24:  CALL   277A
....................             SendDataDisplay(); 
06E28:  CALL   27AC
....................             flagTemperatura=ON;             
06E2C:  MOVLB  5
06E2E:  BSF    x8A.7
....................          } 
....................           
....................          if(Pendiente==0){ 
06E30:  MOVFF  66B,816
06E34:  MOVFF  66A,815
06E38:  MOVFF  669,814
06E3C:  MOVFF  668,813
06E40:  MOVLB  8
06E42:  CLRF   x1A
06E44:  CLRF   x19
06E46:  CLRF   x18
06E48:  CLRF   x17
06E4A:  MOVLB  0
06E4C:  CALL   1572
06E50:  BNZ   6E6C
....................             printf("statusT.txt=\"Meseta\""); 
06E52:  MOVLW  92
06E54:  MOVWF  FF6
06E56:  MOVLW  02
06E58:  MOVWF  FF7
06E5A:  MOVLW  00
06E5C:  MOVWF  FF8
06E5E:  CALL   277A
....................             SendDataDisplay(); 
06E62:  CALL   27AC
....................             flagTemperatura=ON; 
06E66:  MOVLB  5
06E68:  BSF    x8A.7
06E6A:  MOVLB  0
....................          } 
....................          Controla(); 
06E6C:  CALL   5536
....................          flag_tiempocalentamiento=0; 
06E70:  MOVLB  5
06E72:  BCF    xBA.6
....................       }else if(Temperatura>Setpoint+0.5){ 
06E74:  BRA    7000
06E76:  MOVLB  0
06E78:  BCF    FD8.1
06E7A:  MOVFF  62F,81A
06E7E:  MOVFF  62E,819
06E82:  MOVFF  62D,818
06E86:  MOVFF  62C,817
06E8A:  MOVLB  8
06E8C:  CLRF   x1E
06E8E:  CLRF   x1D
06E90:  CLRF   x1C
06E92:  MOVLW  7E
06E94:  MOVWF  x1B
06E96:  MOVLB  0
06E98:  CALL   1296
06E9C:  MOVFF  03,816
06EA0:  MOVFF  02,815
06EA4:  MOVFF  01,814
06EA8:  MOVFF  00,813
06EAC:  MOVFF  627,81A
06EB0:  MOVFF  626,819
06EB4:  MOVFF  625,818
06EB8:  MOVFF  624,817
06EBC:  CALL   1572
06EC0:  BNC   6F34
....................          Enfria=1; 
06EC2:  MOVLW  01
06EC4:  MOVLB  5
06EC6:  MOVWF  x94
....................          Ganancia=GananciaR*(Setpoint/44.5); 
06EC8:  MOVFF  62F,80F
06ECC:  MOVFF  62E,80E
06ED0:  MOVFF  62D,80D
06ED4:  MOVFF  62C,80C
06ED8:  MOVLB  8
06EDA:  CLRF   x13
06EDC:  CLRF   x12
06EDE:  MOVLW  32
06EE0:  MOVWF  x11
06EE2:  MOVLW  84
06EE4:  MOVWF  x10
06EE6:  MOVLB  0
06EE8:  CALL   1138
06EEC:  MOVFF  60F,816
06EF0:  MOVFF  60E,815
06EF4:  MOVFF  60D,814
06EF8:  MOVFF  60C,813
06EFC:  MOVFF  03,81A
06F00:  MOVFF  02,819
06F04:  MOVFF  01,818
06F08:  MOVFF  00,817
06F0C:  CALL   283A
06F10:  MOVFF  03,60B
06F14:  MOVFF  02,60A
06F18:  MOVFF  01,609
06F1C:  MOVFF  00,608
....................          SSR_off; 
06F20:  BCF    F8B.2
06F22:  BCF    F94.2
....................          SSR2_off; 
06F24:  BCF    F8B.1
06F26:  BCF    F94.1
....................          SSR3_off; 
06F28:  BCF    F8B.0
06F2A:  BCF    F94.0
....................          Controlando=0; 
06F2C:  MOVLB  5
06F2E:  CLRF   x95
....................       }else if(Temperatura<Setpoint-0.6){ 
06F30:  BRA    7000
06F32:  MOVLB  0
06F34:  BSF    FD8.1
06F36:  MOVFF  62F,81A
06F3A:  MOVFF  62E,819
06F3E:  MOVFF  62D,818
06F42:  MOVFF  62C,817
06F46:  MOVLW  9A
06F48:  MOVLB  8
06F4A:  MOVWF  x1E
06F4C:  MOVLW  99
06F4E:  MOVWF  x1D
06F50:  MOVLW  19
06F52:  MOVWF  x1C
06F54:  MOVLW  7E
06F56:  MOVWF  x1B
06F58:  MOVLB  0
06F5A:  CALL   1296
06F5E:  MOVFF  627,816
06F62:  MOVFF  626,815
06F66:  MOVFF  625,814
06F6A:  MOVFF  624,813
06F6E:  MOVFF  03,81A
06F72:  MOVFF  02,819
06F76:  MOVFF  01,818
06F7A:  MOVFF  00,817
06F7E:  CALL   1572
06F82:  BNC   6FFE
....................          if(Pendiente!=0){ 
06F84:  MOVFF  66B,816
06F88:  MOVFF  66A,815
06F8C:  MOVFF  669,814
06F90:  MOVFF  668,813
06F94:  MOVLB  8
06F96:  CLRF   x1A
06F98:  CLRF   x19
06F9A:  CLRF   x18
06F9C:  CLRF   x17
06F9E:  MOVLB  0
06FA0:  CALL   1572
06FA4:  BZ    6FBE
....................             printf("statusT.txt=\"Rampa +\""); 
06FA6:  MOVLW  A8
06FA8:  MOVWF  FF6
06FAA:  MOVLW  02
06FAC:  MOVWF  FF7
06FAE:  MOVLW  00
06FB0:  MOVWF  FF8
06FB2:  CALL   277A
....................             SendDataDisplay(); 
06FB6:  CALL   27AC
....................             flagTemperatura=ON;             
06FBA:  MOVLB  5
06FBC:  BSF    x8A.7
....................          } 
....................          if(Pendiente==0){ 
06FBE:  MOVFF  66B,816
06FC2:  MOVFF  66A,815
06FC6:  MOVFF  669,814
06FCA:  MOVFF  668,813
06FCE:  MOVLB  8
06FD0:  CLRF   x1A
06FD2:  CLRF   x19
06FD4:  CLRF   x18
06FD6:  CLRF   x17
06FD8:  MOVLB  0
06FDA:  CALL   1572
06FDE:  BNZ   6FFA
....................             printf("statusT.txt=\"Calentando\""); 
06FE0:  MOVLW  BE
06FE2:  MOVWF  FF6
06FE4:  MOVLW  02
06FE6:  MOVWF  FF7
06FE8:  MOVLW  00
06FEA:  MOVWF  FF8
06FEC:  CALL   277A
....................             SendDataDisplay(); 
06FF0:  CALL   27AC
....................             flagTemperatura=OFF;             
06FF4:  MOVLB  5
06FF6:  BCF    x8A.7
06FF8:  MOVLB  0
....................          } 
....................          Controla(); 
06FFA:  CALL   5536
06FFE:  MOVLB  5
....................       } 
....................    } 
.................... } 
07000:  MOVLB  0
07002:  GOTO   C0AA (RETURN)
....................  
....................  
.................... #int_rda HIGH 
.................... void serial_rx_isr(){ 
....................    Dato2=fgetc(); 
*
002D8:  BTFSS  F9E.5
002DA:  BRA    02D8
002DC:  MOVFF  FAE,59A
002E0:  MOVLB  5
....................    if(Dato2==0x65){//Inicio Comunicacion 
002E2:  MOVF   x9A,W
002E4:  SUBLW  65
002E6:  BNZ   02EE
....................       Inicio=1; 
002E8:  MOVLW  01
002EA:  MOVWF  x9B
....................       RX_Wr_Index =0; 
002EC:  CLRF   40
....................    } 
....................     
....................    if(Inicio==1){ 
002EE:  DECFSZ x9B,W
002F0:  BRA    0306
....................       Rx_Buffer2[RX_Wr_Index] = Dato2; 
002F2:  CLRF   03
002F4:  MOVF   40,W
002F6:  ADDLW  35
002F8:  MOVWF  FE9
002FA:  MOVLW  00
002FC:  ADDWFC 03,W
002FE:  MOVWF  FEA
00300:  MOVFF  59A,FEF
....................       RX_Wr_Index++; 
00304:  INCF   40,F
....................    } 
....................    if(RX_Wr_Index >= RX_BUFFER_SIZE){ 
00306:  MOVF   40,W
00308:  SUBLW  09
0030A:  BC    0310
....................       RX_Wr_Index =0; 
0030C:  CLRF   40
....................       Inicio=0; 
0030E:  CLRF   x9B
....................    } 
....................  
....................    if(RX_Wr_Index==0){ 
00310:  MOVF   40,F
00312:  BNZ   0334
....................       if(Rx_Buffer2[0]==0x65 && Rx_Buffer2[1]==0xff && Rx_Buffer2[2]==0xff && Rx_Buffer2[8]==0x00 && Rx_Buffer2[9]==0xff ){ 
00314:  MOVF   35,W
00316:  SUBLW  65
00318:  BNZ   0330
0031A:  INCFSZ 36,W
0031C:  BRA    0330
0031E:  INCFSZ 37,W
00320:  BRA    0330
00322:  MOVF   3D,F
00324:  BNZ   0330
00326:  INCFSZ 3E,W
00328:  BRA    0330
....................          Dato_Exitoso=5; 
0032A:  MOVLW  05
0032C:  MOVWF  xC6
....................       }else{ 
0032E:  BRA    0334
....................          Dato_Exitoso=10; 
00330:  MOVLW  0A
00332:  MOVWF  xC6
....................       } 
....................    } 
....................    //output_toggle(PIN_D7); 
....................    //if(Menu==20) 
....................      //Buzzer_on; 
.................... } 
....................  
00334:  BCF    F9E.5
00336:  MOVLB  0
00338:  GOTO   00FE
.................... #int_TIMER1 
.................... void temp1s(void){ 
....................    set_timer1(40536); 
0033C:  MOVLW  9E
0033E:  MOVWF  FCF
00340:  MOVLW  58
00342:  MOVWF  FCE
....................    tiempos++; 
00344:  MOVLB  5
00346:  INCF   xC8,F
00348:  BTFSC  FD8.2
0034A:  INCF   xC9,F
....................    tiempos3++; 
0034C:  INCF   xCA,F
0034E:  BTFSC  FD8.2
00350:  INCF   xCB,F
....................    tiempoctrl++; 
00352:  INCF   xCC,F
00354:  BTFSC  FD8.2
00356:  INCF   xCD,F
....................     
....................    if(tiempos3>=200) 
00358:  MOVF   xCB,F
0035A:  BNZ   0362
0035C:  MOVF   xCA,W
0035E:  SUBLW  C7
00360:  BC    0366
....................       Lectura2=1; 
00362:  MOVLW  01
00364:  MOVWF  x93
....................     
....................    if(Controlando==1){ 
00366:  DECFSZ x95,W
00368:  BRA    03A4
....................       if(tiempoctrl<Tp){ // Si el tiempo es menor o igual al tiempo de control se enciende la resistencia de lo contrario se apaga. 
0036A:  MOVF   xCD,W
0036C:  SUBWF  xD5,W
0036E:  BNC   0386
00370:  BNZ   0378
00372:  MOVF   xD4,W
00374:  SUBWF  xCC,W
00376:  BC    0386
....................          SSR_on; 
00378:  BSF    F8B.2
0037A:  BCF    F94.2
....................          SSR2_on; 
0037C:  BSF    F8B.1
0037E:  BCF    F94.1
....................          SSR3_on; 
00380:  BSF    F8B.0
00382:  BCF    F94.0
....................       }else{ 
00384:  BRA    0392
....................          SSR_off; 
00386:  BCF    F8B.2
00388:  BCF    F94.2
....................          SSR2_off; 
0038A:  BCF    F8B.1
0038C:  BCF    F94.1
....................          SSR3_off; 
0038E:  BCF    F8B.0
00390:  BCF    F94.0
....................       } 
....................        
....................       if(tiempoctrl>=Tc) // Si el tiempo de control es mayor al tiempo de ciclo se reinicia tiempo de control       
00392:  MOVF   xD7,W
00394:  SUBWF  xCD,W
00396:  BNC   03A4
00398:  BNZ   03A0
0039A:  MOVF   xD6,W
0039C:  SUBWF  xCC,W
0039E:  BNC   03A4
....................          tiempoctrl=0;// tiempoctrl incrementa una unidad cada 5ms, por eso se dividen los tiempos por 0.005. 
003A0:  CLRF   xCD
003A2:  CLRF   xCC
....................    } 
....................      
....................    if(tiempos>=200){  // 12000 para que incremente cada minuto, 200para que incremente cada segundo. 
003A4:  MOVF   xC9,F
003A6:  BNZ   03AE
003A8:  MOVF   xC8,W
003AA:  SUBLW  C7
003AC:  BC    03D8
....................       tiempos=0;Lectura=1;tiemporeset++;TiempoControl++;tiemporecta++; 
003AE:  CLRF   xC9
003B0:  CLRF   xC8
003B2:  BSF    xBA.0
003B4:  INCF   xBC,F
003B6:  INCF   xC1,F
003B8:  INCF   x91,F
....................     
....................       if(flag_setpoint==1) 
003BA:  BTFSS  xBA.7
003BC:  BRA    03C4
....................          tiemposetpoint++; 
003BE:  INCF   xD2,F
003C0:  BTFSC  FD8.2
003C2:  INCF   xD3,F
....................           
....................       if(tiempo_esterilizacion==1) 
003C4:  DECFSZ xC3,W
003C6:  BRA    03CE
....................          tinicio++; 
003C8:  INCF   xCE,F
003CA:  BTFSC  FD8.2
003CC:  INCF   xCF,F
....................        
....................       if(flag_tiempocalentamiento==1) 
003CE:  BTFSS  xBA.6
003D0:  BRA    03D8
....................          tiempocalentamiento++; 
003D2:  INCF   xD0,F
003D4:  BTFSC  FD8.2
003D6:  INCF   xD1,F
....................        
....................    }         
.................... } 
....................  
003D8:  BCF    F9E.0
003DA:  MOVLB  0
003DC:  GOTO   0068
.................... void main() 
.................... { 
*
074EA:  CLRF   FF8
074EC:  BCF    F9F.0
074EE:  BSF    F9F.5
074F0:  BSF    FD0.7
074F2:  BSF    07.7
074F4:  CLRF   FEA
074F6:  CLRF   FE9
074F8:  BSF    FB8.3
074FA:  MOVLW  08
074FC:  MOVWF  FAF
074FE:  MOVLW  02
07500:  MOVWF  FB0
07502:  MOVLW  A6
07504:  MOVWF  FAC
07506:  MOVLW  90
07508:  MOVWF  FAB
0750A:  CLRF   40
0750C:  MOVLB  5
0750E:  BCF    x89.0
07510:  BCF    x89.1
07512:  BCF    x89.2
07514:  BCF    x89.3
07516:  BCF    x89.4
07518:  BCF    x89.5
0751A:  BCF    x89.6
0751C:  BCF    x89.7
0751E:  BCF    x8A.0
07520:  BCF    x8A.1
07522:  BCF    x8A.2
07524:  BCF    x8A.3
07526:  BCF    x8A.4
07528:  BCF    x8A.5
0752A:  BCF    x8A.6
0752C:  BCF    x8A.7
0752E:  BCF    x8B.0
07530:  BCF    x8B.1
07532:  BCF    x8B.2
07534:  BCF    x8B.3
07536:  BCF    x8B.4
07538:  BCF    x8B.5
0753A:  BCF    x8B.6
0753C:  BCF    x8B.7
0753E:  CLRF   x8C
07540:  CLRF   x8D
07542:  CLRF   x8E
07544:  CLRF   x8F
07546:  MOVLW  0A
07548:  MOVWF  x90
0754A:  CLRF   x91
0754C:  CLRF   x92
0754E:  CLRF   x93
07550:  CLRF   x94
07552:  CLRF   x95
07554:  MOVWF  x96
07556:  MOVLW  28
07558:  MOVWF  x97
0755A:  CLRF   x98
0755C:  CLRF   x99
0755E:  CLRF   x9A
07560:  CLRF   x9B
07562:  CLRF   x9C
07564:  CLRF   x9D
07566:  CLRF   x9E
07568:  CLRF   x9F
0756A:  CLRF   xA0
0756C:  CLRF   xA1
0756E:  CLRF   xA5
07570:  CLRF   xA4
07572:  CLRF   xA3
07574:  CLRF   xA2
07576:  CLRF   xA9
07578:  CLRF   xA8
0757A:  CLRF   xA7
0757C:  CLRF   xA6
0757E:  CLRF   xAD
07580:  CLRF   xAC
07582:  CLRF   xAB
07584:  CLRF   xAA
07586:  CLRF   xB1
07588:  CLRF   xB0
0758A:  CLRF   xAF
0758C:  CLRF   xAE
0758E:  CLRF   xB5
07590:  CLRF   xB4
07592:  CLRF   xB3
07594:  CLRF   xB2
07596:  CLRF   xB9
07598:  CLRF   xB8
0759A:  CLRF   xB7
0759C:  CLRF   xB6
0759E:  BCF    xBA.0
075A0:  BCF    xBA.1
075A2:  BCF    xBA.2
075A4:  BCF    xBA.3
075A6:  BCF    xBA.4
075A8:  BCF    xBA.5
075AA:  BCF    xBA.6
075AC:  BCF    xBA.7
075AE:  CLRF   xBB
075B0:  CLRF   xBC
075B2:  CLRF   xBD
075B4:  CLRF   xBE
075B6:  CLRF   xBF
075B8:  CLRF   xC0
075BA:  CLRF   xC1
075BC:  MOVLW  01
075BE:  MOVWF  xC2
075C0:  CLRF   xC3
075C2:  CLRF   xC4
075C4:  CLRF   xC5
075C6:  CLRF   xC6
075C8:  MOVLW  F0
075CA:  MOVWF  xC7
075CC:  CLRF   xC9
075CE:  CLRF   xC8
075D0:  CLRF   xCB
075D2:  CLRF   xCA
075D4:  CLRF   xCD
075D6:  CLRF   xCC
075D8:  CLRF   xCF
075DA:  CLRF   xCE
075DC:  CLRF   xD1
075DE:  CLRF   xD0
075E0:  CLRF   xD3
075E2:  CLRF   xD2
075E4:  CLRF   xD5
075E6:  CLRF   xD4
075E8:  CLRF   xD7
075EA:  CLRF   xD6
075EC:  CLRF   xDB
075EE:  CLRF   xDA
075F0:  CLRF   xD9
075F2:  CLRF   xD8
075F4:  CLRF   xDF
075F6:  CLRF   xDE
075F8:  CLRF   xDD
075FA:  CLRF   xDC
075FC:  CLRF   xE3
075FE:  CLRF   xE2
07600:  CLRF   xE1
07602:  CLRF   xE0
07604:  CLRF   xE7
07606:  CLRF   xE6
07608:  CLRF   xE5
0760A:  CLRF   xE4
0760C:  CLRF   xEF
0760E:  CLRF   xEE
07610:  CLRF   xED
07612:  CLRF   xEC
07614:  CLRF   xF3
07616:  CLRF   xF2
07618:  MOVLW  20
0761A:  MOVWF  xF1
0761C:  MOVLW  82
0761E:  MOVWF  xF0
07620:  CLRF   xF7
07622:  CLRF   xF6
07624:  CLRF   xF5
07626:  CLRF   xF4
07628:  CLRF   xFB
0762A:  CLRF   xFA
0762C:  CLRF   xF9
0762E:  CLRF   xF8
07630:  CLRF   xFF
07632:  CLRF   xFE
07634:  CLRF   xFD
07636:  CLRF   xFC
07638:  MOVLB  6
0763A:  CLRF   x03
0763C:  CLRF   x02
0763E:  CLRF   x01
07640:  CLRF   x00
07642:  CLRF   x07
07644:  CLRF   x06
07646:  CLRF   x05
07648:  CLRF   x04
0764A:  CLRF   x0B
0764C:  CLRF   x0A
0764E:  CLRF   x09
07650:  MOVLW  80
07652:  MOVWF  x08
07654:  CLRF   x0F
07656:  CLRF   x0E
07658:  CLRF   x0D
0765A:  MOVWF  x0C
0765C:  CLRF   x13
0765E:  CLRF   x12
07660:  CLRF   x11
07662:  MOVLW  7E
07664:  MOVWF  x10
07666:  CLRF   x17
07668:  CLRF   x16
0766A:  MOVLW  32
0766C:  MOVWF  x15
0766E:  MOVLW  84
07670:  MOVWF  x14
07672:  CLRF   x1B
07674:  CLRF   x1A
07676:  CLRF   x19
07678:  CLRF   x18
0767A:  CLRF   x1F
0767C:  CLRF   x1E
0767E:  CLRF   x1D
07680:  CLRF   x1C
07682:  CLRF   x23
07684:  CLRF   x22
07686:  CLRF   x21
07688:  CLRF   x20
0768A:  CLRF   x27
0768C:  CLRF   x26
0768E:  CLRF   x25
07690:  CLRF   x24
07692:  CLRF   x2B
07694:  CLRF   x2A
07696:  MOVLW  20
07698:  MOVWF  x29
0769A:  MOVLW  82
0769C:  MOVWF  x28
0769E:  CLRF   x2F
076A0:  CLRF   x2E
076A2:  CLRF   x2D
076A4:  CLRF   x2C
076A6:  CLRF   x33
076A8:  CLRF   x32
076AA:  CLRF   x31
076AC:  CLRF   x30
076AE:  CLRF   x37
076B0:  CLRF   x36
076B2:  CLRF   x35
076B4:  CLRF   x34
076B6:  MOVLW  E0
076B8:  MOVWF  x3B
076BA:  MOVLW  2D
076BC:  MOVWF  x3A
076BE:  MOVLW  10
076C0:  MOVWF  x39
076C2:  MOVLW  75
076C4:  MOVWF  x38
076C6:  MOVLW  FF
076C8:  MOVWF  x3F
076CA:  MOVLW  21
076CC:  MOVWF  x3E
076CE:  MOVLW  15
076D0:  MOVWF  x3D
076D2:  MOVLW  80
076D4:  MOVWF  x3C
076D6:  MOVLW  82
076D8:  MOVWF  x43
076DA:  MOVLW  12
076DC:  MOVWF  x42
076DE:  MOVLW  F4
076E0:  MOVWF  x41
076E2:  MOVLW  86
076E4:  MOVWF  x40
076E6:  CLRF   x47
076E8:  CLRF   x46
076EA:  CLRF   x45
076EC:  CLRF   x44
076EE:  CLRF   x4B
076F0:  CLRF   x4A
076F2:  MOVLW  20
076F4:  MOVWF  x49
076F6:  MOVLW  83
076F8:  MOVWF  x48
076FA:  CLRF   x4F
076FC:  CLRF   x4E
076FE:  CLRF   x4D
07700:  CLRF   x4C
07702:  CLRF   x53
07704:  CLRF   x52
07706:  CLRF   x51
07708:  CLRF   x50
0770A:  CLRF   x57
0770C:  CLRF   x56
0770E:  CLRF   x55
07710:  CLRF   x54
07712:  CLRF   x5B
07714:  CLRF   x5A
07716:  CLRF   x59
07718:  CLRF   x58
0771A:  CLRF   x5F
0771C:  CLRF   x5E
0771E:  CLRF   x5D
07720:  CLRF   x5C
07722:  CLRF   x63
07724:  CLRF   x62
07726:  CLRF   x61
07728:  CLRF   x60
0772A:  CLRF   x67
0772C:  CLRF   x66
0772E:  CLRF   x65
07730:  CLRF   x64
07732:  CLRF   x6B
07734:  CLRF   x6A
07736:  CLRF   x69
07738:  CLRF   x68
0773A:  CLRF   x6F
0773C:  CLRF   x6E
0773E:  CLRF   x6D
07740:  CLRF   x6C
07742:  CLRF   x73
07744:  CLRF   x72
07746:  CLRF   x71
07748:  CLRF   x70
0774A:  CLRF   x77
0774C:  CLRF   x76
0774E:  MOVLW  20
07750:  MOVWF  x75
07752:  MOVLW  80
07754:  MOVWF  x74
07756:  CLRF   x7B
07758:  CLRF   x7A
0775A:  CLRF   x79
0775C:  CLRF   x78
0775E:  CLRF   x7F
07760:  CLRF   x7E
07762:  CLRF   x7D
07764:  CLRF   x7C
07766:  MOVLW  12
07768:  MOVWF  x80
0776A:  MOVLW  09
0776C:  MOVWF  x81
0776E:  MOVLW  0D
07770:  MOVWF  x82
07772:  CLRF   x83
07774:  CLRF   x84
07776:  CLRF   x85
07778:  CLRF   x86
0777A:  CLRF   x87
0777C:  CLRF   x88
0777E:  CLRF   x89
07780:  CLRF   x8A
07782:  CLRF   x8B
07784:  CLRF   x8C
07786:  CLRF   x8D
07788:  MOVF   FC1,W
0778A:  ANDLW  C0
0778C:  IORLW  0F
0778E:  MOVWF  FC1
07790:  MOVLW  07
07792:  MOVWF  FB4
07794:  CLRF   41
07796:  MOVLW  03
07798:  MOVWF  42
0779A:  MOVWF  43
0779C:  MOVLW  06
0779E:  MOVWF  44
077A0:  MOVLW  01
077A2:  MOVWF  45
077A4:  MOVLW  04
077A6:  MOVWF  46
077A8:  MOVLW  06
077AA:  MOVWF  47
077AC:  MOVLW  02
077AE:  MOVWF  48
077B0:  MOVLW  05
077B2:  MOVWF  49
077B4:  CLRF   4A
077B6:  MOVLW  03
077B8:  MOVWF  4B
077BA:  MOVLW  05
077BC:  MOVWF  4C
077BE:  CLRF   4D
077C0:  MOVLW  03
077C2:  MOVWF  4E
077C4:  MOVLW  04
077C6:  MOVWF  4F
077C8:  CLRF   50
077CA:  MOVLW  02
077CC:  MOVWF  51
077CE:  MOVLW  05
077D0:  MOVWF  52
077D2:  CLRF   53
077D4:  MOVLW  03
077D6:  MOVWF  54
077D8:  MOVLW  06
077DA:  MOVWF  55
077DC:  MOVLW  01
077DE:  MOVWF  56
077E0:  MOVLW  04
077E2:  MOVWF  57
077E4:  MOVLW  06
077E6:  MOVWF  58
077E8:  CLRF   59
077EA:  CLRF   5A
077EC:  CLRF   5B
077EE:  CLRF   5C
077F0:  CLRF   5D
077F2:  CLRF   5E
077F4:  CLRF   5F
077F6:  MOVLB  0
077F8:  CLRF   x60
077FA:  CLRF   x61
077FC:  CLRF   x62
077FE:  CLRF   x63
07800:  CLRF   x64
07802:  CLRF   x65
07804:  CLRF   x66
07806:  CLRF   x67
07808:  CLRF   x68
0780A:  CLRF   x69
0780C:  CLRF   x6A
0780E:  CLRF   x6B
07810:  CLRF   x6C
07812:  CLRF   x6D
07814:  CLRF   x6E
07816:  CLRF   x6F
07818:  CLRF   x70
0781A:  CLRF   x71
0781C:  CLRF   x72
0781E:  CLRF   x73
07820:  CLRF   x74
07822:  CLRF   x75
07824:  CLRF   x76
07826:  CLRF   x77
07828:  CLRF   x78
0782A:  CLRF   x79
0782C:  CLRF   x7A
0782E:  CLRF   x7B
07830:  CLRF   x7C
07832:  CLRF   x7D
07834:  CLRF   x7E
07836:  CLRF   x7F
07838:  CLRF   x80
0783A:  CLRF   x81
0783C:  CLRF   x82
0783E:  CLRF   x83
07840:  CLRF   x84
07842:  CLRF   x85
07844:  CLRF   x86
07846:  CLRF   x87
07848:  CLRF   x88
0784A:  CLRF   x89
0784C:  CLRF   x8A
0784E:  CLRF   x8B
07850:  CLRF   x8C
07852:  CLRF   x8D
07854:  CLRF   x8E
07856:  CLRF   x8F
07858:  CLRF   x90
0785A:  CLRF   x91
0785C:  CLRF   x92
0785E:  CLRF   x93
07860:  CLRF   x94
07862:  CLRF   x95
07864:  CLRF   x96
07866:  CLRF   x97
07868:  CLRF   x98
0786A:  CLRF   x99
0786C:  CLRF   x9A
0786E:  CLRF   x9B
07870:  CLRF   x9C
07872:  CLRF   x9D
07874:  CLRF   x9E
07876:  CLRF   x9F
07878:  CLRF   xA0
0787A:  CLRF   xA1
0787C:  CLRF   xA2
0787E:  CLRF   xA3
07880:  CLRF   xA4
07882:  CLRF   xA5
07884:  CLRF   xA6
07886:  CLRF   xA7
07888:  CLRF   xA8
0788A:  CLRF   xA9
0788C:  CLRF   xAA
0788E:  CLRF   xAB
07890:  CLRF   xAC
07892:  CLRF   xAD
07894:  CLRF   xAE
07896:  CLRF   xAF
07898:  CLRF   xB0
0789A:  CLRF   xB1
0789C:  CLRF   xB2
0789E:  CLRF   xB3
078A0:  CLRF   xB4
078A2:  CLRF   xB5
078A4:  CLRF   xB6
078A6:  CLRF   xB7
078A8:  CLRF   xB8
078AA:  CLRF   xB9
078AC:  CLRF   xBA
078AE:  CLRF   xBB
078B0:  CLRF   xBC
078B2:  CLRF   xBD
078B4:  CLRF   xBE
078B6:  CLRF   xBF
078B8:  CLRF   xC0
078BA:  CLRF   xC1
078BC:  CLRF   xC2
078BE:  CLRF   xC3
078C0:  CLRF   xC4
078C2:  CLRF   xC5
078C4:  CLRF   xC6
078C6:  CLRF   xC7
078C8:  CLRF   xC8
078CA:  CLRF   xC9
078CC:  CLRF   xCA
078CE:  CLRF   xCB
078D0:  CLRF   xCC
078D2:  CLRF   xCD
078D4:  CLRF   xCE
078D6:  CLRF   xCF
078D8:  CLRF   xD0
078DA:  CLRF   xD1
078DC:  CLRF   xD2
078DE:  CLRF   xD3
078E0:  CLRF   xD4
078E2:  CLRF   xD5
078E4:  CLRF   xD6
078E6:  CLRF   xD7
078E8:  CLRF   xD8
078EA:  CLRF   xD9
078EC:  CLRF   xDA
078EE:  CLRF   xDB
078F0:  CLRF   xDC
078F2:  CLRF   xDD
078F4:  CLRF   xDE
078F6:  CLRF   xDF
078F8:  CLRF   xE0
078FA:  CLRF   xE1
078FC:  CLRF   xE2
078FE:  CLRF   xE3
07900:  CLRF   xE4
07902:  CLRF   xE5
07904:  CLRF   xE6
07906:  CLRF   xE7
07908:  CLRF   xE8
0790A:  CLRF   xE9
0790C:  CLRF   xEA
0790E:  CLRF   xEB
07910:  CLRF   xEC
07912:  CLRF   xED
07914:  CLRF   xEE
07916:  CLRF   xEF
07918:  CLRF   xF0
0791A:  CLRF   xF1
0791C:  CLRF   xF2
0791E:  CLRF   xF3
07920:  CLRF   xF4
07922:  CLRF   xF5
07924:  CLRF   xF6
07926:  CLRF   xF7
07928:  CLRF   xF8
0792A:  CLRF   xF9
0792C:  CLRF   xFA
0792E:  CLRF   xFB
07930:  CLRF   xFC
07932:  CLRF   xFD
07934:  CLRF   xFE
07936:  CLRF   xFF
07938:  MOVLB  1
0793A:  CLRF   x00
0793C:  CLRF   x01
0793E:  CLRF   x02
07940:  CLRF   x03
07942:  CLRF   x04
07944:  CLRF   x05
07946:  CLRF   x06
07948:  CLRF   x07
0794A:  CLRF   x08
0794C:  CLRF   x09
0794E:  CLRF   x0A
07950:  CLRF   x0B
07952:  CLRF   x0C
07954:  CLRF   x0D
07956:  CLRF   x0E
07958:  CLRF   x0F
0795A:  CLRF   x10
0795C:  CLRF   x11
0795E:  CLRF   x12
07960:  CLRF   x13
07962:  CLRF   x14
07964:  CLRF   x15
07966:  CLRF   x16
07968:  CLRF   x17
0796A:  CLRF   x18
0796C:  CLRF   x19
0796E:  CLRF   x1A
07970:  CLRF   x1B
07972:  CLRF   x1C
07974:  CLRF   x1D
07976:  CLRF   x1E
07978:  CLRF   x1F
0797A:  CLRF   x20
0797C:  CLRF   x21
0797E:  CLRF   x22
07980:  CLRF   x23
07982:  CLRF   x24
07984:  CLRF   x25
07986:  CLRF   x26
07988:  CLRF   x27
0798A:  CLRF   x28
0798C:  CLRF   x29
0798E:  CLRF   x2A
07990:  CLRF   x2B
07992:  CLRF   x2C
07994:  CLRF   x2D
07996:  CLRF   x2E
07998:  CLRF   x2F
0799A:  CLRF   x30
0799C:  CLRF   x31
0799E:  CLRF   x32
079A0:  CLRF   x33
079A2:  CLRF   x34
079A4:  CLRF   x35
079A6:  CLRF   x36
079A8:  CLRF   x37
079AA:  CLRF   x38
079AC:  CLRF   x39
079AE:  CLRF   x3A
079B0:  CLRF   x3B
079B2:  CLRF   x3C
079B4:  CLRF   x3D
079B6:  CLRF   x3E
079B8:  CLRF   x3F
079BA:  CLRF   x40
079BC:  CLRF   x41
079BE:  CLRF   x42
079C0:  CLRF   x43
079C2:  CLRF   x44
079C4:  CLRF   x45
079C6:  CLRF   x46
079C8:  CLRF   x47
079CA:  CLRF   x48
079CC:  CLRF   x49
079CE:  CLRF   x4A
079D0:  CLRF   x4B
079D2:  CLRF   x4C
079D4:  CLRF   x4D
079D6:  CLRF   x4E
079D8:  CLRF   x4F
079DA:  CLRF   x50
079DC:  CLRF   x51
079DE:  CLRF   x52
079E0:  CLRF   x53
079E2:  CLRF   x54
079E4:  CLRF   x55
079E6:  CLRF   x56
079E8:  CLRF   x57
079EA:  CLRF   x58
079EC:  CLRF   x59
079EE:  CLRF   x5A
079F0:  CLRF   x5B
079F2:  CLRF   x5C
079F4:  CLRF   x5D
079F6:  CLRF   x5E
079F8:  CLRF   x5F
079FA:  CLRF   x60
079FC:  CLRF   x61
079FE:  CLRF   x62
07A00:  CLRF   x63
07A02:  CLRF   x64
07A04:  CLRF   x65
07A06:  CLRF   x66
07A08:  CLRF   x67
07A0A:  CLRF   x68
07A0C:  CLRF   x69
07A0E:  CLRF   x6A
07A10:  CLRF   x6B
07A12:  CLRF   x6C
07A14:  CLRF   x6D
07A16:  CLRF   x6E
07A18:  CLRF   x6F
07A1A:  CLRF   x70
07A1C:  CLRF   x71
07A1E:  CLRF   x72
07A20:  CLRF   x73
07A22:  CLRF   x74
07A24:  CLRF   x75
07A26:  CLRF   x76
07A28:  CLRF   x77
07A2A:  CLRF   x78
07A2C:  CLRF   x79
07A2E:  CLRF   x7A
07A30:  CLRF   x7B
07A32:  CLRF   x7C
07A34:  CLRF   x7D
07A36:  CLRF   x7E
07A38:  CLRF   x7F
07A3A:  CLRF   x80
07A3C:  CLRF   x81
07A3E:  CLRF   x82
07A40:  CLRF   x83
07A42:  CLRF   x84
07A44:  CLRF   x85
07A46:  CLRF   x86
07A48:  CLRF   x87
07A4A:  CLRF   x88
07A4C:  CLRF   x89
07A4E:  CLRF   x8A
07A50:  CLRF   x8B
07A52:  CLRF   x8C
07A54:  CLRF   x8D
07A56:  CLRF   x8E
07A58:  CLRF   x8F
07A5A:  CLRF   x90
07A5C:  CLRF   x91
07A5E:  CLRF   x92
07A60:  CLRF   x93
07A62:  CLRF   x94
07A64:  CLRF   x95
07A66:  CLRF   x96
07A68:  CLRF   x97
07A6A:  CLRF   x98
07A6C:  CLRF   x99
07A6E:  CLRF   x9A
07A70:  CLRF   x9B
07A72:  CLRF   x9C
07A74:  CLRF   x9D
07A76:  CLRF   x9E
07A78:  CLRF   x9F
07A7A:  CLRF   xA0
07A7C:  CLRF   xA1
07A7E:  CLRF   xA2
07A80:  CLRF   xA3
07A82:  CLRF   xA4
07A84:  CLRF   xA5
07A86:  CLRF   xA6
07A88:  CLRF   xA7
07A8A:  CLRF   xA8
07A8C:  CLRF   xA9
07A8E:  CLRF   xAA
07A90:  CLRF   xAB
07A92:  CLRF   xAC
07A94:  CLRF   xAD
07A96:  CLRF   xAE
07A98:  CLRF   xAF
07A9A:  CLRF   xB0
07A9C:  CLRF   xB1
07A9E:  CLRF   xB2
07AA0:  CLRF   xB3
07AA2:  CLRF   xB4
07AA4:  CLRF   xB5
07AA6:  CLRF   xB6
07AA8:  CLRF   xB7
07AAA:  CLRF   xB8
07AAC:  CLRF   xB9
07AAE:  CLRF   xBA
07AB0:  CLRF   xBB
07AB2:  CLRF   xBC
07AB4:  CLRF   xBD
07AB6:  CLRF   xBE
07AB8:  CLRF   xBF
07ABA:  CLRF   xC0
07ABC:  MOVLB  5
07ABE:  CLRF   x81
07AC0:  CLRF   x82
07AC2:  CLRF   x83
07AC4:  CLRF   x84
07AC6:  CLRF   x85
07AC8:  CLRF   x86
07ACA:  CLRF   x87
07ACC:  CLRF   x88
07ACE:  CLRF   xE8
07AD0:  CLRF   xE9
07AD2:  CLRF   xEA
07AD4:  CLRF   xEB
....................    enable_interrupts(int_rda); 
07AD6:  BSF    F9D.5
....................    enable_interrupts(global); 
07AD8:  MOVLW  C0
07ADA:  IORWF  FF2,F
....................    //delay_ms(1000);    
....................    ConfiguraInterrupciones(); 
07ADC:  MOVLB  0
07ADE:  GOTO   10B4
....................    LeeEEPROM(); 
07AE2:  GOTO   15EC
....................    LimitaValores(); 
07AE6:  GOTO   20E0
....................    rtc_init(); 
07AEA:  GOTO   2728
....................    delay_ms(1); 
07AEE:  MOVLW  01
07AF0:  MOVLB  7
07AF2:  MOVWF  xE8
07AF4:  MOVLB  0
07AF6:  CALL   1110
....................    Buzzer_on; 
07AFA:  BSF    F8C.7
07AFC:  BCF    F95.7
....................    delay_ms(500); 
07AFE:  MOVLW  02
07B00:  MOVLB  7
07B02:  MOVWF  xBA
07B04:  MOVLW  FA
07B06:  MOVWF  xE8
07B08:  MOVLB  0
07B0A:  CALL   1110
07B0E:  MOVLB  7
07B10:  DECFSZ xBA,F
07B12:  BRA    7B04
....................    Buzzer_off; 
07B14:  BCF    F8C.7
07B16:  BCF    F95.7
....................    printf("page Bienvenida"); 
07B18:  MOVLW  E0
07B1A:  MOVWF  FF6
07B1C:  MOVLW  03
07B1E:  MOVWF  FF7
07B20:  MOVLW  00
07B22:  MOVWF  FF8
07B24:  MOVLB  0
07B26:  CALL   277A
....................    SendDataDisplay(); 
07B2A:  CALL   27AC
....................    printf("bkcmd=0"); 
07B2E:  MOVLW  F0
07B30:  MOVWF  FF6
07B32:  MOVLW  03
07B34:  MOVWF  FF7
07B36:  MOVLW  00
07B38:  MOVWF  FF8
07B3A:  CALL   277A
....................    SendDataDisplay(); 
07B3E:  CALL   27AC
....................    delay_ms(3500);  
07B42:  MOVLW  0E
07B44:  MOVLB  7
07B46:  MOVWF  xBA
07B48:  MOVLW  FA
07B4A:  MOVWF  xE8
07B4C:  MOVLB  0
07B4E:  CALL   1110
07B52:  MOVLB  7
07B54:  DECFSZ xBA,F
07B56:  BRA    7B48
....................    printf("page Clave"); 
07B58:  MOVLW  F8
07B5A:  MOVWF  FF6
07B5C:  MOVLW  03
07B5E:  MOVWF  FF7
07B60:  MOVLW  00
07B62:  MOVWF  FF8
07B64:  MOVLB  0
07B66:  CALL   277A
....................    SendDataDisplay(); 
07B6A:  CALL   27AC
....................    for(i=0;i<80;i++) 
07B6E:  MOVLB  5
07B70:  CLRF   xBF
07B72:  MOVF   xBF,W
07B74:  SUBLW  4F
07B76:  BNC   7B98
....................       Temperatura=Leer_Sensor(MediaMovil); 
07B78:  MOVFF  590,7BA
07B7C:  MOVLB  0
07B7E:  CALL   2930
07B82:  MOVFF  03,627
07B86:  MOVFF  02,626
07B8A:  MOVFF  01,625
07B8E:  MOVFF  00,624
07B92:  MOVLB  5
07B94:  INCF   xBF,F
07B96:  BRA    7B72
....................        
....................    if(Setpoint<Temperatura){ 
07B98:  MOVFF  62F,816
07B9C:  MOVFF  62E,815
07BA0:  MOVFF  62D,814
07BA4:  MOVFF  62C,813
07BA8:  MOVFF  627,81A
07BAC:  MOVFF  626,819
07BB0:  MOVFF  625,818
07BB4:  MOVFF  624,817
07BB8:  MOVLB  0
07BBA:  CALL   1572
07BBE:  BNC   7C20
....................       Enfria=1; 
07BC0:  MOVLW  01
07BC2:  MOVLB  5
07BC4:  MOVWF  x94
....................       Ganancia=GananciaR*(Setpoint/44.5); 
07BC6:  MOVFF  62F,80F
07BCA:  MOVFF  62E,80E
07BCE:  MOVFF  62D,80D
07BD2:  MOVFF  62C,80C
07BD6:  MOVLB  8
07BD8:  CLRF   x13
07BDA:  CLRF   x12
07BDC:  MOVLW  32
07BDE:  MOVWF  x11
07BE0:  MOVLW  84
07BE2:  MOVWF  x10
07BE4:  MOVLB  0
07BE6:  CALL   1138
07BEA:  MOVFF  60F,816
07BEE:  MOVFF  60E,815
07BF2:  MOVFF  60D,814
07BF6:  MOVFF  60C,813
07BFA:  MOVFF  03,81A
07BFE:  MOVFF  02,819
07C02:  MOVFF  01,818
07C06:  MOVFF  00,817
07C0A:  CALL   283A
07C0E:  MOVFF  03,60B
07C12:  MOVFF  02,60A
07C16:  MOVFF  01,609
07C1A:  MOVFF  00,608
....................       //Ganancia=4; 
....................    }else{ 
07C1E:  BRA    7CB4
....................       Enfria=0; 
07C20:  MOVLB  5
07C22:  CLRF   x94
....................       Ganancia=GananciaR*(Setpoint/44.5); 
07C24:  MOVFF  62F,80F
07C28:  MOVFF  62E,80E
07C2C:  MOVFF  62D,80D
07C30:  MOVFF  62C,80C
07C34:  MOVLB  8
07C36:  CLRF   x13
07C38:  CLRF   x12
07C3A:  MOVLW  32
07C3C:  MOVWF  x11
07C3E:  MOVLW  84
07C40:  MOVWF  x10
07C42:  MOVLB  0
07C44:  CALL   1138
07C48:  MOVFF  60F,816
07C4C:  MOVFF  60E,815
07C50:  MOVFF  60D,814
07C54:  MOVFF  60C,813
07C58:  MOVFF  03,81A
07C5C:  MOVFF  02,819
07C60:  MOVFF  01,818
07C64:  MOVFF  00,817
07C68:  CALL   283A
07C6C:  MOVFF  03,60B
07C70:  MOVFF  02,60A
07C74:  MOVFF  01,609
07C78:  MOVFF  00,608
....................       Gananciamax=(0.21)*Setpoint; 
07C7C:  MOVLW  3D
07C7E:  MOVLB  8
07C80:  MOVWF  x16
07C82:  MOVLW  0A
07C84:  MOVWF  x15
07C86:  MOVLW  57
07C88:  MOVWF  x14
07C8A:  MOVLW  7C
07C8C:  MOVWF  x13
07C8E:  MOVFF  62F,81A
07C92:  MOVFF  62E,819
07C96:  MOVFF  62D,818
07C9A:  MOVFF  62C,817
07C9E:  MOVLB  0
07CA0:  CALL   283A
07CA4:  MOVFF  03,5DF
07CA8:  MOVFF  02,5DE
07CAC:  MOVFF  01,5DD
07CB0:  MOVFF  00,5DC
....................    }    
....................     
....................    if(SetpointH<Humedad){ 
07CB4:  MOVFF  637,816
07CB8:  MOVFF  636,815
07CBC:  MOVFF  635,814
07CC0:  MOVFF  634,813
07CC4:  MOVFF  61F,81A
07CC8:  MOVFF  61E,819
07CCC:  MOVFF  61D,818
07CD0:  MOVFF  61C,817
07CD4:  CALL   1572
07CD8:  BNC   7CE2
....................       Humidificar=1;             
07CDA:  MOVLB  5
07CDC:  BSF    x8B.7
....................    }else{ 
07CDE:  BRA    7CE6
07CE0:  MOVLB  0
....................       Humidificar=0; 
07CE2:  MOVLB  5
07CE4:  BCF    x8B.7
....................    }    
....................     
....................    if((mEstp==0)&&(hEstp==0)) 
07CE6:  MOVFF  5A5,816
07CEA:  MOVFF  5A4,815
07CEE:  MOVFF  5A3,814
07CF2:  MOVFF  5A2,813
07CF6:  MOVLB  8
07CF8:  CLRF   x1A
07CFA:  CLRF   x19
07CFC:  CLRF   x18
07CFE:  CLRF   x17
07D00:  MOVLB  0
07D02:  CALL   1572
07D06:  BNZ   7D30
07D08:  MOVFF  5A9,816
07D0C:  MOVFF  5A8,815
07D10:  MOVFF  5A7,814
07D14:  MOVFF  5A6,813
07D18:  MOVLB  8
07D1A:  CLRF   x1A
07D1C:  CLRF   x19
07D1E:  CLRF   x18
07D20:  CLRF   x17
07D22:  MOVLB  0
07D24:  CALL   1572
07D28:  BNZ   7D30
....................       Infinito=1; 
07D2A:  MOVLB  5
07D2C:  BSF    x8A.3
....................    else 
07D2E:  BRA    7D34
....................       Infinito=0; 
07D30:  MOVLB  5
07D32:  BCF    x8A.3
....................     
....................    for(i=0;i<20;i++){ 
07D34:  CLRF   xBF
07D36:  MOVF   xBF,W
07D38:  SUBLW  13
07D3A:  BNC   7E1C
....................       if(rampas[i].Horas==0 && rampas[i].Minutos==0){ 
07D3C:  MOVLB  7
07D3E:  CLRF   xE4
07D40:  MOVFF  5BF,7E3
07D44:  CLRF   xE6
07D46:  MOVLW  0F
07D48:  MOVWF  xE5
07D4A:  MOVLB  0
07D4C:  CALL   150E
07D50:  MOVFF  01,7BA
07D54:  MOVLW  03
07D56:  MOVLB  7
07D58:  ADDWF  01,W
07D5A:  MOVWF  01
07D5C:  MOVLW  00
07D5E:  ADDWFC 02,W
07D60:  MOVWF  03
07D62:  MOVF   01,W
07D64:  ADDLW  8E
07D66:  MOVWF  FE9
07D68:  MOVLW  06
07D6A:  ADDWFC 03,W
07D6C:  MOVWF  FEA
07D6E:  MOVFF  FEF,7BA
07D72:  MOVFF  FEC,7BB
07D76:  MOVFF  FEC,7BC
07D7A:  MOVFF  FEC,7BD
07D7E:  MOVFF  7BD,816
07D82:  MOVFF  7BC,815
07D86:  MOVFF  7BB,814
07D8A:  MOVFF  7BA,813
07D8E:  MOVLB  8
07D90:  CLRF   x1A
07D92:  CLRF   x19
07D94:  CLRF   x18
07D96:  CLRF   x17
07D98:  MOVLB  0
07D9A:  CALL   1572
07D9E:  BNZ   7E10
07DA0:  MOVLB  7
07DA2:  CLRF   xE4
07DA4:  MOVFF  5BF,7E3
07DA8:  CLRF   xE6
07DAA:  MOVLW  0F
07DAC:  MOVWF  xE5
07DAE:  MOVLB  0
07DB0:  CALL   150E
07DB4:  MOVFF  01,7BA
07DB8:  MOVLW  07
07DBA:  MOVLB  7
07DBC:  ADDWF  01,W
07DBE:  MOVWF  01
07DC0:  MOVLW  00
07DC2:  ADDWFC 02,W
07DC4:  MOVWF  03
07DC6:  MOVF   01,W
07DC8:  ADDLW  8E
07DCA:  MOVWF  FE9
07DCC:  MOVLW  06
07DCE:  ADDWFC 03,W
07DD0:  MOVWF  FEA
07DD2:  MOVFF  FEF,7BA
07DD6:  MOVFF  FEC,7BB
07DDA:  MOVFF  FEC,7BC
07DDE:  MOVFF  FEC,7BD
07DE2:  MOVFF  7BD,816
07DE6:  MOVFF  7BC,815
07DEA:  MOVFF  7BB,814
07DEE:  MOVFF  7BA,813
07DF2:  MOVLB  8
07DF4:  CLRF   x1A
07DF6:  CLRF   x19
07DF8:  CLRF   x18
07DFA:  CLRF   x17
07DFC:  MOVLB  0
07DFE:  CALL   1572
07E02:  BNZ   7E10
....................          Segmentos=i;   
07E04:  MOVFF  5BF,5A0
....................          break; 
07E08:  MOVLB  5
07E0A:  BRA    7E1C
....................       }else{ 
07E0C:  BRA    7E18
07E0E:  MOVLB  0
....................          Segmentos=i+1;   
07E10:  MOVLW  01
07E12:  MOVLB  5
07E14:  ADDWF  xBF,W
07E16:  MOVWF  xA0
....................       } 
....................    } 
07E18:  INCF   xBF,F
07E1A:  BRA    7D36
....................     
....................    for(i=0;i<80;i++) 
07E1C:  CLRF   xBF
07E1E:  MOVF   xBF,W
07E20:  SUBLW  4F
07E22:  BNC   7E44
....................       Humedad=leeHumedad(MediaMovil); 
07E24:  MOVFF  590,7BA
07E28:  MOVLB  0
07E2A:  CALL   3D12
07E2E:  MOVFF  03,61F
07E32:  MOVFF  02,61E
07E36:  MOVFF  01,61D
07E3A:  MOVFF  00,61C
07E3E:  MOVLB  5
07E40:  INCF   xBF,F
07E42:  BRA    7E1E
....................    while(true) 
....................    { 
....................       rtc_get_date(Dia,Mes,Year,dow); 
....................       rtc_get_time(Hora,Minuto,Segundo); 
....................       LeeDisplay(); 
*
07F08:  GOTO   45E2
....................       restart_wdt(); 
07F0C:  CLRWDT
....................  
....................       if(Lectura2==1){ 
07F0E:  MOVLB  5
07F10:  DECFSZ x93,W
07F12:  BRA    7F4A
....................          Temperatura=Leer_Sensor(MediaMovil); 
07F14:  MOVFF  590,7BA
07F18:  MOVLB  0
07F1A:  CALL   2930
07F1E:  MOVFF  03,627
07F22:  MOVFF  02,626
07F26:  MOVFF  01,625
07F2A:  MOVFF  00,624
....................          Humedad=leeHumedad(MediaMovil); 
07F2E:  MOVFF  590,7BA
07F32:  CALL   3D12
07F36:  MOVFF  03,61F
07F3A:  MOVFF  02,61E
07F3E:  MOVFF  01,61D
07F42:  MOVFF  00,61C
....................          Lectura2=0; 
07F46:  MOVLB  5
07F48:  CLRF   x93
....................       } 
....................     
.................... //_-------------------------------------------------------------------------------------------------------------------------------------------------------- 
....................    if(Menu==240){ //Menu de Bienvenida. 
07F4A:  MOVF   xBE,W
07F4C:  SUBLW  F0
07F4E:  BNZ   7F98
....................       printf("bkcmd=0"); 
07F50:  MOVLW  04
07F52:  MOVWF  FF6
07F54:  MOVLW  04
07F56:  MOVWF  FF7
07F58:  MOVLW  00
07F5A:  MOVWF  FF8
07F5C:  MOVLB  0
07F5E:  CALL   277A
....................       SendDataDisplay(); 
07F62:  CALL   27AC
....................       delay_ms(1500); 
07F66:  MOVLW  06
07F68:  MOVLB  7
07F6A:  MOVWF  xBA
07F6C:  MOVLW  FA
07F6E:  MOVWF  xE8
07F70:  MOVLB  0
07F72:  CALL   1110
07F76:  MOVLB  7
07F78:  DECFSZ xBA,F
07F7A:  BRA    7F6C
....................       printf("page Clave"); 
07F7C:  MOVLW  0C
07F7E:  MOVWF  FF6
07F80:  MOVLW  04
07F82:  MOVWF  FF7
07F84:  MOVLW  00
07F86:  MOVWF  FF8
07F88:  MOVLB  0
07F8A:  CALL   277A
....................       SendDataDisplay(); 
07F8E:  CALL   27AC
....................       ApagaSalidas(); 
07F92:  CALL   4746
07F96:  MOVLB  5
....................    } 
.................... //_-------------------------------------------------------------------------------------------------------------------------------------------------------- 
....................  
.................... //_-------------------------------------------------------------------------------------------------------------------------------------------------------- 
....................     if(Menu==0){ //Menu de Contrasea de acceso. 
07F98:  MOVF   xBE,F
07F9A:  BTFSS  FD8.2
07F9C:  BRA    84B6
....................       //ApagaSalidas(); 
....................       entro=OFF; 
07F9E:  BCF    x89.1
....................        
....................       if(RX_Buffer[4]==0x11){//11 
07FA0:  MOVF   2E,W
07FA2:  SUBLW  11
07FA4:  BNZ   7FC2
....................          if(TipoClave!=0){ 
07FA6:  MOVF   x9C,F
07FA8:  BZ    7FC2
....................             printf("page Principal"); 
07FAA:  MOVLW  18
07FAC:  MOVWF  FF6
07FAE:  MOVLW  04
07FB0:  MOVWF  FF7
07FB2:  MOVLW  00
07FB4:  MOVWF  FF8
07FB6:  MOVLB  0
07FB8:  CALL   277A
....................             SendDataDisplay(); 
07FBC:  CALL   27AC
07FC0:  MOVLB  5
....................          } 
....................       } 
....................        
....................       if(TipoClave==3){ 
07FC2:  MOVF   x9C,W
07FC4:  SUBLW  03
07FC6:  BNZ   7FF6
....................          printf("titulo.txt=\"Clave Nueva\""); 
07FC8:  MOVLW  28
07FCA:  MOVWF  FF6
07FCC:  MOVLW  04
07FCE:  MOVWF  FF7
07FD0:  MOVLW  00
07FD2:  MOVWF  FF8
07FD4:  MOVLB  0
07FD6:  CALL   277A
....................          SendDataDisplay(); 
07FDA:  CALL   27AC
....................          printf("doevents"); 
07FDE:  MOVLW  42
07FE0:  MOVWF  FF6
07FE2:  MOVLW  04
07FE4:  MOVWF  FF7
07FE6:  MOVLW  00
07FE8:  MOVWF  FF8
07FEA:  CALL   277A
....................          SendDataDisplay(); 
07FEE:  CALL   27AC
....................       }else if(TipoClave==2){ 
07FF2:  BRA    807E
07FF4:  MOVLB  5
07FF6:  MOVF   x9C,W
07FF8:  SUBLW  02
07FFA:  BNZ   802A
....................          printf("titulo.txt=\"Clave Actual\""); 
07FFC:  MOVLW  4C
07FFE:  MOVWF  FF6
08000:  MOVLW  04
08002:  MOVWF  FF7
08004:  MOVLW  00
08006:  MOVWF  FF8
08008:  MOVLB  0
0800A:  CALL   277A
....................          SendDataDisplay(); 
0800E:  CALL   27AC
....................          printf("doevents"); 
08012:  MOVLW  66
08014:  MOVWF  FF6
08016:  MOVLW  04
08018:  MOVWF  FF7
0801A:  MOVLW  00
0801C:  MOVWF  FF8
0801E:  CALL   277A
....................          SendDataDisplay(); 
08022:  CALL   27AC
....................       }else if(TipoClave==1 || TipoClave==4){ 
08026:  BRA    807E
08028:  MOVLB  5
0802A:  DECFSZ x9C,W
0802C:  BRA    8030
0802E:  BRA    8036
08030:  MOVF   x9C,W
08032:  SUBLW  04
08034:  BNZ   8064
....................          printf("titulo.txt=\"Clave Tecnico\""); 
08036:  MOVLW  70
08038:  MOVWF  FF6
0803A:  MOVLW  04
0803C:  MOVWF  FF7
0803E:  MOVLW  00
08040:  MOVWF  FF8
08042:  MOVLB  0
08044:  CALL   277A
....................          SendDataDisplay(); 
08048:  CALL   27AC
....................          printf("doevents"); 
0804C:  MOVLW  8C
0804E:  MOVWF  FF6
08050:  MOVLW  04
08052:  MOVWF  FF7
08054:  MOVLW  00
08056:  MOVWF  FF8
08058:  CALL   277A
....................          SendDataDisplay(); 
0805C:  CALL   27AC
....................       }else if(TipoClave==0){ 
08060:  BRA    807E
08062:  MOVLB  5
08064:  MOVF   x9C,F
08066:  BNZ   8080
....................          printf("titulo.txt=\"Ingrese Clave\""); 
08068:  MOVLW  96
0806A:  MOVWF  FF6
0806C:  MOVLW  04
0806E:  MOVWF  FF7
08070:  MOVLW  00
08072:  MOVWF  FF8
08074:  MOVLB  0
08076:  CALL   277A
....................          SendDataDisplay(); 
0807A:  CALL   27AC
0807E:  MOVLB  5
....................       } 
....................        
....................       if(RX_Buffer[3]==0x0f){//0f, recibe caracteres ingresados desde el Display 
08080:  MOVF   2D,W
08082:  SUBLW  0F
08084:  BTFSS  FD8.2
08086:  BRA    84B6
....................          if(TipoClave==0){ 
08088:  MOVF   x9C,F
0808A:  BTFSS  FD8.2
0808C:  BRA    8212
....................             if(RX_Buffer[4]==0x33&&RX_Buffer[5]==0x38&&RX_Buffer[6]==0x39&&RX_Buffer[7]==0x32){ // Si Ingresa clave para reset general del sistema. 
0808E:  MOVF   2E,W
08090:  SUBLW  33
08092:  BTFSS  FD8.2
08094:  BRA    818E
08096:  MOVF   2F,W
08098:  SUBLW  38
0809A:  BTFSS  FD8.2
0809C:  BRA    818E
0809E:  MOVF   30,W
080A0:  SUBLW  39
080A2:  BNZ   818E
080A4:  MOVF   31,W
080A6:  SUBLW  32
080A8:  BNZ   818E
....................                write_eeprom(10,0);delay_ms(20);write_eeprom(11,0);delay_ms(20);// Reestablece a contrasea de Fabrica y reinicia Programa. 
080AA:  CLRF   FAA
080AC:  MOVLW  0A
080AE:  MOVWF  FA9
080B0:  CLRF   FA8
080B2:  BCF    FA6.6
080B4:  BCF    FA6.7
080B6:  BSF    FA6.2
080B8:  MOVF   FF2,W
080BA:  MOVWF  00
080BC:  BCF    FF2.6
080BE:  BCF    FF2.7
080C0:  MOVLB  F
080C2:  MOVLW  55
080C4:  MOVWF  FA7
080C6:  MOVLW  AA
080C8:  MOVWF  FA7
080CA:  BSF    FA6.1
080CC:  BTFSC  FA6.1
080CE:  BRA    80CC
080D0:  BCF    FA6.2
080D2:  MOVF   00,W
080D4:  IORWF  FF2,F
080D6:  MOVLW  14
080D8:  MOVLB  7
080DA:  MOVWF  xE8
080DC:  MOVLB  0
080DE:  CALL   1110
080E2:  CLRF   FAA
080E4:  MOVLW  0B
080E6:  MOVWF  FA9
080E8:  CLRF   FA8
080EA:  BCF    FA6.6
080EC:  BCF    FA6.7
080EE:  BSF    FA6.2
080F0:  MOVF   FF2,W
080F2:  MOVWF  00
080F4:  BCF    FF2.6
080F6:  BCF    FF2.7
080F8:  MOVLB  F
080FA:  MOVLW  55
080FC:  MOVWF  FA7
080FE:  MOVLW  AA
08100:  MOVWF  FA7
08102:  BSF    FA6.1
08104:  BTFSC  FA6.1
08106:  BRA    8104
08108:  BCF    FA6.2
0810A:  MOVF   00,W
0810C:  IORWF  FF2,F
0810E:  MOVLW  14
08110:  MOVLB  7
08112:  MOVWF  xE8
08114:  MOVLB  0
08116:  CALL   1110
....................                write_eeprom(12,0);delay_ms(20);write_eeprom(13,0);delay_ms(20); 
0811A:  CLRF   FAA
0811C:  MOVLW  0C
0811E:  MOVWF  FA9
08120:  CLRF   FA8
08122:  BCF    FA6.6
08124:  BCF    FA6.7
08126:  BSF    FA6.2
08128:  MOVF   FF2,W
0812A:  MOVWF  00
0812C:  BCF    FF2.6
0812E:  BCF    FF2.7
08130:  MOVLB  F
08132:  MOVLW  55
08134:  MOVWF  FA7
08136:  MOVLW  AA
08138:  MOVWF  FA7
0813A:  BSF    FA6.1
0813C:  BTFSC  FA6.1
0813E:  BRA    813C
08140:  BCF    FA6.2
08142:  MOVF   00,W
08144:  IORWF  FF2,F
08146:  MOVLW  14
08148:  MOVLB  7
0814A:  MOVWF  xE8
0814C:  MOVLB  0
0814E:  CALL   1110
08152:  CLRF   FAA
08154:  MOVLW  0D
08156:  MOVWF  FA9
08158:  CLRF   FA8
0815A:  BCF    FA6.6
0815C:  BCF    FA6.7
0815E:  BSF    FA6.2
08160:  MOVF   FF2,W
08162:  MOVWF  00
08164:  BCF    FF2.6
08166:  BCF    FF2.7
08168:  MOVLB  F
0816A:  MOVLW  55
0816C:  MOVWF  FA7
0816E:  MOVLW  AA
08170:  MOVWF  FA7
08172:  BSF    FA6.1
08174:  BTFSC  FA6.1
08176:  BRA    8174
08178:  BCF    FA6.2
0817A:  MOVF   00,W
0817C:  IORWF  FF2,F
0817E:  MOVLW  14
08180:  MOVLB  7
08182:  MOVWF  xE8
08184:  MOVLB  0
08186:  CALL   1110
....................                reset_cpu(); 
0818A:  RESET
0818C:  MOVLB  5
....................             } 
....................             if(RX_Buffer[4]>=0x30 && RX_Buffer[5]>=0x30 && RX_Buffer[6]>=0x30 && RX_Buffer[7]>=0x30 
....................             && RX_Buffer[4]<=0x39 && RX_Buffer[5]<=0x39 && RX_Buffer[6]<=0x39 && RX_Buffer[7]<=0x39){ 
0818E:  MOVF   2E,W
08190:  SUBLW  2F
08192:  BC    8210
08194:  MOVF   2F,W
08196:  SUBLW  2F
08198:  BC    8210
0819A:  MOVF   30,W
0819C:  SUBLW  2F
0819E:  BC    8210
081A0:  MOVF   31,W
081A2:  SUBLW  2F
081A4:  BC    8210
081A6:  MOVF   2E,W
081A8:  SUBLW  39
081AA:  BNC   8210
081AC:  MOVF   2F,W
081AE:  SUBLW  39
081B0:  BNC   8210
081B2:  MOVF   30,W
081B4:  SUBLW  39
081B6:  BNC   8210
081B8:  MOVF   31,W
081BA:  SUBLW  39
081BC:  BNC   8210
....................             if((RX_Buffer[4]==Password[0]+0x30)&&(RX_Buffer[5]==Password[1]+0x30)&&(RX_Buffer[6]==Password[2]+0x30)&&(RX_Buffer[7]==Password[3]+0x30)){ 
081BE:  MOVLW  30
081C0:  ADDWF  xE8,W
081C2:  SUBWF  2E,W
081C4:  BNZ   81F8
081C6:  MOVLW  30
081C8:  ADDWF  xE9,W
081CA:  SUBWF  2F,W
081CC:  BNZ   81F8
081CE:  MOVLW  30
081D0:  ADDWF  xEA,W
081D2:  SUBWF  30,W
081D4:  BNZ   81F8
081D6:  MOVLW  30
081D8:  ADDWF  xEB,W
081DA:  SUBWF  31,W
081DC:  BNZ   81F8
....................                   printf("page ClaveCorrecta"); 
081DE:  MOVLW  B2
081E0:  MOVWF  FF6
081E2:  MOVLW  04
081E4:  MOVWF  FF7
081E6:  MOVLW  00
081E8:  MOVWF  FF8
081EA:  MOVLB  0
081EC:  CALL   277A
....................                   SendDataDisplay(); 
081F0:  CALL   27AC
....................                   //RX_Buffer[3]=0x00;RX_Buffer2[3]=0x00;   
....................                }else{ 
081F4:  BRA    820E
081F6:  MOVLB  5
....................                   printf("page ClaveBad"); 
081F8:  MOVLW  C6
081FA:  MOVWF  FF6
081FC:  MOVLW  04
081FE:  MOVWF  FF7
08200:  MOVLW  00
08202:  MOVWF  FF8
08204:  MOVLB  0
08206:  CALL   277A
....................                   SendDataDisplay(); 
0820A:  CALL   27AC
0820E:  MOVLB  5
....................                   //RX_Buffer[3]=0x00;RX_Buffer2[3]=0x00;   
....................                }  
....................             } 
....................          }else if(TipoClave==1){ 
08210:  BRA    84B6
08212:  DECFSZ x9C,W
08214:  BRA    8262
....................             if(RX_Buffer[4]==0x34&&RX_Buffer[5]==0x34&&RX_Buffer[6]==0x34&&RX_Buffer[7]==0x34){ // Si Ingresa clave de Servicio Tecnico 
08216:  MOVF   2E,W
08218:  SUBLW  34
0821A:  BNZ   8248
0821C:  MOVF   2F,W
0821E:  SUBLW  34
08220:  BNZ   8248
08222:  MOVF   30,W
08224:  SUBLW  34
08226:  BNZ   8248
08228:  MOVF   31,W
0822A:  SUBLW  34
0822C:  BNZ   8248
....................                printf("page Config"); 
0822E:  MOVLW  D4
08230:  MOVWF  FF6
08232:  MOVLW  04
08234:  MOVWF  FF7
08236:  MOVLW  00
08238:  MOVWF  FF8
0823A:  MOVLB  0
0823C:  CALL   277A
....................                SendDataDisplay(); 
08240:  CALL   27AC
....................             }else{ 
08244:  BRA    825E
08246:  MOVLB  5
....................                printf("page Principal"); 
08248:  MOVLW  E0
0824A:  MOVWF  FF6
0824C:  MOVLW  04
0824E:  MOVWF  FF7
08250:  MOVLW  00
08252:  MOVWF  FF8
08254:  MOVLB  0
08256:  CALL   277A
....................                SendDataDisplay(); 
0825A:  CALL   27AC
....................             } 
....................          }else if(TipoClave==2){ 
0825E:  BRA    84B4
08260:  MOVLB  5
08262:  MOVF   x9C,W
08264:  SUBLW  02
08266:  BNZ   8308
....................             if(RX_Buffer[4]>=0x30 && RX_Buffer[5]>=0x30 && RX_Buffer[6]>=0x30 && RX_Buffer[7]>=0x30 
....................             && RX_Buffer[4]<=0x39 && RX_Buffer[5]<=0x39 && RX_Buffer[6]<=0x39 && RX_Buffer[7]<=0x39){ 
08268:  MOVF   2E,W
0826A:  SUBLW  2F
0826C:  BC    8306
0826E:  MOVF   2F,W
08270:  SUBLW  2F
08272:  BC    8306
08274:  MOVF   30,W
08276:  SUBLW  2F
08278:  BC    8306
0827A:  MOVF   31,W
0827C:  SUBLW  2F
0827E:  BC    8306
08280:  MOVF   2E,W
08282:  SUBLW  39
08284:  BNC   8306
08286:  MOVF   2F,W
08288:  SUBLW  39
0828A:  BNC   8306
0828C:  MOVF   30,W
0828E:  SUBLW  39
08290:  BNC   8306
08292:  MOVF   31,W
08294:  SUBLW  39
08296:  BNC   8306
....................             if((RX_Buffer[4]==Password[0]+0x30)&&(RX_Buffer[5]==Password[1]+0x30)&&(RX_Buffer[6]==Password[2]+0x30)&&(RX_Buffer[7]==Password[3]+0x30)){ 
08298:  MOVLW  30
0829A:  ADDWF  xE8,W
0829C:  SUBWF  2E,W
0829E:  BNZ   82EE
082A0:  MOVLW  30
082A2:  ADDWF  xE9,W
082A4:  SUBWF  2F,W
082A6:  BNZ   82EE
082A8:  MOVLW  30
082AA:  ADDWF  xEA,W
082AC:  SUBWF  30,W
082AE:  BNZ   82EE
082B0:  MOVLW  30
082B2:  ADDWF  xEB,W
082B4:  SUBWF  31,W
082B6:  BNZ   82EE
....................                printf("page Clave"); 
082B8:  MOVLW  F0
082BA:  MOVWF  FF6
082BC:  MOVLW  04
082BE:  MOVWF  FF7
082C0:  MOVLW  00
082C2:  MOVWF  FF8
082C4:  MOVLB  0
082C6:  CALL   277A
....................                SendDataDisplay(); 
082CA:  CALL   27AC
....................                printf("titulo.txt=\"Clave Nueva\""); 
082CE:  MOVLW  FC
082D0:  MOVWF  FF6
082D2:  MOVLW  04
082D4:  MOVWF  FF7
082D6:  MOVLW  00
082D8:  MOVWF  FF8
082DA:  CALL   277A
....................                SendDataDisplay(); 
082DE:  CALL   27AC
....................                TipoClave=3; 
082E2:  MOVLW  03
082E4:  MOVLB  5
082E6:  MOVWF  x9C
....................                RX_Buffer[3]=0x00; 
082E8:  CLRF   2D
....................                RX_Buffer2[3]=0x00; 
082EA:  CLRF   38
....................             }else{ 
082EC:  BRA    8306
....................                printf("page Principal"); 
082EE:  MOVLW  16
082F0:  MOVWF  FF6
082F2:  MOVLW  05
082F4:  MOVWF  FF7
082F6:  MOVLW  00
082F8:  MOVWF  FF8
082FA:  MOVLB  0
082FC:  CALL   277A
....................                SendDataDisplay(); 
08300:  CALL   27AC
08304:  MOVLB  5
....................                //RX_Buffer[3]=0x00; 
....................                //RX_Buffer2[3]=0x00; 
....................             }  
....................             } 
....................          }else if(TipoClave==3){ 
08306:  BRA    84B6
08308:  MOVF   x9C,W
0830A:  SUBLW  03
0830C:  BTFSS  FD8.2
0830E:  BRA    8466
....................             printf("titulo.txt=\"Clave Nueva\""); 
08310:  MOVLW  26
08312:  MOVWF  FF6
08314:  MOVLW  05
08316:  MOVWF  FF7
08318:  MOVLW  00
0831A:  MOVWF  FF8
0831C:  MOVLB  0
0831E:  CALL   277A
....................             SendDataDisplay(); 
08322:  CALL   27AC
....................             printf("page Principal"); 
08326:  MOVLW  40
08328:  MOVWF  FF6
0832A:  MOVLW  05
0832C:  MOVWF  FF7
0832E:  MOVLW  00
08330:  MOVWF  FF8
08332:  CALL   277A
....................             SendDataDisplay(); 
08336:  CALL   27AC
....................             if(!GuardaEEPROM){ 
0833A:  MOVLB  5
0833C:  BTFSC  x89.2
0833E:  BRA    844C
....................                write_eeprom(10,RX_Buffer[4]-0x30);delay_ms(20);write_eeprom(11,RX_Buffer[5]-0x30);delay_ms(20); 
08340:  MOVLW  30
08342:  SUBWF  2E,W
08344:  MOVLB  7
08346:  MOVWF  xBA
08348:  CLRF   FAA
0834A:  MOVLW  0A
0834C:  MOVWF  FA9
0834E:  MOVFF  7BA,FA8
08352:  BCF    FA6.6
08354:  BCF    FA6.7
08356:  BSF    FA6.2
08358:  MOVF   FF2,W
0835A:  MOVWF  00
0835C:  BCF    FF2.6
0835E:  BCF    FF2.7
08360:  MOVLB  F
08362:  MOVLW  55
08364:  MOVWF  FA7
08366:  MOVLW  AA
08368:  MOVWF  FA7
0836A:  BSF    FA6.1
0836C:  BTFSC  FA6.1
0836E:  BRA    836C
08370:  BCF    FA6.2
08372:  MOVF   00,W
08374:  IORWF  FF2,F
08376:  MOVLW  14
08378:  MOVLB  7
0837A:  MOVWF  xE8
0837C:  MOVLB  0
0837E:  CALL   1110
08382:  MOVLW  30
08384:  SUBWF  2F,W
08386:  MOVLB  7
08388:  MOVWF  xBA
0838A:  CLRF   FAA
0838C:  MOVLW  0B
0838E:  MOVWF  FA9
08390:  MOVFF  7BA,FA8
08394:  BCF    FA6.6
08396:  BCF    FA6.7
08398:  BSF    FA6.2
0839A:  MOVF   FF2,W
0839C:  MOVWF  00
0839E:  BCF    FF2.6
083A0:  BCF    FF2.7
083A2:  MOVLB  F
083A4:  MOVLW  55
083A6:  MOVWF  FA7
083A8:  MOVLW  AA
083AA:  MOVWF  FA7
083AC:  BSF    FA6.1
083AE:  BTFSC  FA6.1
083B0:  BRA    83AE
083B2:  BCF    FA6.2
083B4:  MOVF   00,W
083B6:  IORWF  FF2,F
083B8:  MOVLW  14
083BA:  MOVLB  7
083BC:  MOVWF  xE8
083BE:  MOVLB  0
083C0:  CALL   1110
....................                write_eeprom(12,RX_Buffer[6]-0x30);delay_ms(20);write_eeprom(13,RX_Buffer[7]-0x30);delay_ms(20); 
083C4:  MOVLW  30
083C6:  SUBWF  30,W
083C8:  MOVLB  7
083CA:  MOVWF  xBA
083CC:  CLRF   FAA
083CE:  MOVLW  0C
083D0:  MOVWF  FA9
083D2:  MOVFF  7BA,FA8
083D6:  BCF    FA6.6
083D8:  BCF    FA6.7
083DA:  BSF    FA6.2
083DC:  MOVF   FF2,W
083DE:  MOVWF  00
083E0:  BCF    FF2.6
083E2:  BCF    FF2.7
083E4:  MOVLB  F
083E6:  MOVLW  55
083E8:  MOVWF  FA7
083EA:  MOVLW  AA
083EC:  MOVWF  FA7
083EE:  BSF    FA6.1
083F0:  BTFSC  FA6.1
083F2:  BRA    83F0
083F4:  BCF    FA6.2
083F6:  MOVF   00,W
083F8:  IORWF  FF2,F
083FA:  MOVLW  14
083FC:  MOVLB  7
083FE:  MOVWF  xE8
08400:  MOVLB  0
08402:  CALL   1110
08406:  MOVLW  30
08408:  SUBWF  31,W
0840A:  MOVLB  7
0840C:  MOVWF  xBA
0840E:  CLRF   FAA
08410:  MOVLW  0D
08412:  MOVWF  FA9
08414:  MOVFF  7BA,FA8
08418:  BCF    FA6.6
0841A:  BCF    FA6.7
0841C:  BSF    FA6.2
0841E:  MOVF   FF2,W
08420:  MOVWF  00
08422:  BCF    FF2.6
08424:  BCF    FF2.7
08426:  MOVLB  F
08428:  MOVLW  55
0842A:  MOVWF  FA7
0842C:  MOVLW  AA
0842E:  MOVWF  FA7
08430:  BSF    FA6.1
08432:  BTFSC  FA6.1
08434:  BRA    8432
08436:  BCF    FA6.2
08438:  MOVF   00,W
0843A:  IORWF  FF2,F
0843C:  MOVLW  14
0843E:  MOVLB  7
08440:  MOVWF  xE8
08442:  MOVLB  0
08444:  CALL   1110
....................                GuardaEEPROM=ON; 
08448:  MOVLB  5
0844A:  BSF    x89.2
....................             } 
....................             Password[0]=RX_Buffer[4]-0x30;Password[1]=RX_Buffer[5]-0x30;Password[2]=RX_Buffer[6]-0x30;Password[3]=RX_Buffer[7]-0x30; 
0844C:  MOVLW  30
0844E:  SUBWF  2E,W
08450:  MOVWF  xE8
08452:  MOVLW  30
08454:  SUBWF  2F,W
08456:  MOVWF  xE9
08458:  MOVLW  30
0845A:  SUBWF  30,W
0845C:  MOVWF  xEA
0845E:  MOVLW  30
08460:  SUBWF  31,W
08462:  MOVWF  xEB
....................             //RX_Buffer[3]=0x00; 
....................             //RX_Buffer2[3]=0x00; 
....................          }else if(TipoClave==4){ 
08464:  BRA    84B6
08466:  MOVF   x9C,W
08468:  SUBLW  04
0846A:  BNZ   84B6
....................             if(RX_Buffer[4]==0x34&&RX_Buffer[5]==0x34&&RX_Buffer[6]==0x34&&RX_Buffer[7]==0x34){ // Si Ingresa clave de Servicio Tecnico 
0846C:  MOVF   2E,W
0846E:  SUBLW  34
08470:  BNZ   849E
08472:  MOVF   2F,W
08474:  SUBLW  34
08476:  BNZ   849E
08478:  MOVF   30,W
0847A:  SUBLW  34
0847C:  BNZ   849E
0847E:  MOVF   31,W
08480:  SUBLW  34
08482:  BNZ   849E
....................                printf("page Test"); 
08484:  MOVLW  50
08486:  MOVWF  FF6
08488:  MOVLW  05
0848A:  MOVWF  FF7
0848C:  MOVLW  00
0848E:  MOVWF  FF8
08490:  MOVLB  0
08492:  CALL   277A
....................                SendDataDisplay(); 
08496:  CALL   27AC
....................             }else{ 
0849A:  BRA    84B4
0849C:  MOVLB  5
....................                printf("page Principal"); 
0849E:  MOVLW  5A
084A0:  MOVWF  FF6
084A2:  MOVLW  05
084A4:  MOVWF  FF7
084A6:  MOVLW  00
084A8:  MOVWF  FF8
084AA:  MOVLB  0
084AC:  CALL   277A
....................                SendDataDisplay(); 
084B0:  CALL   27AC
084B4:  MOVLB  5
....................             } 
....................             //RX_Buffer[3]=0x00; 
....................             //RX_Buffer2[3]=0x00; 
....................          } 
....................       } 
....................     } 
.................... //_--------------------------------------------------------------------------------------------------------------------------------------------------------        
....................  
.................... //_-------------------------------------------------------------------------------------------------------------------------------------------------------- 
....................     if(Menu==2){ //Menu de Tiempo de Duracin 
084B6:  MOVF   xBE,W
084B8:  SUBLW  02
084BA:  BTFSS  FD8.2
084BC:  GOTO   95A2
....................          printf("fecha.txt=\"Fecha:%02u/%02u/20%02u    Hora: %02u:%02u:%02u\"",Dia,Mes,Year,Hora,Minuto,Segundo); 
084C0:  MOVLW  6A
084C2:  MOVWF  FF6
084C4:  MOVLW  05
084C6:  MOVWF  FF7
084C8:  MOVLW  00
084CA:  MOVWF  FF8
084CC:  MOVLW  11
084CE:  MOVLB  7
084D0:  MOVWF  xC2
084D2:  MOVLB  0
084D4:  CALL   477C
084D8:  MOVFF  682,7BB
084DC:  MOVLW  01
084DE:  MOVLB  7
084E0:  MOVWF  xBC
084E2:  MOVLB  0
084E4:  CALL   47DA
084E8:  MOVLW  2F
084EA:  BTFSS  F9E.4
084EC:  BRA    84EA
084EE:  MOVWF  FAD
084F0:  MOVFF  681,7BB
084F4:  MOVLW  01
084F6:  MOVLB  7
084F8:  MOVWF  xBC
084FA:  MOVLB  0
084FC:  CALL   47DA
08500:  MOVLW  2F
08502:  BTFSS  F9E.4
08504:  BRA    8502
08506:  MOVWF  FAD
08508:  MOVLW  32
0850A:  BTFSS  F9E.4
0850C:  BRA    850A
0850E:  MOVWF  FAD
08510:  MOVLW  30
08512:  BTFSS  F9E.4
08514:  BRA    8512
08516:  MOVWF  FAD
08518:  MOVFF  680,7BB
0851C:  MOVLW  01
0851E:  MOVLB  7
08520:  MOVWF  xBC
08522:  MOVLB  0
08524:  CALL   47DA
08528:  MOVLW  8B
0852A:  MOVWF  FF6
0852C:  MOVLW  05
0852E:  MOVWF  FF7
08530:  MOVLW  00
08532:  MOVWF  FF8
08534:  MOVLW  0A
08536:  MOVLB  7
08538:  MOVWF  xC2
0853A:  MOVLB  0
0853C:  CALL   477C
08540:  MOVFF  683,7BB
08544:  MOVLW  01
08546:  MOVLB  7
08548:  MOVWF  xBC
0854A:  MOVLB  0
0854C:  CALL   47DA
08550:  MOVLW  3A
08552:  BTFSS  F9E.4
08554:  BRA    8552
08556:  MOVWF  FAD
08558:  MOVFF  684,7BB
0855C:  MOVLW  01
0855E:  MOVLB  7
08560:  MOVWF  xBC
08562:  MOVLB  0
08564:  CALL   47DA
08568:  MOVLW  3A
0856A:  BTFSS  F9E.4
0856C:  BRA    856A
0856E:  MOVWF  FAD
08570:  MOVFF  685,7BB
08574:  MOVLW  01
08576:  MOVLB  7
08578:  MOVWF  xBC
0857A:  MOVLB  0
0857C:  CALL   47DA
08580:  MOVLW  22
08582:  BTFSS  F9E.4
08584:  BRA    8582
08586:  MOVWF  FAD
....................          SendDataDisplay(); 
08588:  CALL   27AC
....................           
....................          if(!rampa){ 
0858C:  MOVLB  5
0858E:  BTFSC  x8B.4
08590:  BRA    8A96
....................             if(RX_Buffer[4]==0x0a){//Selecciono Minutos 
08592:  MOVF   2E,W
08594:  SUBLW  0A
08596:  BNZ   859C
....................                Minutos=OFF; 
08598:  BCF    x89.4
....................                Horas=ON; 
0859A:  BSF    x89.3
....................             } 
....................              
....................             if(RX_Buffer[4]==0x0b){//Selecciono Segundos 
0859C:  MOVF   2E,W
0859E:  SUBLW  0B
085A0:  BNZ   85A6
....................                Minutos=ON; 
085A2:  BSF    x89.4
....................                Horas=OFF; 
085A4:  BCF    x89.3
....................             }            
....................              
....................             if(RX_Buffer[4]==0x11 || LEFT){//Selecciono Regresar 
085A6:  MOVF   2E,W
085A8:  SUBLW  11
085AA:  BZ    85B2
085AC:  BSF    F93.3
085AE:  BTFSC  F81.3
085B0:  BRA    86AE
....................                delay_ms(200); 
085B2:  MOVLW  C8
085B4:  MOVLB  7
085B6:  MOVWF  xE8
085B8:  MOVLB  0
085BA:  CALL   1110
....................                if(RX_Buffer[4]==0x11 || LEFT){ 
085BE:  MOVF   2E,W
085C0:  SUBLW  11
085C2:  BZ    85CA
085C4:  BSF    F93.3
085C6:  BTFSC  F81.3
085C8:  BRA    86B0
....................                   Minutos=OFF; 
085CA:  MOVLB  5
085CC:  BCF    x89.4
....................                   Horas=OFF; 
085CE:  BCF    x89.3
....................                   printf("page Principal"); 
085D0:  MOVLW  A6
085D2:  MOVWF  FF6
085D4:  MOVLW  05
085D6:  MOVWF  FF7
085D8:  MOVLW  00
085DA:  MOVWF  FF8
085DC:  MOVLB  0
085DE:  CALL   277A
....................                   SendDataDisplay();   
085E2:  CALL   27AC
....................                   if(!GuardaEEPROM){ 
085E6:  MOVLB  5
085E8:  BTFSC  x89.2
085EA:  BRA    86AE
....................                      write_eeprom(0,mEstp); 
085EC:  CLRF   FAA
085EE:  CLRF   FA9
085F0:  MOVFF  5A2,FA8
085F4:  BCF    FA6.6
085F6:  BCF    FA6.7
085F8:  BSF    FA6.2
085FA:  MOVF   FF2,W
085FC:  MOVWF  00
085FE:  BCF    FF2.6
08600:  BCF    FF2.7
08602:  MOVLB  F
08604:  MOVLW  55
08606:  MOVWF  FA7
08608:  MOVLW  AA
0860A:  MOVWF  FA7
0860C:  BSF    FA6.1
0860E:  BTFSC  FA6.1
08610:  BRA    860E
08612:  BCF    FA6.2
08614:  MOVF   00,W
08616:  IORWF  FF2,F
....................                      delay_ms(10); 
08618:  MOVLW  0A
0861A:  MOVLB  7
0861C:  MOVWF  xE8
0861E:  MOVLB  0
08620:  CALL   1110
....................                      write_eeprom(1,hEstp); 
08624:  CLRF   FAA
08626:  MOVLW  01
08628:  MOVWF  FA9
0862A:  MOVFF  5A6,FA8
0862E:  BCF    FA6.6
08630:  BCF    FA6.7
08632:  BSF    FA6.2
08634:  MOVF   FF2,W
08636:  MOVWF  00
08638:  BCF    FF2.6
0863A:  BCF    FF2.7
0863C:  MOVLB  F
0863E:  MOVLW  55
08640:  MOVWF  FA7
08642:  MOVLW  AA
08644:  MOVWF  FA7
08646:  BSF    FA6.1
08648:  BTFSC  FA6.1
0864A:  BRA    8648
0864C:  BCF    FA6.2
0864E:  MOVF   00,W
08650:  IORWF  FF2,F
....................                      delay_ms(10); 
08652:  MOVLW  0A
08654:  MOVLB  7
08656:  MOVWF  xE8
08658:  MOVLB  0
0865A:  CALL   1110
....................                      //mEst=mEstp; 
....................                      //hEst=hEstp; 
....................                      if((mEstp==0)&&(hEstp==0)) 
0865E:  MOVFF  5A5,816
08662:  MOVFF  5A4,815
08666:  MOVFF  5A3,814
0866A:  MOVFF  5A2,813
0866E:  MOVLB  8
08670:  CLRF   x1A
08672:  CLRF   x19
08674:  CLRF   x18
08676:  CLRF   x17
08678:  MOVLB  0
0867A:  CALL   1572
0867E:  BNZ   86A8
08680:  MOVFF  5A9,816
08684:  MOVFF  5A8,815
08688:  MOVFF  5A7,814
0868C:  MOVFF  5A6,813
08690:  MOVLB  8
08692:  CLRF   x1A
08694:  CLRF   x19
08696:  CLRF   x18
08698:  CLRF   x17
0869A:  MOVLB  0
0869C:  CALL   1572
086A0:  BNZ   86A8
....................                         Infinito=1; 
086A2:  MOVLB  5
086A4:  BSF    x8A.3
....................                      else 
086A6:  BRA    86AC
....................                         Infinito=0; 
086A8:  MOVLB  5
086AA:  BCF    x8A.3
....................                      GuardaEEPROM=ON; 
086AC:  BSF    x89.2
086AE:  MOVLB  0
....................                   } 
....................                } 
....................             } 
....................              
....................             if(RIGHT){ 
086B0:  BSF    F93.2
086B2:  BTFSC  F81.2
086B4:  BRA    8732
....................                delay_ms(200); 
086B6:  MOVLW  C8
086B8:  MOVLB  7
086BA:  MOVWF  xE8
086BC:  MOVLB  0
086BE:  CALL   1110
....................                if(RIGHT){ 
086C2:  BSF    F93.2
086C4:  BTFSC  F81.2
086C6:  BRA    8732
....................                   if(!Minutos){ 
086C8:  MOVLB  5
086CA:  BTFSC  x89.4
086CC:  BRA    8700
....................                      Minutos=ON; 
086CE:  BSF    x89.4
....................                      Horas=OFF; 
086D0:  BCF    x89.3
....................                      printf("tsecest.pco=65535"); 
086D2:  MOVLW  B6
086D4:  MOVWF  FF6
086D6:  MOVLW  05
086D8:  MOVWF  FF7
086DA:  MOVLW  00
086DC:  MOVWF  FF8
086DE:  MOVLB  0
086E0:  CALL   277A
....................                      SendDataDisplay();   
086E4:  CALL   27AC
....................                      printf("tminest.pco=0"); 
086E8:  MOVLW  C8
086EA:  MOVWF  FF6
086EC:  MOVLW  05
086EE:  MOVWF  FF7
086F0:  MOVLW  00
086F2:  MOVWF  FF8
086F4:  CALL   277A
....................                      SendDataDisplay();   
086F8:  CALL   27AC
....................                   }else if(!Horas){ 
086FC:  BRA    8732
086FE:  MOVLB  5
08700:  BTFSC  x89.3
08702:  BRA    8734
....................                      Minutos=OFF; 
08704:  BCF    x89.4
....................                      Horas=ON; 
08706:  BSF    x89.3
....................                      printf("tsecest.pco=0"); 
08708:  MOVLW  D6
0870A:  MOVWF  FF6
0870C:  MOVLW  05
0870E:  MOVWF  FF7
08710:  MOVLW  00
08712:  MOVWF  FF8
08714:  MOVLB  0
08716:  CALL   277A
....................                      SendDataDisplay();   
0871A:  CALL   27AC
....................                      printf("tminest.pco=65535"); 
0871E:  MOVLW  E4
08720:  MOVWF  FF6
08722:  MOVLW  05
08724:  MOVWF  FF7
08726:  MOVLW  00
08728:  MOVWF  FF8
0872A:  CALL   277A
....................                      SendDataDisplay();   
0872E:  CALL   27AC
08732:  MOVLB  5
....................                   } 
....................                } 
....................             } 
....................              
....................             if(UP){ 
08734:  BSF    F93.0
08736:  BTFSC  F81.0
08738:  BRA    87C2
....................                delay_ms(200); 
0873A:  MOVLW  C8
0873C:  MOVLB  7
0873E:  MOVWF  xE8
08740:  MOVLB  0
08742:  CALL   1110
....................                if(UP){ 
08746:  BSF    F93.0
08748:  BTFSC  F81.0
0874A:  BRA    87C0
....................                   if(Minutos){ 
0874C:  MOVLB  5
0874E:  BTFSS  x89.4
08750:  BRA    8788
....................                      mEstp+=1.0; 
08752:  BCF    FD8.1
08754:  MOVFF  5A5,81A
08758:  MOVFF  5A4,819
0875C:  MOVFF  5A3,818
08760:  MOVFF  5A2,817
08764:  MOVLB  8
08766:  CLRF   x1E
08768:  CLRF   x1D
0876A:  CLRF   x1C
0876C:  MOVLW  7F
0876E:  MOVWF  x1B
08770:  MOVLB  0
08772:  CALL   1296
08776:  MOVFF  03,5A5
0877A:  MOVFF  02,5A4
0877E:  MOVFF  01,5A3
08782:  MOVFF  00,5A2
08786:  MOVLB  5
....................                   } 
....................                   if(Horas){ 
08788:  BTFSS  x89.3
0878A:  BRA    87C2
....................                      hEstp+=1.0; 
0878C:  BCF    FD8.1
0878E:  MOVFF  5A9,81A
08792:  MOVFF  5A8,819
08796:  MOVFF  5A7,818
0879A:  MOVFF  5A6,817
0879E:  MOVLB  8
087A0:  CLRF   x1E
087A2:  CLRF   x1D
087A4:  CLRF   x1C
087A6:  MOVLW  7F
087A8:  MOVWF  x1B
087AA:  MOVLB  0
087AC:  CALL   1296
087B0:  MOVFF  03,5A9
087B4:  MOVFF  02,5A8
087B8:  MOVFF  01,5A7
087BC:  MOVFF  00,5A6
087C0:  MOVLB  5
....................                   }     
....................                } 
....................             } 
....................              
....................             if(DOWN){ 
087C2:  BSF    F93.1
087C4:  BTFSC  F81.1
087C6:  BRA    8878
....................                delay_ms(200); 
087C8:  MOVLW  C8
087CA:  MOVLB  7
087CC:  MOVWF  xE8
087CE:  MOVLB  0
087D0:  CALL   1110
....................                if(DOWN){ 
087D4:  BSF    F93.1
087D6:  BTFSC  F81.1
087D8:  BRA    8876
....................                   if(Minutos && mEstp>0){ 
087DA:  MOVLB  5
087DC:  BTFSS  x89.4
087DE:  BRA    883E
087E0:  MOVLB  8
087E2:  CLRF   x16
087E4:  CLRF   x15
087E6:  CLRF   x14
087E8:  CLRF   x13
087EA:  MOVFF  5A5,81A
087EE:  MOVFF  5A4,819
087F2:  MOVFF  5A3,818
087F6:  MOVFF  5A2,817
087FA:  MOVLB  0
087FC:  CALL   1572
08800:  BTFSC  FD8.0
08802:  BRA    8808
08804:  MOVLB  5
08806:  BRA    883E
....................                      mEstp-=1.0; 
08808:  BSF    FD8.1
0880A:  MOVFF  5A5,81A
0880E:  MOVFF  5A4,819
08812:  MOVFF  5A3,818
08816:  MOVFF  5A2,817
0881A:  MOVLB  8
0881C:  CLRF   x1E
0881E:  CLRF   x1D
08820:  CLRF   x1C
08822:  MOVLW  7F
08824:  MOVWF  x1B
08826:  MOVLB  0
08828:  CALL   1296
0882C:  MOVFF  03,5A5
08830:  MOVFF  02,5A4
08834:  MOVFF  01,5A3
08838:  MOVFF  00,5A2
0883C:  MOVLB  5
....................                   } 
....................                   if(Horas){ 
0883E:  BTFSS  x89.3
08840:  BRA    8878
....................                      hEstp-=1.0; 
08842:  BSF    FD8.1
08844:  MOVFF  5A9,81A
08848:  MOVFF  5A8,819
0884C:  MOVFF  5A7,818
08850:  MOVFF  5A6,817
08854:  MOVLB  8
08856:  CLRF   x1E
08858:  CLRF   x1D
0885A:  CLRF   x1C
0885C:  MOVLW  7F
0885E:  MOVWF  x1B
08860:  MOVLB  0
08862:  CALL   1296
08866:  MOVFF  03,5A9
0886A:  MOVFF  02,5A8
0886E:  MOVFF  01,5A7
08872:  MOVFF  00,5A6
08876:  MOVLB  5
....................                   }     
....................                } 
....................             } 
....................              
....................             if(RX_Buffer[4]==0x0c || RX_Buffer[4]==0x0d){//Tecla arriba Oprimida 
08878:  MOVF   2E,W
0887A:  SUBLW  0C
0887C:  BZ    8884
0887E:  MOVF   2E,W
08880:  SUBLW  0D
08882:  BNZ   88FC
....................                if(Minutos){ 
08884:  BTFSS  x89.4
08886:  BRA    88BE
....................                   mEstp+=1.0; 
08888:  BCF    FD8.1
0888A:  MOVFF  5A5,81A
0888E:  MOVFF  5A4,819
08892:  MOVFF  5A3,818
08896:  MOVFF  5A2,817
0889A:  MOVLB  8
0889C:  CLRF   x1E
0889E:  CLRF   x1D
088A0:  CLRF   x1C
088A2:  MOVLW  7F
088A4:  MOVWF  x1B
088A6:  MOVLB  0
088A8:  CALL   1296
088AC:  MOVFF  03,5A5
088B0:  MOVFF  02,5A4
088B4:  MOVFF  01,5A3
088B8:  MOVFF  00,5A2
088BC:  MOVLB  5
....................                } 
....................                if(Horas){ 
088BE:  BTFSS  x89.3
088C0:  BRA    88F8
....................                   hEstp+=1.0; 
088C2:  BCF    FD8.1
088C4:  MOVFF  5A9,81A
088C8:  MOVFF  5A8,819
088CC:  MOVFF  5A7,818
088D0:  MOVFF  5A6,817
088D4:  MOVLB  8
088D6:  CLRF   x1E
088D8:  CLRF   x1D
088DA:  CLRF   x1C
088DC:  MOVLW  7F
088DE:  MOVWF  x1B
088E0:  MOVLB  0
088E2:  CALL   1296
088E6:  MOVFF  03,5A9
088EA:  MOVFF  02,5A8
088EE:  MOVFF  01,5A7
088F2:  MOVFF  00,5A6
088F6:  MOVLB  5
....................                }   
....................                RX_Buffer[4]=0x00;   
088F8:  CLRF   2E
....................                RX_Buffer2[4]=0x00; 
088FA:  CLRF   39
....................             } 
....................              
....................             if(RX_Buffer[4]==0x0f || RX_Buffer[4]==0x0e){//Tecla abajo oprimida 
088FC:  MOVF   2E,W
088FE:  SUBLW  0F
08900:  BZ    8908
08902:  MOVF   2E,W
08904:  SUBLW  0E
08906:  BNZ   89A8
....................                if(Minutos && mEstp>0){ 
08908:  BTFSS  x89.4
0890A:  BRA    896A
0890C:  MOVLB  8
0890E:  CLRF   x16
08910:  CLRF   x15
08912:  CLRF   x14
08914:  CLRF   x13
08916:  MOVFF  5A5,81A
0891A:  MOVFF  5A4,819
0891E:  MOVFF  5A3,818
08922:  MOVFF  5A2,817
08926:  MOVLB  0
08928:  CALL   1572
0892C:  BTFSC  FD8.0
0892E:  BRA    8934
08930:  MOVLB  5
08932:  BRA    896A
....................                   mEstp-=1.0; 
08934:  BSF    FD8.1
08936:  MOVFF  5A5,81A
0893A:  MOVFF  5A4,819
0893E:  MOVFF  5A3,818
08942:  MOVFF  5A2,817
08946:  MOVLB  8
08948:  CLRF   x1E
0894A:  CLRF   x1D
0894C:  CLRF   x1C
0894E:  MOVLW  7F
08950:  MOVWF  x1B
08952:  MOVLB  0
08954:  CALL   1296
08958:  MOVFF  03,5A5
0895C:  MOVFF  02,5A4
08960:  MOVFF  01,5A3
08964:  MOVFF  00,5A2
08968:  MOVLB  5
....................                } 
....................                if(Horas){ 
0896A:  BTFSS  x89.3
0896C:  BRA    89A4
....................                   hEstp-=1.0; 
0896E:  BSF    FD8.1
08970:  MOVFF  5A9,81A
08974:  MOVFF  5A8,819
08978:  MOVFF  5A7,818
0897C:  MOVFF  5A6,817
08980:  MOVLB  8
08982:  CLRF   x1E
08984:  CLRF   x1D
08986:  CLRF   x1C
08988:  MOVLW  7F
0898A:  MOVWF  x1B
0898C:  MOVLB  0
0898E:  CALL   1296
08992:  MOVFF  03,5A9
08996:  MOVFF  02,5A8
0899A:  MOVFF  01,5A7
0899E:  MOVFF  00,5A6
089A2:  MOVLB  5
....................                } 
....................                RX_Buffer[4]=0x00;   
089A4:  CLRF   2E
....................                RX_Buffer2[4]=0x00; 
089A6:  CLRF   39
....................             } 
....................              
....................             if(hEstp>99)hEstp=1; 
089A8:  MOVLB  8
089AA:  CLRF   x16
089AC:  CLRF   x15
089AE:  MOVLW  46
089B0:  MOVWF  x14
089B2:  MOVLW  85
089B4:  MOVWF  x13
089B6:  MOVFF  5A9,81A
089BA:  MOVFF  5A8,819
089BE:  MOVFF  5A7,818
089C2:  MOVFF  5A6,817
089C6:  MOVLB  0
089C8:  CALL   1572
089CC:  BNC   89DA
089CE:  MOVLB  5
089D0:  CLRF   xA9
089D2:  CLRF   xA8
089D4:  CLRF   xA7
089D6:  MOVLW  7F
089D8:  MOVWF  xA6
....................             if(mEstp>59)mEstp=0; 
089DA:  MOVLB  8
089DC:  CLRF   x16
089DE:  CLRF   x15
089E0:  MOVLW  6C
089E2:  MOVWF  x14
089E4:  MOVLW  84
089E6:  MOVWF  x13
089E8:  MOVFF  5A5,81A
089EC:  MOVFF  5A4,819
089F0:  MOVFF  5A3,818
089F4:  MOVFF  5A2,817
089F8:  MOVLB  0
089FA:  CALL   1572
089FE:  BNC   8A0C
08A00:  MOVLB  5
08A02:  CLRF   xA5
08A04:  CLRF   xA4
08A06:  CLRF   xA3
08A08:  CLRF   xA2
08A0A:  MOVLB  0
....................                 
....................             printf("tminsec.txt=\"%02.0f\"",hEstp); 
08A0C:  MOVLW  F6
08A0E:  MOVWF  FF6
08A10:  MOVLW  05
08A12:  MOVWF  FF7
08A14:  MOVLW  00
08A16:  MOVWF  FF8
08A18:  MOVLW  0D
08A1A:  MOVLB  7
08A1C:  MOVWF  xC2
08A1E:  MOVLB  0
08A20:  CALL   477C
08A24:  MOVLW  41
08A26:  MOVWF  FE9
08A28:  MOVFF  5A9,7C5
08A2C:  MOVFF  5A8,7C4
08A30:  MOVFF  5A7,7C3
08A34:  MOVFF  5A6,7C2
08A38:  MOVLB  7
08A3A:  CLRF   xC6
08A3C:  MOVLB  0
08A3E:  CALL   491C
08A42:  MOVLW  22
08A44:  BTFSS  F9E.4
08A46:  BRA    8A44
08A48:  MOVWF  FAD
....................             SendDataDisplay(); 
08A4A:  CALL   27AC
....................             printf("tsecsec.txt=\"%02.0f\"",mEstp); 
08A4E:  MOVLW  0C
08A50:  MOVWF  FF6
08A52:  MOVLW  06
08A54:  MOVWF  FF7
08A56:  MOVLW  00
08A58:  MOVWF  FF8
08A5A:  MOVLW  0D
08A5C:  MOVLB  7
08A5E:  MOVWF  xC2
08A60:  MOVLB  0
08A62:  CALL   477C
08A66:  MOVLW  41
08A68:  MOVWF  FE9
08A6A:  MOVFF  5A5,7C5
08A6E:  MOVFF  5A4,7C4
08A72:  MOVFF  5A3,7C3
08A76:  MOVFF  5A2,7C2
08A7A:  MOVLB  7
08A7C:  CLRF   xC6
08A7E:  MOVLB  0
08A80:  CALL   491C
08A84:  MOVLW  22
08A86:  BTFSS  F9E.4
08A88:  BRA    8A86
08A8A:  MOVWF  FAD
....................             SendDataDisplay(); 
08A8C:  CALL   27AC
....................          }else{ 
08A90:  GOTO   95A0
08A94:  MOVLB  5
....................             if(RX_Buffer[4]==0x0a){//Selecciono Minutos 
08A96:  MOVF   2E,W
08A98:  SUBLW  0A
08A9A:  BNZ   8AA0
....................                Minutos=OFF; 
08A9C:  BCF    x89.4
....................                Horas=ON; 
08A9E:  BSF    x89.3
....................             } 
....................              
....................             if(RX_Buffer[4]==0x0b){//Selecciono Segundos 
08AA0:  MOVF   2E,W
08AA2:  SUBLW  0B
08AA4:  BNZ   8AAA
....................                Minutos=ON; 
08AA6:  BSF    x89.4
....................                Horas=OFF; 
08AA8:  BCF    x89.3
....................             }            
....................              
....................             if(RX_Buffer[4]==0x11 || LEFT){//Selecciono Regresar 
08AAA:  MOVF   2E,W
08AAC:  SUBLW  11
08AAE:  BZ    8AB6
08AB0:  BSF    F93.3
08AB2:  BTFSC  F81.3
08AB4:  BRA    8C64
....................                delay_ms(200); 
08AB6:  MOVLW  C8
08AB8:  MOVLB  7
08ABA:  MOVWF  xE8
08ABC:  MOVLB  0
08ABE:  CALL   1110
....................                if(RX_Buffer[4]==0x11 || LEFT){ 
08AC2:  MOVF   2E,W
08AC4:  SUBLW  11
08AC6:  BZ    8ACE
08AC8:  BSF    F93.3
08ACA:  BTFSC  F81.3
08ACC:  BRA    8C66
....................                   Minutos=OFF; 
08ACE:  MOVLB  5
08AD0:  BCF    x89.4
....................                   Horas=OFF; 
08AD2:  BCF    x89.3
....................                   printf("page Rampas"); 
08AD4:  MOVLW  22
08AD6:  MOVWF  FF6
08AD8:  MOVLW  06
08ADA:  MOVWF  FF7
08ADC:  MOVLW  00
08ADE:  MOVWF  FF8
08AE0:  MOVLB  0
08AE2:  CALL   277A
....................                   SendDataDisplay();   
08AE6:  CALL   27AC
....................                   if(!GuardaEEPROM){ 
08AEA:  MOVLB  5
08AEC:  BTFSC  x89.2
08AEE:  BRA    8C64
....................                      write_eeprom(103+((CicloLibre-1)*5),(int8)rampas[CicloLibre-1].Horas); 
08AF0:  MOVLW  01
08AF2:  MOVLB  6
08AF4:  SUBWF  x8D,W
08AF6:  MULLW  05
08AF8:  MOVF   FF3,W
08AFA:  ADDLW  67
08AFC:  MOVLB  7
08AFE:  MOVWF  xBA
08B00:  MOVLW  01
08B02:  MOVLB  6
08B04:  SUBWF  x8D,W
08B06:  MOVLB  7
08B08:  MOVWF  xBC
08B0A:  CLRF   xE4
08B0C:  MOVFF  7BC,7E3
08B10:  CLRF   xE6
08B12:  MOVLW  0F
08B14:  MOVWF  xE5
08B16:  MOVLB  0
08B18:  CALL   150E
08B1C:  MOVFF  02,7BC
08B20:  MOVFF  01,7BB
08B24:  MOVLW  03
08B26:  MOVLB  7
08B28:  ADDWF  xBB,W
08B2A:  MOVWF  01
08B2C:  MOVLW  00
08B2E:  ADDWFC xBC,W
08B30:  MOVWF  03
08B32:  MOVF   01,W
08B34:  ADDLW  8E
08B36:  MOVWF  FE9
08B38:  MOVLW  06
08B3A:  ADDWFC 03,W
08B3C:  MOVWF  FEA
08B3E:  MOVFF  FEF,00
08B42:  MOVFF  FEC,01
08B46:  MOVFF  FEC,02
08B4A:  MOVFF  FEC,03
08B4E:  MOVF   FED,F
08B50:  MOVF   FED,F
08B52:  MOVF   FED,F
08B54:  MOVFF  03,816
08B58:  MOVFF  02,815
08B5C:  MOVFF  01,814
08B60:  MOVFF  00,813
08B64:  MOVLB  0
08B66:  CALL   2CD2
08B6A:  MOVFF  01,7BB
08B6E:  CLRF   FAA
08B70:  MOVFF  7BA,FA9
08B74:  MOVFF  7BB,FA8
08B78:  BCF    FA6.6
08B7A:  BCF    FA6.7
08B7C:  BSF    FA6.2
08B7E:  MOVF   FF2,W
08B80:  MOVWF  00
08B82:  BCF    FF2.6
08B84:  BCF    FF2.7
08B86:  MOVLB  F
08B88:  MOVLW  55
08B8A:  MOVWF  FA7
08B8C:  MOVLW  AA
08B8E:  MOVWF  FA7
08B90:  BSF    FA6.1
08B92:  BTFSC  FA6.1
08B94:  BRA    8B92
08B96:  BCF    FA6.2
08B98:  MOVF   00,W
08B9A:  IORWF  FF2,F
....................                      delay_ms(10); 
08B9C:  MOVLW  0A
08B9E:  MOVLB  7
08BA0:  MOVWF  xE8
08BA2:  MOVLB  0
08BA4:  CALL   1110
....................                      write_eeprom(104+((CicloLibre-1)*5),(int8)rampas[CicloLibre-1].Minutos); 
08BA8:  MOVLW  01
08BAA:  MOVLB  6
08BAC:  SUBWF  x8D,W
08BAE:  MULLW  05
08BB0:  MOVF   FF3,W
08BB2:  ADDLW  68
08BB4:  MOVLB  7
08BB6:  MOVWF  xBA
08BB8:  MOVLW  01
08BBA:  MOVLB  6
08BBC:  SUBWF  x8D,W
08BBE:  MOVLB  7
08BC0:  MOVWF  xBC
08BC2:  CLRF   xE4
08BC4:  MOVFF  7BC,7E3
08BC8:  CLRF   xE6
08BCA:  MOVLW  0F
08BCC:  MOVWF  xE5
08BCE:  MOVLB  0
08BD0:  CALL   150E
08BD4:  MOVFF  02,7BC
08BD8:  MOVFF  01,7BB
08BDC:  MOVLW  07
08BDE:  MOVLB  7
08BE0:  ADDWF  xBB,W
08BE2:  MOVWF  01
08BE4:  MOVLW  00
08BE6:  ADDWFC xBC,W
08BE8:  MOVWF  03
08BEA:  MOVF   01,W
08BEC:  ADDLW  8E
08BEE:  MOVWF  FE9
08BF0:  MOVLW  06
08BF2:  ADDWFC 03,W
08BF4:  MOVWF  FEA
08BF6:  MOVFF  FEF,00
08BFA:  MOVFF  FEC,01
08BFE:  MOVFF  FEC,02
08C02:  MOVFF  FEC,03
08C06:  MOVF   FED,F
08C08:  MOVF   FED,F
08C0A:  MOVF   FED,F
08C0C:  MOVFF  03,816
08C10:  MOVFF  02,815
08C14:  MOVFF  01,814
08C18:  MOVFF  00,813
08C1C:  MOVLB  0
08C1E:  CALL   2CD2
08C22:  MOVFF  01,7BB
08C26:  CLRF   FAA
08C28:  MOVFF  7BA,FA9
08C2C:  MOVFF  7BB,FA8
08C30:  BCF    FA6.6
08C32:  BCF    FA6.7
08C34:  BSF    FA6.2
08C36:  MOVF   FF2,W
08C38:  MOVWF  00
08C3A:  BCF    FF2.6
08C3C:  BCF    FF2.7
08C3E:  MOVLB  F
08C40:  MOVLW  55
08C42:  MOVWF  FA7
08C44:  MOVLW  AA
08C46:  MOVWF  FA7
08C48:  BSF    FA6.1
08C4A:  BTFSC  FA6.1
08C4C:  BRA    8C4A
08C4E:  BCF    FA6.2
08C50:  MOVF   00,W
08C52:  IORWF  FF2,F
....................                      delay_ms(10); 
08C54:  MOVLW  0A
08C56:  MOVLB  7
08C58:  MOVWF  xE8
08C5A:  MOVLB  0
08C5C:  CALL   1110
....................                      GuardaEEPROM=ON; 
08C60:  MOVLB  5
08C62:  BSF    x89.2
08C64:  MOVLB  0
....................                   } 
....................                } 
....................             } 
....................              
....................             if(RIGHT){ 
08C66:  BSF    F93.2
08C68:  BTFSC  F81.2
08C6A:  BRA    8CE8
....................                delay_ms(200); 
08C6C:  MOVLW  C8
08C6E:  MOVLB  7
08C70:  MOVWF  xE8
08C72:  MOVLB  0
08C74:  CALL   1110
....................                if(RIGHT){ 
08C78:  BSF    F93.2
08C7A:  BTFSC  F81.2
08C7C:  BRA    8CE8
....................                   if(!Minutos){ 
08C7E:  MOVLB  5
08C80:  BTFSC  x89.4
08C82:  BRA    8CB6
....................                      Minutos=ON; 
08C84:  BSF    x89.4
....................                      Horas=OFF; 
08C86:  BCF    x89.3
....................                      printf("tsecest.pco=65535"); 
08C88:  MOVLW  2E
08C8A:  MOVWF  FF6
08C8C:  MOVLW  06
08C8E:  MOVWF  FF7
08C90:  MOVLW  00
08C92:  MOVWF  FF8
08C94:  MOVLB  0
08C96:  CALL   277A
....................                      SendDataDisplay();   
08C9A:  CALL   27AC
....................                      printf("tminest.pco=0"); 
08C9E:  MOVLW  40
08CA0:  MOVWF  FF6
08CA2:  MOVLW  06
08CA4:  MOVWF  FF7
08CA6:  MOVLW  00
08CA8:  MOVWF  FF8
08CAA:  CALL   277A
....................                      SendDataDisplay();   
08CAE:  CALL   27AC
....................                   }else if(!Horas){ 
08CB2:  BRA    8CE8
08CB4:  MOVLB  5
08CB6:  BTFSC  x89.3
08CB8:  BRA    8CEA
....................                      Minutos=OFF; 
08CBA:  BCF    x89.4
....................                      Horas=ON; 
08CBC:  BSF    x89.3
....................                      printf("tsecest.pco=0"); 
08CBE:  MOVLW  4E
08CC0:  MOVWF  FF6
08CC2:  MOVLW  06
08CC4:  MOVWF  FF7
08CC6:  MOVLW  00
08CC8:  MOVWF  FF8
08CCA:  MOVLB  0
08CCC:  CALL   277A
....................                      SendDataDisplay();   
08CD0:  CALL   27AC
....................                      printf("tminest.pco=65535"); 
08CD4:  MOVLW  5C
08CD6:  MOVWF  FF6
08CD8:  MOVLW  06
08CDA:  MOVWF  FF7
08CDC:  MOVLW  00
08CDE:  MOVWF  FF8
08CE0:  CALL   277A
....................                      SendDataDisplay();   
08CE4:  CALL   27AC
08CE8:  MOVLB  5
....................                   } 
....................                } 
....................             } 
....................              
....................             if(UP){ 
08CEA:  BSF    F93.0
08CEC:  BTFSC  F81.0
08CEE:  BRA    8E10
....................                delay_ms(200); 
08CF0:  MOVLW  C8
08CF2:  MOVLB  7
08CF4:  MOVWF  xE8
08CF6:  MOVLB  0
08CF8:  CALL   1110
....................                if(UP){ 
08CFC:  BSF    F93.0
08CFE:  BTFSC  F81.0
08D00:  BRA    8E0E
....................                   if(Minutos){ 
08D02:  MOVLB  5
08D04:  BTFSS  x89.4
08D06:  BRA    8D8A
....................                      rampas[CicloLibre-1].Minutos+=1.0; 
08D08:  MOVLW  01
08D0A:  MOVLB  6
08D0C:  SUBWF  x8D,W
08D0E:  MOVLB  7
08D10:  MOVWF  xBB
08D12:  CLRF   xE4
08D14:  MOVWF  xE3
08D16:  CLRF   xE6
08D18:  MOVLW  0F
08D1A:  MOVWF  xE5
08D1C:  MOVLB  0
08D1E:  CALL   150E
08D22:  MOVFF  02,7BB
08D26:  MOVFF  01,7BA
08D2A:  MOVLW  07
08D2C:  MOVLB  7
08D2E:  ADDWF  01,W
08D30:  MOVWF  01
08D32:  MOVLW  00
08D34:  ADDWFC 02,W
08D36:  MOVWF  03
08D38:  MOVF   01,W
08D3A:  ADDLW  8E
08D3C:  MOVWF  FE9
08D3E:  MOVLW  06
08D40:  ADDWFC 03,W
08D42:  MOVWF  FEA
08D44:  MOVFF  FEA,7C1
08D48:  MOVFF  FE9,7C0
08D4C:  BCF    FD8.1
08D4E:  MOVFF  FEF,817
08D52:  MOVFF  FEC,818
08D56:  MOVFF  FEC,819
08D5A:  MOVFF  FEC,81A
08D5E:  MOVLB  8
08D60:  CLRF   x1E
08D62:  CLRF   x1D
08D64:  CLRF   x1C
08D66:  MOVLW  7F
08D68:  MOVWF  x1B
08D6A:  MOVLB  0
08D6C:  CALL   1296
08D70:  MOVFF  7C1,FEA
08D74:  MOVFF  7C0,FE9
08D78:  MOVFF  00,FEF
08D7C:  MOVFF  01,FEC
08D80:  MOVFF  02,FEC
08D84:  MOVFF  03,FEC
08D88:  MOVLB  5
....................                   } 
....................                   if(Horas){ 
08D8A:  BTFSS  x89.3
08D8C:  BRA    8E10
....................                      rampas[CicloLibre-1].Horas+=1.0; 
08D8E:  MOVLW  01
08D90:  MOVLB  6
08D92:  SUBWF  x8D,W
08D94:  MOVLB  7
08D96:  MOVWF  xBB
08D98:  CLRF   xE4
08D9A:  MOVWF  xE3
08D9C:  CLRF   xE6
08D9E:  MOVLW  0F
08DA0:  MOVWF  xE5
08DA2:  MOVLB  0
08DA4:  CALL   150E
08DA8:  MOVFF  02,7BB
08DAC:  MOVFF  01,7BA
08DB0:  MOVLW  03
08DB2:  MOVLB  7
08DB4:  ADDWF  01,W
08DB6:  MOVWF  01
08DB8:  MOVLW  00
08DBA:  ADDWFC 02,W
08DBC:  MOVWF  03
08DBE:  MOVF   01,W
08DC0:  ADDLW  8E
08DC2:  MOVWF  FE9
08DC4:  MOVLW  06
08DC6:  ADDWFC 03,W
08DC8:  MOVWF  FEA
08DCA:  MOVFF  FEA,7C1
08DCE:  MOVFF  FE9,7C0
08DD2:  BCF    FD8.1
08DD4:  MOVFF  FEF,817
08DD8:  MOVFF  FEC,818
08DDC:  MOVFF  FEC,819
08DE0:  MOVFF  FEC,81A
08DE4:  MOVLB  8
08DE6:  CLRF   x1E
08DE8:  CLRF   x1D
08DEA:  CLRF   x1C
08DEC:  MOVLW  7F
08DEE:  MOVWF  x1B
08DF0:  MOVLB  0
08DF2:  CALL   1296
08DF6:  MOVFF  7C1,FEA
08DFA:  MOVFF  7C0,FE9
08DFE:  MOVFF  00,FEF
08E02:  MOVFF  01,FEC
08E06:  MOVFF  02,FEC
08E0A:  MOVFF  03,FEC
08E0E:  MOVLB  5
....................                   }     
....................                } 
....................             } 
....................              
....................             if(DOWN){ 
08E10:  BSF    F93.1
08E12:  BTFSC  F81.1
08E14:  BRA    9016
....................                delay_ms(200); 
08E16:  MOVLW  C8
08E18:  MOVLB  7
08E1A:  MOVWF  xE8
08E1C:  MOVLB  0
08E1E:  CALL   1110
....................                if(DOWN){ 
08E22:  BSF    F93.1
08E24:  BTFSC  F81.1
08E26:  BRA    9014
....................                   if(Minutos && rampas[CicloLibre-1].Minutos>0){ 
08E28:  MOVLB  5
08E2A:  BTFSS  x89.4
08E2C:  BRA    8F20
08E2E:  MOVLW  01
08E30:  MOVLB  6
08E32:  SUBWF  x8D,W
08E34:  MOVLB  7
08E36:  MOVWF  xBB
08E38:  CLRF   xE4
08E3A:  MOVWF  xE3
08E3C:  CLRF   xE6
08E3E:  MOVLW  0F
08E40:  MOVWF  xE5
08E42:  MOVLB  0
08E44:  CALL   150E
08E48:  MOVFF  01,7BA
08E4C:  MOVLW  07
08E4E:  MOVLB  7
08E50:  ADDWF  01,W
08E52:  MOVWF  01
08E54:  MOVLW  00
08E56:  ADDWFC 02,W
08E58:  MOVWF  03
08E5A:  MOVF   01,W
08E5C:  ADDLW  8E
08E5E:  MOVWF  FE9
08E60:  MOVLW  06
08E62:  ADDWFC 03,W
08E64:  MOVWF  FEA
08E66:  MOVFF  FEF,7BA
08E6A:  MOVFF  FEC,7BB
08E6E:  MOVFF  FEC,7BC
08E72:  MOVFF  FEC,7BD
08E76:  MOVLB  8
08E78:  CLRF   x16
08E7A:  CLRF   x15
08E7C:  CLRF   x14
08E7E:  CLRF   x13
08E80:  MOVFF  7BD,81A
08E84:  MOVFF  7BC,819
08E88:  MOVFF  7BB,818
08E8C:  MOVFF  7BA,817
08E90:  MOVLB  0
08E92:  CALL   1572
08E96:  BTFSC  FD8.0
08E98:  BRA    8E9E
08E9A:  MOVLB  5
08E9C:  BRA    8F20
....................                      rampas[CicloLibre-1].Minutos-=1.0; 
08E9E:  MOVLW  01
08EA0:  MOVLB  6
08EA2:  SUBWF  x8D,W
08EA4:  MOVLB  7
08EA6:  MOVWF  xBB
08EA8:  CLRF   xE4
08EAA:  MOVWF  xE3
08EAC:  CLRF   xE6
08EAE:  MOVLW  0F
08EB0:  MOVWF  xE5
08EB2:  MOVLB  0
08EB4:  CALL   150E
08EB8:  MOVFF  02,7BB
08EBC:  MOVFF  01,7BA
08EC0:  MOVLW  07
08EC2:  MOVLB  7
08EC4:  ADDWF  01,W
08EC6:  MOVWF  01
08EC8:  MOVLW  00
08ECA:  ADDWFC 02,W
08ECC:  MOVWF  03
08ECE:  MOVF   01,W
08ED0:  ADDLW  8E
08ED2:  MOVWF  FE9
08ED4:  MOVLW  06
08ED6:  ADDWFC 03,W
08ED8:  MOVWF  FEA
08EDA:  MOVFF  FEA,7C1
08EDE:  MOVFF  FE9,7C0
08EE2:  BSF    FD8.1
08EE4:  MOVFF  FEF,817
08EE8:  MOVFF  FEC,818
08EEC:  MOVFF  FEC,819
08EF0:  MOVFF  FEC,81A
08EF4:  MOVLB  8
08EF6:  CLRF   x1E
08EF8:  CLRF   x1D
08EFA:  CLRF   x1C
08EFC:  MOVLW  7F
08EFE:  MOVWF  x1B
08F00:  MOVLB  0
08F02:  CALL   1296
08F06:  MOVFF  7C1,FEA
08F0A:  MOVFF  7C0,FE9
08F0E:  MOVFF  00,FEF
08F12:  MOVFF  01,FEC
08F16:  MOVFF  02,FEC
08F1A:  MOVFF  03,FEC
08F1E:  MOVLB  5
....................                   } 
....................                   if(Horas && rampas[CicloLibre-1].Horas>0){ 
08F20:  BTFSS  x89.3
08F22:  BRA    9016
08F24:  MOVLW  01
08F26:  MOVLB  6
08F28:  SUBWF  x8D,W
08F2A:  MOVLB  7
08F2C:  MOVWF  xBB
08F2E:  CLRF   xE4
08F30:  MOVWF  xE3
08F32:  CLRF   xE6
08F34:  MOVLW  0F
08F36:  MOVWF  xE5
08F38:  MOVLB  0
08F3A:  CALL   150E
08F3E:  MOVFF  01,7BA
08F42:  MOVLW  03
08F44:  MOVLB  7
08F46:  ADDWF  01,W
08F48:  MOVWF  01
08F4A:  MOVLW  00
08F4C:  ADDWFC 02,W
08F4E:  MOVWF  03
08F50:  MOVF   01,W
08F52:  ADDLW  8E
08F54:  MOVWF  FE9
08F56:  MOVLW  06
08F58:  ADDWFC 03,W
08F5A:  MOVWF  FEA
08F5C:  MOVFF  FEF,7BA
08F60:  MOVFF  FEC,7BB
08F64:  MOVFF  FEC,7BC
08F68:  MOVFF  FEC,7BD
08F6C:  MOVLB  8
08F6E:  CLRF   x16
08F70:  CLRF   x15
08F72:  CLRF   x14
08F74:  CLRF   x13
08F76:  MOVFF  7BD,81A
08F7A:  MOVFF  7BC,819
08F7E:  MOVFF  7BB,818
08F82:  MOVFF  7BA,817
08F86:  MOVLB  0
08F88:  CALL   1572
08F8C:  BTFSC  FD8.0
08F8E:  BRA    8F94
08F90:  MOVLB  5
08F92:  BRA    9016
....................                      rampas[CicloLibre-1].Horas-=1.0; 
08F94:  MOVLW  01
08F96:  MOVLB  6
08F98:  SUBWF  x8D,W
08F9A:  MOVLB  7
08F9C:  MOVWF  xBB
08F9E:  CLRF   xE4
08FA0:  MOVWF  xE3
08FA2:  CLRF   xE6
08FA4:  MOVLW  0F
08FA6:  MOVWF  xE5
08FA8:  MOVLB  0
08FAA:  CALL   150E
08FAE:  MOVFF  02,7BB
08FB2:  MOVFF  01,7BA
08FB6:  MOVLW  03
08FB8:  MOVLB  7
08FBA:  ADDWF  01,W
08FBC:  MOVWF  01
08FBE:  MOVLW  00
08FC0:  ADDWFC 02,W
08FC2:  MOVWF  03
08FC4:  MOVF   01,W
08FC6:  ADDLW  8E
08FC8:  MOVWF  FE9
08FCA:  MOVLW  06
08FCC:  ADDWFC 03,W
08FCE:  MOVWF  FEA
08FD0:  MOVFF  FEA,7C1
08FD4:  MOVFF  FE9,7C0
08FD8:  BSF    FD8.1
08FDA:  MOVFF  FEF,817
08FDE:  MOVFF  FEC,818
08FE2:  MOVFF  FEC,819
08FE6:  MOVFF  FEC,81A
08FEA:  MOVLB  8
08FEC:  CLRF   x1E
08FEE:  CLRF   x1D
08FF0:  CLRF   x1C
08FF2:  MOVLW  7F
08FF4:  MOVWF  x1B
08FF6:  MOVLB  0
08FF8:  CALL   1296
08FFC:  MOVFF  7C1,FEA
09000:  MOVFF  7C0,FE9
09004:  MOVFF  00,FEF
09008:  MOVFF  01,FEC
0900C:  MOVFF  02,FEC
09010:  MOVFF  03,FEC
09014:  MOVLB  5
....................                   }     
....................                } 
....................             } 
....................              
....................             if(RX_Buffer[4]==0x0c || RX_Buffer[4]==0x0d){//Tecla arriba Oprimida 
09016:  MOVF   2E,W
09018:  SUBLW  0C
0901A:  BZ    9024
0901C:  MOVF   2E,W
0901E:  SUBLW  0D
09020:  BTFSS  FD8.2
09022:  BRA    9134
....................                if(Minutos){ 
09024:  BTFSS  x89.4
09026:  BRA    90AA
....................                   rampas[CicloLibre-1].Minutos+=1.0; 
09028:  MOVLW  01
0902A:  MOVLB  6
0902C:  SUBWF  x8D,W
0902E:  MOVLB  7
09030:  MOVWF  xBB
09032:  CLRF   xE4
09034:  MOVWF  xE3
09036:  CLRF   xE6
09038:  MOVLW  0F
0903A:  MOVWF  xE5
0903C:  MOVLB  0
0903E:  CALL   150E
09042:  MOVFF  02,7BB
09046:  MOVFF  01,7BA
0904A:  MOVLW  07
0904C:  MOVLB  7
0904E:  ADDWF  01,W
09050:  MOVWF  01
09052:  MOVLW  00
09054:  ADDWFC 02,W
09056:  MOVWF  03
09058:  MOVF   01,W
0905A:  ADDLW  8E
0905C:  MOVWF  FE9
0905E:  MOVLW  06
09060:  ADDWFC 03,W
09062:  MOVWF  FEA
09064:  MOVFF  FEA,7C1
09068:  MOVFF  FE9,7C0
0906C:  BCF    FD8.1
0906E:  MOVFF  FEF,817
09072:  MOVFF  FEC,818
09076:  MOVFF  FEC,819
0907A:  MOVFF  FEC,81A
0907E:  MOVLB  8
09080:  CLRF   x1E
09082:  CLRF   x1D
09084:  CLRF   x1C
09086:  MOVLW  7F
09088:  MOVWF  x1B
0908A:  MOVLB  0
0908C:  CALL   1296
09090:  MOVFF  7C1,FEA
09094:  MOVFF  7C0,FE9
09098:  MOVFF  00,FEF
0909C:  MOVFF  01,FEC
090A0:  MOVFF  02,FEC
090A4:  MOVFF  03,FEC
090A8:  MOVLB  5
....................                } 
....................                if(Horas){ 
090AA:  BTFSS  x89.3
090AC:  BRA    9130
....................                   rampas[CicloLibre-1].Horas+=1.0; 
090AE:  MOVLW  01
090B0:  MOVLB  6
090B2:  SUBWF  x8D,W
090B4:  MOVLB  7
090B6:  MOVWF  xBB
090B8:  CLRF   xE4
090BA:  MOVWF  xE3
090BC:  CLRF   xE6
090BE:  MOVLW  0F
090C0:  MOVWF  xE5
090C2:  MOVLB  0
090C4:  CALL   150E
090C8:  MOVFF  02,7BB
090CC:  MOVFF  01,7BA
090D0:  MOVLW  03
090D2:  MOVLB  7
090D4:  ADDWF  01,W
090D6:  MOVWF  01
090D8:  MOVLW  00
090DA:  ADDWFC 02,W
090DC:  MOVWF  03
090DE:  MOVF   01,W
090E0:  ADDLW  8E
090E2:  MOVWF  FE9
090E4:  MOVLW  06
090E6:  ADDWFC 03,W
090E8:  MOVWF  FEA
090EA:  MOVFF  FEA,7C1
090EE:  MOVFF  FE9,7C0
090F2:  BCF    FD8.1
090F4:  MOVFF  FEF,817
090F8:  MOVFF  FEC,818
090FC:  MOVFF  FEC,819
09100:  MOVFF  FEC,81A
09104:  MOVLB  8
09106:  CLRF   x1E
09108:  CLRF   x1D
0910A:  CLRF   x1C
0910C:  MOVLW  7F
0910E:  MOVWF  x1B
09110:  MOVLB  0
09112:  CALL   1296
09116:  MOVFF  7C1,FEA
0911A:  MOVFF  7C0,FE9
0911E:  MOVFF  00,FEF
09122:  MOVFF  01,FEC
09126:  MOVFF  02,FEC
0912A:  MOVFF  03,FEC
0912E:  MOVLB  5
....................                }   
....................                RX_Buffer[4]=0x00;   
09130:  CLRF   2E
....................                RX_Buffer2[4]=0x00; 
09132:  CLRF   39
....................             } 
....................              
....................             if(RX_Buffer[4]==0x0f || RX_Buffer[4]==0x0e){//Tecla abajo oprimida 
09134:  MOVF   2E,W
09136:  SUBLW  0F
09138:  BZ    9142
0913A:  MOVF   2E,W
0913C:  SUBLW  0E
0913E:  BTFSS  FD8.2
09140:  BRA    9332
....................                if(Minutos && rampas[CicloLibre-1].Minutos>0){ 
09142:  BTFSS  x89.4
09144:  BRA    9238
09146:  MOVLW  01
09148:  MOVLB  6
0914A:  SUBWF  x8D,W
0914C:  MOVLB  7
0914E:  MOVWF  xBB
09150:  CLRF   xE4
09152:  MOVWF  xE3
09154:  CLRF   xE6
09156:  MOVLW  0F
09158:  MOVWF  xE5
0915A:  MOVLB  0
0915C:  CALL   150E
09160:  MOVFF  01,7BA
09164:  MOVLW  07
09166:  MOVLB  7
09168:  ADDWF  01,W
0916A:  MOVWF  01
0916C:  MOVLW  00
0916E:  ADDWFC 02,W
09170:  MOVWF  03
09172:  MOVF   01,W
09174:  ADDLW  8E
09176:  MOVWF  FE9
09178:  MOVLW  06
0917A:  ADDWFC 03,W
0917C:  MOVWF  FEA
0917E:  MOVFF  FEF,7BA
09182:  MOVFF  FEC,7BB
09186:  MOVFF  FEC,7BC
0918A:  MOVFF  FEC,7BD
0918E:  MOVLB  8
09190:  CLRF   x16
09192:  CLRF   x15
09194:  CLRF   x14
09196:  CLRF   x13
09198:  MOVFF  7BD,81A
0919C:  MOVFF  7BC,819
091A0:  MOVFF  7BB,818
091A4:  MOVFF  7BA,817
091A8:  MOVLB  0
091AA:  CALL   1572
091AE:  BTFSC  FD8.0
091B0:  BRA    91B6
091B2:  MOVLB  5
091B4:  BRA    9238
....................                   rampas[CicloLibre-1].Minutos-=1.0; 
091B6:  MOVLW  01
091B8:  MOVLB  6
091BA:  SUBWF  x8D,W
091BC:  MOVLB  7
091BE:  MOVWF  xBB
091C0:  CLRF   xE4
091C2:  MOVWF  xE3
091C4:  CLRF   xE6
091C6:  MOVLW  0F
091C8:  MOVWF  xE5
091CA:  MOVLB  0
091CC:  CALL   150E
091D0:  MOVFF  02,7BB
091D4:  MOVFF  01,7BA
091D8:  MOVLW  07
091DA:  MOVLB  7
091DC:  ADDWF  01,W
091DE:  MOVWF  01
091E0:  MOVLW  00
091E2:  ADDWFC 02,W
091E4:  MOVWF  03
091E6:  MOVF   01,W
091E8:  ADDLW  8E
091EA:  MOVWF  FE9
091EC:  MOVLW  06
091EE:  ADDWFC 03,W
091F0:  MOVWF  FEA
091F2:  MOVFF  FEA,7C1
091F6:  MOVFF  FE9,7C0
091FA:  BSF    FD8.1
091FC:  MOVFF  FEF,817
09200:  MOVFF  FEC,818
09204:  MOVFF  FEC,819
09208:  MOVFF  FEC,81A
0920C:  MOVLB  8
0920E:  CLRF   x1E
09210:  CLRF   x1D
09212:  CLRF   x1C
09214:  MOVLW  7F
09216:  MOVWF  x1B
09218:  MOVLB  0
0921A:  CALL   1296
0921E:  MOVFF  7C1,FEA
09222:  MOVFF  7C0,FE9
09226:  MOVFF  00,FEF
0922A:  MOVFF  01,FEC
0922E:  MOVFF  02,FEC
09232:  MOVFF  03,FEC
09236:  MOVLB  5
....................                } 
....................                if(Horas  && rampas[CicloLibre-1].Horas>0){ 
09238:  BTFSS  x89.3
0923A:  BRA    932E
0923C:  MOVLW  01
0923E:  MOVLB  6
09240:  SUBWF  x8D,W
09242:  MOVLB  7
09244:  MOVWF  xBB
09246:  CLRF   xE4
09248:  MOVWF  xE3
0924A:  CLRF   xE6
0924C:  MOVLW  0F
0924E:  MOVWF  xE5
09250:  MOVLB  0
09252:  CALL   150E
09256:  MOVFF  01,7BA
0925A:  MOVLW  03
0925C:  MOVLB  7
0925E:  ADDWF  01,W
09260:  MOVWF  01
09262:  MOVLW  00
09264:  ADDWFC 02,W
09266:  MOVWF  03
09268:  MOVF   01,W
0926A:  ADDLW  8E
0926C:  MOVWF  FE9
0926E:  MOVLW  06
09270:  ADDWFC 03,W
09272:  MOVWF  FEA
09274:  MOVFF  FEF,7BA
09278:  MOVFF  FEC,7BB
0927C:  MOVFF  FEC,7BC
09280:  MOVFF  FEC,7BD
09284:  MOVLB  8
09286:  CLRF   x16
09288:  CLRF   x15
0928A:  CLRF   x14
0928C:  CLRF   x13
0928E:  MOVFF  7BD,81A
09292:  MOVFF  7BC,819
09296:  MOVFF  7BB,818
0929A:  MOVFF  7BA,817
0929E:  MOVLB  0
092A0:  CALL   1572
092A4:  BTFSC  FD8.0
092A6:  BRA    92AC
092A8:  MOVLB  5
092AA:  BRA    932E
....................                   rampas[CicloLibre-1].Horas-=1.0; 
092AC:  MOVLW  01
092AE:  MOVLB  6
092B0:  SUBWF  x8D,W
092B2:  MOVLB  7
092B4:  MOVWF  xBB
092B6:  CLRF   xE4
092B8:  MOVWF  xE3
092BA:  CLRF   xE6
092BC:  MOVLW  0F
092BE:  MOVWF  xE5
092C0:  MOVLB  0
092C2:  CALL   150E
092C6:  MOVFF  02,7BB
092CA:  MOVFF  01,7BA
092CE:  MOVLW  03
092D0:  MOVLB  7
092D2:  ADDWF  01,W
092D4:  MOVWF  01
092D6:  MOVLW  00
092D8:  ADDWFC 02,W
092DA:  MOVWF  03
092DC:  MOVF   01,W
092DE:  ADDLW  8E
092E0:  MOVWF  FE9
092E2:  MOVLW  06
092E4:  ADDWFC 03,W
092E6:  MOVWF  FEA
092E8:  MOVFF  FEA,7C1
092EC:  MOVFF  FE9,7C0
092F0:  BSF    FD8.1
092F2:  MOVFF  FEF,817
092F6:  MOVFF  FEC,818
092FA:  MOVFF  FEC,819
092FE:  MOVFF  FEC,81A
09302:  MOVLB  8
09304:  CLRF   x1E
09306:  CLRF   x1D
09308:  CLRF   x1C
0930A:  MOVLW  7F
0930C:  MOVWF  x1B
0930E:  MOVLB  0
09310:  CALL   1296
09314:  MOVFF  7C1,FEA
09318:  MOVFF  7C0,FE9
0931C:  MOVFF  00,FEF
09320:  MOVFF  01,FEC
09324:  MOVFF  02,FEC
09328:  MOVFF  03,FEC
0932C:  MOVLB  5
....................                } 
....................                RX_Buffer[4]=0x00;   
0932E:  CLRF   2E
....................                RX_Buffer2[4]=0x00; 
09330:  CLRF   39
....................             } 
....................              
....................             if(rampas[CicloLibre-1].Horas>99)rampas[CicloLibre-1].Horas=1; 
09332:  MOVLW  01
09334:  MOVLB  6
09336:  SUBWF  x8D,W
09338:  MOVLB  7
0933A:  MOVWF  xBB
0933C:  CLRF   xE4
0933E:  MOVWF  xE3
09340:  CLRF   xE6
09342:  MOVLW  0F
09344:  MOVWF  xE5
09346:  MOVLB  0
09348:  CALL   150E
0934C:  MOVFF  01,7BA
09350:  MOVLW  03
09352:  MOVLB  7
09354:  ADDWF  01,W
09356:  MOVWF  01
09358:  MOVLW  00
0935A:  ADDWFC 02,W
0935C:  MOVWF  03
0935E:  MOVF   01,W
09360:  ADDLW  8E
09362:  MOVWF  FE9
09364:  MOVLW  06
09366:  ADDWFC 03,W
09368:  MOVWF  FEA
0936A:  MOVFF  FEF,7BA
0936E:  MOVFF  FEC,7BB
09372:  MOVFF  FEC,7BC
09376:  MOVFF  FEC,7BD
0937A:  MOVLB  8
0937C:  CLRF   x16
0937E:  CLRF   x15
09380:  MOVLW  46
09382:  MOVWF  x14
09384:  MOVLW  85
09386:  MOVWF  x13
09388:  MOVFF  7BD,81A
0938C:  MOVFF  7BC,819
09390:  MOVFF  7BB,818
09394:  MOVFF  7BA,817
09398:  MOVLB  0
0939A:  CALL   1572
0939E:  BNC   93E2
093A0:  MOVLW  01
093A2:  MOVLB  6
093A4:  SUBWF  x8D,W
093A6:  MOVLB  7
093A8:  MOVWF  xBB
093AA:  CLRF   xE4
093AC:  MOVWF  xE3
093AE:  CLRF   xE6
093B0:  MOVLW  0F
093B2:  MOVWF  xE5
093B4:  MOVLB  0
093B6:  CALL   150E
093BA:  MOVFF  01,7BA
093BE:  MOVLW  03
093C0:  MOVLB  7
093C2:  ADDWF  01,W
093C4:  MOVWF  01
093C6:  MOVLW  00
093C8:  ADDWFC 02,W
093CA:  MOVWF  03
093CC:  MOVF   01,W
093CE:  ADDLW  8E
093D0:  MOVWF  FE9
093D2:  MOVLW  06
093D4:  ADDWFC 03,W
093D6:  MOVWF  FEA
093D8:  MOVLW  7F
093DA:  MOVWF  FEF
093DC:  CLRF   FEC
093DE:  CLRF   FEC
093E0:  CLRF   FEC
....................             if(rampas[CicloLibre-1].Minutos>59)rampas[CicloLibre-1].Minutos=0; 
093E2:  MOVLW  01
093E4:  MOVLB  6
093E6:  SUBWF  x8D,W
093E8:  MOVLB  7
093EA:  MOVWF  xBB
093EC:  CLRF   xE4
093EE:  MOVWF  xE3
093F0:  CLRF   xE6
093F2:  MOVLW  0F
093F4:  MOVWF  xE5
093F6:  MOVLB  0
093F8:  CALL   150E
093FC:  MOVFF  01,7BA
09400:  MOVLW  07
09402:  MOVLB  7
09404:  ADDWF  01,W
09406:  MOVWF  01
09408:  MOVLW  00
0940A:  ADDWFC 02,W
0940C:  MOVWF  03
0940E:  MOVF   01,W
09410:  ADDLW  8E
09412:  MOVWF  FE9
09414:  MOVLW  06
09416:  ADDWFC 03,W
09418:  MOVWF  FEA
0941A:  MOVFF  FEF,7BA
0941E:  MOVFF  FEC,7BB
09422:  MOVFF  FEC,7BC
09426:  MOVFF  FEC,7BD
0942A:  MOVLB  8
0942C:  CLRF   x16
0942E:  CLRF   x15
09430:  MOVLW  6C
09432:  MOVWF  x14
09434:  MOVLW  84
09436:  MOVWF  x13
09438:  MOVFF  7BD,81A
0943C:  MOVFF  7BC,819
09440:  MOVFF  7BB,818
09444:  MOVFF  7BA,817
09448:  MOVLB  0
0944A:  CALL   1572
0944E:  BNC   9490
09450:  MOVLW  01
09452:  MOVLB  6
09454:  SUBWF  x8D,W
09456:  MOVLB  7
09458:  MOVWF  xBB
0945A:  CLRF   xE4
0945C:  MOVWF  xE3
0945E:  CLRF   xE6
09460:  MOVLW  0F
09462:  MOVWF  xE5
09464:  MOVLB  0
09466:  CALL   150E
0946A:  MOVFF  01,7BA
0946E:  MOVLW  07
09470:  MOVLB  7
09472:  ADDWF  01,W
09474:  MOVWF  01
09476:  MOVLW  00
09478:  ADDWFC 02,W
0947A:  MOVWF  03
0947C:  MOVF   01,W
0947E:  ADDLW  8E
09480:  MOVWF  FE9
09482:  MOVLW  06
09484:  ADDWFC 03,W
09486:  MOVWF  FEA
09488:  CLRF   FEF
0948A:  CLRF   FEC
0948C:  CLRF   FEC
0948E:  CLRF   FEC
....................                 
....................             printf("tminsec.txt=\"%02.0f\"",rampas[CicloLibre-1].Horas); 
09490:  MOVLW  01
09492:  MOVLB  6
09494:  SUBWF  x8D,W
09496:  MOVLB  7
09498:  MOVWF  xBB
0949A:  CLRF   xE4
0949C:  MOVWF  xE3
0949E:  CLRF   xE6
094A0:  MOVLW  0F
094A2:  MOVWF  xE5
094A4:  MOVLB  0
094A6:  CALL   150E
094AA:  MOVFF  01,7BA
094AE:  MOVLW  03
094B0:  MOVLB  7
094B2:  ADDWF  01,W
094B4:  MOVWF  01
094B6:  MOVLW  00
094B8:  ADDWFC 02,W
094BA:  MOVWF  03
094BC:  MOVF   01,W
094BE:  ADDLW  8E
094C0:  MOVWF  FE9
094C2:  MOVLW  06
094C4:  ADDWFC 03,W
094C6:  MOVWF  FEA
094C8:  MOVFF  FEF,7BA
094CC:  MOVFF  FEC,7BB
094D0:  MOVFF  FEC,7BC
094D4:  MOVFF  FEC,7BD
094D8:  MOVLW  6E
094DA:  MOVWF  FF6
094DC:  MOVLW  06
094DE:  MOVWF  FF7
094E0:  MOVLW  00
094E2:  MOVWF  FF8
094E4:  MOVLW  0D
094E6:  MOVWF  xC2
094E8:  MOVLB  0
094EA:  CALL   477C
094EE:  MOVLW  41
094F0:  MOVWF  FE9
094F2:  MOVFF  7BD,7C5
094F6:  MOVFF  7BC,7C4
094FA:  MOVFF  7BB,7C3
094FE:  MOVFF  7BA,7C2
09502:  MOVLB  7
09504:  CLRF   xC6
09506:  MOVLB  0
09508:  CALL   491C
0950C:  MOVLW  22
0950E:  BTFSS  F9E.4
09510:  BRA    950E
09512:  MOVWF  FAD
....................             SendDataDisplay(); 
09514:  CALL   27AC
....................             printf("tsecsec.txt=\"%02.0f\"",rampas[CicloLibre-1].Minutos); 
09518:  MOVLW  01
0951A:  MOVLB  6
0951C:  SUBWF  x8D,W
0951E:  MOVLB  7
09520:  MOVWF  xBB
09522:  CLRF   xE4
09524:  MOVWF  xE3
09526:  CLRF   xE6
09528:  MOVLW  0F
0952A:  MOVWF  xE5
0952C:  MOVLB  0
0952E:  CALL   150E
09532:  MOVFF  01,7BA
09536:  MOVLW  07
09538:  MOVLB  7
0953A:  ADDWF  01,W
0953C:  MOVWF  01
0953E:  MOVLW  00
09540:  ADDWFC 02,W
09542:  MOVWF  03
09544:  MOVF   01,W
09546:  ADDLW  8E
09548:  MOVWF  FE9
0954A:  MOVLW  06
0954C:  ADDWFC 03,W
0954E:  MOVWF  FEA
09550:  MOVFF  FEF,7BA
09554:  MOVFF  FEC,7BB
09558:  MOVFF  FEC,7BC
0955C:  MOVFF  FEC,7BD
09560:  MOVLW  84
09562:  MOVWF  FF6
09564:  MOVLW  06
09566:  MOVWF  FF7
09568:  MOVLW  00
0956A:  MOVWF  FF8
0956C:  MOVLW  0D
0956E:  MOVWF  xC2
09570:  MOVLB  0
09572:  CALL   477C
09576:  MOVLW  41
09578:  MOVWF  FE9
0957A:  MOVFF  7BD,7C5
0957E:  MOVFF  7BC,7C4
09582:  MOVFF  7BB,7C3
09586:  MOVFF  7BA,7C2
0958A:  MOVLB  7
0958C:  CLRF   xC6
0958E:  MOVLB  0
09590:  CALL   491C
09594:  MOVLW  22
09596:  BTFSS  F9E.4
09598:  BRA    9596
0959A:  MOVWF  FAD
....................             SendDataDisplay(); 
0959C:  CALL   27AC
095A0:  MOVLB  5
....................          } 
....................     } 
.................... //_--------------------------------------------------------------------------------------------------------------------------------------------------------        
....................  
.................... //_-------------------------------------------------------------------------------------------------------------------------------------------------------- 
....................     if(Menu==3){ //Menu de Temperatura 
095A2:  MOVF   xBE,W
095A4:  SUBLW  03
095A6:  BTFSS  FD8.2
095A8:  GOTO   A018
....................       printf("fecha.txt=\"Fecha:%02u/%02u/20%02u    Hora: %02u:%02u:%02u\"",Dia,Mes,Year,Hora,Minuto,Segundo); 
095AC:  MOVLW  9A
095AE:  MOVWF  FF6
095B0:  MOVLW  06
095B2:  MOVWF  FF7
095B4:  MOVLW  00
095B6:  MOVWF  FF8
095B8:  MOVLW  11
095BA:  MOVLB  7
095BC:  MOVWF  xC2
095BE:  MOVLB  0
095C0:  CALL   477C
095C4:  MOVFF  682,7BB
095C8:  MOVLW  01
095CA:  MOVLB  7
095CC:  MOVWF  xBC
095CE:  MOVLB  0
095D0:  CALL   47DA
095D4:  MOVLW  2F
095D6:  BTFSS  F9E.4
095D8:  BRA    95D6
095DA:  MOVWF  FAD
095DC:  MOVFF  681,7BB
095E0:  MOVLW  01
095E2:  MOVLB  7
095E4:  MOVWF  xBC
095E6:  MOVLB  0
095E8:  CALL   47DA
095EC:  MOVLW  2F
095EE:  BTFSS  F9E.4
095F0:  BRA    95EE
095F2:  MOVWF  FAD
095F4:  MOVLW  32
095F6:  BTFSS  F9E.4
095F8:  BRA    95F6
095FA:  MOVWF  FAD
095FC:  MOVLW  30
095FE:  BTFSS  F9E.4
09600:  BRA    95FE
09602:  MOVWF  FAD
09604:  MOVFF  680,7BB
09608:  MOVLW  01
0960A:  MOVLB  7
0960C:  MOVWF  xBC
0960E:  MOVLB  0
09610:  CALL   47DA
09614:  MOVLW  BB
09616:  MOVWF  FF6
09618:  MOVLW  06
0961A:  MOVWF  FF7
0961C:  MOVLW  00
0961E:  MOVWF  FF8
09620:  MOVLW  0A
09622:  MOVLB  7
09624:  MOVWF  xC2
09626:  MOVLB  0
09628:  CALL   477C
0962C:  MOVFF  683,7BB
09630:  MOVLW  01
09632:  MOVLB  7
09634:  MOVWF  xBC
09636:  MOVLB  0
09638:  CALL   47DA
0963C:  MOVLW  3A
0963E:  BTFSS  F9E.4
09640:  BRA    963E
09642:  MOVWF  FAD
09644:  MOVFF  684,7BB
09648:  MOVLW  01
0964A:  MOVLB  7
0964C:  MOVWF  xBC
0964E:  MOVLB  0
09650:  CALL   47DA
09654:  MOVLW  3A
09656:  BTFSS  F9E.4
09658:  BRA    9656
0965A:  MOVWF  FAD
0965C:  MOVFF  685,7BB
09660:  MOVLW  01
09662:  MOVLB  7
09664:  MOVWF  xBC
09666:  MOVLB  0
09668:  CALL   47DA
0966C:  MOVLW  22
0966E:  BTFSS  F9E.4
09670:  BRA    966E
09672:  MOVWF  FAD
....................       SendDataDisplay(); 
09674:  CALL   27AC
....................        
....................       if(!rampa){ 
09678:  MOVLB  5
0967A:  BTFSC  x8B.4
0967C:  BRA    9A3C
....................          if(Setpoint<0.0) 
0967E:  MOVFF  62F,816
09682:  MOVFF  62E,815
09686:  MOVFF  62D,814
0968A:  MOVFF  62C,813
0968E:  MOVLB  8
09690:  CLRF   x1A
09692:  CLRF   x19
09694:  CLRF   x18
09696:  CLRF   x17
09698:  MOVLB  0
0969A:  CALL   1572
0969E:  BNC   96AE
....................             Setpoint=60.0; 
096A0:  MOVLB  6
096A2:  CLRF   x2F
096A4:  CLRF   x2E
096A6:  MOVLW  70
096A8:  MOVWF  x2D
096AA:  MOVLW  84
096AC:  MOVWF  x2C
....................          if(Setpoint>60.0) 
096AE:  MOVLB  8
096B0:  CLRF   x16
096B2:  CLRF   x15
096B4:  MOVLW  70
096B6:  MOVWF  x14
096B8:  MOVLW  84
096BA:  MOVWF  x13
096BC:  MOVFF  62F,81A
096C0:  MOVFF  62E,819
096C4:  MOVFF  62D,818
096C8:  MOVFF  62C,817
096CC:  MOVLB  0
096CE:  CALL   1572
096D2:  BNC   96E0
....................             Setpoint=0.0; 
096D4:  MOVLB  6
096D6:  CLRF   x2F
096D8:  CLRF   x2E
096DA:  CLRF   x2D
096DC:  CLRF   x2C
096DE:  MOVLB  0
....................           
....................          if(RX_Buffer[4]==0x11 || LEFT){//Selecciono Regresar 
096E0:  MOVF   2E,W
096E2:  SUBLW  11
096E4:  BZ    96EC
096E6:  BSF    F93.3
096E8:  BTFSC  F81.3
096EA:  BRA    98CA
....................             Horas=OFF; 
096EC:  MOVLB  5
096EE:  BCF    x89.3
....................             Minutos=OFF; 
096F0:  BCF    x89.4
....................             printf("page Principal"); 
096F2:  MOVLW  D6
096F4:  MOVWF  FF6
096F6:  MOVLW  06
096F8:  MOVWF  FF7
096FA:  MOVLW  00
096FC:  MOVWF  FF8
096FE:  MOVLB  0
09700:  CALL   277A
....................             SendDataDisplay();   
09704:  CALL   27AC
....................             if(!GuardaEEPROM){ 
09708:  MOVLB  5
0970A:  BTFSC  x89.2
0970C:  BRA    97AE
....................                write_eeprom(80,(int8)Setpoint); 
0970E:  MOVFF  62F,816
09712:  MOVFF  62E,815
09716:  MOVFF  62D,814
0971A:  MOVFF  62C,813
0971E:  MOVLB  0
09720:  CALL   2CD2
09724:  MOVFF  01,7BA
09728:  CLRF   FAA
0972A:  MOVLW  50
0972C:  MOVWF  FA9
0972E:  MOVFF  7BA,FA8
09732:  BCF    FA6.6
09734:  BCF    FA6.7
09736:  BSF    FA6.2
09738:  MOVF   FF2,W
0973A:  MOVWF  00
0973C:  BCF    FF2.6
0973E:  BCF    FF2.7
09740:  MOVLB  F
09742:  MOVLW  55
09744:  MOVWF  FA7
09746:  MOVLW  AA
09748:  MOVWF  FA7
0974A:  BSF    FA6.1
0974C:  BTFSC  FA6.1
0974E:  BRA    974C
09750:  BCF    FA6.2
09752:  MOVF   00,W
09754:  IORWF  FF2,F
....................                write_eeprom(81,extraeDecimal(Setpoint)); 
09756:  MOVFF  62F,7C2
0975A:  MOVFF  62E,7C1
0975E:  MOVFF  62D,7C0
09762:  MOVFF  62C,7BF
09766:  MOVLB  0
09768:  CALL   4AC2
0976C:  MOVFF  01,7BA
09770:  CLRF   FAA
09772:  MOVLW  51
09774:  MOVWF  FA9
09776:  MOVFF  7BA,FA8
0977A:  BCF    FA6.6
0977C:  BCF    FA6.7
0977E:  BSF    FA6.2
09780:  MOVF   FF2,W
09782:  MOVWF  00
09784:  BCF    FF2.6
09786:  BCF    FF2.7
09788:  MOVLB  F
0978A:  MOVLW  55
0978C:  MOVWF  FA7
0978E:  MOVLW  AA
09790:  MOVWF  FA7
09792:  BSF    FA6.1
09794:  BTFSC  FA6.1
09796:  BRA    9794
09798:  BCF    FA6.2
0979A:  MOVF   00,W
0979C:  IORWF  FF2,F
....................                delay_ms(10); 
0979E:  MOVLW  0A
097A0:  MOVLB  7
097A2:  MOVWF  xE8
097A4:  MOVLB  0
097A6:  CALL   1110
....................                GuardaEEPROM=ON; 
097AA:  MOVLB  5
097AC:  BSF    x89.2
....................             } 
....................             if(Setpoint<Temperatura){ 
097AE:  MOVFF  62F,816
097B2:  MOVFF  62E,815
097B6:  MOVFF  62D,814
097BA:  MOVFF  62C,813
097BE:  MOVFF  627,81A
097C2:  MOVFF  626,819
097C6:  MOVFF  625,818
097CA:  MOVFF  624,817
097CE:  MOVLB  0
097D0:  CALL   1572
097D4:  BNC   9836
....................                Enfria=1; 
097D6:  MOVLW  01
097D8:  MOVLB  5
097DA:  MOVWF  x94
....................                Ganancia=GananciaR*(Setpoint/44.5); 
097DC:  MOVFF  62F,80F
097E0:  MOVFF  62E,80E
097E4:  MOVFF  62D,80D
097E8:  MOVFF  62C,80C
097EC:  MOVLB  8
097EE:  CLRF   x13
097F0:  CLRF   x12
097F2:  MOVLW  32
097F4:  MOVWF  x11
097F6:  MOVLW  84
097F8:  MOVWF  x10
097FA:  MOVLB  0
097FC:  CALL   1138
09800:  MOVFF  60F,816
09804:  MOVFF  60E,815
09808:  MOVFF  60D,814
0980C:  MOVFF  60C,813
09810:  MOVFF  03,81A
09814:  MOVFF  02,819
09818:  MOVFF  01,818
0981C:  MOVFF  00,817
09820:  CALL   283A
09824:  MOVFF  03,60B
09828:  MOVFF  02,60A
0982C:  MOVFF  01,609
09830:  MOVFF  00,608
....................                //Ganancia=4; 
....................             }else{ 
09834:  BRA    98CA
....................                Enfria=0; 
09836:  MOVLB  5
09838:  CLRF   x94
....................                Ganancia=GananciaR*(Setpoint/44.5); 
0983A:  MOVFF  62F,80F
0983E:  MOVFF  62E,80E
09842:  MOVFF  62D,80D
09846:  MOVFF  62C,80C
0984A:  MOVLB  8
0984C:  CLRF   x13
0984E:  CLRF   x12
09850:  MOVLW  32
09852:  MOVWF  x11
09854:  MOVLW  84
09856:  MOVWF  x10
09858:  MOVLB  0
0985A:  CALL   1138
0985E:  MOVFF  60F,816
09862:  MOVFF  60E,815
09866:  MOVFF  60D,814
0986A:  MOVFF  60C,813
0986E:  MOVFF  03,81A
09872:  MOVFF  02,819
09876:  MOVFF  01,818
0987A:  MOVFF  00,817
0987E:  CALL   283A
09882:  MOVFF  03,60B
09886:  MOVFF  02,60A
0988A:  MOVFF  01,609
0988E:  MOVFF  00,608
....................                Gananciamax=(0.21)*Setpoint; 
09892:  MOVLW  3D
09894:  MOVLB  8
09896:  MOVWF  x16
09898:  MOVLW  0A
0989A:  MOVWF  x15
0989C:  MOVLW  57
0989E:  MOVWF  x14
098A0:  MOVLW  7C
098A2:  MOVWF  x13
098A4:  MOVFF  62F,81A
098A8:  MOVFF  62E,819
098AC:  MOVFF  62D,818
098B0:  MOVFF  62C,817
098B4:  MOVLB  0
098B6:  CALL   283A
098BA:  MOVFF  03,5DF
098BE:  MOVFF  02,5DE
098C2:  MOVFF  01,5DD
098C6:  MOVFF  00,5DC
....................             } 
....................          } 
....................           
....................          if(UP){ 
098CA:  BSF    F93.0
098CC:  BTFSC  F81.0
098CE:  BRA    991C
....................             delay_ms(200); 
098D0:  MOVLW  C8
098D2:  MOVLB  7
098D4:  MOVWF  xE8
098D6:  MOVLB  0
098D8:  CALL   1110
....................             if(UP){ 
098DC:  BSF    F93.0
098DE:  BTFSC  F81.0
098E0:  BRA    991C
....................                Setpoint+=0.1; 
098E2:  BCF    FD8.1
098E4:  MOVFF  62F,81A
098E8:  MOVFF  62E,819
098EC:  MOVFF  62D,818
098F0:  MOVFF  62C,817
098F4:  MOVLW  CD
098F6:  MOVLB  8
098F8:  MOVWF  x1E
098FA:  MOVLW  CC
098FC:  MOVWF  x1D
098FE:  MOVLW  4C
09900:  MOVWF  x1C
09902:  MOVLW  7B
09904:  MOVWF  x1B
09906:  MOVLB  0
09908:  CALL   1296
0990C:  MOVFF  03,62F
09910:  MOVFF  02,62E
09914:  MOVFF  01,62D
09918:  MOVFF  00,62C
....................             } 
....................          } 
....................           
....................          if(DOWN){ 
0991C:  BSF    F93.1
0991E:  BTFSC  F81.1
09920:  BRA    996E
....................             delay_ms(200); 
09922:  MOVLW  C8
09924:  MOVLB  7
09926:  MOVWF  xE8
09928:  MOVLB  0
0992A:  CALL   1110
....................             if(DOWN){ 
0992E:  BSF    F93.1
09930:  BTFSC  F81.1
09932:  BRA    996E
....................                Setpoint-=0.1; 
09934:  BSF    FD8.1
09936:  MOVFF  62F,81A
0993A:  MOVFF  62E,819
0993E:  MOVFF  62D,818
09942:  MOVFF  62C,817
09946:  MOVLW  CD
09948:  MOVLB  8
0994A:  MOVWF  x1E
0994C:  MOVLW  CC
0994E:  MOVWF  x1D
09950:  MOVLW  4C
09952:  MOVWF  x1C
09954:  MOVLW  7B
09956:  MOVWF  x1B
09958:  MOVLB  0
0995A:  CALL   1296
0995E:  MOVFF  03,62F
09962:  MOVFF  02,62E
09966:  MOVFF  01,62D
0996A:  MOVFF  00,62C
....................             } 
....................          } 
....................           
....................          if(RX_Buffer[4]==0x0d){//Tecla Arriba Oprimida 
0996E:  MOVF   2E,W
09970:  SUBLW  0D
09972:  BNZ   99B2
....................             Setpoint+=0.1; 
09974:  BCF    FD8.1
09976:  MOVFF  62F,81A
0997A:  MOVFF  62E,819
0997E:  MOVFF  62D,818
09982:  MOVFF  62C,817
09986:  MOVLW  CD
09988:  MOVLB  8
0998A:  MOVWF  x1E
0998C:  MOVLW  CC
0998E:  MOVWF  x1D
09990:  MOVLW  4C
09992:  MOVWF  x1C
09994:  MOVLW  7B
09996:  MOVWF  x1B
09998:  MOVLB  0
0999A:  CALL   1296
0999E:  MOVFF  03,62F
099A2:  MOVFF  02,62E
099A6:  MOVFF  01,62D
099AA:  MOVFF  00,62C
....................             RX_Buffer[4]=0x00;   
099AE:  CLRF   2E
....................             RX_Buffer2[4]=0x00;             
099B0:  CLRF   39
....................          } 
....................           
....................          if(RX_Buffer[4]==0x0c){//Tecla Abajo Oprimida 
099B2:  MOVF   2E,W
099B4:  SUBLW  0C
099B6:  BNZ   99F6
....................             Setpoint-=0.1; 
099B8:  BSF    FD8.1
099BA:  MOVFF  62F,81A
099BE:  MOVFF  62E,819
099C2:  MOVFF  62D,818
099C6:  MOVFF  62C,817
099CA:  MOVLW  CD
099CC:  MOVLB  8
099CE:  MOVWF  x1E
099D0:  MOVLW  CC
099D2:  MOVWF  x1D
099D4:  MOVLW  4C
099D6:  MOVWF  x1C
099D8:  MOVLW  7B
099DA:  MOVWF  x1B
099DC:  MOVLB  0
099DE:  CALL   1296
099E2:  MOVFF  03,62F
099E6:  MOVFF  02,62E
099EA:  MOVFF  01,62D
099EE:  MOVFF  00,62C
....................             RX_Buffer[4]=0x00; 
099F2:  CLRF   2E
....................             RX_Buffer2[4]=0x00;                         
099F4:  CLRF   39
....................          } 
....................          printf("tsettem.txt=\"%2.1f\"",Setpoint); 
099F6:  MOVLW  E6
099F8:  MOVWF  FF6
099FA:  MOVLW  06
099FC:  MOVWF  FF7
099FE:  MOVLW  00
09A00:  MOVWF  FF8
09A02:  MOVLW  0D
09A04:  MOVLB  7
09A06:  MOVWF  xC2
09A08:  MOVLB  0
09A0A:  CALL   477C
09A0E:  MOVLW  01
09A10:  MOVWF  FE9
09A12:  MOVFF  62F,7C5
09A16:  MOVFF  62E,7C4
09A1A:  MOVFF  62D,7C3
09A1E:  MOVFF  62C,7C2
09A22:  MOVLB  7
09A24:  MOVWF  xC6
09A26:  MOVLB  0
09A28:  CALL   491C
09A2C:  MOVLW  22
09A2E:  BTFSS  F9E.4
09A30:  BRA    9A2E
09A32:  MOVWF  FAD
....................          SendDataDisplay(); 
09A34:  CALL   27AC
....................       }else{ 
09A38:  BRA    A016
09A3A:  MOVLB  5
....................          if(rampas[CicloLibre-1].Temperatura<0.0) 
09A3C:  MOVLW  01
09A3E:  MOVLB  6
09A40:  SUBWF  x8D,W
09A42:  MOVLB  7
09A44:  MOVWF  xBB
09A46:  CLRF   xE4
09A48:  MOVWF  xE3
09A4A:  CLRF   xE6
09A4C:  MOVLW  0F
09A4E:  MOVWF  xE5
09A50:  MOVLB  0
09A52:  CALL   150E
09A56:  MOVFF  01,7BA
09A5A:  MOVLW  0B
09A5C:  MOVLB  7
09A5E:  ADDWF  01,W
09A60:  MOVWF  01
09A62:  MOVLW  00
09A64:  ADDWFC 02,W
09A66:  MOVWF  03
09A68:  MOVF   01,W
09A6A:  ADDLW  8E
09A6C:  MOVWF  FE9
09A6E:  MOVLW  06
09A70:  ADDWFC 03,W
09A72:  MOVWF  FEA
09A74:  MOVFF  FEF,7BA
09A78:  MOVFF  FEC,7BB
09A7C:  MOVFF  FEC,7BC
09A80:  MOVFF  FEC,7BD
09A84:  MOVFF  7BD,816
09A88:  MOVFF  7BC,815
09A8C:  MOVFF  7BB,814
09A90:  MOVFF  7BA,813
09A94:  MOVLB  8
09A96:  CLRF   x1A
09A98:  CLRF   x19
09A9A:  CLRF   x18
09A9C:  CLRF   x17
09A9E:  MOVLB  0
09AA0:  CALL   1572
09AA4:  BNC   9AEA
....................             rampas[CicloLibre-1].Temperatura=60.0; 
09AA6:  MOVLW  01
09AA8:  MOVLB  6
09AAA:  SUBWF  x8D,W
09AAC:  MOVLB  7
09AAE:  MOVWF  xBB
09AB0:  CLRF   xE4
09AB2:  MOVWF  xE3
09AB4:  CLRF   xE6
09AB6:  MOVLW  0F
09AB8:  MOVWF  xE5
09ABA:  MOVLB  0
09ABC:  CALL   150E
09AC0:  MOVFF  01,7BA
09AC4:  MOVLW  0B
09AC6:  MOVLB  7
09AC8:  ADDWF  01,W
09ACA:  MOVWF  01
09ACC:  MOVLW  00
09ACE:  ADDWFC 02,W
09AD0:  MOVWF  03
09AD2:  MOVF   01,W
09AD4:  ADDLW  8E
09AD6:  MOVWF  FE9
09AD8:  MOVLW  06
09ADA:  ADDWFC 03,W
09ADC:  MOVWF  FEA
09ADE:  MOVLW  84
09AE0:  MOVWF  FEF
09AE2:  MOVLW  70
09AE4:  MOVWF  FEC
09AE6:  CLRF   FEC
09AE8:  CLRF   FEC
....................          if(rampas[CicloLibre-1].Temperatura>60.0) 
09AEA:  MOVLW  01
09AEC:  MOVLB  6
09AEE:  SUBWF  x8D,W
09AF0:  MOVLB  7
09AF2:  MOVWF  xBB
09AF4:  CLRF   xE4
09AF6:  MOVWF  xE3
09AF8:  CLRF   xE6
09AFA:  MOVLW  0F
09AFC:  MOVWF  xE5
09AFE:  MOVLB  0
09B00:  CALL   150E
09B04:  MOVFF  01,7BA
09B08:  MOVLW  0B
09B0A:  MOVLB  7
09B0C:  ADDWF  01,W
09B0E:  MOVWF  01
09B10:  MOVLW  00
09B12:  ADDWFC 02,W
09B14:  MOVWF  03
09B16:  MOVF   01,W
09B18:  ADDLW  8E
09B1A:  MOVWF  FE9
09B1C:  MOVLW  06
09B1E:  ADDWFC 03,W
09B20:  MOVWF  FEA
09B22:  MOVFF  FEF,7BA
09B26:  MOVFF  FEC,7BB
09B2A:  MOVFF  FEC,7BC
09B2E:  MOVFF  FEC,7BD
09B32:  MOVLB  8
09B34:  CLRF   x16
09B36:  CLRF   x15
09B38:  MOVLW  70
09B3A:  MOVWF  x14
09B3C:  MOVLW  84
09B3E:  MOVWF  x13
09B40:  MOVFF  7BD,81A
09B44:  MOVFF  7BC,819
09B48:  MOVFF  7BB,818
09B4C:  MOVFF  7BA,817
09B50:  MOVLB  0
09B52:  CALL   1572
09B56:  BNC   9B9A
....................             rampas[CicloLibre-1].Temperatura=0.0; 
09B58:  MOVLW  01
09B5A:  MOVLB  6
09B5C:  SUBWF  x8D,W
09B5E:  MOVLB  7
09B60:  MOVWF  xBB
09B62:  CLRF   xE4
09B64:  MOVWF  xE3
09B66:  CLRF   xE6
09B68:  MOVLW  0F
09B6A:  MOVWF  xE5
09B6C:  MOVLB  0
09B6E:  CALL   150E
09B72:  MOVFF  01,7BA
09B76:  MOVLW  0B
09B78:  MOVLB  7
09B7A:  ADDWF  01,W
09B7C:  MOVWF  01
09B7E:  MOVLW  00
09B80:  ADDWFC 02,W
09B82:  MOVWF  03
09B84:  MOVF   01,W
09B86:  ADDLW  8E
09B88:  MOVWF  FE9
09B8A:  MOVLW  06
09B8C:  ADDWFC 03,W
09B8E:  MOVWF  FEA
09B90:  CLRF   FEF
09B92:  CLRF   FEC
09B94:  CLRF   FEC
09B96:  CLRF   FEC
09B98:  MOVLB  0
....................           
....................          if(RX_Buffer[4]==0x11 || LEFT){//Selecciono Regresar 
09B9A:  MOVF   2E,W
09B9C:  SUBLW  11
09B9E:  BZ    9BA6
09BA0:  BSF    F93.3
09BA2:  BTFSC  F81.3
09BA4:  BRA    9D32
....................             Horas=OFF; 
09BA6:  MOVLB  5
09BA8:  BCF    x89.3
....................             Minutos=OFF; 
09BAA:  BCF    x89.4
....................             printf("page Rampas"); 
09BAC:  MOVLW  FA
09BAE:  MOVWF  FF6
09BB0:  MOVLW  06
09BB2:  MOVWF  FF7
09BB4:  MOVLW  00
09BB6:  MOVWF  FF8
09BB8:  MOVLB  0
09BBA:  CALL   277A
....................             SendDataDisplay();   
09BBE:  CALL   27AC
....................             if(!GuardaEEPROM){ 
09BC2:  MOVLB  5
09BC4:  BTFSC  x89.2
09BC6:  BRA    9D30
....................                write_eeprom(100+((CicloLibre-1)*5),(int8)rampas[CicloLibre-1].Temperatura); 
09BC8:  MOVLW  01
09BCA:  MOVLB  6
09BCC:  SUBWF  x8D,W
09BCE:  MULLW  05
09BD0:  MOVF   FF3,W
09BD2:  ADDLW  64
09BD4:  MOVLB  7
09BD6:  MOVWF  xBA
09BD8:  MOVLW  01
09BDA:  MOVLB  6
09BDC:  SUBWF  x8D,W
09BDE:  MOVLB  7
09BE0:  MOVWF  xBC
09BE2:  CLRF   xE4
09BE4:  MOVFF  7BC,7E3
09BE8:  CLRF   xE6
09BEA:  MOVLW  0F
09BEC:  MOVWF  xE5
09BEE:  MOVLB  0
09BF0:  CALL   150E
09BF4:  MOVFF  02,7BC
09BF8:  MOVFF  01,7BB
09BFC:  MOVLW  0B
09BFE:  MOVLB  7
09C00:  ADDWF  xBB,W
09C02:  MOVWF  01
09C04:  MOVLW  00
09C06:  ADDWFC xBC,W
09C08:  MOVWF  03
09C0A:  MOVF   01,W
09C0C:  ADDLW  8E
09C0E:  MOVWF  FE9
09C10:  MOVLW  06
09C12:  ADDWFC 03,W
09C14:  MOVWF  FEA
09C16:  MOVFF  FEF,00
09C1A:  MOVFF  FEC,01
09C1E:  MOVFF  FEC,02
09C22:  MOVFF  FEC,03
09C26:  MOVF   FED,F
09C28:  MOVF   FED,F
09C2A:  MOVF   FED,F
09C2C:  MOVFF  03,816
09C30:  MOVFF  02,815
09C34:  MOVFF  01,814
09C38:  MOVFF  00,813
09C3C:  MOVLB  0
09C3E:  CALL   2CD2
09C42:  MOVFF  01,7BB
09C46:  CLRF   FAA
09C48:  MOVFF  7BA,FA9
09C4C:  MOVFF  7BB,FA8
09C50:  BCF    FA6.6
09C52:  BCF    FA6.7
09C54:  BSF    FA6.2
09C56:  MOVF   FF2,W
09C58:  MOVWF  00
09C5A:  BCF    FF2.6
09C5C:  BCF    FF2.7
09C5E:  MOVLB  F
09C60:  MOVLW  55
09C62:  MOVWF  FA7
09C64:  MOVLW  AA
09C66:  MOVWF  FA7
09C68:  BSF    FA6.1
09C6A:  BTFSC  FA6.1
09C6C:  BRA    9C6A
09C6E:  BCF    FA6.2
09C70:  MOVF   00,W
09C72:  IORWF  FF2,F
....................                write_eeprom(101+((CicloLibre-1)*5),extraeDecimal(rampas[CicloLibre-1].Temperatura)); 
09C74:  MOVLW  01
09C76:  MOVLB  6
09C78:  SUBWF  x8D,W
09C7A:  MULLW  05
09C7C:  MOVF   FF3,W
09C7E:  ADDLW  65
09C80:  MOVLB  7
09C82:  MOVWF  xBA
09C84:  MOVLW  01
09C86:  MOVLB  6
09C88:  SUBWF  x8D,W
09C8A:  MOVLB  7
09C8C:  MOVWF  xBC
09C8E:  CLRF   xE4
09C90:  MOVFF  7BC,7E3
09C94:  CLRF   xE6
09C96:  MOVLW  0F
09C98:  MOVWF  xE5
09C9A:  MOVLB  0
09C9C:  CALL   150E
09CA0:  MOVFF  02,7BC
09CA4:  MOVFF  01,7BB
09CA8:  MOVLW  0B
09CAA:  MOVLB  7
09CAC:  ADDWF  xBB,W
09CAE:  MOVWF  01
09CB0:  MOVLW  00
09CB2:  ADDWFC xBC,W
09CB4:  MOVWF  03
09CB6:  MOVF   01,W
09CB8:  ADDLW  8E
09CBA:  MOVWF  FE9
09CBC:  MOVLW  06
09CBE:  ADDWFC 03,W
09CC0:  MOVWF  FEA
09CC2:  MOVFF  FEF,7BB
09CC6:  MOVFF  FEC,7BC
09CCA:  MOVFF  FEC,7BD
09CCE:  MOVFF  FEC,7BE
09CD2:  MOVF   FED,F
09CD4:  MOVF   FED,F
09CD6:  MOVF   FED,F
09CD8:  MOVFF  7BE,7C2
09CDC:  MOVFF  7BD,7C1
09CE0:  MOVFF  7BC,7C0
09CE4:  MOVFF  7BB,7BF
09CE8:  MOVLB  0
09CEA:  CALL   4AC2
09CEE:  MOVFF  01,7BB
09CF2:  CLRF   FAA
09CF4:  MOVFF  7BA,FA9
09CF8:  MOVFF  7BB,FA8
09CFC:  BCF    FA6.6
09CFE:  BCF    FA6.7
09D00:  BSF    FA6.2
09D02:  MOVF   FF2,W
09D04:  MOVWF  00
09D06:  BCF    FF2.6
09D08:  BCF    FF2.7
09D0A:  MOVLB  F
09D0C:  MOVLW  55
09D0E:  MOVWF  FA7
09D10:  MOVLW  AA
09D12:  MOVWF  FA7
09D14:  BSF    FA6.1
09D16:  BTFSC  FA6.1
09D18:  BRA    9D16
09D1A:  BCF    FA6.2
09D1C:  MOVF   00,W
09D1E:  IORWF  FF2,F
....................                delay_ms(10); 
09D20:  MOVLW  0A
09D22:  MOVLB  7
09D24:  MOVWF  xE8
09D26:  MOVLB  0
09D28:  CALL   1110
....................                GuardaEEPROM=ON; 
09D2C:  MOVLB  5
09D2E:  BSF    x89.2
09D30:  MOVLB  0
....................             } 
....................          } 
....................           
....................          if(UP){ 
09D32:  BSF    F93.0
09D34:  BTFSC  F81.0
09D36:  BRA    9DD0
....................             delay_ms(200); 
09D38:  MOVLW  C8
09D3A:  MOVLB  7
09D3C:  MOVWF  xE8
09D3E:  MOVLB  0
09D40:  CALL   1110
....................             if(UP){ 
09D44:  BSF    F93.0
09D46:  BTFSC  F81.0
09D48:  BRA    9DD0
....................                rampas[CicloLibre-1].Temperatura+=0.1; 
09D4A:  MOVLW  01
09D4C:  MOVLB  6
09D4E:  SUBWF  x8D,W
09D50:  MOVLB  7
09D52:  MOVWF  xBB
09D54:  CLRF   xE4
09D56:  MOVWF  xE3
09D58:  CLRF   xE6
09D5A:  MOVLW  0F
09D5C:  MOVWF  xE5
09D5E:  MOVLB  0
09D60:  CALL   150E
09D64:  MOVFF  02,7BB
09D68:  MOVFF  01,7BA
09D6C:  MOVLW  0B
09D6E:  MOVLB  7
09D70:  ADDWF  01,W
09D72:  MOVWF  01
09D74:  MOVLW  00
09D76:  ADDWFC 02,W
09D78:  MOVWF  03
09D7A:  MOVF   01,W
09D7C:  ADDLW  8E
09D7E:  MOVWF  FE9
09D80:  MOVLW  06
09D82:  ADDWFC 03,W
09D84:  MOVWF  FEA
09D86:  MOVFF  FEA,7C1
09D8A:  MOVFF  FE9,7C0
09D8E:  BCF    FD8.1
09D90:  MOVFF  FEF,817
09D94:  MOVFF  FEC,818
09D98:  MOVFF  FEC,819
09D9C:  MOVFF  FEC,81A
09DA0:  MOVLW  CD
09DA2:  MOVLB  8
09DA4:  MOVWF  x1E
09DA6:  MOVLW  CC
09DA8:  MOVWF  x1D
09DAA:  MOVLW  4C
09DAC:  MOVWF  x1C
09DAE:  MOVLW  7B
09DB0:  MOVWF  x1B
09DB2:  MOVLB  0
09DB4:  CALL   1296
09DB8:  MOVFF  7C1,FEA
09DBC:  MOVFF  7C0,FE9
09DC0:  MOVFF  00,FEF
09DC4:  MOVFF  01,FEC
09DC8:  MOVFF  02,FEC
09DCC:  MOVFF  03,FEC
....................             } 
....................          } 
....................           
....................          if(DOWN){ 
09DD0:  BSF    F93.1
09DD2:  BTFSC  F81.1
09DD4:  BRA    9E6E
....................             delay_ms(200); 
09DD6:  MOVLW  C8
09DD8:  MOVLB  7
09DDA:  MOVWF  xE8
09DDC:  MOVLB  0
09DDE:  CALL   1110
....................             if(DOWN){ 
09DE2:  BSF    F93.1
09DE4:  BTFSC  F81.1
09DE6:  BRA    9E6E
....................                rampas[CicloLibre-1].Temperatura-=0.1; 
09DE8:  MOVLW  01
09DEA:  MOVLB  6
09DEC:  SUBWF  x8D,W
09DEE:  MOVLB  7
09DF0:  MOVWF  xBB
09DF2:  CLRF   xE4
09DF4:  MOVWF  xE3
09DF6:  CLRF   xE6
09DF8:  MOVLW  0F
09DFA:  MOVWF  xE5
09DFC:  MOVLB  0
09DFE:  CALL   150E
09E02:  MOVFF  02,7BB
09E06:  MOVFF  01,7BA
09E0A:  MOVLW  0B
09E0C:  MOVLB  7
09E0E:  ADDWF  01,W
09E10:  MOVWF  01
09E12:  MOVLW  00
09E14:  ADDWFC 02,W
09E16:  MOVWF  03
09E18:  MOVF   01,W
09E1A:  ADDLW  8E
09E1C:  MOVWF  FE9
09E1E:  MOVLW  06
09E20:  ADDWFC 03,W
09E22:  MOVWF  FEA
09E24:  MOVFF  FEA,7C1
09E28:  MOVFF  FE9,7C0
09E2C:  BSF    FD8.1
09E2E:  MOVFF  FEF,817
09E32:  MOVFF  FEC,818
09E36:  MOVFF  FEC,819
09E3A:  MOVFF  FEC,81A
09E3E:  MOVLW  CD
09E40:  MOVLB  8
09E42:  MOVWF  x1E
09E44:  MOVLW  CC
09E46:  MOVWF  x1D
09E48:  MOVLW  4C
09E4A:  MOVWF  x1C
09E4C:  MOVLW  7B
09E4E:  MOVWF  x1B
09E50:  MOVLB  0
09E52:  CALL   1296
09E56:  MOVFF  7C1,FEA
09E5A:  MOVFF  7C0,FE9
09E5E:  MOVFF  00,FEF
09E62:  MOVFF  01,FEC
09E66:  MOVFF  02,FEC
09E6A:  MOVFF  03,FEC
....................             } 
....................          } 
....................           
....................          if(RX_Buffer[4]==0x0d){//Tecla Arriba Oprimida 
09E6E:  MOVF   2E,W
09E70:  SUBLW  0D
09E72:  BNZ   9EFE
....................             rampas[CicloLibre-1].Temperatura+=0.1; 
09E74:  MOVLW  01
09E76:  MOVLB  6
09E78:  SUBWF  x8D,W
09E7A:  MOVLB  7
09E7C:  MOVWF  xBB
09E7E:  CLRF   xE4
09E80:  MOVWF  xE3
09E82:  CLRF   xE6
09E84:  MOVLW  0F
09E86:  MOVWF  xE5
09E88:  MOVLB  0
09E8A:  CALL   150E
09E8E:  MOVFF  02,7BB
09E92:  MOVFF  01,7BA
09E96:  MOVLW  0B
09E98:  MOVLB  7
09E9A:  ADDWF  01,W
09E9C:  MOVWF  01
09E9E:  MOVLW  00
09EA0:  ADDWFC 02,W
09EA2:  MOVWF  03
09EA4:  MOVF   01,W
09EA6:  ADDLW  8E
09EA8:  MOVWF  FE9
09EAA:  MOVLW  06
09EAC:  ADDWFC 03,W
09EAE:  MOVWF  FEA
09EB0:  MOVFF  FEA,7C1
09EB4:  MOVFF  FE9,7C0
09EB8:  BCF    FD8.1
09EBA:  MOVFF  FEF,817
09EBE:  MOVFF  FEC,818
09EC2:  MOVFF  FEC,819
09EC6:  MOVFF  FEC,81A
09ECA:  MOVLW  CD
09ECC:  MOVLB  8
09ECE:  MOVWF  x1E
09ED0:  MOVLW  CC
09ED2:  MOVWF  x1D
09ED4:  MOVLW  4C
09ED6:  MOVWF  x1C
09ED8:  MOVLW  7B
09EDA:  MOVWF  x1B
09EDC:  MOVLB  0
09EDE:  CALL   1296
09EE2:  MOVFF  7C1,FEA
09EE6:  MOVFF  7C0,FE9
09EEA:  MOVFF  00,FEF
09EEE:  MOVFF  01,FEC
09EF2:  MOVFF  02,FEC
09EF6:  MOVFF  03,FEC
....................             RX_Buffer[4]=0x00;   
09EFA:  CLRF   2E
....................             RX_Buffer2[4]=0x00;             
09EFC:  CLRF   39
....................          } 
....................           
....................          if(RX_Buffer[4]==0x0c){//Tecla Abajo Oprimida 
09EFE:  MOVF   2E,W
09F00:  SUBLW  0C
09F02:  BNZ   9F8E
....................             rampas[CicloLibre-1].Temperatura-=0.1; 
09F04:  MOVLW  01
09F06:  MOVLB  6
09F08:  SUBWF  x8D,W
09F0A:  MOVLB  7
09F0C:  MOVWF  xBB
09F0E:  CLRF   xE4
09F10:  MOVWF  xE3
09F12:  CLRF   xE6
09F14:  MOVLW  0F
09F16:  MOVWF  xE5
09F18:  MOVLB  0
09F1A:  CALL   150E
09F1E:  MOVFF  02,7BB
09F22:  MOVFF  01,7BA
09F26:  MOVLW  0B
09F28:  MOVLB  7
09F2A:  ADDWF  01,W
09F2C:  MOVWF  01
09F2E:  MOVLW  00
09F30:  ADDWFC 02,W
09F32:  MOVWF  03
09F34:  MOVF   01,W
09F36:  ADDLW  8E
09F38:  MOVWF  FE9
09F3A:  MOVLW  06
09F3C:  ADDWFC 03,W
09F3E:  MOVWF  FEA
09F40:  MOVFF  FEA,7C1
09F44:  MOVFF  FE9,7C0
09F48:  BSF    FD8.1
09F4A:  MOVFF  FEF,817
09F4E:  MOVFF  FEC,818
09F52:  MOVFF  FEC,819
09F56:  MOVFF  FEC,81A
09F5A:  MOVLW  CD
09F5C:  MOVLB  8
09F5E:  MOVWF  x1E
09F60:  MOVLW  CC
09F62:  MOVWF  x1D
09F64:  MOVLW  4C
09F66:  MOVWF  x1C
09F68:  MOVLW  7B
09F6A:  MOVWF  x1B
09F6C:  MOVLB  0
09F6E:  CALL   1296
09F72:  MOVFF  7C1,FEA
09F76:  MOVFF  7C0,FE9
09F7A:  MOVFF  00,FEF
09F7E:  MOVFF  01,FEC
09F82:  MOVFF  02,FEC
09F86:  MOVFF  03,FEC
....................             RX_Buffer[4]=0x00; 
09F8A:  CLRF   2E
....................             RX_Buffer2[4]=0x00;                         
09F8C:  CLRF   39
....................          } 
....................          printf("tsettem.txt=\"%2.1f\"",rampas[CicloLibre-1].Temperatura); 
09F8E:  MOVLW  01
09F90:  MOVLB  6
09F92:  SUBWF  x8D,W
09F94:  MOVLB  7
09F96:  MOVWF  xBB
09F98:  CLRF   xE4
09F9A:  MOVWF  xE3
09F9C:  CLRF   xE6
09F9E:  MOVLW  0F
09FA0:  MOVWF  xE5
09FA2:  MOVLB  0
09FA4:  CALL   150E
09FA8:  MOVFF  01,7BA
09FAC:  MOVLW  0B
09FAE:  MOVLB  7
09FB0:  ADDWF  01,W
09FB2:  MOVWF  01
09FB4:  MOVLW  00
09FB6:  ADDWFC 02,W
09FB8:  MOVWF  03
09FBA:  MOVF   01,W
09FBC:  ADDLW  8E
09FBE:  MOVWF  FE9
09FC0:  MOVLW  06
09FC2:  ADDWFC 03,W
09FC4:  MOVWF  FEA
09FC6:  MOVFF  FEF,7BA
09FCA:  MOVFF  FEC,7BB
09FCE:  MOVFF  FEC,7BC
09FD2:  MOVFF  FEC,7BD
09FD6:  MOVLW  06
09FD8:  MOVWF  FF6
09FDA:  MOVLW  07
09FDC:  MOVWF  FF7
09FDE:  MOVLW  00
09FE0:  MOVWF  FF8
09FE2:  MOVLW  0D
09FE4:  MOVWF  xC2
09FE6:  MOVLB  0
09FE8:  CALL   477C
09FEC:  MOVLW  01
09FEE:  MOVWF  FE9
09FF0:  MOVFF  7BD,7C5
09FF4:  MOVFF  7BC,7C4
09FF8:  MOVFF  7BB,7C3
09FFC:  MOVFF  7BA,7C2
0A000:  MOVLB  7
0A002:  MOVWF  xC6
0A004:  MOVLB  0
0A006:  CALL   491C
0A00A:  MOVLW  22
0A00C:  BTFSS  F9E.4
0A00E:  BRA    A00C
0A010:  MOVWF  FAD
....................          SendDataDisplay(); 
0A012:  CALL   27AC
0A016:  MOVLB  5
....................       } 
....................     } 
.................... //_--------------------------------------------------------------------------------------------------------------------------------------------------------        
....................  
.................... //_-------------------------------------------------------------------------------------------------------------------------------------------------------- 
....................     if(Menu==4){ //Menu de Humedad 
0A018:  MOVF   xBE,W
0A01A:  SUBLW  04
0A01C:  BTFSS  FD8.2
0A01E:  GOTO   A8B2
....................       printf("fecha.txt=\"Fecha:%02u/%02u/20%02u    Hora: %02u:%02u:%02u\"",Dia,Mes,Year,Hora,Minuto,Segundo); 
0A022:  MOVLW  1A
0A024:  MOVWF  FF6
0A026:  MOVLW  07
0A028:  MOVWF  FF7
0A02A:  MOVLW  00
0A02C:  MOVWF  FF8
0A02E:  MOVLW  11
0A030:  MOVLB  7
0A032:  MOVWF  xC2
0A034:  MOVLB  0
0A036:  CALL   477C
0A03A:  MOVFF  682,7BB
0A03E:  MOVLW  01
0A040:  MOVLB  7
0A042:  MOVWF  xBC
0A044:  MOVLB  0
0A046:  CALL   47DA
0A04A:  MOVLW  2F
0A04C:  BTFSS  F9E.4
0A04E:  BRA    A04C
0A050:  MOVWF  FAD
0A052:  MOVFF  681,7BB
0A056:  MOVLW  01
0A058:  MOVLB  7
0A05A:  MOVWF  xBC
0A05C:  MOVLB  0
0A05E:  CALL   47DA
0A062:  MOVLW  2F
0A064:  BTFSS  F9E.4
0A066:  BRA    A064
0A068:  MOVWF  FAD
0A06A:  MOVLW  32
0A06C:  BTFSS  F9E.4
0A06E:  BRA    A06C
0A070:  MOVWF  FAD
0A072:  MOVLW  30
0A074:  BTFSS  F9E.4
0A076:  BRA    A074
0A078:  MOVWF  FAD
0A07A:  MOVFF  680,7BB
0A07E:  MOVLW  01
0A080:  MOVLB  7
0A082:  MOVWF  xBC
0A084:  MOVLB  0
0A086:  CALL   47DA
0A08A:  MOVLW  3B
0A08C:  MOVWF  FF6
0A08E:  MOVLW  07
0A090:  MOVWF  FF7
0A092:  MOVLW  00
0A094:  MOVWF  FF8
0A096:  MOVLW  0A
0A098:  MOVLB  7
0A09A:  MOVWF  xC2
0A09C:  MOVLB  0
0A09E:  CALL   477C
0A0A2:  MOVFF  683,7BB
0A0A6:  MOVLW  01
0A0A8:  MOVLB  7
0A0AA:  MOVWF  xBC
0A0AC:  MOVLB  0
0A0AE:  CALL   47DA
0A0B2:  MOVLW  3A
0A0B4:  BTFSS  F9E.4
0A0B6:  BRA    A0B4
0A0B8:  MOVWF  FAD
0A0BA:  MOVFF  684,7BB
0A0BE:  MOVLW  01
0A0C0:  MOVLB  7
0A0C2:  MOVWF  xBC
0A0C4:  MOVLB  0
0A0C6:  CALL   47DA
0A0CA:  MOVLW  3A
0A0CC:  BTFSS  F9E.4
0A0CE:  BRA    A0CC
0A0D0:  MOVWF  FAD
0A0D2:  MOVFF  685,7BB
0A0D6:  MOVLW  01
0A0D8:  MOVLB  7
0A0DA:  MOVWF  xBC
0A0DC:  MOVLB  0
0A0DE:  CALL   47DA
0A0E2:  MOVLW  22
0A0E4:  BTFSS  F9E.4
0A0E6:  BRA    A0E4
0A0E8:  MOVWF  FAD
....................       SendDataDisplay(); 
0A0EA:  CALL   27AC
....................        
....................       if(!rampa){ 
0A0EE:  MOVLB  5
0A0F0:  BTFSC  x8B.4
0A0F2:  BRA    A388
....................          if(SetpointH<10.0) 
0A0F4:  MOVFF  637,816
0A0F8:  MOVFF  636,815
0A0FC:  MOVFF  635,814
0A100:  MOVFF  634,813
0A104:  MOVLB  8
0A106:  CLRF   x1A
0A108:  CLRF   x19
0A10A:  MOVLW  20
0A10C:  MOVWF  x18
0A10E:  MOVLW  82
0A110:  MOVWF  x17
0A112:  MOVLB  0
0A114:  CALL   1572
0A118:  BNC   A128
....................             SetpointH=90.0; 
0A11A:  MOVLB  6
0A11C:  CLRF   x37
0A11E:  CLRF   x36
0A120:  MOVLW  34
0A122:  MOVWF  x35
0A124:  MOVLW  85
0A126:  MOVWF  x34
....................          if(SetpointH>90.0) 
0A128:  MOVLB  8
0A12A:  CLRF   x16
0A12C:  CLRF   x15
0A12E:  MOVLW  34
0A130:  MOVWF  x14
0A132:  MOVLW  85
0A134:  MOVWF  x13
0A136:  MOVFF  637,81A
0A13A:  MOVFF  636,819
0A13E:  MOVFF  635,818
0A142:  MOVFF  634,817
0A146:  MOVLB  0
0A148:  CALL   1572
0A14C:  BNC   A15E
....................             SetpointH=10.0; 
0A14E:  MOVLB  6
0A150:  CLRF   x37
0A152:  CLRF   x36
0A154:  MOVLW  20
0A156:  MOVWF  x35
0A158:  MOVLW  82
0A15A:  MOVWF  x34
0A15C:  MOVLB  0
....................           
....................          if(RX_Buffer[4]==0x11 || LEFT){//Selecciono Regresar 
0A15E:  MOVF   2E,W
0A160:  SUBLW  11
0A162:  BZ    A16A
0A164:  BSF    F93.3
0A166:  BTFSC  F81.3
0A168:  BRA    A22E
....................             Horas=OFF; 
0A16A:  MOVLB  5
0A16C:  BCF    x89.3
....................             Minutos=OFF; 
0A16E:  BCF    x89.4
....................             printf("page Principal"); 
0A170:  MOVLW  56
0A172:  MOVWF  FF6
0A174:  MOVLW  07
0A176:  MOVWF  FF7
0A178:  MOVLW  00
0A17A:  MOVWF  FF8
0A17C:  MOVLB  0
0A17E:  CALL   277A
....................             SendDataDisplay();   
0A182:  CALL   27AC
....................             if(!GuardaEEPROM){ 
0A186:  MOVLB  5
0A188:  BTFSC  x89.2
0A18A:  BRA    A22C
....................                write_eeprom(82,(int8)SetpointH); 
0A18C:  MOVFF  637,816
0A190:  MOVFF  636,815
0A194:  MOVFF  635,814
0A198:  MOVFF  634,813
0A19C:  MOVLB  0
0A19E:  CALL   2CD2
0A1A2:  MOVFF  01,7BA
0A1A6:  CLRF   FAA
0A1A8:  MOVLW  52
0A1AA:  MOVWF  FA9
0A1AC:  MOVFF  7BA,FA8
0A1B0:  BCF    FA6.6
0A1B2:  BCF    FA6.7
0A1B4:  BSF    FA6.2
0A1B6:  MOVF   FF2,W
0A1B8:  MOVWF  00
0A1BA:  BCF    FF2.6
0A1BC:  BCF    FF2.7
0A1BE:  MOVLB  F
0A1C0:  MOVLW  55
0A1C2:  MOVWF  FA7
0A1C4:  MOVLW  AA
0A1C6:  MOVWF  FA7
0A1C8:  BSF    FA6.1
0A1CA:  BTFSC  FA6.1
0A1CC:  BRA    A1CA
0A1CE:  BCF    FA6.2
0A1D0:  MOVF   00,W
0A1D2:  IORWF  FF2,F
....................                write_eeprom(83,extraeDecimal(SetpointH)); 
0A1D4:  MOVFF  637,7C2
0A1D8:  MOVFF  636,7C1
0A1DC:  MOVFF  635,7C0
0A1E0:  MOVFF  634,7BF
0A1E4:  MOVLB  0
0A1E6:  CALL   4AC2
0A1EA:  MOVFF  01,7BA
0A1EE:  CLRF   FAA
0A1F0:  MOVLW  53
0A1F2:  MOVWF  FA9
0A1F4:  MOVFF  7BA,FA8
0A1F8:  BCF    FA6.6
0A1FA:  BCF    FA6.7
0A1FC:  BSF    FA6.2
0A1FE:  MOVF   FF2,W
0A200:  MOVWF  00
0A202:  BCF    FF2.6
0A204:  BCF    FF2.7
0A206:  MOVLB  F
0A208:  MOVLW  55
0A20A:  MOVWF  FA7
0A20C:  MOVLW  AA
0A20E:  MOVWF  FA7
0A210:  BSF    FA6.1
0A212:  BTFSC  FA6.1
0A214:  BRA    A212
0A216:  BCF    FA6.2
0A218:  MOVF   00,W
0A21A:  IORWF  FF2,F
....................                delay_ms(10); 
0A21C:  MOVLW  0A
0A21E:  MOVLB  7
0A220:  MOVWF  xE8
0A222:  MOVLB  0
0A224:  CALL   1110
....................                GuardaEEPROM=ON; 
0A228:  MOVLB  5
0A22A:  BSF    x89.2
0A22C:  MOVLB  0
....................             } 
....................          } 
....................           
....................          if(UP){ 
0A22E:  BSF    F93.0
0A230:  BTFSC  F81.0
0A232:  BRA    A27A
....................             delay_ms(200); 
0A234:  MOVLW  C8
0A236:  MOVLB  7
0A238:  MOVWF  xE8
0A23A:  MOVLB  0
0A23C:  CALL   1110
....................             if(UP){ 
0A240:  BSF    F93.0
0A242:  BTFSC  F81.0
0A244:  BRA    A27A
....................                SetpointH+=1.0; 
0A246:  BCF    FD8.1
0A248:  MOVFF  637,81A
0A24C:  MOVFF  636,819
0A250:  MOVFF  635,818
0A254:  MOVFF  634,817
0A258:  MOVLB  8
0A25A:  CLRF   x1E
0A25C:  CLRF   x1D
0A25E:  CLRF   x1C
0A260:  MOVLW  7F
0A262:  MOVWF  x1B
0A264:  MOVLB  0
0A266:  CALL   1296
0A26A:  MOVFF  03,637
0A26E:  MOVFF  02,636
0A272:  MOVFF  01,635
0A276:  MOVFF  00,634
....................             } 
....................          } 
....................           
....................          if(DOWN){ 
0A27A:  BSF    F93.1
0A27C:  BTFSC  F81.1
0A27E:  BRA    A2C6
....................             delay_ms(200); 
0A280:  MOVLW  C8
0A282:  MOVLB  7
0A284:  MOVWF  xE8
0A286:  MOVLB  0
0A288:  CALL   1110
....................             if(DOWN){ 
0A28C:  BSF    F93.1
0A28E:  BTFSC  F81.1
0A290:  BRA    A2C6
....................                SetpointH-=1.0; 
0A292:  BSF    FD8.1
0A294:  MOVFF  637,81A
0A298:  MOVFF  636,819
0A29C:  MOVFF  635,818
0A2A0:  MOVFF  634,817
0A2A4:  MOVLB  8
0A2A6:  CLRF   x1E
0A2A8:  CLRF   x1D
0A2AA:  CLRF   x1C
0A2AC:  MOVLW  7F
0A2AE:  MOVWF  x1B
0A2B0:  MOVLB  0
0A2B2:  CALL   1296
0A2B6:  MOVFF  03,637
0A2BA:  MOVFF  02,636
0A2BE:  MOVFF  01,635
0A2C2:  MOVFF  00,634
....................             } 
....................          } 
....................           
....................          if(RX_Buffer[4]==0x0d){//Tecla Arriba Oprimida 
0A2C6:  MOVF   2E,W
0A2C8:  SUBLW  0D
0A2CA:  BNZ   A304
....................             SetpointH+=1.0; 
0A2CC:  BCF    FD8.1
0A2CE:  MOVFF  637,81A
0A2D2:  MOVFF  636,819
0A2D6:  MOVFF  635,818
0A2DA:  MOVFF  634,817
0A2DE:  MOVLB  8
0A2E0:  CLRF   x1E
0A2E2:  CLRF   x1D
0A2E4:  CLRF   x1C
0A2E6:  MOVLW  7F
0A2E8:  MOVWF  x1B
0A2EA:  MOVLB  0
0A2EC:  CALL   1296
0A2F0:  MOVFF  03,637
0A2F4:  MOVFF  02,636
0A2F8:  MOVFF  01,635
0A2FC:  MOVFF  00,634
....................             RX_Buffer[4]=0x00;   
0A300:  CLRF   2E
....................             RX_Buffer2[4]=0x00;             
0A302:  CLRF   39
....................          } 
....................           
....................          if(RX_Buffer[4]==0x0c){//Tecla Abajo Oprimida 
0A304:  MOVF   2E,W
0A306:  SUBLW  0C
0A308:  BNZ   A342
....................             SetpointH-=1.0; 
0A30A:  BSF    FD8.1
0A30C:  MOVFF  637,81A
0A310:  MOVFF  636,819
0A314:  MOVFF  635,818
0A318:  MOVFF  634,817
0A31C:  MOVLB  8
0A31E:  CLRF   x1E
0A320:  CLRF   x1D
0A322:  CLRF   x1C
0A324:  MOVLW  7F
0A326:  MOVWF  x1B
0A328:  MOVLB  0
0A32A:  CALL   1296
0A32E:  MOVFF  03,637
0A332:  MOVFF  02,636
0A336:  MOVFF  01,635
0A33A:  MOVFF  00,634
....................             RX_Buffer[4]=0x00; 
0A33E:  CLRF   2E
....................             RX_Buffer2[4]=0x00;                         
0A340:  CLRF   39
....................          } 
....................          printf("tsettem.txt=\"%2.0f\"",SetpointH); 
0A342:  MOVLW  66
0A344:  MOVWF  FF6
0A346:  MOVLW  07
0A348:  MOVWF  FF7
0A34A:  MOVLW  00
0A34C:  MOVWF  FF8
0A34E:  MOVLW  0D
0A350:  MOVLB  7
0A352:  MOVWF  xC2
0A354:  MOVLB  0
0A356:  CALL   477C
0A35A:  MOVLW  01
0A35C:  MOVWF  FE9
0A35E:  MOVFF  637,7C5
0A362:  MOVFF  636,7C4
0A366:  MOVFF  635,7C3
0A36A:  MOVFF  634,7C2
0A36E:  MOVLB  7
0A370:  CLRF   xC6
0A372:  MOVLB  0
0A374:  CALL   491C
0A378:  MOVLW  22
0A37A:  BTFSS  F9E.4
0A37C:  BRA    A37A
0A37E:  MOVWF  FAD
....................          SendDataDisplay(); 
0A380:  CALL   27AC
....................       }else{ 
0A384:  BRA    A8B0
0A386:  MOVLB  5
....................          if(rampas[CicloLibre-1].Humedad<10.0) 
0A388:  MOVLW  01
0A38A:  MOVLB  6
0A38C:  SUBWF  x8D,W
0A38E:  MOVLB  7
0A390:  MOVWF  xBB
0A392:  CLRF   xE4
0A394:  MOVWF  xE3
0A396:  CLRF   xE6
0A398:  MOVLW  0F
0A39A:  MOVWF  xE5
0A39C:  MOVLB  0
0A39E:  CALL   150E
0A3A2:  MOVFF  02,7BB
0A3A6:  MOVFF  01,7BA
0A3AA:  MOVLW  02
0A3AC:  MOVLB  7
0A3AE:  ADDWF  01,W
0A3B0:  MOVWF  01
0A3B2:  MOVLW  00
0A3B4:  ADDWFC 02,W
0A3B6:  MOVWF  03
0A3B8:  MOVF   01,W
0A3BA:  ADDLW  8E
0A3BC:  MOVWF  FE9
0A3BE:  MOVLW  06
0A3C0:  ADDWFC 03,W
0A3C2:  MOVWF  FEA
0A3C4:  MOVLB  8
0A3C6:  CLRF   x18
0A3C8:  MOVFF  FEF,817
0A3CC:  MOVLB  0
0A3CE:  CALL   10DA
0A3D2:  MOVFF  03,816
0A3D6:  MOVFF  02,815
0A3DA:  MOVFF  01,814
0A3DE:  MOVFF  00,813
0A3E2:  MOVLB  8
0A3E4:  CLRF   x1A
0A3E6:  CLRF   x19
0A3E8:  MOVLW  20
0A3EA:  MOVWF  x18
0A3EC:  MOVLW  82
0A3EE:  MOVWF  x17
0A3F0:  MOVLB  0
0A3F2:  CALL   1572
0A3F6:  BNC   A434
....................             rampas[CicloLibre-1].Humedad=90.0; 
0A3F8:  MOVLW  01
0A3FA:  MOVLB  6
0A3FC:  SUBWF  x8D,W
0A3FE:  MOVLB  7
0A400:  MOVWF  xBB
0A402:  CLRF   xE4
0A404:  MOVWF  xE3
0A406:  CLRF   xE6
0A408:  MOVLW  0F
0A40A:  MOVWF  xE5
0A40C:  MOVLB  0
0A40E:  CALL   150E
0A412:  MOVFF  01,7BA
0A416:  MOVLW  02
0A418:  MOVLB  7
0A41A:  ADDWF  01,W
0A41C:  MOVWF  01
0A41E:  MOVLW  00
0A420:  ADDWFC 02,W
0A422:  MOVWF  03
0A424:  MOVF   01,W
0A426:  ADDLW  8E
0A428:  MOVWF  FE9
0A42A:  MOVLW  06
0A42C:  ADDWFC 03,W
0A42E:  MOVWF  FEA
0A430:  MOVLW  5A
0A432:  MOVWF  FEF
....................          if(rampas[CicloLibre-1].Humedad>90.0) 
0A434:  MOVLW  01
0A436:  MOVLB  6
0A438:  SUBWF  x8D,W
0A43A:  MOVLB  7
0A43C:  MOVWF  xBB
0A43E:  CLRF   xE4
0A440:  MOVWF  xE3
0A442:  CLRF   xE6
0A444:  MOVLW  0F
0A446:  MOVWF  xE5
0A448:  MOVLB  0
0A44A:  CALL   150E
0A44E:  MOVFF  02,7BB
0A452:  MOVFF  01,7BA
0A456:  MOVLW  02
0A458:  MOVLB  7
0A45A:  ADDWF  01,W
0A45C:  MOVWF  01
0A45E:  MOVLW  00
0A460:  ADDWFC 02,W
0A462:  MOVWF  03
0A464:  MOVF   01,W
0A466:  ADDLW  8E
0A468:  MOVWF  FE9
0A46A:  MOVLW  06
0A46C:  ADDWFC 03,W
0A46E:  MOVWF  FEA
0A470:  MOVLB  8
0A472:  CLRF   x18
0A474:  MOVFF  FEF,817
0A478:  MOVLB  0
0A47A:  CALL   10DA
0A47E:  MOVLB  8
0A480:  CLRF   x16
0A482:  CLRF   x15
0A484:  MOVLW  34
0A486:  MOVWF  x14
0A488:  MOVLW  85
0A48A:  MOVWF  x13
0A48C:  MOVFF  03,81A
0A490:  MOVFF  02,819
0A494:  MOVFF  01,818
0A498:  MOVFF  00,817
0A49C:  MOVLB  0
0A49E:  CALL   1572
0A4A2:  BNC   A4E2
....................             rampas[CicloLibre-1].Humedad=10.0; 
0A4A4:  MOVLW  01
0A4A6:  MOVLB  6
0A4A8:  SUBWF  x8D,W
0A4AA:  MOVLB  7
0A4AC:  MOVWF  xBB
0A4AE:  CLRF   xE4
0A4B0:  MOVWF  xE3
0A4B2:  CLRF   xE6
0A4B4:  MOVLW  0F
0A4B6:  MOVWF  xE5
0A4B8:  MOVLB  0
0A4BA:  CALL   150E
0A4BE:  MOVFF  01,7BA
0A4C2:  MOVLW  02
0A4C4:  MOVLB  7
0A4C6:  ADDWF  01,W
0A4C8:  MOVWF  01
0A4CA:  MOVLW  00
0A4CC:  ADDWFC 02,W
0A4CE:  MOVWF  03
0A4D0:  MOVF   01,W
0A4D2:  ADDLW  8E
0A4D4:  MOVWF  FE9
0A4D6:  MOVLW  06
0A4D8:  ADDWFC 03,W
0A4DA:  MOVWF  FEA
0A4DC:  MOVLW  0A
0A4DE:  MOVWF  FEF
0A4E0:  MOVLB  0
....................           
....................          if(RX_Buffer[4]==0x11 || LEFT){//Selecciono Regresar 
0A4E2:  MOVF   2E,W
0A4E4:  SUBLW  11
0A4E6:  BZ    A4EE
0A4E8:  BSF    F93.3
0A4EA:  BTFSC  F81.3
0A4EC:  BRA    A5A2
....................             Horas=OFF; 
0A4EE:  MOVLB  5
0A4F0:  BCF    x89.3
....................             Minutos=OFF; 
0A4F2:  BCF    x89.4
....................             printf("page Rampas"); 
0A4F4:  MOVLW  7A
0A4F6:  MOVWF  FF6
0A4F8:  MOVLW  07
0A4FA:  MOVWF  FF7
0A4FC:  MOVLW  00
0A4FE:  MOVWF  FF8
0A500:  MOVLB  0
0A502:  CALL   277A
....................             SendDataDisplay();   
0A506:  CALL   27AC
....................             if(!GuardaEEPROM){ 
0A50A:  MOVLB  5
0A50C:  BTFSC  x89.2
0A50E:  BRA    A5A0
....................                write_eeprom(102+((CicloLibre-1)*5),rampas[CicloLibre-1].Humedad); 
0A510:  MOVLW  01
0A512:  MOVLB  6
0A514:  SUBWF  x8D,W
0A516:  MULLW  05
0A518:  MOVF   FF3,W
0A51A:  ADDLW  66
0A51C:  MOVLB  7
0A51E:  MOVWF  xBA
0A520:  MOVLW  01
0A522:  MOVLB  6
0A524:  SUBWF  x8D,W
0A526:  MOVLB  7
0A528:  MOVWF  xBC
0A52A:  CLRF   xE4
0A52C:  MOVFF  7BC,7E3
0A530:  CLRF   xE6
0A532:  MOVLW  0F
0A534:  MOVWF  xE5
0A536:  MOVLB  0
0A538:  CALL   150E
0A53C:  MOVFF  02,7BC
0A540:  MOVFF  01,7BB
0A544:  MOVLW  02
0A546:  MOVLB  7
0A548:  ADDWF  xBB,W
0A54A:  MOVWF  01
0A54C:  MOVLW  00
0A54E:  ADDWFC xBC,W
0A550:  MOVWF  03
0A552:  MOVF   01,W
0A554:  ADDLW  8E
0A556:  MOVWF  FE9
0A558:  MOVLW  06
0A55A:  ADDWFC 03,W
0A55C:  MOVWF  FEA
0A55E:  MOVFF  FEF,7BB
0A562:  CLRF   FAA
0A564:  MOVFF  7BA,FA9
0A568:  MOVFF  7BB,FA8
0A56C:  BCF    FA6.6
0A56E:  BCF    FA6.7
0A570:  BSF    FA6.2
0A572:  MOVF   FF2,W
0A574:  MOVWF  00
0A576:  BCF    FF2.6
0A578:  BCF    FF2.7
0A57A:  MOVLB  F
0A57C:  MOVLW  55
0A57E:  MOVWF  FA7
0A580:  MOVLW  AA
0A582:  MOVWF  FA7
0A584:  BSF    FA6.1
0A586:  BTFSC  FA6.1
0A588:  BRA    A586
0A58A:  BCF    FA6.2
0A58C:  MOVF   00,W
0A58E:  IORWF  FF2,F
....................                delay_ms(10); 
0A590:  MOVLW  0A
0A592:  MOVLB  7
0A594:  MOVWF  xE8
0A596:  MOVLB  0
0A598:  CALL   1110
....................                GuardaEEPROM=ON; 
0A59C:  MOVLB  5
0A59E:  BSF    x89.2
0A5A0:  MOVLB  0
....................             } 
....................          } 
....................           
....................          if(UP){ 
0A5A2:  BSF    F93.0
0A5A4:  BTFSC  F81.0
0A5A6:  BRA    A650
....................             delay_ms(200); 
0A5A8:  MOVLW  C8
0A5AA:  MOVLB  7
0A5AC:  MOVWF  xE8
0A5AE:  MOVLB  0
0A5B0:  CALL   1110
....................             if(UP){ 
0A5B4:  BSF    F93.0
0A5B6:  BTFSC  F81.0
0A5B8:  BRA    A650
....................                rampas[CicloLibre-1].Humedad+=1.0; 
0A5BA:  MOVLW  01
0A5BC:  MOVLB  6
0A5BE:  SUBWF  x8D,W
0A5C0:  MOVLB  7
0A5C2:  MOVWF  xBB
0A5C4:  CLRF   xE4
0A5C6:  MOVWF  xE3
0A5C8:  CLRF   xE6
0A5CA:  MOVLW  0F
0A5CC:  MOVWF  xE5
0A5CE:  MOVLB  0
0A5D0:  CALL   150E
0A5D4:  MOVFF  02,7BB
0A5D8:  MOVFF  01,7BA
0A5DC:  MOVLW  02
0A5DE:  MOVLB  7
0A5E0:  ADDWF  01,W
0A5E2:  MOVWF  01
0A5E4:  MOVLW  00
0A5E6:  ADDWFC 02,W
0A5E8:  MOVWF  03
0A5EA:  MOVF   01,W
0A5EC:  ADDLW  8E
0A5EE:  MOVWF  FE9
0A5F0:  MOVLW  06
0A5F2:  ADDWFC 03,W
0A5F4:  MOVWF  FEA
0A5F6:  MOVLB  8
0A5F8:  CLRF   x18
0A5FA:  MOVFF  FEF,817
0A5FE:  MOVLB  0
0A600:  CALL   10DA
0A604:  MOVFF  FEA,7BE
0A608:  MOVFF  FE9,7BD
0A60C:  BCF    FD8.1
0A60E:  MOVFF  03,81A
0A612:  MOVFF  02,819
0A616:  MOVFF  01,818
0A61A:  MOVFF  00,817
0A61E:  MOVLB  8
0A620:  CLRF   x1E
0A622:  CLRF   x1D
0A624:  CLRF   x1C
0A626:  MOVLW  7F
0A628:  MOVWF  x1B
0A62A:  MOVLB  0
0A62C:  CALL   1296
0A630:  MOVFF  7BE,FEA
0A634:  MOVFF  7BD,FE9
0A638:  MOVFF  03,816
0A63C:  MOVFF  02,815
0A640:  MOVFF  01,814
0A644:  MOVFF  00,813
0A648:  CALL   2CD2
0A64C:  MOVFF  01,FEF
....................             } 
....................          } 
....................           
....................          if(DOWN){ 
0A650:  BSF    F93.1
0A652:  BTFSC  F81.1
0A654:  BRA    A6FE
....................             delay_ms(200); 
0A656:  MOVLW  C8
0A658:  MOVLB  7
0A65A:  MOVWF  xE8
0A65C:  MOVLB  0
0A65E:  CALL   1110
....................             if(DOWN){ 
0A662:  BSF    F93.1
0A664:  BTFSC  F81.1
0A666:  BRA    A6FE
....................                rampas[CicloLibre-1].Humedad-=1.0; 
0A668:  MOVLW  01
0A66A:  MOVLB  6
0A66C:  SUBWF  x8D,W
0A66E:  MOVLB  7
0A670:  MOVWF  xBB
0A672:  CLRF   xE4
0A674:  MOVWF  xE3
0A676:  CLRF   xE6
0A678:  MOVLW  0F
0A67A:  MOVWF  xE5
0A67C:  MOVLB  0
0A67E:  CALL   150E
0A682:  MOVFF  02,7BB
0A686:  MOVFF  01,7BA
0A68A:  MOVLW  02
0A68C:  MOVLB  7
0A68E:  ADDWF  01,W
0A690:  MOVWF  01
0A692:  MOVLW  00
0A694:  ADDWFC 02,W
0A696:  MOVWF  03
0A698:  MOVF   01,W
0A69A:  ADDLW  8E
0A69C:  MOVWF  FE9
0A69E:  MOVLW  06
0A6A0:  ADDWFC 03,W
0A6A2:  MOVWF  FEA
0A6A4:  MOVLB  8
0A6A6:  CLRF   x18
0A6A8:  MOVFF  FEF,817
0A6AC:  MOVLB  0
0A6AE:  CALL   10DA
0A6B2:  MOVFF  FEA,7BE
0A6B6:  MOVFF  FE9,7BD
0A6BA:  BSF    FD8.1
0A6BC:  MOVFF  03,81A
0A6C0:  MOVFF  02,819
0A6C4:  MOVFF  01,818
0A6C8:  MOVFF  00,817
0A6CC:  MOVLB  8
0A6CE:  CLRF   x1E
0A6D0:  CLRF   x1D
0A6D2:  CLRF   x1C
0A6D4:  MOVLW  7F
0A6D6:  MOVWF  x1B
0A6D8:  MOVLB  0
0A6DA:  CALL   1296
0A6DE:  MOVFF  7BE,FEA
0A6E2:  MOVFF  7BD,FE9
0A6E6:  MOVFF  03,816
0A6EA:  MOVFF  02,815
0A6EE:  MOVFF  01,814
0A6F2:  MOVFF  00,813
0A6F6:  CALL   2CD2
0A6FA:  MOVFF  01,FEF
....................             } 
....................          } 
....................           
....................          if(RX_Buffer[4]==0x0d){//Tecla Arriba Oprimida 
0A6FE:  MOVF   2E,W
0A700:  SUBLW  0D
0A702:  BNZ   A79E
....................             rampas[CicloLibre-1].Humedad+=1.0; 
0A704:  MOVLW  01
0A706:  MOVLB  6
0A708:  SUBWF  x8D,W
0A70A:  MOVLB  7
0A70C:  MOVWF  xBB
0A70E:  CLRF   xE4
0A710:  MOVWF  xE3
0A712:  CLRF   xE6
0A714:  MOVLW  0F
0A716:  MOVWF  xE5
0A718:  MOVLB  0
0A71A:  CALL   150E
0A71E:  MOVFF  02,7BB
0A722:  MOVFF  01,7BA
0A726:  MOVLW  02
0A728:  MOVLB  7
0A72A:  ADDWF  01,W
0A72C:  MOVWF  01
0A72E:  MOVLW  00
0A730:  ADDWFC 02,W
0A732:  MOVWF  03
0A734:  MOVF   01,W
0A736:  ADDLW  8E
0A738:  MOVWF  FE9
0A73A:  MOVLW  06
0A73C:  ADDWFC 03,W
0A73E:  MOVWF  FEA
0A740:  MOVLB  8
0A742:  CLRF   x18
0A744:  MOVFF  FEF,817
0A748:  MOVLB  0
0A74A:  CALL   10DA
0A74E:  MOVFF  FEA,7BE
0A752:  MOVFF  FE9,7BD
0A756:  BCF    FD8.1
0A758:  MOVFF  03,81A
0A75C:  MOVFF  02,819
0A760:  MOVFF  01,818
0A764:  MOVFF  00,817
0A768:  MOVLB  8
0A76A:  CLRF   x1E
0A76C:  CLRF   x1D
0A76E:  CLRF   x1C
0A770:  MOVLW  7F
0A772:  MOVWF  x1B
0A774:  MOVLB  0
0A776:  CALL   1296
0A77A:  MOVFF  7BE,FEA
0A77E:  MOVFF  7BD,FE9
0A782:  MOVFF  03,816
0A786:  MOVFF  02,815
0A78A:  MOVFF  01,814
0A78E:  MOVFF  00,813
0A792:  CALL   2CD2
0A796:  MOVFF  01,FEF
....................             RX_Buffer[4]=0x00;   
0A79A:  CLRF   2E
....................             RX_Buffer2[4]=0x00;             
0A79C:  CLRF   39
....................          } 
....................           
....................          if(RX_Buffer[4]==0x0c){//Tecla Abajo Oprimida 
0A79E:  MOVF   2E,W
0A7A0:  SUBLW  0C
0A7A2:  BNZ   A83E
....................             rampas[CicloLibre-1].Humedad-=1.0; 
0A7A4:  MOVLW  01
0A7A6:  MOVLB  6
0A7A8:  SUBWF  x8D,W
0A7AA:  MOVLB  7
0A7AC:  MOVWF  xBB
0A7AE:  CLRF   xE4
0A7B0:  MOVWF  xE3
0A7B2:  CLRF   xE6
0A7B4:  MOVLW  0F
0A7B6:  MOVWF  xE5
0A7B8:  MOVLB  0
0A7BA:  CALL   150E
0A7BE:  MOVFF  02,7BB
0A7C2:  MOVFF  01,7BA
0A7C6:  MOVLW  02
0A7C8:  MOVLB  7
0A7CA:  ADDWF  01,W
0A7CC:  MOVWF  01
0A7CE:  MOVLW  00
0A7D0:  ADDWFC 02,W
0A7D2:  MOVWF  03
0A7D4:  MOVF   01,W
0A7D6:  ADDLW  8E
0A7D8:  MOVWF  FE9
0A7DA:  MOVLW  06
0A7DC:  ADDWFC 03,W
0A7DE:  MOVWF  FEA
0A7E0:  MOVLB  8
0A7E2:  CLRF   x18
0A7E4:  MOVFF  FEF,817
0A7E8:  MOVLB  0
0A7EA:  CALL   10DA
0A7EE:  MOVFF  FEA,7BE
0A7F2:  MOVFF  FE9,7BD
0A7F6:  BSF    FD8.1
0A7F8:  MOVFF  03,81A
0A7FC:  MOVFF  02,819
0A800:  MOVFF  01,818
0A804:  MOVFF  00,817
0A808:  MOVLB  8
0A80A:  CLRF   x1E
0A80C:  CLRF   x1D
0A80E:  CLRF   x1C
0A810:  MOVLW  7F
0A812:  MOVWF  x1B
0A814:  MOVLB  0
0A816:  CALL   1296
0A81A:  MOVFF  7BE,FEA
0A81E:  MOVFF  7BD,FE9
0A822:  MOVFF  03,816
0A826:  MOVFF  02,815
0A82A:  MOVFF  01,814
0A82E:  MOVFF  00,813
0A832:  CALL   2CD2
0A836:  MOVFF  01,FEF
....................             RX_Buffer[4]=0x00; 
0A83A:  CLRF   2E
....................             RX_Buffer2[4]=0x00;                         
0A83C:  CLRF   39
....................          } 
....................          printf("tsettem.txt=\"%02u\"",rampas[CicloLibre-1].Humedad); 
0A83E:  MOVLW  01
0A840:  MOVLB  6
0A842:  SUBWF  x8D,W
0A844:  MOVLB  7
0A846:  MOVWF  xBB
0A848:  CLRF   xE4
0A84A:  MOVWF  xE3
0A84C:  CLRF   xE6
0A84E:  MOVLW  0F
0A850:  MOVWF  xE5
0A852:  MOVLB  0
0A854:  CALL   150E
0A858:  MOVFF  02,7BB
0A85C:  MOVFF  01,7BA
0A860:  MOVLW  02
0A862:  MOVLB  7
0A864:  ADDWF  01,W
0A866:  MOVWF  01
0A868:  MOVLW  00
0A86A:  ADDWFC 02,W
0A86C:  MOVWF  03
0A86E:  MOVF   01,W
0A870:  ADDLW  8E
0A872:  MOVWF  FE9
0A874:  MOVLW  06
0A876:  ADDWFC 03,W
0A878:  MOVWF  FEA
0A87A:  MOVFF  FEF,7BA
0A87E:  MOVLW  86
0A880:  MOVWF  FF6
0A882:  MOVLW  07
0A884:  MOVWF  FF7
0A886:  MOVLW  00
0A888:  MOVWF  FF8
0A88A:  MOVLW  0D
0A88C:  MOVWF  xC2
0A88E:  MOVLB  0
0A890:  CALL   477C
0A894:  MOVFF  7BA,7BB
0A898:  MOVLW  01
0A89A:  MOVLB  7
0A89C:  MOVWF  xBC
0A89E:  MOVLB  0
0A8A0:  CALL   47DA
0A8A4:  MOVLW  22
0A8A6:  BTFSS  F9E.4
0A8A8:  BRA    A8A6
0A8AA:  MOVWF  FAD
....................          SendDataDisplay(); 
0A8AC:  CALL   27AC
0A8B0:  MOVLB  5
....................       } 
....................     } 
.................... //_--------------------------------------------------------------------------------------------------------------------------------------------------------        
....................  
.................... //_--------------------------------------------------------------------------------------------------------------------------------------------------------       
....................     if(Menu==6){ // Menu de Prueba de Componentes 
0A8B2:  MOVF   xBE,W
0A8B4:  SUBLW  06
0A8B6:  BTFSS  FD8.2
0A8B8:  BRA    AE24
....................          PruebaEstados=ON; 
0A8BA:  BSF    x89.5
....................          SSR_off; 
0A8BC:  BCF    F8B.2
0A8BE:  BCF    F94.2
....................          SSR2_off; 
0A8C0:  BCF    F8B.1
0A8C2:  BCF    F94.1
....................          SSR3_off; 
0A8C4:  BCF    F8B.0
0A8C6:  BCF    F94.0
....................          Controlando=0; 
0A8C8:  CLRF   x95
....................          if(RX_Buffer[4]==0x01){//Oprimio EV Suministro 
0A8CA:  DECFSZ 2E,W
0A8CC:  BRA    A8D4
....................             EstadoR1=!EstadoR1; 
0A8CE:  BTG    x89.6
....................             RX_Buffer[4]=0x00; 
0A8D0:  CLRF   2E
....................             RX_Buffer2[4]=0x00; 
0A8D2:  CLRF   39
....................          } 
....................           
....................          if(EstadoR1){ 
0A8D4:  BTFSS  x89.6
0A8D6:  BRA    A8F6
....................             printf("b0.bco=2016"); 
0A8D8:  MOVLW  9A
0A8DA:  MOVWF  FF6
0A8DC:  MOVLW  07
0A8DE:  MOVWF  FF7
0A8E0:  MOVLW  00
0A8E2:  MOVWF  FF8
0A8E4:  MOVLB  0
0A8E6:  CALL   277A
....................             SendDataDisplay();  
0A8EA:  CALL   27AC
....................             Rele1_on; 
0A8EE:  BSF    F8B.3
0A8F0:  BCF    F94.3
....................          }else{ 
0A8F2:  BRA    A910
0A8F4:  MOVLB  5
....................             printf("b0.bco=63488"); 
0A8F6:  MOVLW  A6
0A8F8:  MOVWF  FF6
0A8FA:  MOVLW  07
0A8FC:  MOVWF  FF7
0A8FE:  MOVLW  00
0A900:  MOVWF  FF8
0A902:  MOVLB  0
0A904:  CALL   277A
....................             SendDataDisplay();  
0A908:  CALL   27AC
....................             Rele1_off; 
0A90C:  BCF    F8B.3
0A90E:  BCF    F94.3
....................          } 
....................           
....................          if(RX_Buffer[4]==0x02){//Oprimio EV Suministro 
0A910:  MOVF   2E,W
0A912:  SUBLW  02
0A914:  BNZ   A91E
....................             EstadoR2=!EstadoR2; 
0A916:  MOVLB  5
0A918:  BTG    x89.7
....................             RX_Buffer[4]=0x00; 
0A91A:  CLRF   2E
....................             RX_Buffer2[4]=0x00; 
0A91C:  CLRF   39
....................          } 
....................           
....................          if(EstadoR2){ 
0A91E:  MOVLB  5
0A920:  BTFSS  x89.7
0A922:  BRA    A942
....................             printf("b1.bco=2016"); 
0A924:  MOVLW  B4
0A926:  MOVWF  FF6
0A928:  MOVLW  07
0A92A:  MOVWF  FF7
0A92C:  MOVLW  00
0A92E:  MOVWF  FF8
0A930:  MOVLB  0
0A932:  CALL   277A
....................             SendDataDisplay();  
0A936:  CALL   27AC
....................             Rele2_on; 
0A93A:  BSF    F8C.0
0A93C:  BCF    F95.0
....................          }else{ 
0A93E:  BRA    A95C
0A940:  MOVLB  5
....................             printf("b1.bco=63488"); 
0A942:  MOVLW  C0
0A944:  MOVWF  FF6
0A946:  MOVLW  07
0A948:  MOVWF  FF7
0A94A:  MOVLW  00
0A94C:  MOVWF  FF8
0A94E:  MOVLB  0
0A950:  CALL   277A
....................             SendDataDisplay();  
0A954:  CALL   27AC
....................             Rele2_off; 
0A958:  BCF    F8C.0
0A95A:  BCF    F95.0
....................          } 
....................           
....................          if(RX_Buffer[4]==0x03){//Oprimio EV Suministro 
0A95C:  MOVF   2E,W
0A95E:  SUBLW  03
0A960:  BNZ   A96A
....................             EstadoR3=!EstadoR3; 
0A962:  MOVLB  5
0A964:  BTG    x8A.0
....................             RX_Buffer[4]=0x00; 
0A966:  CLRF   2E
....................             RX_Buffer2[4]=0x00; 
0A968:  CLRF   39
....................          } 
....................           
....................          if(EstadoR3){ 
0A96A:  MOVLB  5
0A96C:  BTFSS  x8A.0
0A96E:  BRA    A98E
....................             printf("b2.bco=2016"); 
0A970:  MOVLW  CE
0A972:  MOVWF  FF6
0A974:  MOVLW  07
0A976:  MOVWF  FF7
0A978:  MOVLW  00
0A97A:  MOVWF  FF8
0A97C:  MOVLB  0
0A97E:  CALL   277A
....................             SendDataDisplay();  
0A982:  CALL   27AC
....................             Rele3_on; 
0A986:  BSF    F8C.1
0A988:  BCF    F95.1
....................          }else{ 
0A98A:  BRA    A9A8
0A98C:  MOVLB  5
....................             printf("b2.bco=63488"); 
0A98E:  MOVLW  DA
0A990:  MOVWF  FF6
0A992:  MOVLW  07
0A994:  MOVWF  FF7
0A996:  MOVLW  00
0A998:  MOVWF  FF8
0A99A:  MOVLB  0
0A99C:  CALL   277A
....................             SendDataDisplay();  
0A9A0:  CALL   27AC
....................             Rele3_off; 
0A9A4:  BCF    F8C.1
0A9A6:  BCF    F95.1
....................          } 
....................           
....................          if(RX_Buffer[4]==0x04){//Oprimio EV Suministro 
0A9A8:  MOVF   2E,W
0A9AA:  SUBLW  04
0A9AC:  BNZ   A9B6
....................             EstadoR4=!EstadoR4; 
0A9AE:  MOVLB  5
0A9B0:  BTG    x8A.1
....................             RX_Buffer[4]=0x00; 
0A9B2:  CLRF   2E
....................             RX_Buffer2[4]=0x00; 
0A9B4:  CLRF   39
....................          } 
....................           
....................          if(EstadoR4){ 
0A9B6:  MOVLB  5
0A9B8:  BTFSS  x8A.1
0A9BA:  BRA    A9DA
....................             printf("b3.bco=2016"); 
0A9BC:  MOVLW  E8
0A9BE:  MOVWF  FF6
0A9C0:  MOVLW  07
0A9C2:  MOVWF  FF7
0A9C4:  MOVLW  00
0A9C6:  MOVWF  FF8
0A9C8:  MOVLB  0
0A9CA:  CALL   277A
....................             SendDataDisplay();  
0A9CE:  CALL   27AC
....................             Rele4_on; 
0A9D2:  BSF    F8B.5
0A9D4:  BCF    F94.5
....................          }else{ 
0A9D6:  BRA    A9F4
0A9D8:  MOVLB  5
....................             printf("b3.bco=63488"); 
0A9DA:  MOVLW  F4
0A9DC:  MOVWF  FF6
0A9DE:  MOVLW  07
0A9E0:  MOVWF  FF7
0A9E2:  MOVLW  00
0A9E4:  MOVWF  FF8
0A9E6:  MOVLB  0
0A9E8:  CALL   277A
....................             SendDataDisplay();  
0A9EC:  CALL   27AC
....................             Rele4_off; 
0A9F0:  BCF    F8B.5
0A9F2:  BCF    F94.5
....................          } 
....................           
....................          if(RX_Buffer[4]==0x05){//Oprimio EV Suministro 
0A9F4:  MOVF   2E,W
0A9F6:  SUBLW  05
0A9F8:  BNZ   AA02
....................             EstadoR5=!EstadoR5; 
0A9FA:  MOVLB  5
0A9FC:  BTG    x8A.2
....................             RX_Buffer[4]=0x00; 
0A9FE:  CLRF   2E
....................             RX_Buffer2[4]=0x00; 
0AA00:  CLRF   39
....................          } 
....................           
....................          if(EstadoR5){ 
0AA02:  MOVLB  5
0AA04:  BTFSS  x8A.2
0AA06:  BRA    AA26
....................             printf("b4.bco=2016"); 
0AA08:  MOVLW  02
0AA0A:  MOVWF  FF6
0AA0C:  MOVLW  08
0AA0E:  MOVWF  FF7
0AA10:  MOVLW  00
0AA12:  MOVWF  FF8
0AA14:  MOVLB  0
0AA16:  CALL   277A
....................             SendDataDisplay();  
0AA1A:  CALL   27AC
....................             Rele5_on; 
0AA1E:  BSF    F8B.4
0AA20:  BCF    F94.4
....................          }else{ 
0AA22:  BRA    AA40
0AA24:  MOVLB  5
....................             printf("b4.bco=63488"); 
0AA26:  MOVLW  0E
0AA28:  MOVWF  FF6
0AA2A:  MOVLW  08
0AA2C:  MOVWF  FF7
0AA2E:  MOVLW  00
0AA30:  MOVWF  FF8
0AA32:  MOVLB  0
0AA34:  CALL   277A
....................             SendDataDisplay();  
0AA38:  CALL   27AC
....................             Rele5_off; 
0AA3C:  BCF    F8B.4
0AA3E:  BCF    F94.4
....................          } 
....................           
....................          if(RX_Buffer[4]==0x06){//Oprimio EV Suministro 
0AA40:  MOVF   2E,W
0AA42:  SUBLW  06
0AA44:  BNZ   AA4E
....................             EstadoR6=!EstadoR6; 
0AA46:  MOVLB  5
0AA48:  BTG    x8B.0
....................             RX_Buffer[4]=0x00; 
0AA4A:  CLRF   2E
....................             RX_Buffer2[4]=0x00; 
0AA4C:  CLRF   39
....................          } 
....................           
....................          if(EstadoR6){ 
0AA4E:  MOVLB  5
0AA50:  BTFSS  x8B.0
0AA52:  BRA    AA72
....................             printf("b5.bco=2016"); 
0AA54:  MOVLW  1C
0AA56:  MOVWF  FF6
0AA58:  MOVLW  08
0AA5A:  MOVWF  FF7
0AA5C:  MOVLW  00
0AA5E:  MOVWF  FF8
0AA60:  MOVLB  0
0AA62:  CALL   277A
....................             SendDataDisplay();  
0AA66:  CALL   27AC
....................             Rele6_on; 
0AA6A:  BSF    F8C.3
0AA6C:  BCF    F95.3
....................          }else{ 
0AA6E:  BRA    AA8C
0AA70:  MOVLB  5
....................             printf("b5.bco=63488"); 
0AA72:  MOVLW  28
0AA74:  MOVWF  FF6
0AA76:  MOVLW  08
0AA78:  MOVWF  FF7
0AA7A:  MOVLW  00
0AA7C:  MOVWF  FF8
0AA7E:  MOVLB  0
0AA80:  CALL   277A
....................             SendDataDisplay();  
0AA84:  CALL   27AC
....................             Rele6_off; 
0AA88:  BCF    F8C.3
0AA8A:  BCF    F95.3
....................          } 
....................           
....................          if(RX_Buffer[4]==0x07){//Oprimio EV Suministro 
0AA8C:  MOVF   2E,W
0AA8E:  SUBLW  07
0AA90:  BNZ   AA9A
....................             EstadoR7=!EstadoR7; 
0AA92:  MOVLB  5
0AA94:  BTG    x8B.1
....................             RX_Buffer[4]=0x00; 
0AA96:  CLRF   2E
....................             RX_Buffer2[4]=0x00; 
0AA98:  CLRF   39
....................          } 
....................           
....................          if(EstadoR7){ 
0AA9A:  MOVLB  5
0AA9C:  BTFSS  x8B.1
0AA9E:  BRA    AABE
....................             printf("b6.bco=2016"); 
0AAA0:  MOVLW  36
0AAA2:  MOVWF  FF6
0AAA4:  MOVLW  08
0AAA6:  MOVWF  FF7
0AAA8:  MOVLW  00
0AAAA:  MOVWF  FF8
0AAAC:  MOVLB  0
0AAAE:  CALL   277A
....................             SendDataDisplay();  
0AAB2:  CALL   27AC
....................             Rele7_on; 
0AAB6:  BSF    F8C.2
0AAB8:  BCF    F95.2
....................          }else{ 
0AABA:  BRA    AAD8
0AABC:  MOVLB  5
....................             printf("b6.bco=63488"); 
0AABE:  MOVLW  42
0AAC0:  MOVWF  FF6
0AAC2:  MOVLW  08
0AAC4:  MOVWF  FF7
0AAC6:  MOVLW  00
0AAC8:  MOVWF  FF8
0AACA:  MOVLB  0
0AACC:  CALL   277A
....................             SendDataDisplay();  
0AAD0:  CALL   27AC
....................             Rele7_off; 
0AAD4:  BCF    F8C.2
0AAD6:  BCF    F95.2
....................          } 
....................           
....................          if(DOOR){ 
0AAD8:  BSF    F93.4
0AADA:  BTFSS  F81.4
0AADC:  BRA    AAF4
....................             printf("b8.bco=2016"); 
0AADE:  MOVLW  50
0AAE0:  MOVWF  FF6
0AAE2:  MOVLW  08
0AAE4:  MOVWF  FF7
0AAE6:  MOVLW  00
0AAE8:  MOVWF  FF8
0AAEA:  CALL   277A
....................             SendDataDisplay();  
0AAEE:  CALL   27AC
....................          }else{ 
0AAF2:  BRA    AB08
....................             printf("b8.bco=63488"); 
0AAF4:  MOVLW  5C
0AAF6:  MOVWF  FF6
0AAF8:  MOVLW  08
0AAFA:  MOVWF  FF7
0AAFC:  MOVLW  00
0AAFE:  MOVWF  FF8
0AB00:  CALL   277A
....................             SendDataDisplay();  
0AB04:  CALL   27AC
....................          } 
....................           
....................          if(TERM){ 
0AB08:  BSF    F93.5
0AB0A:  BTFSS  F81.5
0AB0C:  BRA    AB24
....................             printf("b9.bco=2016"); 
0AB0E:  MOVLW  6A
0AB10:  MOVWF  FF6
0AB12:  MOVLW  08
0AB14:  MOVWF  FF7
0AB16:  MOVLW  00
0AB18:  MOVWF  FF8
0AB1A:  CALL   277A
....................             SendDataDisplay();  
0AB1E:  CALL   27AC
....................          }else{ 
0AB22:  BRA    AB38
....................             printf("b9.bco=63488"); 
0AB24:  MOVLW  76
0AB26:  MOVWF  FF6
0AB28:  MOVLW  08
0AB2A:  MOVWF  FF7
0AB2C:  MOVLW  00
0AB2E:  MOVWF  FF8
0AB30:  CALL   277A
....................             SendDataDisplay();  
0AB34:  CALL   27AC
....................          } 
....................           
....................          if(LEVEL){ 
0AB38:  BSF    F93.6
0AB3A:  BTFSS  F81.6
0AB3C:  BRA    AB54
....................             printf("b10.bco=2016"); 
0AB3E:  MOVLW  84
0AB40:  MOVWF  FF6
0AB42:  MOVLW  08
0AB44:  MOVWF  FF7
0AB46:  MOVLW  00
0AB48:  MOVWF  FF8
0AB4A:  CALL   277A
....................             SendDataDisplay();  
0AB4E:  CALL   27AC
....................          }else{ 
0AB52:  BRA    AB68
....................             printf("b10.bco=63488"); 
0AB54:  MOVLW  92
0AB56:  MOVWF  FF6
0AB58:  MOVLW  08
0AB5A:  MOVWF  FF7
0AB5C:  MOVLW  00
0AB5E:  MOVWF  FF8
0AB60:  CALL   277A
....................             SendDataDisplay();  
0AB64:  CALL   27AC
....................          } 
....................          /* 
....................          if(PRES){ 
....................             printf("b11.bco=2016"); 
....................             SendDataDisplay();  
....................          }else{ 
....................             printf("b11.bco=63488"); 
....................             SendDataDisplay();  
....................          } 
....................          */ 
....................          if(RX_Buffer[4]==0x13)//Oprimio Buzzer 
0AB68:  MOVF   2E,W
0AB6A:  SUBLW  13
0AB6C:  BNZ   AB76
....................          { 
....................             EstadoBuzzer=!EstadoBuzzer; 
0AB6E:  MOVLB  5
0AB70:  BTG    xBA.3
....................             RX_Buffer[4]=0x00; 
0AB72:  CLRF   2E
....................             RX_Buffer2[4]=0x00; 
0AB74:  CLRF   39
....................          } 
....................           
....................          if(EstadoBuzzer){ 
0AB76:  MOVLB  5
0AB78:  BTFSS  xBA.3
0AB7A:  BRA    AB9A
....................             printf("b12.bco=2016"); 
0AB7C:  MOVLW  A0
0AB7E:  MOVWF  FF6
0AB80:  MOVLW  08
0AB82:  MOVWF  FF7
0AB84:  MOVLW  00
0AB86:  MOVWF  FF8
0AB88:  MOVLB  0
0AB8A:  CALL   277A
....................             SendDataDisplay();  
0AB8E:  CALL   27AC
....................             Buzzer_on; 
0AB92:  BSF    F8C.7
0AB94:  BCF    F95.7
....................          } 
....................          else{ 
0AB96:  BRA    ABB4
0AB98:  MOVLB  5
....................             printf("b12.bco=63488"); 
0AB9A:  MOVLW  AE
0AB9C:  MOVWF  FF6
0AB9E:  MOVLW  08
0ABA0:  MOVWF  FF7
0ABA2:  MOVLW  00
0ABA4:  MOVWF  FF8
0ABA6:  MOVLB  0
0ABA8:  CALL   277A
....................             SendDataDisplay();  
0ABAC:  CALL   27AC
....................             Buzzer_off; 
0ABB0:  BCF    F8C.7
0ABB2:  BCF    F95.7
....................          } 
....................                    
....................          printf("b13.txt=\"ADC0:%3.0f\"",sensores(0));          
0ABB4:  MOVLB  7
0ABB6:  CLRF   xE3
0ABB8:  MOVLB  0
0ABBA:  CALL   27E2
0ABBE:  MOVFF  00,7BA
0ABC2:  MOVFF  01,7BB
0ABC6:  MOVFF  02,7BC
0ABCA:  MOVFF  03,7BD
0ABCE:  MOVLW  BC
0ABD0:  MOVWF  FF6
0ABD2:  MOVLW  08
0ABD4:  MOVWF  FF7
0ABD6:  MOVLW  00
0ABD8:  MOVWF  FF8
0ABDA:  MOVLW  0E
0ABDC:  MOVLB  7
0ABDE:  MOVWF  xC2
0ABE0:  MOVLB  0
0ABE2:  CALL   477C
0ABE6:  MOVLW  02
0ABE8:  MOVWF  FE9
0ABEA:  MOVFF  7BD,7C5
0ABEE:  MOVFF  7BC,7C4
0ABF2:  MOVFF  7BB,7C3
0ABF6:  MOVFF  7BA,7C2
0ABFA:  MOVLB  7
0ABFC:  CLRF   xC6
0ABFE:  MOVLB  0
0AC00:  CALL   491C
0AC04:  MOVLW  22
0AC06:  BTFSS  F9E.4
0AC08:  BRA    AC06
0AC0A:  MOVWF  FAD
....................          SendDataDisplay(); 
0AC0C:  CALL   27AC
....................          printf("b14.txt=\"ADC1:%3.0f\"",sensores(1));          
0AC10:  MOVLW  01
0AC12:  MOVLB  7
0AC14:  MOVWF  xE3
0AC16:  MOVLB  0
0AC18:  CALL   27E2
0AC1C:  MOVFF  00,7BA
0AC20:  MOVFF  01,7BB
0AC24:  MOVFF  02,7BC
0AC28:  MOVFF  03,7BD
0AC2C:  MOVLW  D2
0AC2E:  MOVWF  FF6
0AC30:  MOVLW  08
0AC32:  MOVWF  FF7
0AC34:  MOVLW  00
0AC36:  MOVWF  FF8
0AC38:  MOVLW  0E
0AC3A:  MOVLB  7
0AC3C:  MOVWF  xC2
0AC3E:  MOVLB  0
0AC40:  CALL   477C
0AC44:  MOVLW  02
0AC46:  MOVWF  FE9
0AC48:  MOVFF  7BD,7C5
0AC4C:  MOVFF  7BC,7C4
0AC50:  MOVFF  7BB,7C3
0AC54:  MOVFF  7BA,7C2
0AC58:  MOVLB  7
0AC5A:  CLRF   xC6
0AC5C:  MOVLB  0
0AC5E:  CALL   491C
0AC62:  MOVLW  22
0AC64:  BTFSS  F9E.4
0AC66:  BRA    AC64
0AC68:  MOVWF  FAD
....................          SendDataDisplay(); 
0AC6A:  CALL   27AC
....................          printf("b15.txt=\"A2:%3.0f %2.1f\"",sensores(2),Humedad); 
0AC6E:  MOVLW  02
0AC70:  MOVLB  7
0AC72:  MOVWF  xE3
0AC74:  MOVLB  0
0AC76:  CALL   27E2
0AC7A:  MOVFF  00,7BA
0AC7E:  MOVFF  01,7BB
0AC82:  MOVFF  02,7BC
0AC86:  MOVFF  03,7BD
0AC8A:  MOVLW  E8
0AC8C:  MOVWF  FF6
0AC8E:  MOVLW  08
0AC90:  MOVWF  FF7
0AC92:  MOVLW  00
0AC94:  MOVWF  FF8
0AC96:  MOVLW  0C
0AC98:  MOVLB  7
0AC9A:  MOVWF  xC2
0AC9C:  MOVLB  0
0AC9E:  CALL   477C
0ACA2:  MOVLW  02
0ACA4:  MOVWF  FE9
0ACA6:  MOVFF  7BD,7C5
0ACAA:  MOVFF  7BC,7C4
0ACAE:  MOVFF  7BB,7C3
0ACB2:  MOVFF  7BA,7C2
0ACB6:  MOVLB  7
0ACB8:  CLRF   xC6
0ACBA:  MOVLB  0
0ACBC:  CALL   491C
0ACC0:  MOVLW  20
0ACC2:  BTFSS  F9E.4
0ACC4:  BRA    ACC2
0ACC6:  MOVWF  FAD
0ACC8:  MOVLW  01
0ACCA:  MOVWF  FE9
0ACCC:  MOVFF  61F,7C5
0ACD0:  MOVFF  61E,7C4
0ACD4:  MOVFF  61D,7C3
0ACD8:  MOVFF  61C,7C2
0ACDC:  MOVLB  7
0ACDE:  MOVWF  xC6
0ACE0:  MOVLB  0
0ACE2:  CALL   491C
0ACE6:  MOVLW  22
0ACE8:  BTFSS  F9E.4
0ACEA:  BRA    ACE8
0ACEC:  MOVWF  FAD
....................          SendDataDisplay(); 
0ACEE:  CALL   27AC
....................          printf("b18.txt=\"A3:%3.0f %2.1f\"",sensores(3),RH2); 
0ACF2:  MOVLW  03
0ACF4:  MOVLB  7
0ACF6:  MOVWF  xE3
0ACF8:  MOVLB  0
0ACFA:  CALL   27E2
0ACFE:  MOVFF  00,7BA
0AD02:  MOVFF  01,7BB
0AD06:  MOVFF  02,7BC
0AD0A:  MOVFF  03,7BD
0AD0E:  MOVLW  02
0AD10:  MOVWF  FF6
0AD12:  MOVLW  09
0AD14:  MOVWF  FF7
0AD16:  MOVLW  00
0AD18:  MOVWF  FF8
0AD1A:  MOVLW  0C
0AD1C:  MOVLB  7
0AD1E:  MOVWF  xC2
0AD20:  MOVLB  0
0AD22:  CALL   477C
0AD26:  MOVLW  02
0AD28:  MOVWF  FE9
0AD2A:  MOVFF  7BD,7C5
0AD2E:  MOVFF  7BC,7C4
0AD32:  MOVFF  7BB,7C3
0AD36:  MOVFF  7BA,7C2
0AD3A:  MOVLB  7
0AD3C:  CLRF   xC6
0AD3E:  MOVLB  0
0AD40:  CALL   491C
0AD44:  MOVLW  20
0AD46:  BTFSS  F9E.4
0AD48:  BRA    AD46
0AD4A:  MOVWF  FAD
0AD4C:  MOVLW  01
0AD4E:  MOVWF  FE9
0AD50:  MOVFF  5E7,7C5
0AD54:  MOVFF  5E6,7C4
0AD58:  MOVFF  5E5,7C3
0AD5C:  MOVFF  5E4,7C2
0AD60:  MOVLB  7
0AD62:  MOVWF  xC6
0AD64:  MOVLB  0
0AD66:  CALL   491C
0AD6A:  MOVLW  22
0AD6C:  BTFSS  F9E.4
0AD6E:  BRA    AD6C
0AD70:  MOVWF  FAD
....................          SendDataDisplay(); 
0AD72:  CALL   27AC
....................          printf("b19.txt=\"T2:%3.1f\"",Tam); 
0AD76:  MOVLW  1C
0AD78:  MOVWF  FF6
0AD7A:  MOVLW  09
0AD7C:  MOVWF  FF7
0AD7E:  MOVLW  00
0AD80:  MOVWF  FF8
0AD82:  MOVLW  0C
0AD84:  MOVLB  7
0AD86:  MOVWF  xC2
0AD88:  MOVLB  0
0AD8A:  CALL   477C
0AD8E:  MOVLW  02
0AD90:  MOVWF  FE9
0AD92:  MOVFF  5E3,7C5
0AD96:  MOVFF  5E2,7C4
0AD9A:  MOVFF  5E1,7C3
0AD9E:  MOVFF  5E0,7C2
0ADA2:  MOVLW  01
0ADA4:  MOVLB  7
0ADA6:  MOVWF  xC6
0ADA8:  MOVLB  0
0ADAA:  CALL   491C
0ADAE:  MOVLW  22
0ADB0:  BTFSS  F9E.4
0ADB2:  BRA    ADB0
0ADB4:  MOVWF  FAD
....................          SendDataDisplay(); 
0ADB6:  CALL   27AC
....................          printf("b20.txt=\"T1:%3.1f\"",Temperatura); 
0ADBA:  MOVLW  30
0ADBC:  MOVWF  FF6
0ADBE:  MOVLW  09
0ADC0:  MOVWF  FF7
0ADC2:  MOVLW  00
0ADC4:  MOVWF  FF8
0ADC6:  MOVLW  0C
0ADC8:  MOVLB  7
0ADCA:  MOVWF  xC2
0ADCC:  MOVLB  0
0ADCE:  CALL   477C
0ADD2:  MOVLW  02
0ADD4:  MOVWF  FE9
0ADD6:  MOVFF  627,7C5
0ADDA:  MOVFF  626,7C4
0ADDE:  MOVFF  625,7C3
0ADE2:  MOVFF  624,7C2
0ADE6:  MOVLW  01
0ADE8:  MOVLB  7
0ADEA:  MOVWF  xC6
0ADEC:  MOVLB  0
0ADEE:  CALL   491C
0ADF2:  MOVLW  22
0ADF4:  BTFSS  F9E.4
0ADF6:  BRA    ADF4
0ADF8:  MOVWF  FAD
....................          SendDataDisplay(); 
0ADFA:  CALL   27AC
....................           
....................          if(RX_Buffer[4]==0x21)//Oprimio salir 
0ADFE:  MOVF   2E,W
0AE00:  SUBLW  21
0AE02:  BNZ   AE22
....................          { 
....................             printf("page Principal"); 
0AE04:  MOVLW  44
0AE06:  MOVWF  FF6
0AE08:  MOVLW  09
0AE0A:  MOVWF  FF7
0AE0C:  MOVLW  00
0AE0E:  MOVWF  FF8
0AE10:  CALL   277A
....................             SendDataDisplay(); 
0AE14:  CALL   27AC
....................             PruebaEstados=OFF; 
0AE18:  MOVLB  5
0AE1A:  BCF    x89.5
....................             ApagaSalidas(); 
0AE1C:  MOVLB  0
0AE1E:  CALL   4746
0AE22:  MOVLB  5
....................          } 
....................      } 
.................... //_--------------------------------------------------------------------------------------------------------------------------------------------------------     
....................  
.................... //_--------------------------------------------------------------------------------------------------------------------------------------------------------       
....................       if(Menu==7){ //Menu de Configuracin de Fecha y Hora 
0AE24:  MOVF   xBE,W
0AE26:  SUBLW  07
0AE28:  BTFSS  FD8.2
0AE2A:  BRA    B270
....................          if(RX_Buffer[4]==0x0a){//Selecciono Hora 
0AE2C:  MOVF   2E,W
0AE2E:  SUBLW  0A
0AE30:  BNZ   AE36
....................             Opcion=4; 
0AE32:  MOVLW  04
0AE34:  MOVWF  xC2
....................          } 
....................           
....................          if(RX_Buffer[4]==0x0b){//Selecciono Minuto 
0AE36:  MOVF   2E,W
0AE38:  SUBLW  0B
0AE3A:  BNZ   AE40
....................             Opcion=5; 
0AE3C:  MOVLW  05
0AE3E:  MOVWF  xC2
....................          } 
....................           
....................          if(RX_Buffer[4]==0x0c){//Selecciono Dia 
0AE40:  MOVF   2E,W
0AE42:  SUBLW  0C
0AE44:  BNZ   AE4A
....................             Opcion=1; 
0AE46:  MOVLW  01
0AE48:  MOVWF  xC2
....................          } 
....................           
....................          if(RX_Buffer[4]==0x0d){//Selecciono Hora 
0AE4A:  MOVF   2E,W
0AE4C:  SUBLW  0D
0AE4E:  BNZ   AE54
....................             Opcion=2; 
0AE50:  MOVLW  02
0AE52:  MOVWF  xC2
....................          } 
....................           
....................          if(RX_Buffer[4]==0x0e){//Selecciono Year 
0AE54:  MOVF   2E,W
0AE56:  SUBLW  0E
0AE58:  BNZ   AE5E
....................             Opcion=3; 
0AE5A:  MOVLW  03
0AE5C:  MOVWF  xC2
....................          } 
....................           
....................          if(RIGHT){ 
0AE5E:  BSF    F93.2
0AE60:  BTFSC  F81.2
0AE62:  BRA    AE7A
....................             delay_ms(200); 
0AE64:  MOVLW  C8
0AE66:  MOVLB  7
0AE68:  MOVWF  xE8
0AE6A:  MOVLB  0
0AE6C:  CALL   1110
....................             if(RIGHT){ 
0AE70:  BSF    F93.2
0AE72:  BTFSC  F81.2
0AE74:  BRA    AE7C
....................                Opcion++; 
0AE76:  MOVLB  5
0AE78:  INCF   xC2,F
0AE7A:  MOVLB  0
....................             } 
....................          } 
....................          if(Opcion>5) 
0AE7C:  MOVLB  5
0AE7E:  MOVF   xC2,W
0AE80:  SUBLW  05
0AE82:  BC    AE88
....................             Opcion=1; 
0AE84:  MOVLW  01
0AE86:  MOVWF  xC2
....................          if(Opcion<1) 
0AE88:  MOVF   xC2,F
0AE8A:  BNZ   AE90
....................             Opcion=5; 
0AE8C:  MOVLW  05
0AE8E:  MOVWF  xC2
....................              
....................          if(RX_Buffer[4]==0x11 || LEFT){//Selecciono Regresar 
0AE90:  MOVF   2E,W
0AE92:  SUBLW  11
0AE94:  BZ    AE9C
0AE96:  BSF    F93.3
0AE98:  BTFSC  F81.3
0AE9A:  BRA    AFAA
....................             printf("page Principal"); 
0AE9C:  MOVLW  54
0AE9E:  MOVWF  FF6
0AEA0:  MOVLW  09
0AEA2:  MOVWF  FF7
0AEA4:  MOVLW  00
0AEA6:  MOVWF  FF8
0AEA8:  MOVLB  0
0AEAA:  CALL   277A
....................             SendDataDisplay();   
0AEAE:  CALL   27AC
....................              
....................              
....................             if(esBisiesto(YearTx)) 
0AEB2:  MOVFF  687,7BA
0AEB6:  CALL   4BD2
0AEBA:  MOVF   01,F
0AEBC:  BZ    AED8
....................                Modulo=Bisiesto[MesTx]; 
0AEBE:  CLRF   03
0AEC0:  MOVLB  6
0AEC2:  MOVF   x88,W
0AEC4:  ADDLW  4D
0AEC6:  MOVWF  FE9
0AEC8:  MOVLW  00
0AECA:  ADDWFC 03,W
0AECC:  MOVWF  FEA
0AECE:  MOVFF  FEF,59D
0AED2:  MOVLB  5
....................             else 
0AED4:  BRA    AEEE
0AED6:  MOVLB  0
....................                Modulo=Regular[MesTx]; 
0AED8:  CLRF   03
0AEDA:  MOVLB  6
0AEDC:  MOVF   x88,W
0AEDE:  ADDLW  41
0AEE0:  MOVWF  FE9
0AEE2:  MOVLW  00
0AEE4:  ADDWFC 03,W
0AEE6:  MOVWF  FEA
0AEE8:  MOVFF  FEF,59D
0AEEC:  MOVLB  5
....................           
....................             dowTx=((YearTx-1)%7+((YearTx-1)/4-3*((YearTx-1)/100+1)/4)%7+Modulo+DiaTx%7)%7; 
0AEEE:  MOVLW  01
0AEF0:  MOVLB  6
0AEF2:  SUBWF  x87,W
0AEF4:  MOVLB  7
0AEF6:  MOVWF  xBB
0AEF8:  MOVWF  xC3
0AEFA:  MOVLW  07
0AEFC:  MOVWF  xC4
0AEFE:  MOVLB  0
0AF00:  CALL   47AE
0AF04:  MOVFF  00,7BA
0AF08:  MOVLW  01
0AF0A:  MOVLB  6
0AF0C:  SUBWF  x87,W
0AF0E:  MOVWF  00
0AF10:  RRCF   00,W
0AF12:  MOVLB  7
0AF14:  MOVWF  xBB
0AF16:  RRCF   xBB,F
0AF18:  MOVLW  3F
0AF1A:  ANDWF  xBB,F
0AF1C:  MOVLW  01
0AF1E:  MOVLB  6
0AF20:  SUBWF  x87,W
0AF22:  MOVLB  7
0AF24:  MOVWF  xBD
0AF26:  MOVWF  xC3
0AF28:  MOVLW  64
0AF2A:  MOVWF  xC4
0AF2C:  MOVLB  0
0AF2E:  CALL   47AE
0AF32:  MOVLW  01
0AF34:  ADDWF  01,W
0AF36:  MULLW  03
0AF38:  MOVFF  FF3,00
0AF3C:  RRCF   00,F
0AF3E:  RRCF   00,F
0AF40:  MOVLW  3F
0AF42:  ANDWF  00,F
0AF44:  MOVF   00,W
0AF46:  MOVLB  7
0AF48:  SUBWF  xBB,W
0AF4A:  MOVWF  xBC
0AF4C:  MOVWF  xC3
0AF4E:  MOVLW  07
0AF50:  MOVWF  xC4
0AF52:  MOVLB  0
0AF54:  CALL   47AE
0AF58:  MOVF   00,W
0AF5A:  MOVLB  7
0AF5C:  ADDWF  xBA,W
0AF5E:  MOVLB  5
0AF60:  ADDWF  x9D,W
0AF62:  MOVLB  7
0AF64:  MOVWF  xBA
0AF66:  MOVFF  689,7C3
0AF6A:  MOVLW  07
0AF6C:  MOVWF  xC4
0AF6E:  MOVLB  0
0AF70:  CALL   47AE
0AF74:  MOVF   00,W
0AF76:  MOVLB  7
0AF78:  ADDWF  xBA,W
0AF7A:  MOVWF  xBB
0AF7C:  MOVWF  xC3
0AF7E:  MOVLW  07
0AF80:  MOVWF  xC4
0AF82:  MOVLB  0
0AF84:  CALL   47AE
0AF88:  MOVFF  00,68C
....................             rtc_set_datetime(DiaTx,MesTx,YearTx,dowTx,HoraTx,MinutoTx); 
0AF8C:  MOVFF  689,7BA
0AF90:  MOVFF  688,7BB
0AF94:  MOVFF  687,7BC
0AF98:  MOVFF  68C,7BD
0AF9C:  MOVFF  68A,7BE
0AFA0:  MOVFF  68B,7BF
0AFA4:  GOTO   4C54
0AFA8:  MOVLB  5
....................          } 
....................           
....................          if((RX_Buffer[4]==0x2a)|| UP){//Tecla Arriba Oprimida 
0AFAA:  MOVF   2E,W
0AFAC:  SUBLW  2A
0AFAE:  BZ    AFB6
0AFB0:  BSF    F93.0
0AFB2:  BTFSC  F81.0
0AFB4:  BRA    B0C8
....................             delay_ms(200); 
0AFB6:  MOVLW  C8
0AFB8:  MOVLB  7
0AFBA:  MOVWF  xE8
0AFBC:  MOVLB  0
0AFBE:  CALL   1110
....................             if((RX_Buffer[4]==0x2a)|| UP){    
0AFC2:  MOVF   2E,W
0AFC4:  SUBLW  2A
0AFC6:  BZ    AFCE
0AFC8:  BSF    F93.0
0AFCA:  BTFSC  F81.0
0AFCC:  BRA    B0CA
....................                if(Opcion==1){ 
0AFCE:  MOVLB  5
0AFD0:  DECFSZ xC2,W
0AFD2:  BRA    B064
....................                   if(MesTx==2){ 
0AFD4:  MOVLB  6
0AFD6:  MOVF   x88,W
0AFD8:  SUBLW  02
0AFDA:  BNZ   B010
....................                      if(esBisiesto(YearTx)){ 
0AFDC:  MOVFF  687,7BA
0AFE0:  MOVLB  0
0AFE2:  CALL   4BD2
0AFE6:  MOVF   01,F
0AFE8:  BZ    AFFE
....................                         if(DiaTx<29) 
0AFEA:  MOVLB  6
0AFEC:  MOVF   x89,W
0AFEE:  SUBLW  1C
0AFF0:  BNC   AFF6
....................                            DiaTx++; 
0AFF2:  INCF   x89,F
....................                         else 
0AFF4:  BRA    AFFA
....................                            DiaTx=1;    
0AFF6:  MOVLW  01
0AFF8:  MOVWF  x89
....................                      }else{ 
0AFFA:  BRA    B00E
0AFFC:  MOVLB  0
....................                         if(DiaTx<28) 
0AFFE:  MOVLB  6
0B000:  MOVF   x89,W
0B002:  SUBLW  1B
0B004:  BNC   B00A
....................                            DiaTx++; 
0B006:  INCF   x89,F
....................                         else 
0B008:  BRA    B00E
....................                            DiaTx=1;    
0B00A:  MOVLW  01
0B00C:  MOVWF  x89
....................                      } 
....................                   }else{ 
0B00E:  BRA    B060
....................                      if(MesTx<=7){ 
0B010:  MOVF   x88,W
0B012:  SUBLW  07
0B014:  BNC   B03C
....................                         if(MesTx % 2 ==0){ 
0B016:  MOVF   x88,W
0B018:  ANDLW  01
0B01A:  BNZ   B02C
....................                            if(DiaTx<30) 
0B01C:  MOVF   x89,W
0B01E:  SUBLW  1D
0B020:  BNC   B026
....................                               DiaTx++;     
0B022:  INCF   x89,F
....................                            else 
0B024:  BRA    B02A
....................                               DiaTx=1;    
0B026:  MOVLW  01
0B028:  MOVWF  x89
....................                         }else{ 
0B02A:  BRA    B03A
....................                            if(DiaTx<31) 
0B02C:  MOVF   x89,W
0B02E:  SUBLW  1E
0B030:  BNC   B036
....................                               DiaTx++;     
0B032:  INCF   x89,F
....................                            else 
0B034:  BRA    B03A
....................                               DiaTx=1;    
0B036:  MOVLW  01
0B038:  MOVWF  x89
....................                         }     
....................                      }else{ 
0B03A:  BRA    B060
....................                         if(MesTx % 2 ==0){ 
0B03C:  MOVF   x88,W
0B03E:  ANDLW  01
0B040:  BNZ   B052
....................                            if(DiaTx<31) 
0B042:  MOVF   x89,W
0B044:  SUBLW  1E
0B046:  BNC   B04C
....................                               DiaTx++;   
0B048:  INCF   x89,F
....................                            else 
0B04A:  BRA    B050
....................                               DiaTx=1; 
0B04C:  MOVLW  01
0B04E:  MOVWF  x89
....................                         }else{ 
0B050:  BRA    B060
....................                            if(DiaTx<30) 
0B052:  MOVF   x89,W
0B054:  SUBLW  1D
0B056:  BNC   B05C
....................                               DiaTx++;     
0B058:  INCF   x89,F
....................                            else 
0B05A:  BRA    B060
....................                               DiaTx=1; 
0B05C:  MOVLW  01
0B05E:  MOVWF  x89
....................                         }     
....................                      } 
....................                   } 
....................                }else if(Opcion==2){ 
0B060:  BRA    B0C2
0B062:  MOVLB  5
0B064:  MOVF   xC2,W
0B066:  SUBLW  02
0B068:  BNZ   B07E
....................                   if(MesTx<12) 
0B06A:  MOVLB  6
0B06C:  MOVF   x88,W
0B06E:  SUBLW  0B
0B070:  BNC   B076
....................                      MesTx++; 
0B072:  INCF   x88,F
....................                   else 
0B074:  BRA    B07A
....................                      MesTx=1; 
0B076:  MOVLW  01
0B078:  MOVWF  x88
....................                }else if(Opcion==3){ 
0B07A:  BRA    B0C2
0B07C:  MOVLB  5
0B07E:  MOVF   xC2,W
0B080:  SUBLW  03
0B082:  BNZ   B096
....................                   if(YearTx<99) 
0B084:  MOVLB  6
0B086:  MOVF   x87,W
0B088:  SUBLW  62
0B08A:  BNC   B090
....................                      YearTx++; 
0B08C:  INCF   x87,F
....................                   else  
0B08E:  BRA    B092
....................                      YearTx=0; 
0B090:  CLRF   x87
....................                }else if(Opcion==4){ 
0B092:  BRA    B0C2
0B094:  MOVLB  5
0B096:  MOVF   xC2,W
0B098:  SUBLW  04
0B09A:  BNZ   B0AE
....................                   if(HoraTx<24) 
0B09C:  MOVLB  6
0B09E:  MOVF   x8A,W
0B0A0:  SUBLW  17
0B0A2:  BNC   B0A8
....................                      HoraTx++; 
0B0A4:  INCF   x8A,F
....................                   else 
0B0A6:  BRA    B0AA
....................                      HoraTx=0; 
0B0A8:  CLRF   x8A
....................                }else if(Opcion==5){ 
0B0AA:  BRA    B0C2
0B0AC:  MOVLB  5
0B0AE:  MOVF   xC2,W
0B0B0:  SUBLW  05
0B0B2:  BNZ   B0C4
....................                   if(MinutoTx<59) 
0B0B4:  MOVLB  6
0B0B6:  MOVF   x8B,W
0B0B8:  SUBLW  3A
0B0BA:  BNC   B0C0
....................                      MinutoTx++; 
0B0BC:  INCF   x8B,F
....................                   else 
0B0BE:  BRA    B0C2
....................                      MinutoTx=0; 
0B0C0:  CLRF   x8B
0B0C2:  MOVLB  5
....................                } 
....................                RX_Buffer[4]=0x00; 
0B0C4:  CLRF   2E
....................                RX_Buffer2[4]=0x00; 
0B0C6:  CLRF   39
0B0C8:  MOVLB  0
....................             } 
....................          } 
....................           
....................          if(RX_Buffer[4]==0x2b || DOWN){//Tecla Abajo Oprimida 
0B0CA:  MOVF   2E,W
0B0CC:  SUBLW  2B
0B0CE:  BZ    B0D6
0B0D0:  BSF    F93.1
0B0D2:  BTFSC  F81.1
0B0D4:  BRA    B166
....................             delay_ms(200); 
0B0D6:  MOVLW  C8
0B0D8:  MOVLB  7
0B0DA:  MOVWF  xE8
0B0DC:  MOVLB  0
0B0DE:  CALL   1110
....................             if(RX_Buffer[4]==0x2b || DOWN){    
0B0E2:  MOVF   2E,W
0B0E4:  SUBLW  2B
0B0E6:  BZ    B0EE
0B0E8:  BSF    F93.1
0B0EA:  BTFSC  F81.1
0B0EC:  BRA    B166
....................                if(Opcion==1){ 
0B0EE:  MOVLB  5
0B0F0:  DECFSZ xC2,W
0B0F2:  BRA    B100
....................                   if(DiaTx>0) 
0B0F4:  MOVLB  6
0B0F6:  MOVF   x89,F
0B0F8:  BZ    B0FC
....................                      DiaTx--; 
0B0FA:  DECF   x89,F
....................                }else if(Opcion==2){ 
0B0FC:  BRA    B15E
0B0FE:  MOVLB  5
0B100:  MOVF   xC2,W
0B102:  SUBLW  02
0B104:  BNZ   B11A
....................                   if(MesTx>1) 
0B106:  MOVLB  6
0B108:  MOVF   x88,W
0B10A:  SUBLW  01
0B10C:  BC    B112
....................                      MesTx--; 
0B10E:  DECF   x88,F
....................                   else 
0B110:  BRA    B116
....................                      MesTx=12; 
0B112:  MOVLW  0C
0B114:  MOVWF  x88
....................                }else if(Opcion==3){ 
0B116:  BRA    B15E
0B118:  MOVLB  5
0B11A:  MOVF   xC2,W
0B11C:  SUBLW  03
0B11E:  BNZ   B132
....................                   if(YearTx>0) 
0B120:  MOVLB  6
0B122:  MOVF   x87,F
0B124:  BZ    B12A
....................                      YearTx--; 
0B126:  DECF   x87,F
....................                   else 
0B128:  BRA    B12E
....................                      YearTx=99; 
0B12A:  MOVLW  63
0B12C:  MOVWF  x87
....................                }else if(Opcion==4){ 
0B12E:  BRA    B15E
0B130:  MOVLB  5
0B132:  MOVF   xC2,W
0B134:  SUBLW  04
0B136:  BNZ   B14A
....................                   if(HoraTx>0) 
0B138:  MOVLB  6
0B13A:  MOVF   x8A,F
0B13C:  BZ    B142
....................                      HoraTx--; 
0B13E:  DECF   x8A,F
....................                   else 
0B140:  BRA    B146
....................                      HoraTx=23; 
0B142:  MOVLW  17
0B144:  MOVWF  x8A
....................                }else if(Opcion==5){ 
0B146:  BRA    B15E
0B148:  MOVLB  5
0B14A:  MOVF   xC2,W
0B14C:  SUBLW  05
0B14E:  BNZ   B160
....................                   if(MinutoTx>0) 
0B150:  MOVLB  6
0B152:  MOVF   x8B,F
0B154:  BZ    B15A
....................                      MinutoTx--; 
0B156:  DECF   x8B,F
....................                   else 
0B158:  BRA    B15E
....................                      MinutoTx=59; 
0B15A:  MOVLW  3B
0B15C:  MOVWF  x8B
0B15E:  MOVLB  5
....................                } 
....................                RX_Buffer[4]=0x00; 
0B160:  CLRF   2E
....................                RX_Buffer2[4]=0x00; 
0B162:  CLRF   39
0B164:  MOVLB  0
....................             } 
....................          } 
....................        
....................       printf("thora.txt=\"%02u\"",HoraTx); 
0B166:  MOVLW  64
0B168:  MOVWF  FF6
0B16A:  MOVLW  09
0B16C:  MOVWF  FF7
0B16E:  MOVLW  00
0B170:  MOVWF  FF8
0B172:  MOVLW  0B
0B174:  MOVLB  7
0B176:  MOVWF  xC2
0B178:  MOVLB  0
0B17A:  CALL   477C
0B17E:  MOVFF  68A,7BB
0B182:  MOVLW  01
0B184:  MOVLB  7
0B186:  MOVWF  xBC
0B188:  MOVLB  0
0B18A:  CALL   47DA
0B18E:  MOVLW  22
0B190:  BTFSS  F9E.4
0B192:  BRA    B190
0B194:  MOVWF  FAD
....................       SendDataDisplay(); 
0B196:  CALL   27AC
....................       printf("tminutos.txt=\"%02u\"",MinutoTx); 
0B19A:  MOVLW  76
0B19C:  MOVWF  FF6
0B19E:  MOVLW  09
0B1A0:  MOVWF  FF7
0B1A2:  MOVLW  00
0B1A4:  MOVWF  FF8
0B1A6:  MOVLW  0E
0B1A8:  MOVLB  7
0B1AA:  MOVWF  xC2
0B1AC:  MOVLB  0
0B1AE:  CALL   477C
0B1B2:  MOVFF  68B,7BB
0B1B6:  MOVLW  01
0B1B8:  MOVLB  7
0B1BA:  MOVWF  xBC
0B1BC:  MOVLB  0
0B1BE:  CALL   47DA
0B1C2:  MOVLW  22
0B1C4:  BTFSS  F9E.4
0B1C6:  BRA    B1C4
0B1C8:  MOVWF  FAD
....................       SendDataDisplay(); 
0B1CA:  CALL   27AC
....................       printf("tdia.txt=\"%02u\"",DiaTx); 
0B1CE:  MOVLW  8A
0B1D0:  MOVWF  FF6
0B1D2:  MOVLW  09
0B1D4:  MOVWF  FF7
0B1D6:  MOVLW  00
0B1D8:  MOVWF  FF8
0B1DA:  MOVLW  0A
0B1DC:  MOVLB  7
0B1DE:  MOVWF  xC2
0B1E0:  MOVLB  0
0B1E2:  CALL   477C
0B1E6:  MOVFF  689,7BB
0B1EA:  MOVLW  01
0B1EC:  MOVLB  7
0B1EE:  MOVWF  xBC
0B1F0:  MOVLB  0
0B1F2:  CALL   47DA
0B1F6:  MOVLW  22
0B1F8:  BTFSS  F9E.4
0B1FA:  BRA    B1F8
0B1FC:  MOVWF  FAD
....................       SendDataDisplay(); 
0B1FE:  CALL   27AC
....................       printf("tmes.txt=\"%02u\"",MesTx); 
0B202:  MOVLW  9A
0B204:  MOVWF  FF6
0B206:  MOVLW  09
0B208:  MOVWF  FF7
0B20A:  MOVLW  00
0B20C:  MOVWF  FF8
0B20E:  MOVLW  0A
0B210:  MOVLB  7
0B212:  MOVWF  xC2
0B214:  MOVLB  0
0B216:  CALL   477C
0B21A:  MOVFF  688,7BB
0B21E:  MOVLW  01
0B220:  MOVLB  7
0B222:  MOVWF  xBC
0B224:  MOVLB  0
0B226:  CALL   47DA
0B22A:  MOVLW  22
0B22C:  BTFSS  F9E.4
0B22E:  BRA    B22C
0B230:  MOVWF  FAD
....................       SendDataDisplay(); 
0B232:  CALL   27AC
....................       printf("tyear.txt=\"%02u\"",YearTx); 
0B236:  MOVLW  AA
0B238:  MOVWF  FF6
0B23A:  MOVLW  09
0B23C:  MOVWF  FF7
0B23E:  MOVLW  00
0B240:  MOVWF  FF8
0B242:  MOVLW  0B
0B244:  MOVLB  7
0B246:  MOVWF  xC2
0B248:  MOVLB  0
0B24A:  CALL   477C
0B24E:  MOVFF  687,7BB
0B252:  MOVLW  01
0B254:  MOVLB  7
0B256:  MOVWF  xBC
0B258:  MOVLB  0
0B25A:  CALL   47DA
0B25E:  MOVLW  22
0B260:  BTFSS  F9E.4
0B262:  BRA    B260
0B264:  MOVWF  FAD
....................       SendDataDisplay(); 
0B266:  CALL   27AC
....................       LimitaDia();   
0B26A:  GOTO   4D10
0B26E:  MOVLB  5
....................     } 
.................... //_--------------------------------------------------------------------------------------------------------------------------------------------------------        
....................  
.................... //_-------------------------------------------------------------------------------------------------------------------------------------------------------- 
....................    if(Menu==8){ //Menu de Rampas 
0B270:  MOVF   xBE,W
0B272:  SUBLW  08
0B274:  BTFSS  FD8.2
0B276:  GOTO   BA08
....................       printf("fecha.txt=\"Fecha:%02u/%02u/20%02u Hora: %02u:%02u:%02u\"",Dia,Mes,Year,Hora,Minuto,Segundo); 
0B27A:  MOVLW  BC
0B27C:  MOVWF  FF6
0B27E:  MOVLW  09
0B280:  MOVWF  FF7
0B282:  MOVLW  00
0B284:  MOVWF  FF8
0B286:  MOVLW  11
0B288:  MOVLB  7
0B28A:  MOVWF  xC2
0B28C:  MOVLB  0
0B28E:  CALL   477C
0B292:  MOVFF  682,7BB
0B296:  MOVLW  01
0B298:  MOVLB  7
0B29A:  MOVWF  xBC
0B29C:  MOVLB  0
0B29E:  CALL   47DA
0B2A2:  MOVLW  2F
0B2A4:  BTFSS  F9E.4
0B2A6:  BRA    B2A4
0B2A8:  MOVWF  FAD
0B2AA:  MOVFF  681,7BB
0B2AE:  MOVLW  01
0B2B0:  MOVLB  7
0B2B2:  MOVWF  xBC
0B2B4:  MOVLB  0
0B2B6:  CALL   47DA
0B2BA:  MOVLW  2F
0B2BC:  BTFSS  F9E.4
0B2BE:  BRA    B2BC
0B2C0:  MOVWF  FAD
0B2C2:  MOVLW  32
0B2C4:  BTFSS  F9E.4
0B2C6:  BRA    B2C4
0B2C8:  MOVWF  FAD
0B2CA:  MOVLW  30
0B2CC:  BTFSS  F9E.4
0B2CE:  BRA    B2CC
0B2D0:  MOVWF  FAD
0B2D2:  MOVFF  680,7BB
0B2D6:  MOVLW  01
0B2D8:  MOVLB  7
0B2DA:  MOVWF  xBC
0B2DC:  MOVLB  0
0B2DE:  CALL   47DA
0B2E2:  MOVLW  DD
0B2E4:  MOVWF  FF6
0B2E6:  MOVLW  09
0B2E8:  MOVWF  FF7
0B2EA:  MOVLW  00
0B2EC:  MOVWF  FF8
0B2EE:  MOVLW  07
0B2F0:  MOVLB  7
0B2F2:  MOVWF  xC2
0B2F4:  MOVLB  0
0B2F6:  CALL   477C
0B2FA:  MOVFF  683,7BB
0B2FE:  MOVLW  01
0B300:  MOVLB  7
0B302:  MOVWF  xBC
0B304:  MOVLB  0
0B306:  CALL   47DA
0B30A:  MOVLW  3A
0B30C:  BTFSS  F9E.4
0B30E:  BRA    B30C
0B310:  MOVWF  FAD
0B312:  MOVFF  684,7BB
0B316:  MOVLW  01
0B318:  MOVLB  7
0B31A:  MOVWF  xBC
0B31C:  MOVLB  0
0B31E:  CALL   47DA
0B322:  MOVLW  3A
0B324:  BTFSS  F9E.4
0B326:  BRA    B324
0B328:  MOVWF  FAD
0B32A:  MOVFF  685,7BB
0B32E:  MOVLW  01
0B330:  MOVLB  7
0B332:  MOVWF  xBC
0B334:  MOVLB  0
0B336:  CALL   47DA
0B33A:  MOVLW  22
0B33C:  BTFSS  F9E.4
0B33E:  BRA    B33C
0B340:  MOVWF  FAD
....................       SendDataDisplay(); 
0B342:  CALL   27AC
....................        
....................       for(i=0;i<20;i++){ 
0B346:  MOVLB  5
0B348:  CLRF   xBF
0B34A:  MOVF   xBF,W
0B34C:  SUBLW  13
0B34E:  BNC   B430
....................          if(rampas[i].Horas==0 && rampas[i].Minutos==0){ 
0B350:  MOVLB  7
0B352:  CLRF   xE4
0B354:  MOVFF  5BF,7E3
0B358:  CLRF   xE6
0B35A:  MOVLW  0F
0B35C:  MOVWF  xE5
0B35E:  MOVLB  0
0B360:  CALL   150E
0B364:  MOVFF  01,7BA
0B368:  MOVLW  03
0B36A:  MOVLB  7
0B36C:  ADDWF  01,W
0B36E:  MOVWF  01
0B370:  MOVLW  00
0B372:  ADDWFC 02,W
0B374:  MOVWF  03
0B376:  MOVF   01,W
0B378:  ADDLW  8E
0B37A:  MOVWF  FE9
0B37C:  MOVLW  06
0B37E:  ADDWFC 03,W
0B380:  MOVWF  FEA
0B382:  MOVFF  FEF,7BA
0B386:  MOVFF  FEC,7BB
0B38A:  MOVFF  FEC,7BC
0B38E:  MOVFF  FEC,7BD
0B392:  MOVFF  7BD,816
0B396:  MOVFF  7BC,815
0B39A:  MOVFF  7BB,814
0B39E:  MOVFF  7BA,813
0B3A2:  MOVLB  8
0B3A4:  CLRF   x1A
0B3A6:  CLRF   x19
0B3A8:  CLRF   x18
0B3AA:  CLRF   x17
0B3AC:  MOVLB  0
0B3AE:  CALL   1572
0B3B2:  BNZ   B424
0B3B4:  MOVLB  7
0B3B6:  CLRF   xE4
0B3B8:  MOVFF  5BF,7E3
0B3BC:  CLRF   xE6
0B3BE:  MOVLW  0F
0B3C0:  MOVWF  xE5
0B3C2:  MOVLB  0
0B3C4:  CALL   150E
0B3C8:  MOVFF  01,7BA
0B3CC:  MOVLW  07
0B3CE:  MOVLB  7
0B3D0:  ADDWF  01,W
0B3D2:  MOVWF  01
0B3D4:  MOVLW  00
0B3D6:  ADDWFC 02,W
0B3D8:  MOVWF  03
0B3DA:  MOVF   01,W
0B3DC:  ADDLW  8E
0B3DE:  MOVWF  FE9
0B3E0:  MOVLW  06
0B3E2:  ADDWFC 03,W
0B3E4:  MOVWF  FEA
0B3E6:  MOVFF  FEF,7BA
0B3EA:  MOVFF  FEC,7BB
0B3EE:  MOVFF  FEC,7BC
0B3F2:  MOVFF  FEC,7BD
0B3F6:  MOVFF  7BD,816
0B3FA:  MOVFF  7BC,815
0B3FE:  MOVFF  7BB,814
0B402:  MOVFF  7BA,813
0B406:  MOVLB  8
0B408:  CLRF   x1A
0B40A:  CLRF   x19
0B40C:  CLRF   x18
0B40E:  CLRF   x17
0B410:  MOVLB  0
0B412:  CALL   1572
0B416:  BNZ   B424
....................             Segmentos=i;   
0B418:  MOVFF  5BF,5A0
....................             break; 
0B41C:  MOVLB  5
0B41E:  BRA    B430
....................          }else{ 
0B420:  BRA    B42C
0B422:  MOVLB  0
....................             Segmentos=i+1;   
0B424:  MOVLW  01
0B426:  MOVLB  5
0B428:  ADDWF  xBF,W
0B42A:  MOVWF  xA0
....................          } 
....................       } 
0B42C:  INCF   xBF,F
0B42E:  BRA    B34A
....................        
....................       printf("t3.txt=\"Pasos Programados %02u\"",Segmentos); 
0B430:  MOVLW  F4
0B432:  MOVWF  FF6
0B434:  MOVLW  09
0B436:  MOVWF  FF7
0B438:  MOVLW  00
0B43A:  MOVWF  FF8
0B43C:  MOVLW  1A
0B43E:  MOVLB  7
0B440:  MOVWF  xC2
0B442:  MOVLB  0
0B444:  CALL   477C
0B448:  MOVFF  5A0,7BB
0B44C:  MOVLW  01
0B44E:  MOVLB  7
0B450:  MOVWF  xBC
0B452:  MOVLB  0
0B454:  CALL   47DA
0B458:  MOVLW  22
0B45A:  BTFSS  F9E.4
0B45C:  BRA    B45A
0B45E:  MOVWF  FAD
....................       SendDataDisplay(); 
0B460:  CALL   27AC
....................       GuardaEEPROM=OFF; 
0B464:  MOVLB  5
0B466:  BCF    x89.2
....................        
....................       if(RX_Buffer[4]>0x00 && RX_Buffer[4]<21){//Personalizados 
0B468:  MOVF   2E,F
0B46A:  BTFSC  FD8.2
0B46C:  BRA    B6BE
0B46E:  MOVF   2E,W
0B470:  SUBLW  14
0B472:  BTFSS  FD8.0
0B474:  BRA    B6BE
....................          printf("ciclo.txt=\"Paso %02u\"",RX_Buffer[4]); 
0B476:  MOVLW  14
0B478:  MOVWF  FF6
0B47A:  MOVLW  0A
0B47C:  MOVWF  FF7
0B47E:  MOVLW  00
0B480:  MOVWF  FF8
0B482:  MOVLW  10
0B484:  MOVLB  7
0B486:  MOVWF  xC2
0B488:  MOVLB  0
0B48A:  CALL   477C
0B48E:  MOVFF  2E,7BB
0B492:  MOVLW  01
0B494:  MOVLB  7
0B496:  MOVWF  xBC
0B498:  MOVLB  0
0B49A:  CALL   47DA
0B49E:  MOVLW  22
0B4A0:  BTFSS  F9E.4
0B4A2:  BRA    B4A0
0B4A4:  MOVWF  FAD
....................          SendDataDisplay();           
0B4A6:  CALL   27AC
....................          printf("temp.txt=\"Temperatura: %2.1fC\"",rampas[RX_Buffer[4]-1].Temperatura); 
0B4AA:  MOVLW  01
0B4AC:  SUBWF  2E,W
0B4AE:  MOVLB  7
0B4B0:  MOVWF  xBB
0B4B2:  CLRF   xE4
0B4B4:  MOVWF  xE3
0B4B6:  CLRF   xE6
0B4B8:  MOVLW  0F
0B4BA:  MOVWF  xE5
0B4BC:  MOVLB  0
0B4BE:  CALL   150E
0B4C2:  MOVFF  01,7BA
0B4C6:  MOVLW  0B
0B4C8:  MOVLB  7
0B4CA:  ADDWF  01,W
0B4CC:  MOVWF  01
0B4CE:  MOVLW  00
0B4D0:  ADDWFC 02,W
0B4D2:  MOVWF  03
0B4D4:  MOVF   01,W
0B4D6:  ADDLW  8E
0B4D8:  MOVWF  FE9
0B4DA:  MOVLW  06
0B4DC:  ADDWFC 03,W
0B4DE:  MOVWF  FEA
0B4E0:  MOVFF  FEF,7BA
0B4E4:  MOVFF  FEC,7BB
0B4E8:  MOVFF  FEC,7BC
0B4EC:  MOVFF  FEC,7BD
0B4F0:  MOVLW  2A
0B4F2:  MOVWF  FF6
0B4F4:  MOVLW  0A
0B4F6:  MOVWF  FF7
0B4F8:  MOVLW  00
0B4FA:  MOVWF  FF8
0B4FC:  MOVLW  17
0B4FE:  MOVWF  xC2
0B500:  MOVLB  0
0B502:  CALL   477C
0B506:  MOVLW  01
0B508:  MOVWF  FE9
0B50A:  MOVFF  7BD,7C5
0B50E:  MOVFF  7BC,7C4
0B512:  MOVFF  7BB,7C3
0B516:  MOVFF  7BA,7C2
0B51A:  MOVLB  7
0B51C:  MOVWF  xC6
0B51E:  MOVLB  0
0B520:  CALL   491C
0B524:  MOVLW  B0
0B526:  BTFSS  F9E.4
0B528:  BRA    B526
0B52A:  MOVWF  FAD
0B52C:  MOVLW  43
0B52E:  BTFSS  F9E.4
0B530:  BRA    B52E
0B532:  MOVWF  FAD
0B534:  MOVLW  22
0B536:  BTFSS  F9E.4
0B538:  BRA    B536
0B53A:  MOVWF  FAD
....................          SendDataDisplay(); 
0B53C:  CALL   27AC
....................          printf("hum.txt=\"Humedad: %02u %%\"",rampas[RX_Buffer[4]-1].Humedad); 
0B540:  MOVLW  01
0B542:  SUBWF  2E,W
0B544:  MOVLB  7
0B546:  MOVWF  xBB
0B548:  CLRF   xE4
0B54A:  MOVWF  xE3
0B54C:  CLRF   xE6
0B54E:  MOVLW  0F
0B550:  MOVWF  xE5
0B552:  MOVLB  0
0B554:  CALL   150E
0B558:  MOVFF  02,7BB
0B55C:  MOVFF  01,7BA
0B560:  MOVLW  02
0B562:  MOVLB  7
0B564:  ADDWF  01,W
0B566:  MOVWF  01
0B568:  MOVLW  00
0B56A:  ADDWFC 02,W
0B56C:  MOVWF  03
0B56E:  MOVF   01,W
0B570:  ADDLW  8E
0B572:  MOVWF  FE9
0B574:  MOVLW  06
0B576:  ADDWFC 03,W
0B578:  MOVWF  FEA
0B57A:  MOVFF  FEF,7BA
0B57E:  MOVLW  4A
0B580:  MOVWF  FF6
0B582:  MOVLW  0A
0B584:  MOVWF  FF7
0B586:  MOVLW  00
0B588:  MOVWF  FF8
0B58A:  MOVLW  12
0B58C:  MOVWF  xC2
0B58E:  MOVLB  0
0B590:  CALL   477C
0B594:  MOVFF  7BA,7BB
0B598:  MOVLW  01
0B59A:  MOVLB  7
0B59C:  MOVWF  xBC
0B59E:  MOVLB  0
0B5A0:  CALL   47DA
0B5A4:  MOVLW  20
0B5A6:  BTFSS  F9E.4
0B5A8:  BRA    B5A6
0B5AA:  MOVWF  FAD
0B5AC:  MOVLW  25
0B5AE:  BTFSS  F9E.4
0B5B0:  BRA    B5AE
0B5B2:  MOVWF  FAD
0B5B4:  MOVLW  22
0B5B6:  BTFSS  F9E.4
0B5B8:  BRA    B5B6
0B5BA:  MOVWF  FAD
....................          SendDataDisplay(); 
0B5BC:  CALL   27AC
....................          printf("tiempo.txt=\"Tiempo: %02.0f:%02.0f \"",rampas[RX_Buffer[4]-1].Horas,rampas[RX_Buffer[4]-1].Minutos); 
0B5C0:  MOVLW  01
0B5C2:  SUBWF  2E,W
0B5C4:  MOVLB  7
0B5C6:  MOVWF  xBB
0B5C8:  CLRF   xE4
0B5CA:  MOVWF  xE3
0B5CC:  CLRF   xE6
0B5CE:  MOVLW  0F
0B5D0:  MOVWF  xE5
0B5D2:  MOVLB  0
0B5D4:  CALL   150E
0B5D8:  MOVFF  01,7BA
0B5DC:  MOVLW  03
0B5DE:  MOVLB  7
0B5E0:  ADDWF  01,W
0B5E2:  MOVWF  01
0B5E4:  MOVLW  00
0B5E6:  ADDWFC 02,W
0B5E8:  MOVWF  03
0B5EA:  MOVF   01,W
0B5EC:  ADDLW  8E
0B5EE:  MOVWF  FE9
0B5F0:  MOVLW  06
0B5F2:  ADDWFC 03,W
0B5F4:  MOVWF  FEA
0B5F6:  MOVFF  FEF,7BA
0B5FA:  MOVFF  FEC,7BB
0B5FE:  MOVFF  FEC,7BC
0B602:  MOVFF  FEC,7BD
0B606:  MOVLW  01
0B608:  SUBWF  2E,W
0B60A:  MOVWF  xBF
0B60C:  CLRF   xE4
0B60E:  MOVWF  xE3
0B610:  CLRF   xE6
0B612:  MOVLW  0F
0B614:  MOVWF  xE5
0B616:  MOVLB  0
0B618:  CALL   150E
0B61C:  MOVFF  01,7BE
0B620:  MOVLW  07
0B622:  MOVLB  7
0B624:  ADDWF  01,W
0B626:  MOVWF  01
0B628:  MOVLW  00
0B62A:  ADDWFC 02,W
0B62C:  MOVWF  03
0B62E:  MOVF   01,W
0B630:  ADDLW  8E
0B632:  MOVWF  FE9
0B634:  MOVLW  06
0B636:  ADDWFC 03,W
0B638:  MOVWF  FEA
0B63A:  MOVFF  FEF,7BE
0B63E:  MOVFF  FEC,7BF
0B642:  MOVFF  FEC,7C0
0B646:  MOVFF  FEC,7C1
0B64A:  MOVLW  66
0B64C:  MOVWF  FF6
0B64E:  MOVLW  0A
0B650:  MOVWF  FF7
0B652:  MOVLW  00
0B654:  MOVWF  FF8
0B656:  MOVLW  14
0B658:  MOVWF  xC2
0B65A:  MOVLB  0
0B65C:  CALL   477C
0B660:  MOVLW  41
0B662:  MOVWF  FE9
0B664:  MOVFF  7BD,7C5
0B668:  MOVFF  7BC,7C4
0B66C:  MOVFF  7BB,7C3
0B670:  MOVFF  7BA,7C2
0B674:  MOVLB  7
0B676:  CLRF   xC6
0B678:  MOVLB  0
0B67A:  CALL   491C
0B67E:  MOVLW  3A
0B680:  BTFSS  F9E.4
0B682:  BRA    B680
0B684:  MOVWF  FAD
0B686:  MOVLW  41
0B688:  MOVWF  FE9
0B68A:  MOVFF  7C1,7C5
0B68E:  MOVFF  7C0,7C4
0B692:  MOVFF  7BF,7C3
0B696:  MOVFF  7BE,7C2
0B69A:  MOVLB  7
0B69C:  CLRF   xC6
0B69E:  MOVLB  0
0B6A0:  CALL   491C
0B6A4:  MOVLW  20
0B6A6:  BTFSS  F9E.4
0B6A8:  BRA    B6A6
0B6AA:  MOVWF  FAD
0B6AC:  MOVLW  22
0B6AE:  BTFSS  F9E.4
0B6B0:  BRA    B6AE
0B6B2:  MOVWF  FAD
....................          SendDataDisplay(); 
0B6B4:  CALL   27AC
....................          CicloLibre=RX_Buffer[4]; 
0B6B8:  MOVFF  2E,68D
....................       }else if(CicloLibre==0x00){ 
0B6BC:  BRA    B974
0B6BE:  MOVLB  6
0B6C0:  MOVF   x8D,F
0B6C2:  BNZ   B71A
....................          printf("ciclo.txt=\"Paso --\""); 
0B6C4:  MOVLW  8A
0B6C6:  MOVWF  FF6
0B6C8:  MOVLW  0A
0B6CA:  MOVWF  FF7
0B6CC:  MOVLW  00
0B6CE:  MOVWF  FF8
0B6D0:  MOVLB  0
0B6D2:  CALL   277A
....................          SendDataDisplay();           
0B6D6:  CALL   27AC
....................          printf("temp.txt=\"Temperatura: --\""); 
0B6DA:  MOVLW  9E
0B6DC:  MOVWF  FF6
0B6DE:  MOVLW  0A
0B6E0:  MOVWF  FF7
0B6E2:  MOVLW  00
0B6E4:  MOVWF  FF8
0B6E6:  CALL   277A
....................          SendDataDisplay(); 
0B6EA:  CALL   27AC
....................          printf("hum.txt=\"Humedad: --\""); 
0B6EE:  MOVLW  BA
0B6F0:  MOVWF  FF6
0B6F2:  MOVLW  0A
0B6F4:  MOVWF  FF7
0B6F6:  MOVLW  00
0B6F8:  MOVWF  FF8
0B6FA:  CALL   277A
....................          SendDataDisplay(); 
0B6FE:  CALL   27AC
....................          printf("tiempo.txt=\"Tiempo: --:--\""); 
0B702:  MOVLW  D0
0B704:  MOVWF  FF6
0B706:  MOVLW  0A
0B708:  MOVWF  FF7
0B70A:  MOVLW  00
0B70C:  MOVWF  FF8
0B70E:  CALL   277A
....................          SendDataDisplay(); 
0B712:  CALL   27AC
....................       }else if(CicloLibre>0 && CicloLibre<21){ 
0B716:  BRA    B974
0B718:  MOVLB  6
0B71A:  MOVF   x8D,F
0B71C:  BTFSC  FD8.2
0B71E:  BRA    B976
0B720:  MOVF   x8D,W
0B722:  SUBLW  14
0B724:  BTFSS  FD8.0
0B726:  BRA    B976
....................          printf("ciclo.txt=\"Paso %02u\"",CicloLibre); 
0B728:  MOVLW  EC
0B72A:  MOVWF  FF6
0B72C:  MOVLW  0A
0B72E:  MOVWF  FF7
0B730:  MOVLW  00
0B732:  MOVWF  FF8
0B734:  MOVLW  10
0B736:  MOVLB  7
0B738:  MOVWF  xC2
0B73A:  MOVLB  0
0B73C:  CALL   477C
0B740:  MOVFF  68D,7BB
0B744:  MOVLW  01
0B746:  MOVLB  7
0B748:  MOVWF  xBC
0B74A:  MOVLB  0
0B74C:  CALL   47DA
0B750:  MOVLW  22
0B752:  BTFSS  F9E.4
0B754:  BRA    B752
0B756:  MOVWF  FAD
....................          SendDataDisplay();           
0B758:  CALL   27AC
....................          printf("temp.txt=\"Temperatura: %2.1fC\"",rampas[CicloLibre-1].Temperatura); 
0B75C:  MOVLW  01
0B75E:  MOVLB  6
0B760:  SUBWF  x8D,W
0B762:  MOVLB  7
0B764:  MOVWF  xBB
0B766:  CLRF   xE4
0B768:  MOVWF  xE3
0B76A:  CLRF   xE6
0B76C:  MOVLW  0F
0B76E:  MOVWF  xE5
0B770:  MOVLB  0
0B772:  CALL   150E
0B776:  MOVFF  01,7BA
0B77A:  MOVLW  0B
0B77C:  MOVLB  7
0B77E:  ADDWF  01,W
0B780:  MOVWF  01
0B782:  MOVLW  00
0B784:  ADDWFC 02,W
0B786:  MOVWF  03
0B788:  MOVF   01,W
0B78A:  ADDLW  8E
0B78C:  MOVWF  FE9
0B78E:  MOVLW  06
0B790:  ADDWFC 03,W
0B792:  MOVWF  FEA
0B794:  MOVFF  FEF,7BA
0B798:  MOVFF  FEC,7BB
0B79C:  MOVFF  FEC,7BC
0B7A0:  MOVFF  FEC,7BD
0B7A4:  MOVLW  02
0B7A6:  MOVWF  FF6
0B7A8:  MOVLW  0B
0B7AA:  MOVWF  FF7
0B7AC:  MOVLW  00
0B7AE:  MOVWF  FF8
0B7B0:  MOVLW  17
0B7B2:  MOVWF  xC2
0B7B4:  MOVLB  0
0B7B6:  CALL   477C
0B7BA:  MOVLW  01
0B7BC:  MOVWF  FE9
0B7BE:  MOVFF  7BD,7C5
0B7C2:  MOVFF  7BC,7C4
0B7C6:  MOVFF  7BB,7C3
0B7CA:  MOVFF  7BA,7C2
0B7CE:  MOVLB  7
0B7D0:  MOVWF  xC6
0B7D2:  MOVLB  0
0B7D4:  CALL   491C
0B7D8:  MOVLW  B0
0B7DA:  BTFSS  F9E.4
0B7DC:  BRA    B7DA
0B7DE:  MOVWF  FAD
0B7E0:  MOVLW  43
0B7E2:  BTFSS  F9E.4
0B7E4:  BRA    B7E2
0B7E6:  MOVWF  FAD
0B7E8:  MOVLW  22
0B7EA:  BTFSS  F9E.4
0B7EC:  BRA    B7EA
0B7EE:  MOVWF  FAD
....................          SendDataDisplay(); 
0B7F0:  CALL   27AC
....................          printf("hum.txt=\"Humedad: %02u %%\"",rampas[CicloLibre-1].Humedad); 
0B7F4:  MOVLW  01
0B7F6:  MOVLB  6
0B7F8:  SUBWF  x8D,W
0B7FA:  MOVLB  7
0B7FC:  MOVWF  xBB
0B7FE:  CLRF   xE4
0B800:  MOVWF  xE3
0B802:  CLRF   xE6
0B804:  MOVLW  0F
0B806:  MOVWF  xE5
0B808:  MOVLB  0
0B80A:  CALL   150E
0B80E:  MOVFF  02,7BB
0B812:  MOVFF  01,7BA
0B816:  MOVLW  02
0B818:  MOVLB  7
0B81A:  ADDWF  01,W
0B81C:  MOVWF  01
0B81E:  MOVLW  00
0B820:  ADDWFC 02,W
0B822:  MOVWF  03
0B824:  MOVF   01,W
0B826:  ADDLW  8E
0B828:  MOVWF  FE9
0B82A:  MOVLW  06
0B82C:  ADDWFC 03,W
0B82E:  MOVWF  FEA
0B830:  MOVFF  FEF,7BA
0B834:  MOVLW  22
0B836:  MOVWF  FF6
0B838:  MOVLW  0B
0B83A:  MOVWF  FF7
0B83C:  MOVLW  00
0B83E:  MOVWF  FF8
0B840:  MOVLW  12
0B842:  MOVWF  xC2
0B844:  MOVLB  0
0B846:  CALL   477C
0B84A:  MOVFF  7BA,7BB
0B84E:  MOVLW  01
0B850:  MOVLB  7
0B852:  MOVWF  xBC
0B854:  MOVLB  0
0B856:  CALL   47DA
0B85A:  MOVLW  20
0B85C:  BTFSS  F9E.4
0B85E:  BRA    B85C
0B860:  MOVWF  FAD
0B862:  MOVLW  25
0B864:  BTFSS  F9E.4
0B866:  BRA    B864
0B868:  MOVWF  FAD
0B86A:  MOVLW  22
0B86C:  BTFSS  F9E.4
0B86E:  BRA    B86C
0B870:  MOVWF  FAD
....................          SendDataDisplay(); 
0B872:  CALL   27AC
....................          printf("tiempo.txt=\"Tiempo: %02.0f:%02.0f \"",rampas[CicloLibre-1].Horas,rampas[CicloLibre-1].Minutos); 
0B876:  MOVLW  01
0B878:  MOVLB  6
0B87A:  SUBWF  x8D,W
0B87C:  MOVLB  7
0B87E:  MOVWF  xBB
0B880:  CLRF   xE4
0B882:  MOVWF  xE3
0B884:  CLRF   xE6
0B886:  MOVLW  0F
0B888:  MOVWF  xE5
0B88A:  MOVLB  0
0B88C:  CALL   150E
0B890:  MOVFF  01,7BA
0B894:  MOVLW  03
0B896:  MOVLB  7
0B898:  ADDWF  01,W
0B89A:  MOVWF  01
0B89C:  MOVLW  00
0B89E:  ADDWFC 02,W
0B8A0:  MOVWF  03
0B8A2:  MOVF   01,W
0B8A4:  ADDLW  8E
0B8A6:  MOVWF  FE9
0B8A8:  MOVLW  06
0B8AA:  ADDWFC 03,W
0B8AC:  MOVWF  FEA
0B8AE:  MOVFF  FEF,7BA
0B8B2:  MOVFF  FEC,7BB
0B8B6:  MOVFF  FEC,7BC
0B8BA:  MOVFF  FEC,7BD
0B8BE:  MOVLW  01
0B8C0:  MOVLB  6
0B8C2:  SUBWF  x8D,W
0B8C4:  MOVLB  7
0B8C6:  MOVWF  xBF
0B8C8:  CLRF   xE4
0B8CA:  MOVWF  xE3
0B8CC:  CLRF   xE6
0B8CE:  MOVLW  0F
0B8D0:  MOVWF  xE5
0B8D2:  MOVLB  0
0B8D4:  CALL   150E
0B8D8:  MOVFF  01,7BE
0B8DC:  MOVLW  07
0B8DE:  MOVLB  7
0B8E0:  ADDWF  01,W
0B8E2:  MOVWF  01
0B8E4:  MOVLW  00
0B8E6:  ADDWFC 02,W
0B8E8:  MOVWF  03
0B8EA:  MOVF   01,W
0B8EC:  ADDLW  8E
0B8EE:  MOVWF  FE9
0B8F0:  MOVLW  06
0B8F2:  ADDWFC 03,W
0B8F4:  MOVWF  FEA
0B8F6:  MOVFF  FEF,7BE
0B8FA:  MOVFF  FEC,7BF
0B8FE:  MOVFF  FEC,7C0
0B902:  MOVFF  FEC,7C1
0B906:  MOVLW  3E
0B908:  MOVWF  FF6
0B90A:  MOVLW  0B
0B90C:  MOVWF  FF7
0B90E:  MOVLW  00
0B910:  MOVWF  FF8
0B912:  MOVLW  14
0B914:  MOVWF  xC2
0B916:  MOVLB  0
0B918:  CALL   477C
0B91C:  MOVLW  41
0B91E:  MOVWF  FE9
0B920:  MOVFF  7BD,7C5
0B924:  MOVFF  7BC,7C4
0B928:  MOVFF  7BB,7C3
0B92C:  MOVFF  7BA,7C2
0B930:  MOVLB  7
0B932:  CLRF   xC6
0B934:  MOVLB  0
0B936:  CALL   491C
0B93A:  MOVLW  3A
0B93C:  BTFSS  F9E.4
0B93E:  BRA    B93C
0B940:  MOVWF  FAD
0B942:  MOVLW  41
0B944:  MOVWF  FE9
0B946:  MOVFF  7C1,7C5
0B94A:  MOVFF  7C0,7C4
0B94E:  MOVFF  7BF,7C3
0B952:  MOVFF  7BE,7C2
0B956:  MOVLB  7
0B958:  CLRF   xC6
0B95A:  MOVLB  0
0B95C:  CALL   491C
0B960:  MOVLW  20
0B962:  BTFSS  F9E.4
0B964:  BRA    B962
0B966:  MOVWF  FAD
0B968:  MOVLW  22
0B96A:  BTFSS  F9E.4
0B96C:  BRA    B96A
0B96E:  MOVWF  FAD
....................          SendDataDisplay(); 
0B970:  CALL   27AC
0B974:  MOVLB  6
....................       } 
....................        
....................       if(RX_Buffer[4]==0x20 && CicloLibre>0){//20, Temperatura 
0B976:  MOVF   2E,W
0B978:  SUBLW  20
0B97A:  BNZ   B99C
0B97C:  MOVF   x8D,F
0B97E:  BZ    B99C
....................          printf("page Temperatura"); 
0B980:  MOVLW  62
0B982:  MOVWF  FF6
0B984:  MOVLW  0B
0B986:  MOVWF  FF7
0B988:  MOVLW  00
0B98A:  MOVWF  FF8
0B98C:  MOVLB  0
0B98E:  CALL   277A
....................          SendDataDisplay();      
0B992:  CALL   27AC
....................          rampa=ON; 
0B996:  MOVLB  5
0B998:  BSF    x8B.4
0B99A:  MOVLB  6
....................       } 
....................        
....................       if(RX_Buffer[4]==0x30 && CicloLibre>0){//30, Humedad 
0B99C:  MOVF   2E,W
0B99E:  SUBLW  30
0B9A0:  BNZ   B9C2
0B9A2:  MOVF   x8D,F
0B9A4:  BZ    B9C2
....................          printf("page Humedad"); 
0B9A6:  MOVLW  74
0B9A8:  MOVWF  FF6
0B9AA:  MOVLW  0B
0B9AC:  MOVWF  FF7
0B9AE:  MOVLW  00
0B9B0:  MOVWF  FF8
0B9B2:  MOVLB  0
0B9B4:  CALL   277A
....................          SendDataDisplay();      
0B9B8:  CALL   27AC
....................          rampa=ON; 
0B9BC:  MOVLB  5
0B9BE:  BSF    x8B.4
0B9C0:  MOVLB  6
....................       } 
....................        
....................       if(RX_Buffer[4]==0x40 && CicloLibre>0){//40, Tiempo 
0B9C2:  MOVF   2E,W
0B9C4:  SUBLW  40
0B9C6:  BNZ   B9E8
0B9C8:  MOVF   x8D,F
0B9CA:  BZ    B9E8
....................          printf("page Tiempo"); 
0B9CC:  MOVLW  82
0B9CE:  MOVWF  FF6
0B9D0:  MOVLW  0B
0B9D2:  MOVWF  FF7
0B9D4:  MOVLW  00
0B9D6:  MOVWF  FF8
0B9D8:  MOVLB  0
0B9DA:  CALL   277A
....................          SendDataDisplay();      
0B9DE:  CALL   27AC
....................          rampa=ON; 
0B9E2:  MOVLB  5
0B9E4:  BSF    x8B.4
0B9E6:  MOVLB  6
....................       } 
....................        
....................       if(RX_Buffer[4]==0x70){//70, Regresar 
0B9E8:  MOVF   2E,W
0B9EA:  SUBLW  70
0B9EC:  BNZ   BA0A
....................          printf("page Principal"); 
0B9EE:  MOVLW  8E
0B9F0:  MOVWF  FF6
0B9F2:  MOVLW  0B
0B9F4:  MOVWF  FF7
0B9F6:  MOVLW  00
0B9F8:  MOVWF  FF8
0B9FA:  MOVLB  0
0B9FC:  CALL   277A
....................          SendDataDisplay();      
0BA00:  CALL   27AC
....................          rampa=OFF; 
0BA04:  MOVLB  5
0BA06:  BCF    x8B.4
0BA08:  MOVLB  6
....................       } 
....................    } 
.................... //_--------------------------------------------------------------------------------------------------------------------------------------------------------        
....................  
.................... //_--------------------------------------------------------------------------------------------------------------------------------------------------------       
....................     if(Menu==15){//Menu de Clave Correcta 
0BA0A:  MOVLB  5
0BA0C:  MOVF   xBE,W
0BA0E:  SUBLW  0F
0BA10:  BNZ   BA48
....................       if(!entro){ 
0BA12:  BTFSC  x89.1
0BA14:  BRA    BA30
....................          delay_ms(2000); 
0BA16:  MOVLW  08
0BA18:  MOVLB  7
0BA1A:  MOVWF  xBA
0BA1C:  MOVLW  FA
0BA1E:  MOVWF  xE8
0BA20:  MOVLB  0
0BA22:  CALL   1110
0BA26:  MOVLB  7
0BA28:  DECFSZ xBA,F
0BA2A:  BRA    BA1C
....................          entro=ON; 
0BA2C:  MOVLB  5
0BA2E:  BSF    x89.1
....................       } 
....................       printf("page Principal"); 
0BA30:  MOVLW  9E
0BA32:  MOVWF  FF6
0BA34:  MOVLW  0B
0BA36:  MOVWF  FF7
0BA38:  MOVLW  00
0BA3A:  MOVWF  FF8
0BA3C:  MOVLB  0
0BA3E:  CALL   277A
....................       SendDataDisplay(); 
0BA42:  CALL   27AC
0BA46:  MOVLB  5
....................    } 
.................... //_--------------------------------------------------------------------------------------------------------------------------------------------------------       
....................  
.................... //_--------------------------------------------------------------------------------------------------------------------------------------------------------       
....................     if(Menu==16){//Menu de Clave InCorrecta 
0BA48:  MOVF   xBE,W
0BA4A:  SUBLW  10
0BA4C:  BNZ   BA84
....................       if(!entro){ 
0BA4E:  BTFSC  x89.1
0BA50:  BRA    BA6C
....................          delay_ms(2000); 
0BA52:  MOVLW  08
0BA54:  MOVLB  7
0BA56:  MOVWF  xBA
0BA58:  MOVLW  FA
0BA5A:  MOVWF  xE8
0BA5C:  MOVLB  0
0BA5E:  CALL   1110
0BA62:  MOVLB  7
0BA64:  DECFSZ xBA,F
0BA66:  BRA    BA58
....................          entro=ON; 
0BA68:  MOVLB  5
0BA6A:  BSF    x89.1
....................       } 
....................       printf("page Clave"); 
0BA6C:  MOVLW  AE
0BA6E:  MOVWF  FF6
0BA70:  MOVLW  0B
0BA72:  MOVWF  FF7
0BA74:  MOVLW  00
0BA76:  MOVWF  FF8
0BA78:  MOVLB  0
0BA7A:  CALL   277A
....................       SendDataDisplay(); 
0BA7E:  CALL   27AC
0BA82:  MOVLB  5
....................    } 
.................... //_--------------------------------------------------------------------------------------------------------------------------------------------------------       
....................  
.................... //_-------------------------------------------------------------------------------------------------------------------------------------------------------- 
....................       if(Menu==20){ //Menu de Funcionamiento 
0BA84:  MOVF   xBE,W
0BA86:  SUBLW  14
0BA88:  BTFSS  FD8.2
0BA8A:  GOTO   CA1A
....................       GuardaEEPROM=OFF; 
0BA8E:  BCF    x89.2
....................       printf("fecha.txt=\"Fecha:%02u/%02u/20%02u    Hora: %02u:%02u:%02u\"",Dia,Mes,Year,Hora,Minuto,Segundo); 
0BA90:  MOVLW  BA
0BA92:  MOVWF  FF6
0BA94:  MOVLW  0B
0BA96:  MOVWF  FF7
0BA98:  MOVLW  00
0BA9A:  MOVWF  FF8
0BA9C:  MOVLW  11
0BA9E:  MOVLB  7
0BAA0:  MOVWF  xC2
0BAA2:  MOVLB  0
0BAA4:  CALL   477C
0BAA8:  MOVFF  682,7BB
0BAAC:  MOVLW  01
0BAAE:  MOVLB  7
0BAB0:  MOVWF  xBC
0BAB2:  MOVLB  0
0BAB4:  CALL   47DA
0BAB8:  MOVLW  2F
0BABA:  BTFSS  F9E.4
0BABC:  BRA    BABA
0BABE:  MOVWF  FAD
0BAC0:  MOVFF  681,7BB
0BAC4:  MOVLW  01
0BAC6:  MOVLB  7
0BAC8:  MOVWF  xBC
0BACA:  MOVLB  0
0BACC:  CALL   47DA
0BAD0:  MOVLW  2F
0BAD2:  BTFSS  F9E.4
0BAD4:  BRA    BAD2
0BAD6:  MOVWF  FAD
0BAD8:  MOVLW  32
0BADA:  BTFSS  F9E.4
0BADC:  BRA    BADA
0BADE:  MOVWF  FAD
0BAE0:  MOVLW  30
0BAE2:  BTFSS  F9E.4
0BAE4:  BRA    BAE2
0BAE6:  MOVWF  FAD
0BAE8:  MOVFF  680,7BB
0BAEC:  MOVLW  01
0BAEE:  MOVLB  7
0BAF0:  MOVWF  xBC
0BAF2:  MOVLB  0
0BAF4:  CALL   47DA
0BAF8:  MOVLW  DB
0BAFA:  MOVWF  FF6
0BAFC:  MOVLW  0B
0BAFE:  MOVWF  FF7
0BB00:  MOVLW  00
0BB02:  MOVWF  FF8
0BB04:  MOVLW  0A
0BB06:  MOVLB  7
0BB08:  MOVWF  xC2
0BB0A:  MOVLB  0
0BB0C:  CALL   477C
0BB10:  MOVFF  683,7BB
0BB14:  MOVLW  01
0BB16:  MOVLB  7
0BB18:  MOVWF  xBC
0BB1A:  MOVLB  0
0BB1C:  CALL   47DA
0BB20:  MOVLW  3A
0BB22:  BTFSS  F9E.4
0BB24:  BRA    BB22
0BB26:  MOVWF  FAD
0BB28:  MOVFF  684,7BB
0BB2C:  MOVLW  01
0BB2E:  MOVLB  7
0BB30:  MOVWF  xBC
0BB32:  MOVLB  0
0BB34:  CALL   47DA
0BB38:  MOVLW  3A
0BB3A:  BTFSS  F9E.4
0BB3C:  BRA    BB3A
0BB3E:  MOVWF  FAD
0BB40:  MOVFF  685,7BB
0BB44:  MOVLW  01
0BB46:  MOVLB  7
0BB48:  MOVWF  xBC
0BB4A:  MOVLB  0
0BB4C:  CALL   47DA
0BB50:  MOVLW  22
0BB52:  BTFSS  F9E.4
0BB54:  BRA    BB52
0BB56:  MOVWF  FAD
....................       SendDataDisplay(); 
0BB58:  CALL   27AC
....................  
....................       if(RX_Buffer[4]==0x01){//Temperatura 
0BB5C:  DECFSZ 2E,W
0BB5E:  BRA    BB74
....................          printf("page Temperatura"); 
0BB60:  MOVLW  F6
0BB62:  MOVWF  FF6
0BB64:  MOVLW  0B
0BB66:  MOVWF  FF7
0BB68:  MOVLW  00
0BB6A:  MOVWF  FF8
0BB6C:  CALL   277A
....................          SendDataDisplay(); 
0BB70:  CALL   27AC
....................       } 
....................        
....................       if(RX_Buffer[4]==0x02){//Humedad 
0BB74:  MOVF   2E,W
0BB76:  SUBLW  02
0BB78:  BNZ   BB8E
....................          printf("page Humedad"); 
0BB7A:  MOVLW  08
0BB7C:  MOVWF  FF6
0BB7E:  MOVLW  0C
0BB80:  MOVWF  FF7
0BB82:  MOVLW  00
0BB84:  MOVWF  FF8
0BB86:  CALL   277A
....................          SendDataDisplay();          
0BB8A:  CALL   27AC
....................       } 
....................        
....................       if(RX_Buffer[4]==0x03){//Tiempo 
0BB8E:  MOVF   2E,W
0BB90:  SUBLW  03
0BB92:  BNZ   BBA8
....................          printf("page Tiempo"); 
0BB94:  MOVLW  16
0BB96:  MOVWF  FF6
0BB98:  MOVLW  0C
0BB9A:  MOVWF  FF7
0BB9C:  MOVLW  00
0BB9E:  MOVWF  FF8
0BBA0:  CALL   277A
....................          SendDataDisplay(); 
0BBA4:  CALL   27AC
....................       } 
....................        
....................       if(RX_Buffer[4]==0x04){//Test de componentes 
0BBA8:  MOVF   2E,W
0BBAA:  SUBLW  04
0BBAC:  BNZ   BBCA
....................          printf("page Clave"); 
0BBAE:  MOVLW  22
0BBB0:  MOVWF  FF6
0BBB2:  MOVLW  0C
0BBB4:  MOVWF  FF7
0BBB6:  MOVLW  00
0BBB8:  MOVWF  FF8
0BBBA:  CALL   277A
....................          SendDataDisplay(); 
0BBBE:  CALL   27AC
....................          TipoClave=4; 
0BBC2:  MOVLW  04
0BBC4:  MOVLB  5
0BBC6:  MOVWF  x9C
0BBC8:  MOVLB  0
....................       } 
....................        
....................       if(RX_Buffer[4]==0x05){//Cambio Clave 
0BBCA:  MOVF   2E,W
0BBCC:  SUBLW  05
0BBCE:  BNZ   BBEC
....................          printf("page Clave"); 
0BBD0:  MOVLW  2E
0BBD2:  MOVWF  FF6
0BBD4:  MOVLW  0C
0BBD6:  MOVWF  FF7
0BBD8:  MOVLW  00
0BBDA:  MOVWF  FF8
0BBDC:  CALL   277A
....................          SendDataDisplay(); 
0BBE0:  CALL   27AC
....................          TipoClave=2; 
0BBE4:  MOVLW  02
0BBE6:  MOVLB  5
0BBE8:  MOVWF  x9C
0BBEA:  MOVLB  0
....................       } 
....................        
....................       if(RX_Buffer[4]==0x06){//Fecha y Hora 
0BBEC:  MOVF   2E,W
0BBEE:  SUBLW  06
0BBF0:  BNZ   BC1A
....................          printf("page Fecha"); 
0BBF2:  MOVLW  3A
0BBF4:  MOVWF  FF6
0BBF6:  MOVLW  0C
0BBF8:  MOVWF  FF7
0BBFA:  MOVLW  00
0BBFC:  MOVWF  FF8
0BBFE:  CALL   277A
....................          SendDataDisplay(); 
0BC02:  CALL   27AC
....................          DiaTx=Dia; 
0BC06:  MOVFF  682,689
....................          MesTx=Mes; 
0BC0A:  MOVFF  681,688
....................          YearTx=Year; 
0BC0E:  MOVFF  680,687
....................          HoraTx=Hora; 
0BC12:  MOVFF  683,68A
....................          MinutoTx=Minuto; 
0BC16:  MOVFF  684,68B
....................       } 
....................        
....................       if(RX_Buffer[4]==0x07){//Configuracion Parametros 
0BC1A:  MOVF   2E,W
0BC1C:  SUBLW  07
0BC1E:  BNZ   BC3C
....................          printf("page Clave"); 
0BC20:  MOVLW  46
0BC22:  MOVWF  FF6
0BC24:  MOVLW  0C
0BC26:  MOVWF  FF7
0BC28:  MOVLW  00
0BC2A:  MOVWF  FF8
0BC2C:  CALL   277A
....................          SendDataDisplay(); 
0BC30:  CALL   27AC
....................          TipoClave=1; 
0BC34:  MOVLW  01
0BC36:  MOVLB  5
0BC38:  MOVWF  x9C
0BC3A:  MOVLB  0
....................       } 
....................        
....................       if(RX_Buffer[4]==0x08){//Inicia Control Temperatura 
0BC3C:  MOVF   2E,W
0BC3E:  SUBLW  08
0BC40:  BNZ   BC4C
....................          flagControlT=!flagControlT; 
0BC42:  MOVLB  5
0BC44:  BTG    x8B.2
....................          RX_Buffer[4]=0x00; 
0BC46:  CLRF   2E
....................          RX_Buffer2[4]=0x00; 
0BC48:  CLRF   39
0BC4A:  MOVLB  0
....................       } 
....................        
....................       if(RX_Buffer[4]==0x09){//Inicia Control Humedad 
0BC4C:  MOVF   2E,W
0BC4E:  SUBLW  09
0BC50:  BNZ   BC5C
....................          flagControlH=!flagControlH; 
0BC52:  MOVLB  5
0BC54:  BTG    x8B.3
....................          RX_Buffer[4]=0x00; 
0BC56:  CLRF   2E
....................          RX_Buffer2[4]=0x00; 
0BC58:  CLRF   39
0BC5A:  MOVLB  0
....................       } 
....................        
....................       if(RX_Buffer[4]==0x0a){//Configuracion Parametros 
0BC5C:  MOVF   2E,W
0BC5E:  SUBLW  0A
0BC60:  BNZ   BC76
....................          printf("page Rampas"); 
0BC62:  MOVLW  52
0BC64:  MOVWF  FF6
0BC66:  MOVLW  0C
0BC68:  MOVWF  FF7
0BC6A:  MOVLW  00
0BC6C:  MOVWF  FF8
0BC6E:  CALL   277A
....................          SendDataDisplay(); 
0BC72:  CALL   27AC
....................       } 
....................        
....................       if(RX_Buffer[4]==0x0b){//Inicia Control Rampa 
0BC76:  MOVF   2E,W
0BC78:  SUBLW  0B
0BC7A:  BTFSS  FD8.2
0BC7C:  BRA    C046
....................          flagRampa=!flagRampa; 
0BC7E:  MOVLB  5
0BC80:  BTG    x8B.5
....................          if(flagRampa){ 
0BC82:  BTFSS  x8B.5
0BC84:  BRA    BFEC
....................             // Configura parametros para inicio de rampa   
....................             SetpointAnt=Setpoint; 
0BC86:  MOVFF  62F,67B
0BC8A:  MOVFF  62E,67A
0BC8E:  MOVFF  62D,679
0BC92:  MOVFF  62C,678
....................             SetpointHAnt=SetpointH; 
0BC96:  MOVFF  637,67F
0BC9A:  MOVFF  636,67E
0BC9E:  MOVFF  635,67D
0BCA2:  MOVFF  634,67C
....................             hEstpAnt=hEstp; 
0BCA6:  MOVFF  5A9,5B1
0BCAA:  MOVFF  5A8,5B0
0BCAE:  MOVFF  5A7,5AF
0BCB2:  MOVFF  5A6,5AE
....................             mEstpAnt=mEstp; 
0BCB6:  MOVFF  5A5,5AD
0BCBA:  MOVFF  5A4,5AC
0BCBE:  MOVFF  5A3,5AB
0BCC2:  MOVFF  5A2,5AA
....................             TempeInicial=Temperatura; 
0BCC6:  MOVFF  627,64B
0BCCA:  MOVFF  626,64A
0BCCE:  MOVFF  625,649
0BCD2:  MOVFF  624,648
....................             Tiempo=(rampas[Segmento].Horas*3600)+(rampas[Segmento].Minutos*60);          
0BCD6:  MOVLB  7
0BCD8:  CLRF   xE4
0BCDA:  MOVFF  5A1,7E3
0BCDE:  CLRF   xE6
0BCE0:  MOVLW  0F
0BCE2:  MOVWF  xE5
0BCE4:  MOVLB  0
0BCE6:  CALL   150E
0BCEA:  MOVFF  01,7BA
0BCEE:  MOVLW  03
0BCF0:  MOVLB  7
0BCF2:  ADDWF  01,W
0BCF4:  MOVWF  01
0BCF6:  MOVLW  00
0BCF8:  ADDWFC 02,W
0BCFA:  MOVWF  03
0BCFC:  MOVF   01,W
0BCFE:  ADDLW  8E
0BD00:  MOVWF  FE9
0BD02:  MOVLW  06
0BD04:  ADDWFC 03,W
0BD06:  MOVWF  FEA
0BD08:  MOVFF  FEF,7BA
0BD0C:  MOVFF  FEC,7BB
0BD10:  MOVFF  FEC,7BC
0BD14:  MOVFF  FEC,7BD
0BD18:  MOVFF  7BD,816
0BD1C:  MOVFF  7BC,815
0BD20:  MOVFF  7BB,814
0BD24:  MOVFF  7BA,813
0BD28:  MOVLB  8
0BD2A:  CLRF   x1A
0BD2C:  CLRF   x19
0BD2E:  MOVLW  61
0BD30:  MOVWF  x18
0BD32:  MOVLW  8A
0BD34:  MOVWF  x17
0BD36:  MOVLB  0
0BD38:  CALL   283A
0BD3C:  MOVFF  00,7BA
0BD40:  MOVFF  01,7BB
0BD44:  MOVFF  02,7BC
0BD48:  MOVFF  03,7BD
0BD4C:  MOVLB  7
0BD4E:  CLRF   xE4
0BD50:  MOVFF  5A1,7E3
0BD54:  CLRF   xE6
0BD56:  MOVLW  0F
0BD58:  MOVWF  xE5
0BD5A:  MOVLB  0
0BD5C:  CALL   150E
0BD60:  MOVFF  01,7BE
0BD64:  MOVLW  07
0BD66:  MOVLB  7
0BD68:  ADDWF  01,W
0BD6A:  MOVWF  01
0BD6C:  MOVLW  00
0BD6E:  ADDWFC 02,W
0BD70:  MOVWF  03
0BD72:  MOVF   01,W
0BD74:  ADDLW  8E
0BD76:  MOVWF  FE9
0BD78:  MOVLW  06
0BD7A:  ADDWFC 03,W
0BD7C:  MOVWF  FEA
0BD7E:  MOVFF  FEF,7BE
0BD82:  MOVFF  FEC,7BF
0BD86:  MOVFF  FEC,7C0
0BD8A:  MOVFF  FEC,7C1
0BD8E:  MOVFF  7C1,816
0BD92:  MOVFF  7C0,815
0BD96:  MOVFF  7BF,814
0BD9A:  MOVFF  7BE,813
0BD9E:  MOVLB  8
0BDA0:  CLRF   x1A
0BDA2:  CLRF   x19
0BDA4:  MOVLW  70
0BDA6:  MOVWF  x18
0BDA8:  MOVLW  84
0BDAA:  MOVWF  x17
0BDAC:  MOVLB  0
0BDAE:  CALL   283A
0BDB2:  MOVFF  FEA,7BF
0BDB6:  MOVFF  FE9,7BE
0BDBA:  BCF    FD8.1
0BDBC:  MOVFF  7BD,81A
0BDC0:  MOVFF  7BC,819
0BDC4:  MOVFF  7BB,818
0BDC8:  MOVFF  7BA,817
0BDCC:  MOVFF  03,81E
0BDD0:  MOVFF  02,81D
0BDD4:  MOVFF  01,81C
0BDD8:  MOVFF  00,81B
0BDDC:  CALL   1296
0BDE0:  MOVFF  7BF,FEA
0BDE4:  MOVFF  7BE,FE9
0BDE8:  MOVFF  03,64F
0BDEC:  MOVFF  02,64E
0BDF0:  MOVFF  01,64D
0BDF4:  MOVFF  00,64C
....................             Setpoint=rampas[Segmento].Temperatura; 
0BDF8:  MOVLB  7
0BDFA:  CLRF   xE4
0BDFC:  MOVFF  5A1,7E3
0BE00:  CLRF   xE6
0BE02:  MOVLW  0F
0BE04:  MOVWF  xE5
0BE06:  MOVLB  0
0BE08:  CALL   150E
0BE0C:  MOVFF  02,7BB
0BE10:  MOVFF  01,7BA
0BE14:  MOVLW  0B
0BE16:  MOVLB  7
0BE18:  ADDWF  01,W
0BE1A:  MOVWF  01
0BE1C:  MOVLW  00
0BE1E:  ADDWFC 02,W
0BE20:  MOVWF  03
0BE22:  MOVF   01,W
0BE24:  ADDLW  8E
0BE26:  MOVWF  FE9
0BE28:  MOVLW  06
0BE2A:  ADDWFC 03,W
0BE2C:  MOVWF  FEA
0BE2E:  MOVFF  FEF,00
0BE32:  MOVFF  FEC,01
0BE36:  MOVFF  FEC,02
0BE3A:  MOVFF  FEC,03
0BE3E:  MOVFF  03,62F
0BE42:  MOVFF  02,62E
0BE46:  MOVFF  01,62D
0BE4A:  MOVFF  00,62C
....................             SetpointH=rampas[Segmento].Humedad; 
0BE4E:  CLRF   xE4
0BE50:  MOVFF  5A1,7E3
0BE54:  CLRF   xE6
0BE56:  MOVLW  0F
0BE58:  MOVWF  xE5
0BE5A:  MOVLB  0
0BE5C:  CALL   150E
0BE60:  MOVFF  02,7BB
0BE64:  MOVFF  01,7BA
0BE68:  MOVLW  02
0BE6A:  MOVLB  7
0BE6C:  ADDWF  01,W
0BE6E:  MOVWF  01
0BE70:  MOVLW  00
0BE72:  ADDWFC 02,W
0BE74:  MOVWF  03
0BE76:  MOVF   01,W
0BE78:  ADDLW  8E
0BE7A:  MOVWF  FE9
0BE7C:  MOVLW  06
0BE7E:  ADDWFC 03,W
0BE80:  MOVWF  FEA
0BE82:  MOVF   FEF,W
0BE84:  MOVLB  8
0BE86:  CLRF   x18
0BE88:  MOVWF  x17
0BE8A:  MOVLB  0
0BE8C:  CALL   10DA
0BE90:  MOVFF  03,637
0BE94:  MOVFF  02,636
0BE98:  MOVFF  01,635
0BE9C:  MOVFF  00,634
....................             Pendiente=((Setpoint-TempeInicial)/Tiempo); 
0BEA0:  BSF    FD8.1
0BEA2:  MOVFF  62F,81A
0BEA6:  MOVFF  62E,819
0BEAA:  MOVFF  62D,818
0BEAE:  MOVFF  62C,817
0BEB2:  MOVFF  64B,81E
0BEB6:  MOVFF  64A,81D
0BEBA:  MOVFF  649,81C
0BEBE:  MOVFF  648,81B
0BEC2:  CALL   1296
0BEC6:  MOVFF  00,7BA
0BECA:  MOVFF  01,7BB
0BECE:  MOVFF  02,7BC
0BED2:  MOVFF  03,7BD
0BED6:  MOVFF  03,80F
0BEDA:  MOVFF  02,80E
0BEDE:  MOVFF  01,80D
0BEE2:  MOVFF  00,80C
0BEE6:  MOVFF  64F,813
0BEEA:  MOVFF  64E,812
0BEEE:  MOVFF  64D,811
0BEF2:  MOVFF  64C,810
0BEF6:  CALL   1138
0BEFA:  MOVFF  03,66B
0BEFE:  MOVFF  02,66A
0BF02:  MOVFF  01,669
0BF06:  MOVFF  00,668
....................             hEstp=rampas[Segmento].Horas; 
0BF0A:  MOVLB  7
0BF0C:  CLRF   xE4
0BF0E:  MOVFF  5A1,7E3
0BF12:  CLRF   xE6
0BF14:  MOVLW  0F
0BF16:  MOVWF  xE5
0BF18:  MOVLB  0
0BF1A:  CALL   150E
0BF1E:  MOVFF  02,7BB
0BF22:  MOVFF  01,7BA
0BF26:  MOVLW  03
0BF28:  MOVLB  7
0BF2A:  ADDWF  01,W
0BF2C:  MOVWF  01
0BF2E:  MOVLW  00
0BF30:  ADDWFC 02,W
0BF32:  MOVWF  03
0BF34:  MOVF   01,W
0BF36:  ADDLW  8E
0BF38:  MOVWF  FE9
0BF3A:  MOVLW  06
0BF3C:  ADDWFC 03,W
0BF3E:  MOVWF  FEA
0BF40:  MOVFF  FEF,00
0BF44:  MOVFF  FEC,01
0BF48:  MOVFF  FEC,02
0BF4C:  MOVFF  FEC,03
0BF50:  MOVFF  03,5A9
0BF54:  MOVFF  02,5A8
0BF58:  MOVFF  01,5A7
0BF5C:  MOVFF  00,5A6
....................             mEstp=rampas[Segmento].Minutos; 
0BF60:  CLRF   xE4
0BF62:  MOVFF  5A1,7E3
0BF66:  CLRF   xE6
0BF68:  MOVLW  0F
0BF6A:  MOVWF  xE5
0BF6C:  MOVLB  0
0BF6E:  CALL   150E
0BF72:  MOVFF  02,7BB
0BF76:  MOVFF  01,7BA
0BF7A:  MOVLW  07
0BF7C:  MOVLB  7
0BF7E:  ADDWF  01,W
0BF80:  MOVWF  01
0BF82:  MOVLW  00
0BF84:  ADDWFC 02,W
0BF86:  MOVWF  03
0BF88:  MOVF   01,W
0BF8A:  ADDLW  8E
0BF8C:  MOVWF  FE9
0BF8E:  MOVLW  06
0BF90:  ADDWFC 03,W
0BF92:  MOVWF  FEA
0BF94:  MOVFF  FEF,00
0BF98:  MOVFF  FEC,01
0BF9C:  MOVFF  FEC,02
0BFA0:  MOVFF  FEC,03
0BFA4:  MOVFF  03,5A5
0BFA8:  MOVFF  02,5A4
0BFAC:  MOVFF  01,5A3
0BFB0:  MOVFF  00,5A2
....................             if(SetpointH<Humedad) 
0BFB4:  MOVFF  637,816
0BFB8:  MOVFF  636,815
0BFBC:  MOVFF  635,814
0BFC0:  MOVFF  634,813
0BFC4:  MOVFF  61F,81A
0BFC8:  MOVFF  61E,819
0BFCC:  MOVFF  61D,818
0BFD0:  MOVFF  61C,817
0BFD4:  MOVLB  0
0BFD6:  CALL   1572
0BFDA:  BNC   BFE2
....................                Humidificar=ON;             
0BFDC:  MOVLB  5
0BFDE:  BSF    x8B.7
....................             else 
0BFE0:  BRA    BFE6
....................                Humidificar=OFF;    
0BFE2:  MOVLB  5
0BFE4:  BCF    x8B.7
....................             flagControlH=ON; 
0BFE6:  BSF    x8B.3
....................             flagControlT=ON; 
0BFE8:  BSF    x8B.2
....................          }else{ 
0BFEA:  BRA    C040
....................             Setpoint=SetpointAnt; 
0BFEC:  MOVFF  67B,62F
0BFF0:  MOVFF  67A,62E
0BFF4:  MOVFF  679,62D
0BFF8:  MOVFF  678,62C
....................             SetpointH=SetpointHAnt; 
0BFFC:  MOVFF  67F,637
0C000:  MOVFF  67E,636
0C004:  MOVFF  67D,635
0C008:  MOVFF  67C,634
....................             hEstp=hEstpAnt; 
0C00C:  MOVFF  5B1,5A9
0C010:  MOVFF  5B0,5A8
0C014:  MOVFF  5AF,5A7
0C018:  MOVFF  5AE,5A6
....................             mEstp=mEstpAnt; 
0C01C:  MOVFF  5AD,5A5
0C020:  MOVFF  5AC,5A4
0C024:  MOVFF  5AB,5A3
0C028:  MOVFF  5AA,5A2
....................             mEst=0; 
0C02C:  CLRF   xB5
0C02E:  CLRF   xB4
0C030:  CLRF   xB3
0C032:  CLRF   xB2
....................             hEst=0; 
0C034:  CLRF   xB9
0C036:  CLRF   xB8
0C038:  CLRF   xB7
0C03A:  CLRF   xB6
....................             flagControlH=OFF; 
0C03C:  BCF    x8B.3
....................             flagControlT=OFF; 
0C03E:  BCF    x8B.2
....................          } 
....................          RX_Buffer[4]=0x00; 
0C040:  CLRF   2E
....................          RX_Buffer2[4]=0x00; 
0C042:  CLRF   39
0C044:  MOVLB  0
....................       } 
....................  
....................       if(!TERM && !DOOR && !Finalizo){ 
0C046:  BSF    F93.5
0C048:  BTFSC  F81.5
0C04A:  BRA    C1DA
0C04C:  BSF    F93.4
0C04E:  BTFSC  F81.4
0C050:  BRA    C1DA
0C052:  MOVLB  5
0C054:  BTFSS  x8A.4
0C056:  BRA    C05C
0C058:  MOVLB  0
0C05A:  BRA    C1DA
....................          if(flagRampa){ 
0C05C:  BTFSS  x8B.5
0C05E:  BRA    C0EA
....................             iniciaConteo();  
0C060:  MOVLB  0
0C062:  CALL   4DA4
....................             printf("b5.pic=85"); 
0C066:  MOVLW  5E
0C068:  MOVWF  FF6
0C06A:  MOVLW  0C
0C06C:  MOVWF  FF7
0C06E:  MOVLW  00
0C070:  MOVWF  FF8
0C072:  CALL   277A
....................             SendDataDisplay(); 
0C076:  CALL   27AC
....................             printf("b4.pic=85"); 
0C07A:  MOVLW  68
0C07C:  MOVWF  FF6
0C07E:  MOVLW  0C
0C080:  MOVWF  FF7
0C082:  MOVLW  00
0C084:  MOVWF  FF8
0C086:  CALL   277A
....................             SendDataDisplay(); 
0C08A:  CALL   27AC
....................             printf("b6.pic=85"); 
0C08E:  MOVLW  72
0C090:  MOVWF  FF6
0C092:  MOVLW  0C
0C094:  MOVWF  FF7
0C096:  MOVLW  00
0C098:  MOVWF  FF8
0C09A:  CALL   277A
....................             SendDataDisplay(); 
0C09E:  CALL   27AC
....................             controlaHumedad(); 
0C0A2:  CALL   4E6A
....................             controlaRampa(); 
0C0A6:  GOTO   6A7E
....................             printf("t8.txt=\"Paso %02u\"",Segmento+1); 
0C0AA:  MOVLW  01
0C0AC:  MOVLB  5
0C0AE:  ADDWF  xA1,W
0C0B0:  MOVLB  7
0C0B2:  MOVWF  xBA
0C0B4:  MOVLW  7C
0C0B6:  MOVWF  FF6
0C0B8:  MOVLW  0C
0C0BA:  MOVWF  FF7
0C0BC:  MOVLW  00
0C0BE:  MOVWF  FF8
0C0C0:  MOVLW  0D
0C0C2:  MOVWF  xC2
0C0C4:  MOVLB  0
0C0C6:  CALL   477C
0C0CA:  MOVFF  7BA,7BB
0C0CE:  MOVLW  01
0C0D0:  MOVLB  7
0C0D2:  MOVWF  xBC
0C0D4:  MOVLB  0
0C0D6:  CALL   47DA
0C0DA:  MOVLW  22
0C0DC:  BTFSS  F9E.4
0C0DE:  BRA    C0DC
0C0E0:  MOVWF  FAD
....................             //printf("t8.txt=\"%2.0f\"",Tiempo); 
....................             SendDataDisplay(); 
0C0E2:  CALL   27AC
....................          }else{ 
0C0E6:  BRA    C1DA
0C0E8:  MOVLB  5
....................             printf("t8.txt=\"Info\""); 
0C0EA:  MOVLW  90
0C0EC:  MOVWF  FF6
0C0EE:  MOVLW  0C
0C0F0:  MOVWF  FF7
0C0F2:  MOVLW  00
0C0F4:  MOVWF  FF8
0C0F6:  MOVLB  0
0C0F8:  CALL   277A
....................             SendDataDisplay(); 
0C0FC:  CALL   27AC
....................             printf("b6.pic=84"); 
0C100:  MOVLW  9E
0C102:  MOVWF  FF6
0C104:  MOVLW  0C
0C106:  MOVWF  FF7
0C108:  MOVLW  00
0C10A:  MOVWF  FF8
0C10C:  CALL   277A
....................             SendDataDisplay(); 
0C110:  CALL   27AC
....................             iniciaConteo(); 
0C114:  CALL   4DA4
....................              
....................             if(flagControlH){  
0C118:  MOVLB  5
0C11A:  BTFSS  x8B.3
0C11C:  BRA    C13C
....................                printf("b5.pic=85"); 
0C11E:  MOVLW  A8
0C120:  MOVWF  FF6
0C122:  MOVLW  0C
0C124:  MOVWF  FF7
0C126:  MOVLW  00
0C128:  MOVWF  FF8
0C12A:  MOVLB  0
0C12C:  CALL   277A
....................                SendDataDisplay(); 
0C130:  CALL   27AC
....................                controlaHumedad(); 
0C134:  CALL   4E6A
....................             }else{ 
0C138:  BRA    C16E
0C13A:  MOVLB  5
....................                printf("statusH.txt=\"Detenido\""); 
0C13C:  MOVLW  B2
0C13E:  MOVWF  FF6
0C140:  MOVLW  0C
0C142:  MOVWF  FF7
0C144:  MOVLW  00
0C146:  MOVWF  FF8
0C148:  MOVLB  0
0C14A:  CALL   277A
....................                SendDataDisplay(); 
0C14E:  CALL   27AC
....................                printf("b5.pic=84"); 
0C152:  MOVLW  CA
0C154:  MOVWF  FF6
0C156:  MOVLW  0C
0C158:  MOVWF  FF7
0C15A:  MOVLW  00
0C15C:  MOVWF  FF8
0C15E:  CALL   277A
....................                SendDataDisplay(); 
0C162:  CALL   27AC
....................                Dehumidificador_off; 
0C166:  BCF    F8D.1
0C168:  BCF    F96.1
....................                Humidificador_off;     
0C16A:  BCF    F8D.2
0C16C:  BCF    F96.2
....................             } 
....................              
....................             if(flagControlT){ 
0C16E:  MOVLB  5
0C170:  BTFSS  x8B.2
0C172:  BRA    C192
....................                printf("b4.pic=85"); 
0C174:  MOVLW  D4
0C176:  MOVWF  FF6
0C178:  MOVLW  0C
0C17A:  MOVWF  FF7
0C17C:  MOVLW  00
0C17E:  MOVWF  FF8
0C180:  MOVLB  0
0C182:  CALL   277A
....................                SendDataDisplay(); 
0C186:  CALL   27AC
....................                controlaTemperatura(); 
0C18A:  GOTO   7006
....................             }else{ 
0C18E:  BRA    C1DA
0C190:  MOVLB  5
....................                printf("statusT.txt=\"Detenido\""); 
0C192:  MOVLW  DE
0C194:  MOVWF  FF6
0C196:  MOVLW  0C
0C198:  MOVWF  FF7
0C19A:  MOVLW  00
0C19C:  MOVWF  FF8
0C19E:  MOVLB  0
0C1A0:  CALL   277A
....................                SendDataDisplay(); 
0C1A4:  CALL   27AC
....................                printf("b4.pic=84"); 
0C1A8:  MOVLW  F6
0C1AA:  MOVWF  FF6
0C1AC:  MOVLW  0C
0C1AE:  MOVWF  FF7
0C1B0:  MOVLW  00
0C1B2:  MOVWF  FF8
0C1B4:  CALL   277A
....................                SendDataDisplay(); 
0C1B8:  CALL   27AC
....................                SSR_off; 
0C1BC:  BCF    F8B.2
0C1BE:  BCF    F94.2
....................                SSR2_off; 
0C1C0:  BCF    F8B.1
0C1C2:  BCF    F94.1
....................                SSR3_off; 
0C1C4:  BCF    F8B.0
0C1C6:  BCF    F94.0
....................                Controlando=0; 
0C1C8:  MOVLB  5
0C1CA:  CLRF   x95
....................                Rele5_off; 
0C1CC:  BCF    F8B.4
0C1CE:  BCF    F94.4
....................                Tpulso=0.0; 
0C1D0:  CLRF   xF7
0C1D2:  CLRF   xF6
0C1D4:  CLRF   xF5
0C1D6:  CLRF   xF4
0C1D8:  MOVLB  0
....................             } 
....................          } 
....................       } 
....................        
....................       if(Finalizo==0){ 
0C1DA:  MOVLB  5
0C1DC:  BTFSC  x8A.4
0C1DE:  BRA    C3F4
....................          if(TERM){ 
0C1E0:  BSF    F93.5
0C1E2:  BTFSS  F81.5
0C1E4:  BRA    C2E0
....................             Rele5_off; 
0C1E6:  BCF    F8B.4
0C1E8:  BCF    F94.4
....................             Controlando=0; 
0C1EA:  CLRF   x95
....................             flag_tiempocalentamiento=0; 
0C1EC:  BCF    xBA.6
....................             if(flag_clear3==0){ 
0C1EE:  BTFSC  xBA.5
0C1F0:  BRA    C20C
....................                tiempo_esterilizacion=0; 
0C1F2:  CLRF   xC3
....................                SSR_off; 
0C1F4:  BCF    F8B.2
0C1F6:  BCF    F94.2
....................                SSR2_off; 
0C1F8:  BCF    F8B.1
0C1FA:  BCF    F94.1
....................                SSR3_off; 
0C1FC:  BCF    F8B.0
0C1FE:  BCF    F94.0
....................                Tpulso=0.0; 
0C200:  CLRF   xF7
0C202:  CLRF   xF6
0C204:  CLRF   xF5
0C206:  CLRF   xF4
....................                flag_clear3=1; 
0C208:  BSF    xBA.5
....................                flag_ganancia=0; 
0C20A:  CLRF   x92
....................             } 
....................             printf("status.txt=\"Estado:Alarma 01\""); 
0C20C:  MOVLW  00
0C20E:  MOVWF  FF6
0C210:  MOVLW  0D
0C212:  MOVWF  FF7
0C214:  MOVLW  00
0C216:  MOVWF  FF8
0C218:  MOVLB  0
0C21A:  CALL   277A
....................             SendDataDisplay(); 
0C21E:  CALL   27AC
....................             printf("statusH.txt=\"-----\""); 
0C222:  MOVLW  1E
0C224:  MOVWF  FF6
0C226:  MOVLW  0D
0C228:  MOVWF  FF7
0C22A:  MOVLW  00
0C22C:  MOVWF  FF8
0C22E:  CALL   277A
....................             SendDataDisplay(); 
0C232:  CALL   27AC
....................             printf("statusT.txt=\"-----\""); 
0C236:  MOVLW  32
0C238:  MOVWF  FF6
0C23A:  MOVLW  0D
0C23C:  MOVWF  FF7
0C23E:  MOVLW  00
0C240:  MOVWF  FF8
0C242:  CALL   277A
....................             SendDataDisplay(); 
0C246:  CALL   27AC
....................             Ganancia=GananciaR*(Setpoint/44.5); 
0C24A:  MOVFF  62F,80F
0C24E:  MOVFF  62E,80E
0C252:  MOVFF  62D,80D
0C256:  MOVFF  62C,80C
0C25A:  MOVLB  8
0C25C:  CLRF   x13
0C25E:  CLRF   x12
0C260:  MOVLW  32
0C262:  MOVWF  x11
0C264:  MOVLW  84
0C266:  MOVWF  x10
0C268:  MOVLB  0
0C26A:  CALL   1138
0C26E:  MOVFF  60F,816
0C272:  MOVFF  60E,815
0C276:  MOVFF  60D,814
0C27A:  MOVFF  60C,813
0C27E:  MOVFF  03,81A
0C282:  MOVFF  02,819
0C286:  MOVFF  01,818
0C28A:  MOVFF  00,817
0C28E:  CALL   283A
0C292:  MOVFF  03,60B
0C296:  MOVFF  02,60A
0C29A:  MOVFF  01,609
0C29E:  MOVFF  00,608
....................             Buzzer_on; 
0C2A2:  BSF    F8C.7
0C2A4:  BCF    F95.7
....................             delay_ms(1000); 
0C2A6:  MOVLW  04
0C2A8:  MOVLB  7
0C2AA:  MOVWF  xBA
0C2AC:  MOVLW  FA
0C2AE:  MOVWF  xE8
0C2B0:  MOVLB  0
0C2B2:  CALL   1110
0C2B6:  MOVLB  7
0C2B8:  DECFSZ xBA,F
0C2BA:  BRA    C2AC
....................             Buzzer_off; 
0C2BC:  BCF    F8C.7
0C2BE:  BCF    F95.7
....................             delay_ms(1000); 
0C2C0:  MOVLW  04
0C2C2:  MOVWF  xBA
0C2C4:  MOVLW  FA
0C2C6:  MOVWF  xE8
0C2C8:  MOVLB  0
0C2CA:  CALL   1110
0C2CE:  MOVLB  7
0C2D0:  DECFSZ xBA,F
0C2D2:  BRA    C2C4
....................             Dehumidificador_off; 
0C2D4:  BCF    F8D.1
0C2D6:  BCF    F96.1
....................             Humidificador_off; 
0C2D8:  BCF    F8D.2
0C2DA:  BCF    F96.2
....................          }else{ 
0C2DC:  BRA    C3F0
0C2DE:  MOVLB  5
....................             if(DOOR){ 
0C2E0:  BSF    F93.4
0C2E2:  BTFSS  F81.4
0C2E4:  BRA    C3AC
....................                Rele5_off; 
0C2E6:  BCF    F8B.4
0C2E8:  BCF    F94.4
....................                Controlando=0; 
0C2EA:  CLRF   x95
....................                flag_tiempocalentamiento=0; 
0C2EC:  BCF    xBA.6
....................                Ganancia=GananciaR*(Setpoint/44.5); 
0C2EE:  MOVFF  62F,80F
0C2F2:  MOVFF  62E,80E
0C2F6:  MOVFF  62D,80D
0C2FA:  MOVFF  62C,80C
0C2FE:  MOVLB  8
0C300:  CLRF   x13
0C302:  CLRF   x12
0C304:  MOVLW  32
0C306:  MOVWF  x11
0C308:  MOVLW  84
0C30A:  MOVWF  x10
0C30C:  MOVLB  0
0C30E:  CALL   1138
0C312:  MOVFF  60F,816
0C316:  MOVFF  60E,815
0C31A:  MOVFF  60D,814
0C31E:  MOVFF  60C,813
0C322:  MOVFF  03,81A
0C326:  MOVFF  02,819
0C32A:  MOVFF  01,818
0C32E:  MOVFF  00,817
0C332:  CALL   283A
0C336:  MOVFF  03,60B
0C33A:  MOVFF  02,60A
0C33E:  MOVFF  01,609
0C342:  MOVFF  00,608
....................                tiempo_esterilizacion=0; 
0C346:  MOVLB  5
0C348:  CLRF   xC3
....................                SSR_off; 
0C34A:  BCF    F8B.2
0C34C:  BCF    F94.2
....................                SSR2_off; 
0C34E:  BCF    F8B.1
0C350:  BCF    F94.1
....................                SSR3_off; 
0C352:  BCF    F8B.0
0C354:  BCF    F94.0
....................                Tpulso=0.0; 
0C356:  CLRF   xF7
0C358:  CLRF   xF6
0C35A:  CLRF   xF5
0C35C:  CLRF   xF4
....................                flag_clear2=1; 
0C35E:  BSF    xBA.4
....................                flag_ganancia=0; 
0C360:  CLRF   x92
....................                printf("status.txt=\"Estado:Puerta Abierta\""); 
0C362:  MOVLW  46
0C364:  MOVWF  FF6
0C366:  MOVLW  0D
0C368:  MOVWF  FF7
0C36A:  MOVLW  00
0C36C:  MOVWF  FF8
0C36E:  MOVLB  0
0C370:  CALL   277A
....................                SendDataDisplay(); 
0C374:  CALL   27AC
....................                printf("statusH.txt=\"-----\""); 
0C378:  MOVLW  6A
0C37A:  MOVWF  FF6
0C37C:  MOVLW  0D
0C37E:  MOVWF  FF7
0C380:  MOVLW  00
0C382:  MOVWF  FF8
0C384:  CALL   277A
....................                SendDataDisplay(); 
0C388:  CALL   27AC
....................                printf("statusT.txt=\"-----\""); 
0C38C:  MOVLW  7E
0C38E:  MOVWF  FF6
0C390:  MOVLW  0D
0C392:  MOVWF  FF7
0C394:  MOVLW  00
0C396:  MOVWF  FF8
0C398:  CALL   277A
....................                SendDataDisplay(); 
0C39C:  CALL   27AC
....................                Dehumidificador_off; 
0C3A0:  BCF    F8D.1
0C3A2:  BCF    F96.1
....................                Humidificador_off; 
0C3A4:  BCF    F8D.2
0C3A6:  BCF    F96.2
....................             }else{ 
0C3A8:  BRA    C3EE
0C3AA:  MOVLB  5
....................                if(LEVEL){ 
0C3AC:  BSF    F93.6
0C3AE:  BTFSS  F81.6
0C3B0:  BRA    C3D4
....................                   printf("status.txt=\"Estado:Llenando\""); 
0C3B2:  MOVLW  92
0C3B4:  MOVWF  FF6
0C3B6:  MOVLW  0D
0C3B8:  MOVWF  FF7
0C3BA:  MOVLW  00
0C3BC:  MOVWF  FF8
0C3BE:  MOVLB  0
0C3C0:  CALL   277A
....................                   SendDataDisplay(); 
0C3C4:  CALL   27AC
....................                   Humidificador_off; 
0C3C8:  BCF    F8D.2
0C3CA:  BCF    F96.2
....................                   Rele6_on; 
0C3CC:  BSF    F8C.3
0C3CE:  BCF    F95.3
....................                }else{ 
0C3D0:  BRA    C3EE
0C3D2:  MOVLB  5
....................                   printf("status.txt=\"Estado:---\""); 
0C3D4:  MOVLW  B0
0C3D6:  MOVWF  FF6
0C3D8:  MOVLW  0D
0C3DA:  MOVWF  FF7
0C3DC:  MOVLW  00
0C3DE:  MOVWF  FF8
0C3E0:  MOVLB  0
0C3E2:  CALL   277A
....................                   SendDataDisplay(); 
0C3E6:  CALL   27AC
....................                   Rele6_off; 
0C3EA:  BCF    F8C.3
0C3EC:  BCF    F95.3
0C3EE:  MOVLB  7
....................                } 
....................             } 
....................          } 
....................       }else{ 
0C3F0:  BRA    C4A8
0C3F2:  MOVLB  5
....................          printf("t8.txt=\"Paso --\""); 
0C3F4:  MOVLW  C8
0C3F6:  MOVWF  FF6
0C3F8:  MOVLW  0D
0C3FA:  MOVWF  FF7
0C3FC:  MOVLW  00
0C3FE:  MOVWF  FF8
0C400:  MOVLB  0
0C402:  CALL   277A
....................          SendDataDisplay(); 
0C406:  CALL   27AC
....................          printf("status.txt=\"Reinicie el equipo\""); 
0C40A:  MOVLW  DA
0C40C:  MOVWF  FF6
0C40E:  MOVLW  0D
0C410:  MOVWF  FF7
0C412:  MOVLW  00
0C414:  MOVWF  FF8
0C416:  CALL   277A
....................          SendDataDisplay(); 
0C41A:  CALL   27AC
....................          SSR_off;          
0C41E:  BCF    F8B.2
0C420:  BCF    F94.2
....................          SSR2_off; 
0C422:  BCF    F8B.1
0C424:  BCF    F94.1
....................          SSR3_off; 
0C426:  BCF    F8B.0
0C428:  BCF    F94.0
....................          Controlando=0; 
0C42A:  MOVLB  5
0C42C:  CLRF   x95
....................          Tpulso=0.0; 
0C42E:  CLRF   xF7
0C430:  CLRF   xF6
0C432:  CLRF   xF5
0C434:  CLRF   xF4
....................          tiempo_esterilizacion=0; 
0C436:  CLRF   xC3
....................          flagRampa=OFF; 
0C438:  BCF    x8B.5
....................          flagControlT=OFF; 
0C43A:  BCF    x8B.2
....................          flagControlH=OFF; 
0C43C:  BCF    x8B.3
....................          ApagaSalidas(); 
0C43E:  MOVLB  0
0C440:  CALL   4746
....................          printf("b4.pic=84"); 
0C444:  MOVLW  FA
0C446:  MOVWF  FF6
0C448:  MOVLW  0D
0C44A:  MOVWF  FF7
0C44C:  MOVLW  00
0C44E:  MOVWF  FF8
0C450:  CALL   277A
....................          SendDataDisplay(); 
0C454:  CALL   27AC
....................          printf("b5.pic=84"); 
0C458:  MOVLW  04
0C45A:  MOVWF  FF6
0C45C:  MOVLW  0E
0C45E:  MOVWF  FF7
0C460:  MOVLW  00
0C462:  MOVWF  FF8
0C464:  CALL   277A
....................          SendDataDisplay(); 
0C468:  CALL   27AC
....................          printf("b6.pic=84"); 
0C46C:  MOVLW  0E
0C46E:  MOVWF  FF6
0C470:  MOVLW  0E
0C472:  MOVWF  FF7
0C474:  MOVLW  00
0C476:  MOVWF  FF8
0C478:  CALL   277A
....................          SendDataDisplay(); 
0C47C:  CALL   27AC
....................          printf("statusT.txt=\"Finalizado\""); 
0C480:  MOVLW  18
0C482:  MOVWF  FF6
0C484:  MOVLW  0E
0C486:  MOVWF  FF7
0C488:  MOVLW  00
0C48A:  MOVWF  FF8
0C48C:  CALL   277A
....................          SendDataDisplay(); 
0C490:  CALL   27AC
....................          printf("statusH.txt=\"Finalizado\""); 
0C494:  MOVLW  32
0C496:  MOVWF  FF6
0C498:  MOVLW  0E
0C49A:  MOVWF  FF7
0C49C:  MOVLW  00
0C49E:  MOVWF  FF8
0C4A0:  CALL   277A
....................          SendDataDisplay(); 
0C4A4:  CALL   27AC
....................       } 
....................        
....................       if(Lectura==1)// Utilizado para visualizar la lectura de la temperatura 
0C4A8:  MOVLB  5
0C4AA:  BTFSS  xBA.0
0C4AC:  BRA    C822
....................       {                    
....................          Lectura=0; 
0C4AE:  BCF    xBA.0
....................          Potencia=(100.0/Tciclo)*Tpulso;  
0C4B0:  MOVLB  8
0C4B2:  CLRF   x0F
0C4B4:  CLRF   x0E
0C4B6:  MOVLW  48
0C4B8:  MOVWF  x0D
0C4BA:  MOVLW  85
0C4BC:  MOVWF  x0C
0C4BE:  MOVFF  5F3,813
0C4C2:  MOVFF  5F2,812
0C4C6:  MOVFF  5F1,811
0C4CA:  MOVFF  5F0,810
0C4CE:  MOVLB  0
0C4D0:  CALL   1138
0C4D4:  MOVFF  00,7BA
0C4D8:  MOVFF  01,7BB
0C4DC:  MOVFF  02,7BC
0C4E0:  MOVFF  03,7BD
0C4E4:  MOVFF  03,816
0C4E8:  MOVFF  02,815
0C4EC:  MOVFF  01,814
0C4F0:  MOVFF  00,813
0C4F4:  MOVFF  5F7,81A
0C4F8:  MOVFF  5F6,819
0C4FC:  MOVFF  5F5,818
0C500:  MOVFF  5F4,817
0C504:  CALL   283A
0C508:  MOVFF  03,5DB
0C50C:  MOVFF  02,5DA
0C510:  MOVFF  01,5D9
0C514:  MOVFF  00,5D8
....................  //----------------Muestra Temperatura-------------------------- 
....................          if(Pt>146.4){ 
0C518:  MOVLW  66
0C51A:  MOVLB  8
0C51C:  MOVWF  x16
0C51E:  MOVWF  x15
0C520:  MOVLW  12
0C522:  MOVWF  x14
0C524:  MOVLW  86
0C526:  MOVWF  x13
0C528:  MOVFF  61B,81A
0C52C:  MOVFF  61A,819
0C530:  MOVFF  619,818
0C534:  MOVFF  618,817
0C538:  MOVLB  0
0C53A:  CALL   1572
0C53E:  BNC   C55C
....................             printf("temperatura.txt=\"T:----\""); 
0C540:  MOVLW  4C
0C542:  MOVWF  FF6
0C544:  MOVLW  0E
0C546:  MOVWF  FF7
0C548:  MOVLW  00
0C54A:  MOVWF  FF8
0C54C:  CALL   277A
....................             SendDataDisplay(); 
0C550:  CALL   27AC
....................             Desconectado=1; 
0C554:  MOVLB  5
0C556:  BSF    x89.0
....................          }else{ 
0C558:  BRA    C5FA
0C55A:  MOVLB  0
....................             if(Desconectado==1){ 
0C55C:  MOVLB  5
0C55E:  BTFSS  x89.0
0C560:  BRA    C5A6
....................                Desconectado=0; 
0C562:  BCF    x89.0
....................                delay_ms(2000); 
0C564:  MOVLW  08
0C566:  MOVLB  7
0C568:  MOVWF  xBA
0C56A:  MOVLW  FA
0C56C:  MOVWF  xE8
0C56E:  MOVLB  0
0C570:  CALL   1110
0C574:  MOVLB  7
0C576:  DECFSZ xBA,F
0C578:  BRA    C56A
....................                for(i=0;i<80;i++) 
0C57A:  MOVLB  5
0C57C:  CLRF   xBF
0C57E:  MOVF   xBF,W
0C580:  SUBLW  4F
0C582:  BNC   C5A6
....................                   Temperatura=Leer_Sensor(80); 
0C584:  MOVLW  50
0C586:  MOVLB  7
0C588:  MOVWF  xBA
0C58A:  MOVLB  0
0C58C:  CALL   2930
0C590:  MOVFF  03,627
0C594:  MOVFF  02,626
0C598:  MOVFF  01,625
0C59C:  MOVFF  00,624
0C5A0:  MOVLB  5
0C5A2:  INCF   xBF,F
0C5A4:  BRA    C57E
....................             } 
....................             printf("temperatura.txt=\"T:%2.1fC\"",Temperatura); 
0C5A6:  MOVLW  66
0C5A8:  MOVWF  FF6
0C5AA:  MOVLW  0E
0C5AC:  MOVWF  FF7
0C5AE:  MOVLW  00
0C5B0:  MOVWF  FF8
0C5B2:  MOVLW  13
0C5B4:  MOVLB  7
0C5B6:  MOVWF  xC2
0C5B8:  MOVLB  0
0C5BA:  CALL   477C
0C5BE:  MOVLW  01
0C5C0:  MOVWF  FE9
0C5C2:  MOVFF  627,7C5
0C5C6:  MOVFF  626,7C4
0C5CA:  MOVFF  625,7C3
0C5CE:  MOVFF  624,7C2
0C5D2:  MOVLB  7
0C5D4:  MOVWF  xC6
0C5D6:  MOVLB  0
0C5D8:  CALL   491C
0C5DC:  MOVLW  B0
0C5DE:  BTFSS  F9E.4
0C5E0:  BRA    C5DE
0C5E2:  MOVWF  FAD
0C5E4:  MOVLW  43
0C5E6:  BTFSS  F9E.4
0C5E8:  BRA    C5E6
0C5EA:  MOVWF  FAD
0C5EC:  MOVLW  22
0C5EE:  BTFSS  F9E.4
0C5F0:  BRA    C5EE
0C5F2:  MOVWF  FAD
....................             SendDataDisplay(); 
0C5F4:  CALL   27AC
0C5F8:  MOVLB  5
....................          } 
....................          //printf("statusH.txt=\"%2.1fC %2.1f%% %2.1f\"",Tam,RH2,sensores(3)); 
....................          //SendDataDisplay(); 
....................          printf("stemperatura.txt=\"SET:%2.1f C\"",Setpoint); 
0C5FA:  MOVLW  82
0C5FC:  MOVWF  FF6
0C5FE:  MOVLW  0E
0C600:  MOVWF  FF7
0C602:  MOVLW  00
0C604:  MOVWF  FF8
0C606:  MOVLW  16
0C608:  MOVLB  7
0C60A:  MOVWF  xC2
0C60C:  MOVLB  0
0C60E:  CALL   477C
0C612:  MOVLW  01
0C614:  MOVWF  FE9
0C616:  MOVFF  62F,7C5
0C61A:  MOVFF  62E,7C4
0C61E:  MOVFF  62D,7C3
0C622:  MOVFF  62C,7C2
0C626:  MOVLB  7
0C628:  MOVWF  xC6
0C62A:  MOVLB  0
0C62C:  CALL   491C
0C630:  MOVLW  9D
0C632:  MOVWF  FF6
0C634:  MOVLW  0E
0C636:  MOVWF  FF7
0C638:  MOVLW  00
0C63A:  MOVWF  FF8
0C63C:  MOVLW  04
0C63E:  MOVLB  7
0C640:  MOVWF  xC2
0C642:  MOVLB  0
0C644:  CALL   477C
....................          SendDataDisplay(); 
0C648:  CALL   27AC
....................          printf("shumedad.txt=\"SET:%2.1f %%\"",SetpointH); 
0C64C:  MOVLW  A2
0C64E:  MOVWF  FF6
0C650:  MOVLW  0E
0C652:  MOVWF  FF7
0C654:  MOVLW  00
0C656:  MOVWF  FF8
0C658:  MOVLW  12
0C65A:  MOVLB  7
0C65C:  MOVWF  xC2
0C65E:  MOVLB  0
0C660:  CALL   477C
0C664:  MOVLW  01
0C666:  MOVWF  FE9
0C668:  MOVFF  637,7C5
0C66C:  MOVFF  636,7C4
0C670:  MOVFF  635,7C3
0C674:  MOVFF  634,7C2
0C678:  MOVLB  7
0C67A:  MOVWF  xC6
0C67C:  MOVLB  0
0C67E:  CALL   491C
0C682:  MOVLW  20
0C684:  BTFSS  F9E.4
0C686:  BRA    C684
0C688:  MOVWF  FAD
0C68A:  MOVLW  25
0C68C:  BTFSS  F9E.4
0C68E:  BRA    C68C
0C690:  MOVWF  FAD
0C692:  MOVLW  22
0C694:  BTFSS  F9E.4
0C696:  BRA    C694
0C698:  MOVWF  FAD
....................          SendDataDisplay(); 
0C69A:  CALL   27AC
....................          printf("humedad.txt=\"HR:%2.1f %%\"",Humedad); 
0C69E:  MOVLW  BE
0C6A0:  MOVWF  FF6
0C6A2:  MOVLW  0E
0C6A4:  MOVWF  FF7
0C6A6:  MOVLW  00
0C6A8:  MOVWF  FF8
0C6AA:  MOVLW  10
0C6AC:  MOVLB  7
0C6AE:  MOVWF  xC2
0C6B0:  MOVLB  0
0C6B2:  CALL   477C
0C6B6:  MOVLW  01
0C6B8:  MOVWF  FE9
0C6BA:  MOVFF  61F,7C5
0C6BE:  MOVFF  61E,7C4
0C6C2:  MOVFF  61D,7C3
0C6C6:  MOVFF  61C,7C2
0C6CA:  MOVLB  7
0C6CC:  MOVWF  xC6
0C6CE:  MOVLB  0
0C6D0:  CALL   491C
0C6D4:  MOVLW  20
0C6D6:  BTFSS  F9E.4
0C6D8:  BRA    C6D6
0C6DA:  MOVWF  FAD
0C6DC:  MOVLW  25
0C6DE:  BTFSS  F9E.4
0C6E0:  BRA    C6DE
0C6E2:  MOVWF  FAD
0C6E4:  MOVLW  22
0C6E6:  BTFSS  F9E.4
0C6E8:  BRA    C6E6
0C6EA:  MOVWF  FAD
....................          SendDataDisplay(); 
0C6EC:  CALL   27AC
....................          printf("stiempo.txt=\"SET:%02.0f:%02.0f (HH:MM)\"",hEstp,mEstp); 
0C6F0:  MOVLW  D8
0C6F2:  MOVWF  FF6
0C6F4:  MOVLW  0E
0C6F6:  MOVWF  FF7
0C6F8:  MOVLW  00
0C6FA:  MOVWF  FF8
0C6FC:  MOVLW  11
0C6FE:  MOVLB  7
0C700:  MOVWF  xC2
0C702:  MOVLB  0
0C704:  CALL   477C
0C708:  MOVLW  41
0C70A:  MOVWF  FE9
0C70C:  MOVFF  5A9,7C5
0C710:  MOVFF  5A8,7C4
0C714:  MOVFF  5A7,7C3
0C718:  MOVFF  5A6,7C2
0C71C:  MOVLB  7
0C71E:  CLRF   xC6
0C720:  MOVLB  0
0C722:  CALL   491C
0C726:  MOVLW  3A
0C728:  BTFSS  F9E.4
0C72A:  BRA    C728
0C72C:  MOVWF  FAD
0C72E:  MOVLW  41
0C730:  MOVWF  FE9
0C732:  MOVFF  5A5,7C5
0C736:  MOVFF  5A4,7C4
0C73A:  MOVFF  5A3,7C3
0C73E:  MOVFF  5A2,7C2
0C742:  MOVLB  7
0C744:  CLRF   xC6
0C746:  MOVLB  0
0C748:  CALL   491C
0C74C:  MOVLW  F6
0C74E:  MOVWF  FF6
0C750:  MOVLW  0E
0C752:  MOVWF  FF7
0C754:  MOVLW  00
0C756:  MOVWF  FF8
0C758:  MOVLW  09
0C75A:  MOVLB  7
0C75C:  MOVWF  xC2
0C75E:  MOVLB  0
0C760:  CALL   477C
....................          SendDataDisplay(); 
0C764:  CALL   27AC
....................          printf("tiempo.txt=\"%02.0f:%02.0f\"",hEst,mEst); 
0C768:  MOVLW  00
0C76A:  MOVWF  FF6
0C76C:  MOVLW  0F
0C76E:  MOVWF  FF7
0C770:  MOVLW  00
0C772:  MOVWF  FF8
0C774:  MOVLW  0C
0C776:  MOVLB  7
0C778:  MOVWF  xC2
0C77A:  MOVLB  0
0C77C:  CALL   477C
0C780:  MOVLW  41
0C782:  MOVWF  FE9
0C784:  MOVFF  5B9,7C5
0C788:  MOVFF  5B8,7C4
0C78C:  MOVFF  5B7,7C3
0C790:  MOVFF  5B6,7C2
0C794:  MOVLB  7
0C796:  CLRF   xC6
0C798:  MOVLB  0
0C79A:  CALL   491C
0C79E:  MOVLW  3A
0C7A0:  BTFSS  F9E.4
0C7A2:  BRA    C7A0
0C7A4:  MOVWF  FAD
0C7A6:  MOVLW  41
0C7A8:  MOVWF  FE9
0C7AA:  MOVFF  5B5,7C5
0C7AE:  MOVFF  5B4,7C4
0C7B2:  MOVFF  5B3,7C3
0C7B6:  MOVFF  5B2,7C2
0C7BA:  MOVLB  7
0C7BC:  CLRF   xC6
0C7BE:  MOVLB  0
0C7C0:  CALL   491C
0C7C4:  MOVLW  22
0C7C6:  BTFSS  F9E.4
0C7C8:  BRA    C7C6
0C7CA:  MOVWF  FAD
....................          SendDataDisplay(); 
0C7CC:  CALL   27AC
....................          printf("potT.txt=\"Pot. T:%2.0f %%\"",Potencia); 
0C7D0:  MOVLW  1C
0C7D2:  MOVWF  FF6
0C7D4:  MOVLW  0F
0C7D6:  MOVWF  FF7
0C7D8:  MOVLW  00
0C7DA:  MOVWF  FF8
0C7DC:  MOVLW  11
0C7DE:  MOVLB  7
0C7E0:  MOVWF  xC2
0C7E2:  MOVLB  0
0C7E4:  CALL   477C
0C7E8:  MOVLW  01
0C7EA:  MOVWF  FE9
0C7EC:  MOVFF  5DB,7C5
0C7F0:  MOVFF  5DA,7C4
0C7F4:  MOVFF  5D9,7C3
0C7F8:  MOVFF  5D8,7C2
0C7FC:  MOVLB  7
0C7FE:  CLRF   xC6
0C800:  MOVLB  0
0C802:  CALL   491C
0C806:  MOVLW  20
0C808:  BTFSS  F9E.4
0C80A:  BRA    C808
0C80C:  MOVWF  FAD
0C80E:  MOVLW  25
0C810:  BTFSS  F9E.4
0C812:  BRA    C810
0C814:  MOVWF  FAD
0C816:  MOVLW  22
0C818:  BTFSS  F9E.4
0C81A:  BRA    C818
0C81C:  MOVWF  FAD
....................          //printf("potT.txt=\"Pot:%2.0f%% %2.1f %2.4f\"",Potencia,TemperaturaIdeal,Pendiente); 
....................          SendDataDisplay();  
0C81E:  CALL   27AC
....................       }  
....................        
....................       // Si cumplio el tiempo de esterilizacin, Muestre ciclo finalizado y detenga control de temperatura. 
....................       if((mEstp>0)||(hEstp>0)){ 
0C822:  MOVLB  8
0C824:  CLRF   x16
0C826:  CLRF   x15
0C828:  CLRF   x14
0C82A:  CLRF   x13
0C82C:  MOVFF  5A5,81A
0C830:  MOVFF  5A4,819
0C834:  MOVFF  5A3,818
0C838:  MOVFF  5A2,817
0C83C:  MOVLB  0
0C83E:  CALL   1572
0C842:  BC    C868
0C844:  MOVLB  8
0C846:  CLRF   x16
0C848:  CLRF   x15
0C84A:  CLRF   x14
0C84C:  CLRF   x13
0C84E:  MOVFF  5A9,81A
0C852:  MOVFF  5A8,819
0C856:  MOVFF  5A7,818
0C85A:  MOVFF  5A6,817
0C85E:  MOVLB  0
0C860:  CALL   1572
0C864:  BTFSS  FD8.0
0C866:  BRA    CA16
....................          CuentaTiempo();   
0C868:  GOTO   743A
....................          if(flagRampa){ 
0C86C:  MOVLB  5
0C86E:  BTFSS  x8B.5
0C870:  BRA    C932
....................             if((mEst>=mEstp)&&(hEst>=hEstp)&& Finalizo==0){ 
0C872:  MOVFF  5A5,816
0C876:  MOVFF  5A4,815
0C87A:  MOVFF  5A3,814
0C87E:  MOVFF  5A2,813
0C882:  MOVFF  5B5,81A
0C886:  MOVFF  5B4,819
0C88A:  MOVFF  5B3,818
0C88E:  MOVFF  5B2,817
0C892:  MOVLB  0
0C894:  CALL   1572
0C898:  BC    C89C
0C89A:  BNZ   C92E
0C89C:  MOVFF  5A9,816
0C8A0:  MOVFF  5A8,815
0C8A4:  MOVFF  5A7,814
0C8A8:  MOVFF  5A6,813
0C8AC:  MOVFF  5B9,81A
0C8B0:  MOVFF  5B8,819
0C8B4:  MOVFF  5B7,818
0C8B8:  MOVFF  5B6,817
0C8BC:  CALL   1572
0C8C0:  BC    C8C4
0C8C2:  BNZ   C92E
0C8C4:  MOVLB  5
0C8C6:  BTFSS  x8A.4
0C8C8:  BRA    C8CE
0C8CA:  MOVLB  0
0C8CC:  BRA    C92E
....................                flag_calcula=0; 
0C8CE:  BCF    x8B.6
....................                if(Segmento<Segmentos){ 
0C8D0:  MOVF   xA0,W
0C8D2:  SUBWF  xA1,W
0C8D4:  BC    C8EA
....................                   Segmento++; 
0C8D6:  INCF   xA1,F
....................                   hEst=0; 
0C8D8:  CLRF   xB9
0C8DA:  CLRF   xB8
0C8DC:  CLRF   xB7
0C8DE:  CLRF   xB6
....................                   mEst=0; 
0C8E0:  CLRF   xB5
0C8E2:  CLRF   xB4
0C8E4:  CLRF   xB3
0C8E6:  CLRF   xB2
....................                }else{ 
0C8E8:  BRA    C8EC
....................                   Finalizo=1; 
0C8EA:  BSF    x8A.4
....................                } 
....................                for(i=0;i<2;i++){ 
0C8EC:  CLRF   xBF
0C8EE:  MOVF   xBF,W
0C8F0:  SUBLW  01
0C8F2:  BNC   C92C
....................                   Buzzer_on; 
0C8F4:  BSF    F8C.7
0C8F6:  BCF    F95.7
....................                   delay_ms(1000); 
0C8F8:  MOVLW  04
0C8FA:  MOVLB  7
0C8FC:  MOVWF  xBA
0C8FE:  MOVLW  FA
0C900:  MOVWF  xE8
0C902:  MOVLB  0
0C904:  CALL   1110
0C908:  MOVLB  7
0C90A:  DECFSZ xBA,F
0C90C:  BRA    C8FE
....................                   Buzzer_off; 
0C90E:  BCF    F8C.7
0C910:  BCF    F95.7
....................                   delay_ms(1000); 
0C912:  MOVLW  04
0C914:  MOVWF  xBA
0C916:  MOVLW  FA
0C918:  MOVWF  xE8
0C91A:  MOVLB  0
0C91C:  CALL   1110
0C920:  MOVLB  7
0C922:  DECFSZ xBA,F
0C924:  BRA    C916
....................                } 
0C926:  MOVLB  5
0C928:  INCF   xBF,F
0C92A:  BRA    C8EE
0C92C:  MOVLB  0
....................             } 
....................          }else{ 
0C92E:  BRA    CA14
0C930:  MOVLB  5
....................             if((mEst>=mEstp)&&(hEst>=hEstp)&& tiempo_esterilizacion==1){ 
0C932:  MOVFF  5A5,816
0C936:  MOVFF  5A4,815
0C93A:  MOVFF  5A3,814
0C93E:  MOVFF  5A2,813
0C942:  MOVFF  5B5,81A
0C946:  MOVFF  5B4,819
0C94A:  MOVFF  5B3,818
0C94E:  MOVFF  5B2,817
0C952:  MOVLB  0
0C954:  CALL   1572
0C958:  BC    C95C
0C95A:  BNZ   CA14
0C95C:  MOVFF  5A9,816
0C960:  MOVFF  5A8,815
0C964:  MOVFF  5A7,814
0C968:  MOVFF  5A6,813
0C96C:  MOVFF  5B9,81A
0C970:  MOVFF  5B8,819
0C974:  MOVFF  5B7,818
0C978:  MOVFF  5B6,817
0C97C:  CALL   1572
0C980:  BC    C984
0C982:  BNZ   CA14
0C984:  MOVLB  5
0C986:  DECFSZ xC3,W
0C988:  BRA    C98C
0C98A:  BRA    C990
0C98C:  MOVLB  0
0C98E:  BRA    CA14
....................                if(flag_clear==0){ 
0C990:  BTFSC  x8A.5
0C992:  BRA    C9B6
....................                   tiempo_esterilizacion=0; 
0C994:  CLRF   xC3
....................                   Pausa=2; 
0C996:  MOVLW  02
0C998:  MOVWF  xC0
....................                   flag_clear=1; 
0C99A:  BSF    x8A.5
....................                   SSR_off; 
0C99C:  BCF    F8B.2
0C99E:  BCF    F94.2
....................                   SSR2_off; 
0C9A0:  BCF    F8B.1
0C9A2:  BCF    F94.1
....................                   SSR3_off; 
0C9A4:  BCF    F8B.0
0C9A6:  BCF    F94.0
....................                   Controlando=0; 
0C9A8:  CLRF   x95
....................                   Tpulso=0.0; 
0C9AA:  CLRF   xF7
0C9AC:  CLRF   xF6
0C9AE:  CLRF   xF5
0C9B0:  CLRF   xF4
....................                   flag_ganancia=0; 
0C9B2:  CLRF   x92
....................                   Finalizo=1; 
0C9B4:  BSF    x8A.4
....................                } 
....................                printf("status.txt=\"Finalizado\""); 
0C9B6:  MOVLW  38
0C9B8:  MOVWF  FF6
0C9BA:  MOVLW  0F
0C9BC:  MOVWF  FF7
0C9BE:  MOVLW  00
0C9C0:  MOVWF  FF8
0C9C2:  MOVLB  0
0C9C4:  CALL   277A
....................                SendDataDisplay(); 
0C9C8:  CALL   27AC
....................                ApagaSalidas(); 
0C9CC:  CALL   4746
....................                for(i=0;i<2;i++){ 
0C9D0:  MOVLB  5
0C9D2:  CLRF   xBF
0C9D4:  MOVF   xBF,W
0C9D6:  SUBLW  01
0C9D8:  BNC   CA12
....................                   Buzzer_on; 
0C9DA:  BSF    F8C.7
0C9DC:  BCF    F95.7
....................                   delay_ms(1000); 
0C9DE:  MOVLW  04
0C9E0:  MOVLB  7
0C9E2:  MOVWF  xBA
0C9E4:  MOVLW  FA
0C9E6:  MOVWF  xE8
0C9E8:  MOVLB  0
0C9EA:  CALL   1110
0C9EE:  MOVLB  7
0C9F0:  DECFSZ xBA,F
0C9F2:  BRA    C9E4
....................                   Buzzer_off; 
0C9F4:  BCF    F8C.7
0C9F6:  BCF    F95.7
....................                   delay_ms(1000); 
0C9F8:  MOVLW  04
0C9FA:  MOVWF  xBA
0C9FC:  MOVLW  FA
0C9FE:  MOVWF  xE8
0CA00:  MOVLB  0
0CA02:  CALL   1110
0CA06:  MOVLB  7
0CA08:  DECFSZ xBA,F
0CA0A:  BRA    C9FC
....................                } 
0CA0C:  MOVLB  5
0CA0E:  INCF   xBF,F
0CA10:  BRA    C9D4
0CA12:  MOVLB  0
....................             } 
....................          } 
....................       }else{ 
0CA14:  BRA    CA1C
....................          Finalizo=1; 
0CA16:  MOVLB  5
0CA18:  BSF    x8A.4
0CA1A:  MOVLB  0
....................       } 
....................     } 
.................... //_--------------------------------------------------------------------------------------------------------------------------------------------------------        
....................  
.................... //_-------------------------------------------------------------------------------------------------------------------------------------------------------- 
....................       if(Menu==100){ //Menu de Configuracin de Parametros de Control 
0CA1C:  MOVLB  5
0CA1E:  MOVF   xBE,W
0CA20:  SUBLW  64
0CA22:  BTFSS  FD8.2
0CA24:  GOTO   D436
....................       
....................       if(Opcion2>7) 
0CA28:  MOVF   x9E,W
0CA2A:  SUBLW  07
0CA2C:  BC    CA32
....................          Opcion2=1; 
0CA2E:  MOVLW  01
0CA30:  MOVWF  x9E
....................       if(Opcion2<1) 
0CA32:  MOVF   x9E,F
0CA34:  BNZ   CA3A
....................          Opcion2=7; 
0CA36:  MOVLW  07
0CA38:  MOVWF  x9E
....................        
....................       if(Opcion2==1){ 
0CA3A:  DECFSZ x9E,W
0CA3C:  BRA    CBB8
....................          printf("Config.t2c.txt=\"Proporcional\""); 
0CA3E:  MOVLW  50
0CA40:  MOVWF  FF6
0CA42:  MOVLW  0F
0CA44:  MOVWF  FF7
0CA46:  MOVLW  00
0CA48:  MOVWF  FF8
0CA4A:  MOVLB  0
0CA4C:  CALL   277A
....................          SendDataDisplay();       
0CA50:  CALL   27AC
....................          printf("t3c.txt=\"%2.0f\"",Ganancia); 
0CA54:  MOVLW  6E
0CA56:  MOVWF  FF6
0CA58:  MOVLW  0F
0CA5A:  MOVWF  FF7
0CA5C:  MOVLW  00
0CA5E:  MOVWF  FF8
0CA60:  MOVLW  09
0CA62:  MOVLB  7
0CA64:  MOVWF  xC2
0CA66:  MOVLB  0
0CA68:  CALL   477C
0CA6C:  MOVLW  01
0CA6E:  MOVWF  FE9
0CA70:  MOVFF  60B,7C5
0CA74:  MOVFF  60A,7C4
0CA78:  MOVFF  609,7C3
0CA7C:  MOVFF  608,7C2
0CA80:  MOVLB  7
0CA82:  CLRF   xC6
0CA84:  MOVLB  0
0CA86:  CALL   491C
0CA8A:  MOVLW  22
0CA8C:  BTFSS  F9E.4
0CA8E:  BRA    CA8C
0CA90:  MOVWF  FAD
....................          SendDataDisplay(); 
0CA92:  CALL   27AC
....................          if(RX_Buffer[4]==0x0a || UP){//Tecla Arriba Oprimida 
0CA96:  MOVF   2E,W
0CA98:  SUBLW  0A
0CA9A:  BZ    CAA2
0CA9C:  BSF    F93.0
0CA9E:  BTFSC  F81.0
0CAA0:  BRA    CAF2
....................             delay_ms(20); 
0CAA2:  MOVLW  14
0CAA4:  MOVLB  7
0CAA6:  MOVWF  xE8
0CAA8:  MOVLB  0
0CAAA:  CALL   1110
....................             if(RX_Buffer[4]==0x0a || UP){ 
0CAAE:  MOVF   2E,W
0CAB0:  SUBLW  0A
0CAB2:  BZ    CABA
0CAB4:  BSF    F93.0
0CAB6:  BTFSC  F81.0
0CAB8:  BRA    CAF2
....................                Ganancia+=1.0; 
0CABA:  BCF    FD8.1
0CABC:  MOVFF  60B,81A
0CAC0:  MOVFF  60A,819
0CAC4:  MOVFF  609,818
0CAC8:  MOVFF  608,817
0CACC:  MOVLB  8
0CACE:  CLRF   x1E
0CAD0:  CLRF   x1D
0CAD2:  CLRF   x1C
0CAD4:  MOVLW  7F
0CAD6:  MOVWF  x1B
0CAD8:  MOVLB  0
0CADA:  CALL   1296
0CADE:  MOVFF  03,60B
0CAE2:  MOVFF  02,60A
0CAE6:  MOVFF  01,609
0CAEA:  MOVFF  00,608
....................                RX_Buffer[4]=0x00;   
0CAEE:  CLRF   2E
....................                RX_Buffer2[4]=0x00;             
0CAF0:  CLRF   39
....................             } 
....................          } 
....................              
....................          if(RX_Buffer[4]==0x0b || DOWN){//Tecla Abajo Oprimida 
0CAF2:  MOVF   2E,W
0CAF4:  SUBLW  0B
0CAF6:  BZ    CAFE
0CAF8:  BSF    F93.1
0CAFA:  BTFSC  F81.1
0CAFC:  BRA    CB4E
....................             delay_ms(20); 
0CAFE:  MOVLW  14
0CB00:  MOVLB  7
0CB02:  MOVWF  xE8
0CB04:  MOVLB  0
0CB06:  CALL   1110
....................             if(RX_Buffer[4]==0x0b || DOWN){ 
0CB0A:  MOVF   2E,W
0CB0C:  SUBLW  0B
0CB0E:  BZ    CB16
0CB10:  BSF    F93.1
0CB12:  BTFSC  F81.1
0CB14:  BRA    CB4E
....................                Ganancia-=1.0; 
0CB16:  BSF    FD8.1
0CB18:  MOVFF  60B,81A
0CB1C:  MOVFF  60A,819
0CB20:  MOVFF  609,818
0CB24:  MOVFF  608,817
0CB28:  MOVLB  8
0CB2A:  CLRF   x1E
0CB2C:  CLRF   x1D
0CB2E:  CLRF   x1C
0CB30:  MOVLW  7F
0CB32:  MOVWF  x1B
0CB34:  MOVLB  0
0CB36:  CALL   1296
0CB3A:  MOVFF  03,60B
0CB3E:  MOVFF  02,60A
0CB42:  MOVFF  01,609
0CB46:  MOVFF  00,608
....................                RX_Buffer[4]=0x00; 
0CB4A:  CLRF   2E
....................                RX_Buffer2[4]=0x00;             
0CB4C:  CLRF   39
....................             } 
....................          } 
....................           
....................          if(Ganancia>20) 
0CB4E:  MOVLB  8
0CB50:  CLRF   x16
0CB52:  CLRF   x15
0CB54:  MOVLW  20
0CB56:  MOVWF  x14
0CB58:  MOVLW  83
0CB5A:  MOVWF  x13
0CB5C:  MOVFF  60B,81A
0CB60:  MOVFF  60A,819
0CB64:  MOVFF  609,818
0CB68:  MOVFF  608,817
0CB6C:  MOVLB  0
0CB6E:  CALL   1572
0CB72:  BNC   CB80
....................             Ganancia=1; 
0CB74:  MOVLB  6
0CB76:  CLRF   x0B
0CB78:  CLRF   x0A
0CB7A:  CLRF   x09
0CB7C:  MOVLW  7F
0CB7E:  MOVWF  x08
....................          if(Ganancia<1) 
0CB80:  MOVFF  60B,816
0CB84:  MOVFF  60A,815
0CB88:  MOVFF  609,814
0CB8C:  MOVFF  608,813
0CB90:  MOVLB  8
0CB92:  CLRF   x1A
0CB94:  CLRF   x19
0CB96:  CLRF   x18
0CB98:  MOVLW  7F
0CB9A:  MOVWF  x17
0CB9C:  MOVLB  0
0CB9E:  CALL   1572
0CBA2:  BNC   CBB4
....................             Ganancia=20; 
0CBA4:  MOVLB  6
0CBA6:  CLRF   x0B
0CBA8:  CLRF   x0A
0CBAA:  MOVLW  20
0CBAC:  MOVWF  x09
0CBAE:  MOVLW  83
0CBB0:  MOVWF  x08
0CBB2:  MOVLB  0
....................       }else if(Opcion2==2){ 
0CBB4:  BRA    D0EE
0CBB6:  MOVLB  5
0CBB8:  MOVF   x9E,W
0CBBA:  SUBLW  02
0CBBC:  BNZ   CC7A
....................          printf("Config.t2c.txt=\"Derivativo\""); 
0CBBE:  MOVLW  7E
0CBC0:  MOVWF  FF6
0CBC2:  MOVLW  0F
0CBC4:  MOVWF  FF7
0CBC6:  MOVLW  00
0CBC8:  MOVWF  FF8
0CBCA:  MOVLB  0
0CBCC:  CALL   277A
....................          SendDataDisplay();       
0CBD0:  CALL   27AC
....................          printf("t3c.txt=\"%u\"",Derivativo); 
0CBD4:  MOVLW  9A
0CBD6:  MOVWF  FF6
0CBD8:  MOVLW  0F
0CBDA:  MOVWF  FF7
0CBDC:  MOVLW  00
0CBDE:  MOVWF  FF8
0CBE0:  MOVLW  09
0CBE2:  MOVLB  7
0CBE4:  MOVWF  xC2
0CBE6:  MOVLB  0
0CBE8:  CALL   477C
0CBEC:  MOVFF  597,7BB
0CBF0:  MOVLW  1B
0CBF2:  MOVLB  7
0CBF4:  MOVWF  xBC
0CBF6:  MOVLB  0
0CBF8:  CALL   47DA
0CBFC:  MOVLW  22
0CBFE:  BTFSS  F9E.4
0CC00:  BRA    CBFE
0CC02:  MOVWF  FAD
....................          SendDataDisplay(); 
0CC04:  CALL   27AC
....................          if(RX_Buffer[4]==0x0a || UP){//Tecla Arriba Oprimida 
0CC08:  MOVF   2E,W
0CC0A:  SUBLW  0A
0CC0C:  BZ    CC14
0CC0E:  BSF    F93.0
0CC10:  BTFSC  F81.0
0CC12:  BRA    CC36
....................             delay_ms(20); 
0CC14:  MOVLW  14
0CC16:  MOVLB  7
0CC18:  MOVWF  xE8
0CC1A:  MOVLB  0
0CC1C:  CALL   1110
....................             if(RX_Buffer[4]==0x0a || UP){ 
0CC20:  MOVF   2E,W
0CC22:  SUBLW  0A
0CC24:  BZ    CC2C
0CC26:  BSF    F93.0
0CC28:  BTFSC  F81.0
0CC2A:  BRA    CC36
....................                Derivativo++; 
0CC2C:  MOVLB  5
0CC2E:  INCF   x97,F
....................                RX_Buffer[4]=0x00;   
0CC30:  CLRF   2E
....................                RX_Buffer2[4]=0x00;                            
0CC32:  CLRF   39
0CC34:  MOVLB  0
....................             } 
....................          } 
....................              
....................          if(RX_Buffer[4]==0x0b || DOWN){//Tecla Abajo Oprimida 
0CC36:  MOVF   2E,W
0CC38:  SUBLW  0B
0CC3A:  BZ    CC42
0CC3C:  BSF    F93.1
0CC3E:  BTFSC  F81.1
0CC40:  BRA    CC64
....................             delay_ms(20); 
0CC42:  MOVLW  14
0CC44:  MOVLB  7
0CC46:  MOVWF  xE8
0CC48:  MOVLB  0
0CC4A:  CALL   1110
....................             if(RX_Buffer[4]==0x0b || DOWN){ 
0CC4E:  MOVF   2E,W
0CC50:  SUBLW  0B
0CC52:  BZ    CC5A
0CC54:  BSF    F93.1
0CC56:  BTFSC  F81.1
0CC58:  BRA    CC64
....................                Derivativo--; 
0CC5A:  MOVLB  5
0CC5C:  DECF   x97,F
....................                RX_Buffer[4]=0x00; 
0CC5E:  CLRF   2E
....................                RX_Buffer2[4]=0x00;                            
0CC60:  CLRF   39
0CC62:  MOVLB  0
....................             } 
....................          } 
....................           
....................          if(Derivativo>80) 
0CC64:  MOVLB  5
0CC66:  MOVF   x97,W
0CC68:  SUBLW  50
0CC6A:  BC    CC70
....................             Derivativo=1; 
0CC6C:  MOVLW  01
0CC6E:  MOVWF  x97
....................          if(Derivativo<1) 
0CC70:  MOVF   x97,F
0CC72:  BNZ   CC78
....................             Derivativo=80; 
0CC74:  MOVLW  50
0CC76:  MOVWF  x97
....................       }else if(Opcion2==3){ 
0CC78:  BRA    D0EC
0CC7A:  MOVF   x9E,W
0CC7C:  SUBLW  03
0CC7E:  BNZ   CD3C
....................          printf("Config.t2c.txt=\"Integral\""); 
0CC80:  MOVLW  A8
0CC82:  MOVWF  FF6
0CC84:  MOVLW  0F
0CC86:  MOVWF  FF7
0CC88:  MOVLW  00
0CC8A:  MOVWF  FF8
0CC8C:  MOVLB  0
0CC8E:  CALL   277A
....................          SendDataDisplay();       
0CC92:  CALL   27AC
....................          printf("t3c.txt=\"%u\"",Integral); 
0CC96:  MOVLW  C2
0CC98:  MOVWF  FF6
0CC9A:  MOVLW  0F
0CC9C:  MOVWF  FF7
0CC9E:  MOVLW  00
0CCA0:  MOVWF  FF8
0CCA2:  MOVLW  09
0CCA4:  MOVLB  7
0CCA6:  MOVWF  xC2
0CCA8:  MOVLB  0
0CCAA:  CALL   477C
0CCAE:  MOVFF  598,7BB
0CCB2:  MOVLW  1B
0CCB4:  MOVLB  7
0CCB6:  MOVWF  xBC
0CCB8:  MOVLB  0
0CCBA:  CALL   47DA
0CCBE:  MOVLW  22
0CCC0:  BTFSS  F9E.4
0CCC2:  BRA    CCC0
0CCC4:  MOVWF  FAD
....................          SendDataDisplay(); 
0CCC6:  CALL   27AC
....................          if(RX_Buffer[4]==0x0a || UP){//Tecla Arriba Oprimida 
0CCCA:  MOVF   2E,W
0CCCC:  SUBLW  0A
0CCCE:  BZ    CCD6
0CCD0:  BSF    F93.0
0CCD2:  BTFSC  F81.0
0CCD4:  BRA    CCF8
....................             delay_ms(20); 
0CCD6:  MOVLW  14
0CCD8:  MOVLB  7
0CCDA:  MOVWF  xE8
0CCDC:  MOVLB  0
0CCDE:  CALL   1110
....................             if(RX_Buffer[4]==0x0a || UP){ 
0CCE2:  MOVF   2E,W
0CCE4:  SUBLW  0A
0CCE6:  BZ    CCEE
0CCE8:  BSF    F93.0
0CCEA:  BTFSC  F81.0
0CCEC:  BRA    CCF8
....................                Integral++; 
0CCEE:  MOVLB  5
0CCF0:  INCF   x98,F
....................                RX_Buffer[4]=0x00;   
0CCF2:  CLRF   2E
....................                RX_Buffer2[4]=0x00;             
0CCF4:  CLRF   39
0CCF6:  MOVLB  0
....................             } 
....................          } 
....................              
....................          if(RX_Buffer[4]==0x0b || DOWN){//Tecla Abajo Oprimida 
0CCF8:  MOVF   2E,W
0CCFA:  SUBLW  0B
0CCFC:  BZ    CD04
0CCFE:  BSF    F93.1
0CD00:  BTFSC  F81.1
0CD02:  BRA    CD26
....................             delay_ms(20); 
0CD04:  MOVLW  14
0CD06:  MOVLB  7
0CD08:  MOVWF  xE8
0CD0A:  MOVLB  0
0CD0C:  CALL   1110
....................             if(RX_Buffer[4]==0x0b || DOWN){ 
0CD10:  MOVF   2E,W
0CD12:  SUBLW  0B
0CD14:  BZ    CD1C
0CD16:  BSF    F93.1
0CD18:  BTFSC  F81.1
0CD1A:  BRA    CD26
....................                Integral--; 
0CD1C:  MOVLB  5
0CD1E:  DECF   x98,F
....................                RX_Buffer[4]=0x00; 
0CD20:  CLRF   2E
....................                RX_Buffer2[4]=0x00;                            
0CD22:  CLRF   39
0CD24:  MOVLB  0
....................             } 
....................          } 
....................           
....................          if(Integral>4) 
0CD26:  MOVLB  5
0CD28:  MOVF   x98,W
0CD2A:  SUBLW  04
0CD2C:  BC    CD32
....................             Integral=1; 
0CD2E:  MOVLW  01
0CD30:  MOVWF  x98
....................          if(Integral<1) 
0CD32:  MOVF   x98,F
0CD34:  BNZ   CD3A
....................             Integral=4; 
0CD36:  MOVLW  04
0CD38:  MOVWF  x98
....................       }else if(Opcion2==4){ 
0CD3A:  BRA    D0EC
0CD3C:  MOVF   x9E,W
0CD3E:  SUBLW  04
0CD40:  BTFSS  FD8.2
0CD42:  BRA    CEC2
....................          printf("Config.t2c.txt=\"Tciclo\""); 
0CD44:  MOVLW  D0
0CD46:  MOVWF  FF6
0CD48:  MOVLW  0F
0CD4A:  MOVWF  FF7
0CD4C:  MOVLW  00
0CD4E:  MOVWF  FF8
0CD50:  MOVLB  0
0CD52:  CALL   277A
....................          SendDataDisplay();       
0CD56:  CALL   27AC
....................          printf("t3c.txt=\"%2.0f\"",Tciclo); 
0CD5A:  MOVLW  E8
0CD5C:  MOVWF  FF6
0CD5E:  MOVLW  0F
0CD60:  MOVWF  FF7
0CD62:  MOVLW  00
0CD64:  MOVWF  FF8
0CD66:  MOVLW  09
0CD68:  MOVLB  7
0CD6A:  MOVWF  xC2
0CD6C:  MOVLB  0
0CD6E:  CALL   477C
0CD72:  MOVLW  01
0CD74:  MOVWF  FE9
0CD76:  MOVFF  5F3,7C5
0CD7A:  MOVFF  5F2,7C4
0CD7E:  MOVFF  5F1,7C3
0CD82:  MOVFF  5F0,7C2
0CD86:  MOVLB  7
0CD88:  CLRF   xC6
0CD8A:  MOVLB  0
0CD8C:  CALL   491C
0CD90:  MOVLW  22
0CD92:  BTFSS  F9E.4
0CD94:  BRA    CD92
0CD96:  MOVWF  FAD
....................          SendDataDisplay(); 
0CD98:  CALL   27AC
....................          if(RX_Buffer[4]==0x0a || UP){//Tecla Arriba Oprimida 
0CD9C:  MOVF   2E,W
0CD9E:  SUBLW  0A
0CDA0:  BZ    CDA8
0CDA2:  BSF    F93.0
0CDA4:  BTFSC  F81.0
0CDA6:  BRA    CDF8
....................             delay_ms(20); 
0CDA8:  MOVLW  14
0CDAA:  MOVLB  7
0CDAC:  MOVWF  xE8
0CDAE:  MOVLB  0
0CDB0:  CALL   1110
....................             if(RX_Buffer[4]==0x0a || UP){ 
0CDB4:  MOVF   2E,W
0CDB6:  SUBLW  0A
0CDB8:  BZ    CDC0
0CDBA:  BSF    F93.0
0CDBC:  BTFSC  F81.0
0CDBE:  BRA    CDF8
....................                Tciclo+=1.0; 
0CDC0:  BCF    FD8.1
0CDC2:  MOVFF  5F3,81A
0CDC6:  MOVFF  5F2,819
0CDCA:  MOVFF  5F1,818
0CDCE:  MOVFF  5F0,817
0CDD2:  MOVLB  8
0CDD4:  CLRF   x1E
0CDD6:  CLRF   x1D
0CDD8:  CLRF   x1C
0CDDA:  MOVLW  7F
0CDDC:  MOVWF  x1B
0CDDE:  MOVLB  0
0CDE0:  CALL   1296
0CDE4:  MOVFF  03,5F3
0CDE8:  MOVFF  02,5F2
0CDEC:  MOVFF  01,5F1
0CDF0:  MOVFF  00,5F0
....................                RX_Buffer[4]=0x00;   
0CDF4:  CLRF   2E
....................                RX_Buffer2[4]=0x00;             
0CDF6:  CLRF   39
....................             } 
....................          } 
....................              
....................          if(RX_Buffer[4]==0x0b || DOWN){//Tecla Abajo Oprimida 
0CDF8:  MOVF   2E,W
0CDFA:  SUBLW  0B
0CDFC:  BZ    CE04
0CDFE:  BSF    F93.1
0CE00:  BTFSC  F81.1
0CE02:  BRA    CE54
....................             delay_ms(20); 
0CE04:  MOVLW  14
0CE06:  MOVLB  7
0CE08:  MOVWF  xE8
0CE0A:  MOVLB  0
0CE0C:  CALL   1110
....................             if(RX_Buffer[4]==0x0b || DOWN){ 
0CE10:  MOVF   2E,W
0CE12:  SUBLW  0B
0CE14:  BZ    CE1C
0CE16:  BSF    F93.1
0CE18:  BTFSC  F81.1
0CE1A:  BRA    CE54
....................                Tciclo-=1.0; 
0CE1C:  BSF    FD8.1
0CE1E:  MOVFF  5F3,81A
0CE22:  MOVFF  5F2,819
0CE26:  MOVFF  5F1,818
0CE2A:  MOVFF  5F0,817
0CE2E:  MOVLB  8
0CE30:  CLRF   x1E
0CE32:  CLRF   x1D
0CE34:  CLRF   x1C
0CE36:  MOVLW  7F
0CE38:  MOVWF  x1B
0CE3A:  MOVLB  0
0CE3C:  CALL   1296
0CE40:  MOVFF  03,5F3
0CE44:  MOVFF  02,5F2
0CE48:  MOVFF  01,5F1
0CE4C:  MOVFF  00,5F0
....................                RX_Buffer[4]=0x00; 
0CE50:  CLRF   2E
....................                RX_Buffer2[4]=0x00;             
0CE52:  CLRF   39
....................             } 
....................          } 
....................           
....................          if(Tciclo>20) 
0CE54:  MOVLB  8
0CE56:  CLRF   x16
0CE58:  CLRF   x15
0CE5A:  MOVLW  20
0CE5C:  MOVWF  x14
0CE5E:  MOVLW  83
0CE60:  MOVWF  x13
0CE62:  MOVFF  5F3,81A
0CE66:  MOVFF  5F2,819
0CE6A:  MOVFF  5F1,818
0CE6E:  MOVFF  5F0,817
0CE72:  MOVLB  0
0CE74:  CALL   1572
0CE78:  BNC   CE88
....................             Tciclo=5; 
0CE7A:  MOVLB  5
0CE7C:  CLRF   xF3
0CE7E:  CLRF   xF2
0CE80:  MOVLW  20
0CE82:  MOVWF  xF1
0CE84:  MOVLW  81
0CE86:  MOVWF  xF0
....................          if(Tciclo<5) 
0CE88:  MOVFF  5F3,816
0CE8C:  MOVFF  5F2,815
0CE90:  MOVFF  5F1,814
0CE94:  MOVFF  5F0,813
0CE98:  MOVLB  8
0CE9A:  CLRF   x1A
0CE9C:  CLRF   x19
0CE9E:  MOVLW  20
0CEA0:  MOVWF  x18
0CEA2:  MOVLW  81
0CEA4:  MOVWF  x17
0CEA6:  MOVLB  0
0CEA8:  CALL   1572
0CEAC:  BNC   CEBE
....................             Tciclo=20; 
0CEAE:  MOVLB  5
0CEB0:  CLRF   xF3
0CEB2:  CLRF   xF2
0CEB4:  MOVLW  20
0CEB6:  MOVWF  xF1
0CEB8:  MOVLW  83
0CEBA:  MOVWF  xF0
0CEBC:  MOVLB  0
....................       }else if(Opcion2==5){ 
0CEBE:  BRA    D0EE
0CEC0:  MOVLB  5
0CEC2:  MOVF   x9E,W
0CEC4:  SUBLW  05
0CEC6:  BNZ   CF7C
....................          printf("Config.t2c.txt=\"Ajuste +\""); 
0CEC8:  MOVLW  F8
0CECA:  MOVWF  FF6
0CECC:  MOVLW  0F
0CECE:  MOVWF  FF7
0CED0:  MOVLW  00
0CED2:  MOVWF  FF8
0CED4:  MOVLB  0
0CED6:  CALL   277A
....................          SendDataDisplay();       
0CEDA:  CALL   27AC
....................          printf("t3c.txt=\"%u\"",Ajuste); 
0CEDE:  MOVLW  12
0CEE0:  MOVWF  FF6
0CEE2:  MOVLW  10
0CEE4:  MOVWF  FF7
0CEE6:  MOVLW  00
0CEE8:  MOVWF  FF8
0CEEA:  MOVLW  09
0CEEC:  MOVLB  7
0CEEE:  MOVWF  xC2
0CEF0:  MOVLB  0
0CEF2:  CALL   477C
0CEF6:  MOVFF  58E,7BB
0CEFA:  MOVLW  1B
0CEFC:  MOVLB  7
0CEFE:  MOVWF  xBC
0CF00:  MOVLB  0
0CF02:  CALL   47DA
0CF06:  MOVLW  22
0CF08:  BTFSS  F9E.4
0CF0A:  BRA    CF08
0CF0C:  MOVWF  FAD
....................          SendDataDisplay(); 
0CF0E:  CALL   27AC
....................          if(RX_Buffer[4]==0x0a || UP){//Tecla Arriba Oprimida 
0CF12:  MOVF   2E,W
0CF14:  SUBLW  0A
0CF16:  BZ    CF1E
0CF18:  BSF    F93.0
0CF1A:  BTFSC  F81.0
0CF1C:  BRA    CF46
....................             delay_ms(20); 
0CF1E:  MOVLW  14
0CF20:  MOVLB  7
0CF22:  MOVWF  xE8
0CF24:  MOVLB  0
0CF26:  CALL   1110
....................             if(RX_Buffer[4]==0x0a || UP){ 
0CF2A:  MOVF   2E,W
0CF2C:  SUBLW  0A
0CF2E:  BZ    CF36
0CF30:  BSF    F93.0
0CF32:  BTFSC  F81.0
0CF34:  BRA    CF46
....................                if(Ajuste<40) 
0CF36:  MOVLB  5
0CF38:  MOVF   x8E,W
0CF3A:  SUBLW  27
0CF3C:  BNC   CF40
....................                   Ajuste++; 
0CF3E:  INCF   x8E,F
....................                RX_Buffer[4]=0x00;   
0CF40:  CLRF   2E
....................                RX_Buffer2[4]=0x00;             
0CF42:  CLRF   39
0CF44:  MOVLB  0
....................             } 
....................          } 
....................              
....................          if(RX_Buffer[4]==0x0b || DOWN){//Tecla Abajo Oprimida 
0CF46:  MOVF   2E,W
0CF48:  SUBLW  0B
0CF4A:  BZ    CF52
0CF4C:  BSF    F93.1
0CF4E:  BTFSC  F81.1
0CF50:  BRA    CF78
....................             delay_ms(20); 
0CF52:  MOVLW  14
0CF54:  MOVLB  7
0CF56:  MOVWF  xE8
0CF58:  MOVLB  0
0CF5A:  CALL   1110
....................             if(RX_Buffer[4]==0x0b || DOWN){ 
0CF5E:  MOVF   2E,W
0CF60:  SUBLW  0B
0CF62:  BZ    CF6A
0CF64:  BSF    F93.1
0CF66:  BTFSC  F81.1
0CF68:  BRA    CF78
....................                if(Ajuste>0) 
0CF6A:  MOVLB  5
0CF6C:  MOVF   x8E,F
0CF6E:  BZ    CF72
....................                   Ajuste--; 
0CF70:  DECF   x8E,F
....................                RX_Buffer[4]=0x00; 
0CF72:  CLRF   2E
....................                RX_Buffer2[4]=0x00;             
0CF74:  CLRF   39
0CF76:  MOVLB  0
....................             } 
....................          } 
....................       }else if(Opcion2==6){ 
0CF78:  BRA    D0EE
0CF7A:  MOVLB  5
0CF7C:  MOVF   x9E,W
0CF7E:  SUBLW  06
0CF80:  BNZ   D036
....................          printf("Config.t2c.txt=\"Ajuste -\""); 
0CF82:  MOVLW  20
0CF84:  MOVWF  FF6
0CF86:  MOVLW  10
0CF88:  MOVWF  FF7
0CF8A:  MOVLW  00
0CF8C:  MOVWF  FF8
0CF8E:  MOVLB  0
0CF90:  CALL   277A
....................          SendDataDisplay();       
0CF94:  CALL   27AC
....................          printf("t3c.txt=\"%u\"",Ajusten); 
0CF98:  MOVLW  3A
0CF9A:  MOVWF  FF6
0CF9C:  MOVLW  10
0CF9E:  MOVWF  FF7
0CFA0:  MOVLW  00
0CFA2:  MOVWF  FF8
0CFA4:  MOVLW  09
0CFA6:  MOVLB  7
0CFA8:  MOVWF  xC2
0CFAA:  MOVLB  0
0CFAC:  CALL   477C
0CFB0:  MOVFF  58F,7BB
0CFB4:  MOVLW  1B
0CFB6:  MOVLB  7
0CFB8:  MOVWF  xBC
0CFBA:  MOVLB  0
0CFBC:  CALL   47DA
0CFC0:  MOVLW  22
0CFC2:  BTFSS  F9E.4
0CFC4:  BRA    CFC2
0CFC6:  MOVWF  FAD
....................          SendDataDisplay(); 
0CFC8:  CALL   27AC
....................          if(RX_Buffer[4]==0x0a || UP){//Tecla Arriba Oprimida 
0CFCC:  MOVF   2E,W
0CFCE:  SUBLW  0A
0CFD0:  BZ    CFD8
0CFD2:  BSF    F93.0
0CFD4:  BTFSC  F81.0
0CFD6:  BRA    D000
....................             delay_ms(20); 
0CFD8:  MOVLW  14
0CFDA:  MOVLB  7
0CFDC:  MOVWF  xE8
0CFDE:  MOVLB  0
0CFE0:  CALL   1110
....................             if(RX_Buffer[4]==0x0a || UP){ 
0CFE4:  MOVF   2E,W
0CFE6:  SUBLW  0A
0CFE8:  BZ    CFF0
0CFEA:  BSF    F93.0
0CFEC:  BTFSC  F81.0
0CFEE:  BRA    D000
....................                if(Ajusten<40) 
0CFF0:  MOVLB  5
0CFF2:  MOVF   x8F,W
0CFF4:  SUBLW  27
0CFF6:  BNC   CFFA
....................                   Ajusten++; 
0CFF8:  INCF   x8F,F
....................                RX_Buffer[4]=0x00;   
0CFFA:  CLRF   2E
....................                RX_Buffer2[4]=0x00;             
0CFFC:  CLRF   39
0CFFE:  MOVLB  0
....................             }          
....................          } 
....................              
....................          if(RX_Buffer[4]==0x0b || DOWN){//Tecla Abajo Oprimida 
0D000:  MOVF   2E,W
0D002:  SUBLW  0B
0D004:  BZ    D00C
0D006:  BSF    F93.1
0D008:  BTFSC  F81.1
0D00A:  BRA    D032
....................             delay_ms(20); 
0D00C:  MOVLW  14
0D00E:  MOVLB  7
0D010:  MOVWF  xE8
0D012:  MOVLB  0
0D014:  CALL   1110
....................             if(RX_Buffer[4]==0x0b || DOWN){ 
0D018:  MOVF   2E,W
0D01A:  SUBLW  0B
0D01C:  BZ    D024
0D01E:  BSF    F93.1
0D020:  BTFSC  F81.1
0D022:  BRA    D032
....................                if(Ajusten>0) 
0D024:  MOVLB  5
0D026:  MOVF   x8F,F
0D028:  BZ    D02C
....................                   Ajusten--; 
0D02A:  DECF   x8F,F
....................                RX_Buffer[4]=0x00; 
0D02C:  CLRF   2E
....................                RX_Buffer2[4]=0x00;             
0D02E:  CLRF   39
0D030:  MOVLB  0
....................             } 
....................          } 
....................       }else if(Opcion2==7){ 
0D032:  BRA    D0EE
0D034:  MOVLB  5
0D036:  MOVF   x9E,W
0D038:  SUBLW  07
0D03A:  BNZ   D0EC
....................          printf("Config.t2c.txt=\"Media\""); 
0D03C:  MOVLW  48
0D03E:  MOVWF  FF6
0D040:  MOVLW  10
0D042:  MOVWF  FF7
0D044:  MOVLW  00
0D046:  MOVWF  FF8
0D048:  MOVLB  0
0D04A:  CALL   277A
....................          SendDataDisplay();       
0D04E:  CALL   27AC
....................          printf("t3c.txt=\"%u\"",MediaMovil); 
0D052:  MOVLW  60
0D054:  MOVWF  FF6
0D056:  MOVLW  10
0D058:  MOVWF  FF7
0D05A:  MOVLW  00
0D05C:  MOVWF  FF8
0D05E:  MOVLW  09
0D060:  MOVLB  7
0D062:  MOVWF  xC2
0D064:  MOVLB  0
0D066:  CALL   477C
0D06A:  MOVFF  590,7BB
0D06E:  MOVLW  1B
0D070:  MOVLB  7
0D072:  MOVWF  xBC
0D074:  MOVLB  0
0D076:  CALL   47DA
0D07A:  MOVLW  22
0D07C:  BTFSS  F9E.4
0D07E:  BRA    D07C
0D080:  MOVWF  FAD
....................          SendDataDisplay(); 
0D082:  CALL   27AC
....................          if(RX_Buffer[4]==0x0a || UP){//Tecla Arriba Oprimida 
0D086:  MOVF   2E,W
0D088:  SUBLW  0A
0D08A:  BZ    D092
0D08C:  BSF    F93.0
0D08E:  BTFSC  F81.0
0D090:  BRA    D0BA
....................             delay_ms(20); 
0D092:  MOVLW  14
0D094:  MOVLB  7
0D096:  MOVWF  xE8
0D098:  MOVLB  0
0D09A:  CALL   1110
....................             if(RX_Buffer[4]==0x0a || UP){ 
0D09E:  MOVF   2E,W
0D0A0:  SUBLW  0A
0D0A2:  BZ    D0AA
0D0A4:  BSF    F93.0
0D0A6:  BTFSC  F81.0
0D0A8:  BRA    D0BA
....................                if(MediaMovil<80) 
0D0AA:  MOVLB  5
0D0AC:  MOVF   x90,W
0D0AE:  SUBLW  4F
0D0B0:  BNC   D0B4
....................                   MediaMovil++; 
0D0B2:  INCF   x90,F
....................                RX_Buffer[4]=0x00;   
0D0B4:  CLRF   2E
....................                RX_Buffer2[4]=0x00;             
0D0B6:  CLRF   39
0D0B8:  MOVLB  0
....................             } 
....................          } 
....................              
....................          if(RX_Buffer[4]==0x0b || DOWN){//Tecla Abajo Oprimida 
0D0BA:  MOVF   2E,W
0D0BC:  SUBLW  0B
0D0BE:  BZ    D0C6
0D0C0:  BSF    F93.1
0D0C2:  BTFSC  F81.1
0D0C4:  BRA    D0EE
....................             delay_ms(20); 
0D0C6:  MOVLW  14
0D0C8:  MOVLB  7
0D0CA:  MOVWF  xE8
0D0CC:  MOVLB  0
0D0CE:  CALL   1110
....................             if(RX_Buffer[4]==0x0b || DOWN){ 
0D0D2:  MOVF   2E,W
0D0D4:  SUBLW  0B
0D0D6:  BZ    D0DE
0D0D8:  BSF    F93.1
0D0DA:  BTFSC  F81.1
0D0DC:  BRA    D0EE
....................                if(MediaMovil>10) 
0D0DE:  MOVLB  5
0D0E0:  MOVF   x90,W
0D0E2:  SUBLW  0A
0D0E4:  BC    D0E8
....................                   MediaMovil--; 
0D0E6:  DECF   x90,F
....................                RX_Buffer[4]=0x00; 
0D0E8:  CLRF   2E
....................                RX_Buffer2[4]=0x00;             
0D0EA:  CLRF   39
0D0EC:  MOVLB  0
....................             }             
....................          } 
....................       } 
....................        
....................       if(RX_Buffer[4]==0x0c || LEFT){//Tecla Izquierda Oprimida 
0D0EE:  MOVF   2E,W
0D0F0:  SUBLW  0C
0D0F2:  BZ    D0FA
0D0F4:  BSF    F93.3
0D0F6:  BTFSC  F81.3
0D0F8:  BRA    D11C
....................          delay_ms(20); 
0D0FA:  MOVLW  14
0D0FC:  MOVLB  7
0D0FE:  MOVWF  xE8
0D100:  MOVLB  0
0D102:  CALL   1110
....................          if(RX_Buffer[4]==0x0c || LEFT){ 
0D106:  MOVF   2E,W
0D108:  SUBLW  0C
0D10A:  BZ    D112
0D10C:  BSF    F93.3
0D10E:  BTFSC  F81.3
0D110:  BRA    D11C
....................             Opcion2++; 
0D112:  MOVLB  5
0D114:  INCF   x9E,F
....................             RX_Buffer[4]=0x00;   
0D116:  CLRF   2E
....................             RX_Buffer2[4]=0x00;             
0D118:  CLRF   39
0D11A:  MOVLB  0
....................          } 
....................       } 
....................           
....................       if(RX_Buffer[4]==0x0d || RIGHT){//Tecla Derecha Oprimida 
0D11C:  MOVF   2E,W
0D11E:  SUBLW  0D
0D120:  BZ    D128
0D122:  BSF    F93.2
0D124:  BTFSC  F81.2
0D126:  BRA    D14A
....................          delay_ms(20); 
0D128:  MOVLW  14
0D12A:  MOVLB  7
0D12C:  MOVWF  xE8
0D12E:  MOVLB  0
0D130:  CALL   1110
....................          if(RX_Buffer[4]==0x0d || RIGHT){ 
0D134:  MOVF   2E,W
0D136:  SUBLW  0D
0D138:  BZ    D140
0D13A:  BSF    F93.2
0D13C:  BTFSC  F81.2
0D13E:  BRA    D14A
....................             Opcion2--; 
0D140:  MOVLB  5
0D142:  DECF   x9E,F
....................             RX_Buffer[4]=0x00; 
0D144:  CLRF   2E
....................             RX_Buffer2[4]=0x00;             
0D146:  CLRF   39
0D148:  MOVLB  0
....................          } 
....................       } 
....................        
....................       if(RX_Buffer[4]==0x11 || (RIGHT && LEFT)){//Tecla Regresar 
0D14A:  MOVF   2E,W
0D14C:  SUBLW  11
0D14E:  BZ    D15C
0D150:  BSF    F93.2
0D152:  BTFSC  F81.2
0D154:  BRA    D380
0D156:  BSF    F93.3
0D158:  BTFSC  F81.3
0D15A:  BRA    D380
....................          delay_ms(20); 
0D15C:  MOVLW  14
0D15E:  MOVLB  7
0D160:  MOVWF  xE8
0D162:  MOVLB  0
0D164:  CALL   1110
....................          if(RX_Buffer[4]==0x11 || (RIGHT && LEFT)){ 
0D168:  MOVF   2E,W
0D16A:  SUBLW  11
0D16C:  BZ    D17A
0D16E:  BSF    F93.2
0D170:  BTFSC  F81.2
0D172:  BRA    D380
0D174:  BSF    F93.3
0D176:  BTFSC  F81.3
0D178:  BRA    D380
....................             if(!GuardaEEPROM){ 
0D17A:  MOVLB  5
0D17C:  BTFSC  x89.2
0D17E:  BRA    D36A
....................                write_eeprom(32,(int8)Integral); 
0D180:  CLRF   FAA
0D182:  MOVLW  20
0D184:  MOVWF  FA9
0D186:  MOVFF  598,FA8
0D18A:  BCF    FA6.6
0D18C:  BCF    FA6.7
0D18E:  BSF    FA6.2
0D190:  MOVF   FF2,W
0D192:  MOVWF  00
0D194:  BCF    FF2.6
0D196:  BCF    FF2.7
0D198:  MOVLB  F
0D19A:  MOVLW  55
0D19C:  MOVWF  FA7
0D19E:  MOVLW  AA
0D1A0:  MOVWF  FA7
0D1A2:  BSF    FA6.1
0D1A4:  BTFSC  FA6.1
0D1A6:  BRA    D1A4
0D1A8:  BCF    FA6.2
0D1AA:  MOVF   00,W
0D1AC:  IORWF  FF2,F
....................                delay_ms(10); 
0D1AE:  MOVLW  0A
0D1B0:  MOVLB  7
0D1B2:  MOVWF  xE8
0D1B4:  MOVLB  0
0D1B6:  CALL   1110
....................                write_eeprom(31,(int8)Derivativo); 
0D1BA:  CLRF   FAA
0D1BC:  MOVLW  1F
0D1BE:  MOVWF  FA9
0D1C0:  MOVFF  597,FA8
0D1C4:  BCF    FA6.6
0D1C6:  BCF    FA6.7
0D1C8:  BSF    FA6.2
0D1CA:  MOVF   FF2,W
0D1CC:  MOVWF  00
0D1CE:  BCF    FF2.6
0D1D0:  BCF    FF2.7
0D1D2:  MOVLB  F
0D1D4:  MOVLW  55
0D1D6:  MOVWF  FA7
0D1D8:  MOVLW  AA
0D1DA:  MOVWF  FA7
0D1DC:  BSF    FA6.1
0D1DE:  BTFSC  FA6.1
0D1E0:  BRA    D1DE
0D1E2:  BCF    FA6.2
0D1E4:  MOVF   00,W
0D1E6:  IORWF  FF2,F
....................                delay_ms(10); 
0D1E8:  MOVLW  0A
0D1EA:  MOVLB  7
0D1EC:  MOVWF  xE8
0D1EE:  MOVLB  0
0D1F0:  CALL   1110
....................                write_eeprom(30,(int8)Ganancia); 
0D1F4:  MOVFF  60B,816
0D1F8:  MOVFF  60A,815
0D1FC:  MOVFF  609,814
0D200:  MOVFF  608,813
0D204:  CALL   2CD2
0D208:  MOVFF  01,7BA
0D20C:  CLRF   FAA
0D20E:  MOVLW  1E
0D210:  MOVWF  FA9
0D212:  MOVFF  7BA,FA8
0D216:  BCF    FA6.6
0D218:  BCF    FA6.7
0D21A:  BSF    FA6.2
0D21C:  MOVF   FF2,W
0D21E:  MOVWF  00
0D220:  BCF    FF2.6
0D222:  BCF    FF2.7
0D224:  MOVLB  F
0D226:  MOVLW  55
0D228:  MOVWF  FA7
0D22A:  MOVLW  AA
0D22C:  MOVWF  FA7
0D22E:  BSF    FA6.1
0D230:  BTFSC  FA6.1
0D232:  BRA    D230
0D234:  BCF    FA6.2
0D236:  MOVF   00,W
0D238:  IORWF  FF2,F
....................                delay_ms(10); 
0D23A:  MOVLW  0A
0D23C:  MOVLB  7
0D23E:  MOVWF  xE8
0D240:  MOVLB  0
0D242:  CALL   1110
....................                write_eeprom(34,Ajuste); 
0D246:  CLRF   FAA
0D248:  MOVLW  22
0D24A:  MOVWF  FA9
0D24C:  MOVFF  58E,FA8
0D250:  BCF    FA6.6
0D252:  BCF    FA6.7
0D254:  BSF    FA6.2
0D256:  MOVF   FF2,W
0D258:  MOVWF  00
0D25A:  BCF    FF2.6
0D25C:  BCF    FF2.7
0D25E:  MOVLB  F
0D260:  MOVLW  55
0D262:  MOVWF  FA7
0D264:  MOVLW  AA
0D266:  MOVWF  FA7
0D268:  BSF    FA6.1
0D26A:  BTFSC  FA6.1
0D26C:  BRA    D26A
0D26E:  BCF    FA6.2
0D270:  MOVF   00,W
0D272:  IORWF  FF2,F
....................                delay_ms(10); 
0D274:  MOVLW  0A
0D276:  MOVLB  7
0D278:  MOVWF  xE8
0D27A:  MOVLB  0
0D27C:  CALL   1110
....................                write_eeprom(35,Ajusten); 
0D280:  CLRF   FAA
0D282:  MOVLW  23
0D284:  MOVWF  FA9
0D286:  MOVFF  58F,FA8
0D28A:  BCF    FA6.6
0D28C:  BCF    FA6.7
0D28E:  BSF    FA6.2
0D290:  MOVF   FF2,W
0D292:  MOVWF  00
0D294:  BCF    FF2.6
0D296:  BCF    FF2.7
0D298:  MOVLB  F
0D29A:  MOVLW  55
0D29C:  MOVWF  FA7
0D29E:  MOVLW  AA
0D2A0:  MOVWF  FA7
0D2A2:  BSF    FA6.1
0D2A4:  BTFSC  FA6.1
0D2A6:  BRA    D2A4
0D2A8:  BCF    FA6.2
0D2AA:  MOVF   00,W
0D2AC:  IORWF  FF2,F
....................                delay_ms(10); 
0D2AE:  MOVLW  0A
0D2B0:  MOVLB  7
0D2B2:  MOVWF  xE8
0D2B4:  MOVLB  0
0D2B6:  CALL   1110
....................                write_eeprom(36,(int8)MediaMovil); 
0D2BA:  CLRF   FAA
0D2BC:  MOVLW  24
0D2BE:  MOVWF  FA9
0D2C0:  MOVFF  590,FA8
0D2C4:  BCF    FA6.6
0D2C6:  BCF    FA6.7
0D2C8:  BSF    FA6.2
0D2CA:  MOVF   FF2,W
0D2CC:  MOVWF  00
0D2CE:  BCF    FF2.6
0D2D0:  BCF    FF2.7
0D2D2:  MOVLB  F
0D2D4:  MOVLW  55
0D2D6:  MOVWF  FA7
0D2D8:  MOVLW  AA
0D2DA:  MOVWF  FA7
0D2DC:  BSF    FA6.1
0D2DE:  BTFSC  FA6.1
0D2E0:  BRA    D2DE
0D2E2:  BCF    FA6.2
0D2E4:  MOVF   00,W
0D2E6:  IORWF  FF2,F
....................                delay_ms(10); 
0D2E8:  MOVLW  0A
0D2EA:  MOVLB  7
0D2EC:  MOVWF  xE8
0D2EE:  MOVLB  0
0D2F0:  CALL   1110
....................                write_eeprom(33,(int8)Tciclo); 
0D2F4:  MOVFF  5F3,816
0D2F8:  MOVFF  5F2,815
0D2FC:  MOVFF  5F1,814
0D300:  MOVFF  5F0,813
0D304:  CALL   2CD2
0D308:  MOVFF  01,7BA
0D30C:  CLRF   FAA
0D30E:  MOVLW  21
0D310:  MOVWF  FA9
0D312:  MOVFF  7BA,FA8
0D316:  BCF    FA6.6
0D318:  BCF    FA6.7
0D31A:  BSF    FA6.2
0D31C:  MOVF   FF2,W
0D31E:  MOVWF  00
0D320:  BCF    FF2.6
0D322:  BCF    FF2.7
0D324:  MOVLB  F
0D326:  MOVLW  55
0D328:  MOVWF  FA7
0D32A:  MOVLW  AA
0D32C:  MOVWF  FA7
0D32E:  BSF    FA6.1
0D330:  BTFSC  FA6.1
0D332:  BRA    D330
0D334:  BCF    FA6.2
0D336:  MOVF   00,W
0D338:  IORWF  FF2,F
....................                delay_ms(10); 
0D33A:  MOVLW  0A
0D33C:  MOVLB  7
0D33E:  MOVWF  xE8
0D340:  MOVLB  0
0D342:  CALL   1110
....................                GuardaEEPROM=ON; 
0D346:  MOVLB  5
0D348:  BSF    x89.2
....................                Buzzer_on; 
0D34A:  BSF    F8C.7
0D34C:  BCF    F95.7
....................                delay_ms(1000); 
0D34E:  MOVLW  04
0D350:  MOVLB  7
0D352:  MOVWF  xBA
0D354:  MOVLW  FA
0D356:  MOVWF  xE8
0D358:  MOVLB  0
0D35A:  CALL   1110
0D35E:  MOVLB  7
0D360:  DECFSZ xBA,F
0D362:  BRA    D354
....................                Buzzer_off; 
0D364:  BCF    F8C.7
0D366:  BCF    F95.7
0D368:  MOVLB  5
....................             } 
....................             printf("page Principal"); 
0D36A:  MOVLW  6E
0D36C:  MOVWF  FF6
0D36E:  MOVLW  10
0D370:  MOVWF  FF7
0D372:  MOVLW  00
0D374:  MOVWF  FF8
0D376:  MOVLB  0
0D378:  CALL   277A
....................             SendDataDisplay(); 
0D37C:  CALL   27AC
....................          } 
....................       } 
....................       printf("fecha.txt=\"Fecha:%02u/%02u/20%02u    Hora: %02u:%02u\"",Dia,Mes,Year,Hora,Minuto); 
0D380:  MOVLW  7E
0D382:  MOVWF  FF6
0D384:  MOVLW  10
0D386:  MOVWF  FF7
0D388:  MOVLW  00
0D38A:  MOVWF  FF8
0D38C:  MOVLW  11
0D38E:  MOVLB  7
0D390:  MOVWF  xC2
0D392:  MOVLB  0
0D394:  CALL   477C
0D398:  MOVFF  682,7BB
0D39C:  MOVLW  01
0D39E:  MOVLB  7
0D3A0:  MOVWF  xBC
0D3A2:  MOVLB  0
0D3A4:  CALL   47DA
0D3A8:  MOVLW  2F
0D3AA:  BTFSS  F9E.4
0D3AC:  BRA    D3AA
0D3AE:  MOVWF  FAD
0D3B0:  MOVFF  681,7BB
0D3B4:  MOVLW  01
0D3B6:  MOVLB  7
0D3B8:  MOVWF  xBC
0D3BA:  MOVLB  0
0D3BC:  CALL   47DA
0D3C0:  MOVLW  2F
0D3C2:  BTFSS  F9E.4
0D3C4:  BRA    D3C2
0D3C6:  MOVWF  FAD
0D3C8:  MOVLW  32
0D3CA:  BTFSS  F9E.4
0D3CC:  BRA    D3CA
0D3CE:  MOVWF  FAD
0D3D0:  MOVLW  30
0D3D2:  BTFSS  F9E.4
0D3D4:  BRA    D3D2
0D3D6:  MOVWF  FAD
0D3D8:  MOVFF  680,7BB
0D3DC:  MOVLW  01
0D3DE:  MOVLB  7
0D3E0:  MOVWF  xBC
0D3E2:  MOVLB  0
0D3E4:  CALL   47DA
0D3E8:  MOVLW  9F
0D3EA:  MOVWF  FF6
0D3EC:  MOVLW  10
0D3EE:  MOVWF  FF7
0D3F0:  MOVLW  00
0D3F2:  MOVWF  FF8
0D3F4:  MOVLW  0A
0D3F6:  MOVLB  7
0D3F8:  MOVWF  xC2
0D3FA:  MOVLB  0
0D3FC:  CALL   477C
0D400:  MOVFF  683,7BB
0D404:  MOVLW  01
0D406:  MOVLB  7
0D408:  MOVWF  xBC
0D40A:  MOVLB  0
0D40C:  CALL   47DA
0D410:  MOVLW  3A
0D412:  BTFSS  F9E.4
0D414:  BRA    D412
0D416:  MOVWF  FAD
0D418:  MOVFF  684,7BB
0D41C:  MOVLW  01
0D41E:  MOVLB  7
0D420:  MOVWF  xBC
0D422:  MOVLB  0
0D424:  CALL   47DA
0D428:  MOVLW  22
0D42A:  BTFSS  F9E.4
0D42C:  BRA    D42A
0D42E:  MOVWF  FAD
....................       SendDataDisplay();  
0D430:  CALL   27AC
0D434:  MOVLB  5
....................     } 
.................... //_--------------------------------------------------------------------------------------------------------------------------------------------------------        
....................        
....................    } 
0D436:  GOTO   7E44
.................... } 
0D43A:  SLEEP 

Configuration Fuses:
   Word  1: 0200   HS NOIESO NOFCMEN
   Word  2: 1B1F   BROWNOUT WDT BORV20 NOPUT WDT8192
   Word  3: 0000   NOPBADEN NOLPT1OSC NOMCLR
   Word  4: 00B0   NOSTVREN NODEBUG NOLVP NOXINST BBSIZ4K
   Word  5: C03F   NOPROTECT NOCPD NOCPB
   Word  6: E03F   NOWRT NOWRTD NOWRTC NOWRTB
   Word  7: 403F   NOEBTR NOEBTRB
